Archive member included because of file (symbol)

/usr/lib/gcc/avr/4.8.2/avr51/libgcc.a(_exit.o)
                              /usr/lib/gcc/avr/4.8.2/../../../avr/lib/avr51/crtusb1287.o (exit)
/usr/lib/gcc/avr/4.8.2/avr51/libgcc.a(_copy_data.o)
                              AVRISPDescriptors.o (__do_copy_data)
/usr/lib/gcc/avr/4.8.2/avr51/libgcc.a(_clear_bss.o)
                              Lib/V2Protocol.o (__do_clear_bss)
/usr/lib/gcc/avr/4.8.2/../../../avr/lib/avr51/libc.a(eerd_byte_at90usb1287.o)
                              Lib/V2ProtocolParams.o (__eerd_byte_usb1287)
/usr/lib/gcc/avr/4.8.2/../../../avr/lib/avr51/libc.a(eeupd_byte_at90usb1287.o)
                              Lib/V2ProtocolParams.o (__eeupd_byte_usb1287)

Allocating common symbols
Common symbol       size              file

USB_IsInitialized   0x1               ../../LUFA/Drivers/USB/Core/USBTask.o
MustLoadExtendedAddress
                    0x1               Lib/V2Protocol.o
USB_Device_ConfigurationNumber
                    0x1               ../../LUFA/Drivers/USB/Core/DeviceStandardReq.o
USB_ControlRequest  0x8               ../../LUFA/Drivers/USB/Core/USBTask.o
CurrentAddress      0x4               Lib/V2Protocol.o
IsSending           0x1               Lib/XPROG/XPROGTarget.o

Discarded input sections

 .bss           0x0000000000000000        0x0 /usr/lib/gcc/avr/4.8.2/../../../avr/lib/avr51/crtusb1287.o
 .text          0x0000000000000000        0x0 AVRISP-MKII.o
 .bss           0x0000000000000000        0x0 AVRISP-MKII.o
 .text          0x0000000000000000        0x0 AVRISPDescriptors.o
 .bss           0x0000000000000000        0x0 AVRISPDescriptors.o
 .text          0x0000000000000000        0x0 Lib/V2Protocol.o
 .bss           0x0000000000000000        0x0 Lib/V2Protocol.o
 .text          0x0000000000000000        0x0 Lib/V2ProtocolParams.o
 .bss           0x0000000000000000        0x0 Lib/V2ProtocolParams.o
 .text          0x0000000000000000        0x0 Lib/ISP/ISPProtocol.o
 .bss           0x0000000000000000        0x0 Lib/ISP/ISPProtocol.o
 .text          0x0000000000000000        0x0 Lib/ISP/ISPTarget.o
 .text          0x0000000000000000        0x0 Lib/XPROG/XPROGProtocol.o
 .text          0x0000000000000000        0x0 Lib/XPROG/XPROGTarget.o
 .bss           0x0000000000000000        0x0 Lib/XPROG/XPROGTarget.o
 .text          0x0000000000000000        0x0 Lib/XPROG/XMEGANVM.o
 .bss           0x0000000000000000        0x0 Lib/XPROG/XMEGANVM.o
 .text          0x0000000000000000        0x0 Lib/XPROG/TINYNVM.o
 .bss           0x0000000000000000        0x0 Lib/XPROG/TINYNVM.o
 .text          0x0000000000000000        0x0 ../../LUFA/Drivers/USB/Class/Common/HIDParser.o
 .bss           0x0000000000000000        0x0 ../../LUFA/Drivers/USB/Class/Common/HIDParser.o
 .text.USB_ProcessHIDReport
                0x0000000000000000      0x70c ../../LUFA/Drivers/USB/Class/Common/HIDParser.o
 .text.USB_GetHIDReportItemInfo
                0x0000000000000000       0xbc ../../LUFA/Drivers/USB/Class/Common/HIDParser.o
 .text.USB_SetHIDReportItemInfo
                0x0000000000000000       0xec ../../LUFA/Drivers/USB/Class/Common/HIDParser.o
 .text.USB_GetHIDReportSize
                0x0000000000000000       0x60 ../../LUFA/Drivers/USB/Class/Common/HIDParser.o
 .text          0x0000000000000000        0x0 ../../LUFA/Drivers/USB/Core/AVR8/Device_AVR8.o
 .bss           0x0000000000000000        0x0 ../../LUFA/Drivers/USB/Core/AVR8/Device_AVR8.o
 .text.USB_Device_SendRemoteWakeup
                0x0000000000000000       0x2c ../../LUFA/Drivers/USB/Core/AVR8/Device_AVR8.o
 .text          0x0000000000000000        0x0 ../../LUFA/Drivers/USB/Core/AVR8/EndpointStream_AVR8.o
 .bss           0x0000000000000000        0x0 ../../LUFA/Drivers/USB/Core/AVR8/EndpointStream_AVR8.o
 .text.Endpoint_Discard_Stream
                0x0000000000000000       0x7e ../../LUFA/Drivers/USB/Core/AVR8/EndpointStream_AVR8.o
 .text.Endpoint_Null_Stream
                0x0000000000000000       0x7e ../../LUFA/Drivers/USB/Core/AVR8/EndpointStream_AVR8.o
 .text.Endpoint_Write_Stream_BE
                0x0000000000000000       0xa4 ../../LUFA/Drivers/USB/Core/AVR8/EndpointStream_AVR8.o
 .text.Endpoint_Write_PStream_LE
                0x0000000000000000       0x9a ../../LUFA/Drivers/USB/Core/AVR8/EndpointStream_AVR8.o
 .text.Endpoint_Write_PStream_BE
                0x0000000000000000       0xa6 ../../LUFA/Drivers/USB/Core/AVR8/EndpointStream_AVR8.o
 .text.Endpoint_Write_EStream_LE
                0x0000000000000000       0x9c ../../LUFA/Drivers/USB/Core/AVR8/EndpointStream_AVR8.o
 .text.Endpoint_Write_EStream_BE
                0x0000000000000000       0xa8 ../../LUFA/Drivers/USB/Core/AVR8/EndpointStream_AVR8.o
 .text.Endpoint_Read_EStream_LE
                0x0000000000000000       0xa0 ../../LUFA/Drivers/USB/Core/AVR8/EndpointStream_AVR8.o
 .text.Endpoint_Read_EStream_BE
                0x0000000000000000       0xa8 ../../LUFA/Drivers/USB/Core/AVR8/EndpointStream_AVR8.o
 .text.Endpoint_Write_Control_Stream_BE
                0x0000000000000000       0xbe ../../LUFA/Drivers/USB/Core/AVR8/EndpointStream_AVR8.o
 .text.Endpoint_Read_Control_Stream_LE
                0x0000000000000000       0x78 ../../LUFA/Drivers/USB/Core/AVR8/EndpointStream_AVR8.o
 .text.Endpoint_Read_Control_Stream_BE
                0x0000000000000000       0x7c ../../LUFA/Drivers/USB/Core/AVR8/EndpointStream_AVR8.o
 .text.Endpoint_Write_Control_PStream_BE
                0x0000000000000000       0xc2 ../../LUFA/Drivers/USB/Core/AVR8/EndpointStream_AVR8.o
 .text.Endpoint_Write_Control_EStream_BE
                0x0000000000000000       0xee ../../LUFA/Drivers/USB/Core/AVR8/EndpointStream_AVR8.o
 .text.Endpoint_Read_Control_EStream_LE
                0x0000000000000000       0x90 ../../LUFA/Drivers/USB/Core/AVR8/EndpointStream_AVR8.o
 .text.Endpoint_Read_Control_EStream_BE
                0x0000000000000000       0x8e ../../LUFA/Drivers/USB/Core/AVR8/EndpointStream_AVR8.o
 .text          0x0000000000000000        0x0 ../../LUFA/Drivers/USB/Core/AVR8/Endpoint_AVR8.o
 .bss           0x0000000000000000        0x0 ../../LUFA/Drivers/USB/Core/AVR8/Endpoint_AVR8.o
 .text.Endpoint_ConfigureEndpointTable
                0x0000000000000000       0x7c ../../LUFA/Drivers/USB/Core/AVR8/Endpoint_AVR8.o
 .text.Endpoint_ClearEndpoints
                0x0000000000000000       0x28 ../../LUFA/Drivers/USB/Core/AVR8/Endpoint_AVR8.o
 .text          0x0000000000000000        0x0 ../../LUFA/Drivers/USB/Core/AVR8/Host_AVR8.o
 .bss           0x0000000000000000        0x0 ../../LUFA/Drivers/USB/Core/AVR8/Host_AVR8.o
 .text          0x0000000000000000        0x0 ../../LUFA/Drivers/USB/Core/AVR8/PipeStream_AVR8.o
 .bss           0x0000000000000000        0x0 ../../LUFA/Drivers/USB/Core/AVR8/PipeStream_AVR8.o
 .text          0x0000000000000000        0x0 ../../LUFA/Drivers/USB/Core/AVR8/Pipe_AVR8.o
 .bss           0x0000000000000000        0x0 ../../LUFA/Drivers/USB/Core/AVR8/Pipe_AVR8.o
 .text          0x0000000000000000        0x0 ../../LUFA/Drivers/USB/Core/AVR8/USBController_AVR8.o
 .bss           0x0000000000000000        0x0 ../../LUFA/Drivers/USB/Core/AVR8/USBController_AVR8.o
 .text.USB_Disable
                0x0000000000000000       0x34 ../../LUFA/Drivers/USB/Core/AVR8/USBController_AVR8.o
 .text          0x0000000000000000        0x0 ../../LUFA/Drivers/USB/Core/AVR8/USBInterrupt_AVR8.o
 .bss           0x0000000000000000        0x0 ../../LUFA/Drivers/USB/Core/AVR8/USBInterrupt_AVR8.o
 .text          0x0000000000000000        0x0 ../../LUFA/Drivers/USB/Core/ConfigDescriptors.o
 .bss           0x0000000000000000        0x0 ../../LUFA/Drivers/USB/Core/ConfigDescriptors.o
 .text.USB_GetNextDescriptor
                0x0000000000000000       0x38 ../../LUFA/Drivers/USB/Core/ConfigDescriptors.o
 .text.USB_GetNextDescriptorOfType
                0x0000000000000000       0x48 ../../LUFA/Drivers/USB/Core/ConfigDescriptors.o
 .text.USB_GetNextDescriptorOfTypeBefore
                0x0000000000000000       0x58 ../../LUFA/Drivers/USB/Core/ConfigDescriptors.o
 .text.USB_GetNextDescriptorOfTypeAfter
                0x0000000000000000       0x3e ../../LUFA/Drivers/USB/Core/ConfigDescriptors.o
 .text.USB_GetNextDescriptorComp
                0x0000000000000000       0x66 ../../LUFA/Drivers/USB/Core/ConfigDescriptors.o
 .text          0x0000000000000000        0x0 ../../LUFA/Drivers/USB/Core/DeviceStandardReq.o
 .bss           0x0000000000000000        0x0 ../../LUFA/Drivers/USB/Core/DeviceStandardReq.o
 .text          0x0000000000000000        0x0 ../../LUFA/Drivers/USB/Core/Events.o
 .bss           0x0000000000000000        0x0 ../../LUFA/Drivers/USB/Core/Events.o
 .text          0x0000000000000000        0x0 ../../LUFA/Drivers/USB/Core/HostStandardReq.o
 .bss           0x0000000000000000        0x0 ../../LUFA/Drivers/USB/Core/HostStandardReq.o
 .text          0x0000000000000000        0x0 ../../LUFA/Drivers/USB/Core/USBTask.o
 .bss           0x0000000000000000        0x0 ../../LUFA/Drivers/USB/Core/USBTask.o
 .text          0x0000000000000000        0x0 /usr/lib/gcc/avr/4.8.2/avr51/libgcc.a(_exit.o)
 .bss           0x0000000000000000        0x0 /usr/lib/gcc/avr/4.8.2/avr51/libgcc.a(_exit.o)
 .text.libgcc.mul
                0x0000000000000000        0x0 /usr/lib/gcc/avr/4.8.2/avr51/libgcc.a(_exit.o)
 .text.libgcc.div
                0x0000000000000000        0x0 /usr/lib/gcc/avr/4.8.2/avr51/libgcc.a(_exit.o)
 .text.libgcc   0x0000000000000000        0x0 /usr/lib/gcc/avr/4.8.2/avr51/libgcc.a(_exit.o)
 .text.libgcc.prologue
                0x0000000000000000        0x0 /usr/lib/gcc/avr/4.8.2/avr51/libgcc.a(_exit.o)
 .text.libgcc.builtins
                0x0000000000000000        0x0 /usr/lib/gcc/avr/4.8.2/avr51/libgcc.a(_exit.o)
 .text.libgcc.fmul
                0x0000000000000000        0x0 /usr/lib/gcc/avr/4.8.2/avr51/libgcc.a(_exit.o)
 .text.libgcc.fixed
                0x0000000000000000        0x0 /usr/lib/gcc/avr/4.8.2/avr51/libgcc.a(_exit.o)
 .text          0x0000000000000000        0x0 /usr/lib/gcc/avr/4.8.2/avr51/libgcc.a(_copy_data.o)
 .bss           0x0000000000000000        0x0 /usr/lib/gcc/avr/4.8.2/avr51/libgcc.a(_copy_data.o)
 .text.libgcc.mul
                0x0000000000000000        0x0 /usr/lib/gcc/avr/4.8.2/avr51/libgcc.a(_copy_data.o)
 .text.libgcc.div
                0x0000000000000000        0x0 /usr/lib/gcc/avr/4.8.2/avr51/libgcc.a(_copy_data.o)
 .text.libgcc   0x0000000000000000        0x0 /usr/lib/gcc/avr/4.8.2/avr51/libgcc.a(_copy_data.o)
 .text.libgcc.prologue
                0x0000000000000000        0x0 /usr/lib/gcc/avr/4.8.2/avr51/libgcc.a(_copy_data.o)
 .text.libgcc.builtins
                0x0000000000000000        0x0 /usr/lib/gcc/avr/4.8.2/avr51/libgcc.a(_copy_data.o)
 .text.libgcc.fmul
                0x0000000000000000        0x0 /usr/lib/gcc/avr/4.8.2/avr51/libgcc.a(_copy_data.o)
 .text.libgcc.fixed
                0x0000000000000000        0x0 /usr/lib/gcc/avr/4.8.2/avr51/libgcc.a(_copy_data.o)
 .text          0x0000000000000000        0x0 /usr/lib/gcc/avr/4.8.2/avr51/libgcc.a(_clear_bss.o)
 .bss           0x0000000000000000        0x0 /usr/lib/gcc/avr/4.8.2/avr51/libgcc.a(_clear_bss.o)
 .text.libgcc.mul
                0x0000000000000000        0x0 /usr/lib/gcc/avr/4.8.2/avr51/libgcc.a(_clear_bss.o)
 .text.libgcc.div
                0x0000000000000000        0x0 /usr/lib/gcc/avr/4.8.2/avr51/libgcc.a(_clear_bss.o)
 .text.libgcc   0x0000000000000000        0x0 /usr/lib/gcc/avr/4.8.2/avr51/libgcc.a(_clear_bss.o)
 .text.libgcc.prologue
                0x0000000000000000        0x0 /usr/lib/gcc/avr/4.8.2/avr51/libgcc.a(_clear_bss.o)
 .text.libgcc.builtins
                0x0000000000000000        0x0 /usr/lib/gcc/avr/4.8.2/avr51/libgcc.a(_clear_bss.o)
 .text.libgcc.fmul
                0x0000000000000000        0x0 /usr/lib/gcc/avr/4.8.2/avr51/libgcc.a(_clear_bss.o)
 .text.libgcc.fixed
                0x0000000000000000        0x0 /usr/lib/gcc/avr/4.8.2/avr51/libgcc.a(_clear_bss.o)
 .text          0x0000000000000000        0x0 /usr/lib/gcc/avr/4.8.2/../../../avr/lib/avr51/libc.a(eerd_byte_at90usb1287.o)
 .bss           0x0000000000000000        0x0 /usr/lib/gcc/avr/4.8.2/../../../avr/lib/avr51/libc.a(eerd_byte_at90usb1287.o)
 .text          0x0000000000000000        0x0 /usr/lib/gcc/avr/4.8.2/../../../avr/lib/avr51/libc.a(eeupd_byte_at90usb1287.o)
 .bss           0x0000000000000000        0x0 /usr/lib/gcc/avr/4.8.2/../../../avr/lib/avr51/libc.a(eeupd_byte_at90usb1287.o)

Memory Configuration

Name             Origin             Length             Attributes
text             0x0000000000000000 0x0000000000020000 xr
data             0x0000000000800100 0x000000000000ff00 rw !x
eeprom           0x0000000000810000 0x0000000000010000 rw !x
fuse             0x0000000000820000 0x0000000000000400 rw !x
lock             0x0000000000830000 0x0000000000000400 rw !x
signature        0x0000000000840000 0x0000000000000400 rw !x
user_signatures  0x0000000000850000 0x0000000000000400 rw !x
*default*        0x0000000000000000 0xffffffffffffffff

Linker script and memory map

Address of section .data set to 0x800100
LOAD /usr/lib/gcc/avr/4.8.2/../../../avr/lib/avr51/crtusb1287.o
LOAD AVRISP-MKII.o
LOAD AVRISPDescriptors.o
LOAD Lib/V2Protocol.o
LOAD Lib/V2ProtocolParams.o
LOAD Lib/ISP/ISPProtocol.o
LOAD Lib/ISP/ISPTarget.o
LOAD Lib/XPROG/XPROGProtocol.o
LOAD Lib/XPROG/XPROGTarget.o
LOAD Lib/XPROG/XMEGANVM.o
LOAD Lib/XPROG/TINYNVM.o
LOAD ../../LUFA/Drivers/USB/Class/Common/HIDParser.o
LOAD ../../LUFA/Drivers/USB/Core/AVR8/Device_AVR8.o
LOAD ../../LUFA/Drivers/USB/Core/AVR8/EndpointStream_AVR8.o
LOAD ../../LUFA/Drivers/USB/Core/AVR8/Endpoint_AVR8.o
LOAD ../../LUFA/Drivers/USB/Core/AVR8/Host_AVR8.o
LOAD ../../LUFA/Drivers/USB/Core/AVR8/PipeStream_AVR8.o
LOAD ../../LUFA/Drivers/USB/Core/AVR8/Pipe_AVR8.o
LOAD ../../LUFA/Drivers/USB/Core/AVR8/USBController_AVR8.o
LOAD ../../LUFA/Drivers/USB/Core/AVR8/USBInterrupt_AVR8.o
LOAD ../../LUFA/Drivers/USB/Core/ConfigDescriptors.o
LOAD ../../LUFA/Drivers/USB/Core/DeviceStandardReq.o
LOAD ../../LUFA/Drivers/USB/Core/Events.o
LOAD ../../LUFA/Drivers/USB/Core/HostStandardReq.o
LOAD ../../LUFA/Drivers/USB/Core/USBTask.o
LOAD /usr/lib/gcc/avr/4.8.2/../../../avr/lib/avr51/libm.a
START GROUP
LOAD /usr/lib/gcc/avr/4.8.2/avr51/libgcc.a
LOAD /usr/lib/gcc/avr/4.8.2/../../../avr/lib/avr51/libm.a
LOAD /usr/lib/gcc/avr/4.8.2/../../../avr/lib/avr51/libc.a
END GROUP

.hash
 *(.hash)

.dynsym
 *(.dynsym)

.dynstr
 *(.dynstr)

.gnu.version
 *(.gnu.version)

.gnu.version_d
 *(.gnu.version_d)

.gnu.version_r
 *(.gnu.version_r)

.rel.init
 *(.rel.init)

.rela.init
 *(.rela.init)

.rel.text
 *(.rel.text)
 *(.rel.text.*)
 *(.rel.gnu.linkonce.t*)

.rela.text
 *(.rela.text)
 *(.rela.text.*)
 *(.rela.gnu.linkonce.t*)

.rel.fini
 *(.rel.fini)

.rela.fini
 *(.rela.fini)

.rel.rodata
 *(.rel.rodata)
 *(.rel.rodata.*)
 *(.rel.gnu.linkonce.r*)

.rela.rodata
 *(.rela.rodata)
 *(.rela.rodata.*)
 *(.rela.gnu.linkonce.r*)

.rel.data
 *(.rel.data)
 *(.rel.data.*)
 *(.rel.gnu.linkonce.d*)

.rela.data
 *(.rela.data)
 *(.rela.data.*)
 *(.rela.gnu.linkonce.d*)

.rel.ctors
 *(.rel.ctors)

.rela.ctors
 *(.rela.ctors)

.rel.dtors
 *(.rel.dtors)

.rela.dtors
 *(.rela.dtors)

.rel.got
 *(.rel.got)

.rela.got
 *(.rela.got)

.rel.bss
 *(.rel.bss)

.rela.bss
 *(.rela.bss)

.rel.plt
 *(.rel.plt)

.rela.plt
 *(.rela.plt)

.text           0x0000000000000000     0x28aa
 *(.vectors)
 .vectors       0x0000000000000000       0x98 /usr/lib/gcc/avr/4.8.2/../../../avr/lib/avr51/crtusb1287.o
                0x0000000000000000                __vectors
                0x0000000000000000                __vector_default
 *(.vectors)
 *(.progmem.gcc*)
 *(.progmem*)
 .progmem.data  0x0000000000000098       0x3e AVRISPDescriptors.o
                0x0000000000000098                AVRISP_ProductString
                0x00000000000000b2                AVRISP_ManufacturerString
                0x00000000000000c0                AVRISP_LanguageString
                0x00000000000000c4                AVRISP_DeviceDescriptor
 .progmem.data  0x00000000000000d6      0x141 Lib/ISP/ISPTarget.o
                0x0000000000000218                . = ALIGN (0x2)
 *fill*         0x0000000000000217        0x1 
                0x0000000000000218                __trampolines_start = .
 *(.trampolines)
 .trampolines   0x0000000000000218        0x0 linker stubs
 *(.trampolines*)
                0x0000000000000218                __trampolines_end = .
 *(.jumptables)
 *(.jumptables*)
 *(.lowtext)
 *(.lowtext*)
                0x0000000000000218                __ctors_start = .
 *(.ctors)
                0x0000000000000218                __ctors_end = .
                0x0000000000000218                __dtors_start = .
 *(.dtors)
                0x0000000000000218                __dtors_end = .
 SORT(*)(.ctors)
 SORT(*)(.dtors)
 *(.init0)
 .init0         0x0000000000000218        0x0 /usr/lib/gcc/avr/4.8.2/../../../avr/lib/avr51/crtusb1287.o
                0x0000000000000218                __init
 *(.init0)
 *(.init1)
 *(.init1)
 *(.init2)
 .init2         0x0000000000000218        0xc /usr/lib/gcc/avr/4.8.2/../../../avr/lib/avr51/crtusb1287.o
 *(.init2)
 *(.init3)
 *(.init3)
 *(.init4)
 .init4         0x0000000000000224       0x1a /usr/lib/gcc/avr/4.8.2/avr51/libgcc.a(_copy_data.o)
                0x0000000000000224                __do_copy_data
 .init4         0x000000000000023e       0x10 /usr/lib/gcc/avr/4.8.2/avr51/libgcc.a(_clear_bss.o)
                0x000000000000023e                __do_clear_bss
 *(.init4)
 *(.init5)
 *(.init5)
 *(.init6)
 *(.init6)
 *(.init7)
 *(.init7)
 *(.init8)
 *(.init8)
 *(.init9)
 .init9         0x000000000000024e        0x6 /usr/lib/gcc/avr/4.8.2/../../../avr/lib/avr51/crtusb1287.o
 *(.init9)
 *(.text)
 .text          0x0000000000000254        0x2 /usr/lib/gcc/avr/4.8.2/../../../avr/lib/avr51/crtusb1287.o
                0x0000000000000254                __vector_22
                0x0000000000000254                __vector_28
                0x0000000000000254                __vector_1
                0x0000000000000254                __vector_32
                0x0000000000000254                __vector_34
                0x0000000000000254                __vector_24
                0x0000000000000254                __vector_12
                0x0000000000000254                __bad_interrupt
                0x0000000000000254                __vector_6
                0x0000000000000254                __vector_31
                0x0000000000000254                __vector_35
                0x0000000000000254                __vector_3
                0x0000000000000254                __vector_23
                0x0000000000000254                __vector_30
                0x0000000000000254                __vector_25
                0x0000000000000254                __vector_11
                0x0000000000000254                __vector_13
                0x0000000000000254                __vector_19
                0x0000000000000254                __vector_7
                0x0000000000000254                __vector_27
                0x0000000000000254                __vector_5
                0x0000000000000254                __vector_33
                0x0000000000000254                __vector_37
                0x0000000000000254                __vector_4
                0x0000000000000254                __vector_9
                0x0000000000000254                __vector_2
                0x0000000000000254                __vector_15
                0x0000000000000254                __vector_36
                0x0000000000000254                __vector_29
                0x0000000000000254                __vector_8
                0x0000000000000254                __vector_26
                0x0000000000000254                __vector_14
                0x0000000000000254                __vector_16
                0x0000000000000254                __vector_18
                0x0000000000000254                __vector_20
                0x0000000000000256                . = ALIGN (0x2)
 *(.text.*)
 .text.LEDs_SetAllLEDs
                0x0000000000000256        0xa AVRISP-MKII.o
 .text.SetupHardware
                0x0000000000000260       0x38 AVRISP-MKII.o
                0x0000000000000260                SetupHardware
 .text.EVENT_USB_Device_Connect
                0x0000000000000298        0x4 AVRISP-MKII.o
                0x0000000000000298                EVENT_USB_Device_Connect
 .text.EVENT_USB_Device_Disconnect
                0x000000000000029c        0x4 AVRISP-MKII.o
                0x000000000000029c                EVENT_USB_Device_Disconnect
 .text.EVENT_USB_Device_ConfigurationChanged
                0x00000000000002a0       0x2a AVRISP-MKII.o
                0x00000000000002a0                EVENT_USB_Device_ConfigurationChanged
 .text.AVRISP_Task
                0x00000000000002ca       0x22 AVRISP-MKII.o
                0x00000000000002ca                AVRISP_Task
 .text.startup.main
                0x00000000000002ec       0x12 AVRISP-MKII.o
                0x00000000000002ec                main
 .text.CALLBACK_USB_GetDescriptor
                0x00000000000002fe        0x2 AVRISP-MKII.o
                0x00000000000002fe                CALLBACK_USB_GetDescriptor
 .text.AVRISP_GetDescriptor
                0x0000000000000300       0x8e AVRISPDescriptors.o
                0x0000000000000300                AVRISP_GetDescriptor
 .text.__vector_21
                0x000000000000038e       0x2a Lib/V2Protocol.o
                0x000000000000038e                __vector_21
 .text.V2Protocol_Init
                0x00000000000003b8       0x30 Lib/V2Protocol.o
                0x00000000000003b8                V2Protocol_Init
 .text.V2Protocol_ProcessCommand
                0x00000000000003e8      0x228 Lib/V2Protocol.o
                0x00000000000003e8                V2Protocol_ProcessCommand
 .text.V2Params_GetParamFromTable
                0x0000000000000610       0x1e Lib/V2ProtocolParams.o
 .text.V2Params_LoadNonVolatileParamValues
                0x000000000000062e       0x36 Lib/V2ProtocolParams.o
                0x000000000000062e                V2Params_LoadNonVolatileParamValues
 .text.V2Params_UpdateParamValues
                0x0000000000000664       0x2e Lib/V2ProtocolParams.o
                0x0000000000000664                V2Params_UpdateParamValues
 .text.V2Params_GetParameterPrivileges
                0x0000000000000692       0x10 Lib/V2ProtocolParams.o
                0x0000000000000692                V2Params_GetParameterPrivileges
 .text.V2Params_GetParameterValue
                0x00000000000006a2       0x10 Lib/V2ProtocolParams.o
                0x00000000000006a2                V2Params_GetParameterValue
 .text.V2Params_SetParameterValue
                0x00000000000006b2       0x44 Lib/V2ProtocolParams.o
                0x00000000000006b2                V2Params_SetParameterValue
 .text.ISPTarget_TransferByte
                0x00000000000006f6       0x16 Lib/ISP/ISPProtocol.o
 .text.ISPTarget_SendByte
                0x000000000000070c       0x14 Lib/ISP/ISPProtocol.o
 .text.ISPTarget_ReceiveByte
                0x0000000000000720       0x18 Lib/ISP/ISPProtocol.o
 .text.ISPProtocol_ProgramMemory
                0x0000000000000738      0x276 Lib/ISP/ISPProtocol.o
                0x0000000000000738                ISPProtocol_ProgramMemory
 .text.ISPProtocol_ReadMemory
                0x00000000000009ae      0x13c Lib/ISP/ISPProtocol.o
                0x00000000000009ae                ISPProtocol_ReadMemory
 .text.ISPProtocol_ReadFuseLockSigOSCCAL
                0x0000000000000aea       0xb6 Lib/ISP/ISPProtocol.o
                0x0000000000000aea                ISPProtocol_ReadFuseLockSigOSCCAL
 .text.ISPProtocol_WriteFuseLock
                0x0000000000000ba0       0x8c Lib/ISP/ISPProtocol.o
                0x0000000000000ba0                ISPProtocol_WriteFuseLock
 .text.ISPProtocol_SPIMulti
                0x0000000000000c2c      0x114 Lib/ISP/ISPProtocol.o
                0x0000000000000c2c                ISPProtocol_SPIMulti
 .text.ISPProtocol_DelayMS
                0x0000000000000d40       0x1c Lib/ISP/ISPProtocol.o
                0x0000000000000d40                ISPProtocol_DelayMS
 .text.ISPProtocol_EnterISPMode
                0x0000000000000d5c      0x106 Lib/ISP/ISPProtocol.o
                0x0000000000000d5c                ISPProtocol_EnterISPMode
 .text.ISPProtocol_LeaveISPMode
                0x0000000000000e62       0x68 Lib/ISP/ISPProtocol.o
                0x0000000000000e62                ISPProtocol_LeaveISPMode
 .text.ISPProtocol_ChipErase
                0x0000000000000eca       0x9a Lib/ISP/ISPProtocol.o
                0x0000000000000eca                ISPProtocol_ChipErase
 .text.__vector_17
                0x0000000000000f64       0x5c Lib/ISP/ISPTarget.o
                0x0000000000000f64                __vector_17
 .text.ISPTarget_ConfigureRescueClock
                0x0000000000000fc0       0x24 Lib/ISP/ISPTarget.o
                0x0000000000000fc0                ISPTarget_ConfigureRescueClock
 .text.ISPTarget_DisableTargetISP
                0x0000000000000fe4       0x28 Lib/ISP/ISPTarget.o
                0x0000000000000fe4                ISPTarget_DisableTargetISP
 .text.ISPTarget_ConfigureSoftwareSPI
                0x000000000000100c       0x30 Lib/ISP/ISPTarget.o
                0x000000000000100c                ISPTarget_ConfigureSoftwareSPI
 .text.ISPTarget_EnableTargetISP
                0x000000000000103c       0x4e Lib/ISP/ISPTarget.o
                0x000000000000103c                ISPTarget_EnableTargetISP
 .text.ISPTarget_TransferSoftSPIByte
                0x000000000000108a       0x3e Lib/ISP/ISPTarget.o
                0x000000000000108a                ISPTarget_TransferSoftSPIByte
 .text.ISPTarget_SendByte
                0x00000000000010c8       0x14 Lib/ISP/ISPTarget.o
 .text.ISPTarget_ChangeTargetResetLine
                0x00000000000010dc       0x18 Lib/ISP/ISPTarget.o
                0x00000000000010dc                ISPTarget_ChangeTargetResetLine
 .text.ISPTarget_WaitWhileTargetBusy
                0x00000000000010f4       0x3c Lib/ISP/ISPTarget.o
                0x00000000000010f4                ISPTarget_WaitWhileTargetBusy
 .text.ISPTarget_LoadExtendedAddress
                0x0000000000001130       0x12 Lib/ISP/ISPTarget.o
                0x0000000000001130                ISPTarget_LoadExtendedAddress
 .text.ISPTarget_WaitForProgComplete
                0x0000000000001142       0x8c Lib/ISP/ISPTarget.o
                0x0000000000001142                ISPTarget_WaitForProgComplete
 .text.SwapEndian_32
                0x00000000000011ce        0xc Lib/XPROG/XPROGProtocol.o
 .text.XPROGProtocol_WriteMemory
                0x00000000000011da      0x14c Lib/XPROG/XPROGProtocol.o
 .text.XPROGProtocol_ReadMemory
                0x0000000000001326      0x122 Lib/XPROG/XPROGProtocol.o
 .text.XPROGProtocol_SetMode
                0x0000000000001448       0x60 Lib/XPROG/XPROGProtocol.o
                0x0000000000001448                XPROGProtocol_SetMode
 .text.XPROGProtocol_Command
                0x00000000000014a8      0x28c Lib/XPROG/XPROGProtocol.o
                0x00000000000014a8                XPROGProtocol_Command
 .text.XPROGTarget_SetTxMode
                0x0000000000001734       0x2c Lib/XPROG/XPROGTarget.o
 .text.XPROGTarget_SetRxMode
                0x0000000000001760       0x30 Lib/XPROG/XPROGTarget.o
 .text.XPROGTarget_DisableTargetPDI
                0x0000000000001790       0x24 Lib/XPROG/XPROGTarget.o
                0x0000000000001790                XPROGTarget_DisableTargetPDI
 .text.XPROGTarget_DisableTargetTPI
                0x00000000000017b4       0x2c Lib/XPROG/XPROGTarget.o
                0x00000000000017b4                XPROGTarget_DisableTargetTPI
 .text.XPROGTarget_SendByte
                0x00000000000017e0       0x36 Lib/XPROG/XPROGTarget.o
                0x00000000000017e0                XPROGTarget_SendByte
 .text.XPROGTarget_ReceiveByte
                0x0000000000001816       0x1c Lib/XPROG/XPROGTarget.o
                0x0000000000001816                XPROGTarget_ReceiveByte
 .text.XPROGTarget_SendIdle
                0x0000000000001832       0x1e Lib/XPROG/XPROGTarget.o
                0x0000000000001832                XPROGTarget_SendIdle
 .text.XPROGTarget_EnableTargetPDI
                0x0000000000001850       0x36 Lib/XPROG/XPROGTarget.o
                0x0000000000001850                XPROGTarget_EnableTargetPDI
 .text.XPROGTarget_EnableTargetTPI
                0x0000000000001886       0x38 Lib/XPROG/XPROGTarget.o
                0x0000000000001886                XPROGTarget_EnableTargetTPI
 .text.XMEGANVM_SendAddress
                0x00000000000018be       0x30 Lib/XPROG/XMEGANVM.o
 .text.XMEGANVM_SendNVMRegAddress
                0x00000000000018ee       0x18 Lib/XPROG/XMEGANVM.o
 .text.XMEGANVM_WaitWhileNVMBusBusy
                0x0000000000001906       0x18 Lib/XPROG/XMEGANVM.o
                0x0000000000001906                XMEGANVM_WaitWhileNVMBusBusy
 .text.XMEGANVM_WaitWhileNVMControllerBusy
                0x000000000000191e       0x20 Lib/XPROG/XMEGANVM.o
                0x000000000000191e                XMEGANVM_WaitWhileNVMControllerBusy
 .text.XMEGANVM_EnablePDI
                0x000000000000193e       0x7e Lib/XPROG/XMEGANVM.o
                0x000000000000193e                XMEGANVM_EnablePDI
 .text.XMEGANVM_DisablePDI
                0x00000000000019bc       0x16 Lib/XPROG/XMEGANVM.o
                0x00000000000019bc                XMEGANVM_DisablePDI
 .text.XMEGANVM_GetMemoryCRC
                0x00000000000019d2       0x6c Lib/XPROG/XMEGANVM.o
                0x00000000000019d2                XMEGANVM_GetMemoryCRC
 .text.XMEGANVM_ReadMemory
                0x0000000000001a3e       0x88 Lib/XPROG/XMEGANVM.o
                0x0000000000001a3e                XMEGANVM_ReadMemory
 .text.XMEGANVM_WriteByteMemory
                0x0000000000001ac6       0x5e Lib/XPROG/XMEGANVM.o
                0x0000000000001ac6                XMEGANVM_WriteByteMemory
 .text.XMEGANVM_WritePageMemory
                0x0000000000001b24       0xe4 Lib/XPROG/XMEGANVM.o
                0x0000000000001b24                XMEGANVM_WritePageMemory
 .text.XMEGANVM_EraseMemory
                0x0000000000001c08      0x108 Lib/XPROG/XMEGANVM.o
                0x0000000000001c08                XMEGANVM_EraseMemory
 .text.TINYNVM_SendWriteNVMRegister
                0x0000000000001d10        0xe Lib/XPROG/TINYNVM.o
 .text.TINYNVM_SendPointerAddress
                0x0000000000001d1e       0x2a Lib/XPROG/TINYNVM.o
 .text.TINYNVM_WaitWhileNVMBusBusy
                0x0000000000001d48       0x18 Lib/XPROG/TINYNVM.o
                0x0000000000001d48                TINYNVM_WaitWhileNVMBusBusy
 .text.TINYNVM_WaitWhileNVMControllerBusy
                0x0000000000001d60       0x26 Lib/XPROG/TINYNVM.o
                0x0000000000001d60                TINYNVM_WaitWhileNVMControllerBusy
 .text.TINYNVM_EnableTPI
                0x0000000000001d86       0x76 Lib/XPROG/TINYNVM.o
                0x0000000000001d86                TINYNVM_EnableTPI
 .text.TINYNVM_DisableTPI
                0x0000000000001dfc       0x16 Lib/XPROG/TINYNVM.o
                0x0000000000001dfc                TINYNVM_DisableTPI
 .text.TINYNVM_ReadMemory
                0x0000000000001e12       0x5a Lib/XPROG/TINYNVM.o
                0x0000000000001e12                TINYNVM_ReadMemory
 .text.TINYNVM_WriteMemory
                0x0000000000001e6c       0x76 Lib/XPROG/TINYNVM.o
                0x0000000000001e6c                TINYNVM_WriteMemory
 .text.TINYNVM_EraseMemory
                0x0000000000001ee2       0x3a Lib/XPROG/TINYNVM.o
                0x0000000000001ee2                TINYNVM_EraseMemory
 .text.Endpoint_Write_Stream_LE
                0x0000000000001f1c       0x90 ../../LUFA/Drivers/USB/Core/AVR8/EndpointStream_AVR8.o
                0x0000000000001f1c                Endpoint_Write_Stream_LE
 .text.Endpoint_Read_Stream_LE
                0x0000000000001fac       0x90 ../../LUFA/Drivers/USB/Core/AVR8/EndpointStream_AVR8.o
                0x0000000000001fac                Endpoint_Read_Stream_LE
 .text.Endpoint_Read_Stream_BE
                0x000000000000203c       0x9e ../../LUFA/Drivers/USB/Core/AVR8/EndpointStream_AVR8.o
                0x000000000000203c                Endpoint_Read_Stream_BE
 .text.Endpoint_Write_Control_Stream_LE
                0x00000000000020da       0xb6 ../../LUFA/Drivers/USB/Core/AVR8/EndpointStream_AVR8.o
                0x00000000000020da                Endpoint_Write_Control_Stream_LE
 .text.Endpoint_Write_Control_PStream_LE
                0x0000000000002190       0xbc ../../LUFA/Drivers/USB/Core/AVR8/EndpointStream_AVR8.o
                0x0000000000002190                Endpoint_Write_Control_PStream_LE
 .text.Endpoint_Write_Control_EStream_LE
                0x000000000000224c       0xde ../../LUFA/Drivers/USB/Core/AVR8/EndpointStream_AVR8.o
                0x000000000000224c                Endpoint_Write_Control_EStream_LE
 .text.Endpoint_ConfigureEndpoint_Prv
                0x000000000000232a       0x28 ../../LUFA/Drivers/USB/Core/AVR8/Endpoint_AVR8.o
                0x000000000000232a                Endpoint_ConfigureEndpoint_Prv
 .text.Endpoint_ClearStatusStage
                0x0000000000002352       0x3e ../../LUFA/Drivers/USB/Core/AVR8/Endpoint_AVR8.o
                0x0000000000002352                Endpoint_ClearStatusStage
 .text.Endpoint_WaitUntilReady
                0x0000000000002390       0x5e ../../LUFA/Drivers/USB/Core/AVR8/Endpoint_AVR8.o
                0x0000000000002390                Endpoint_WaitUntilReady
 .text.USB_ResetInterface
                0x00000000000023ee       0x80 ../../LUFA/Drivers/USB/Core/AVR8/USBController_AVR8.o
                0x00000000000023ee                USB_ResetInterface
 .text.USB_Init
                0x000000000000246e       0x1c ../../LUFA/Drivers/USB/Core/AVR8/USBController_AVR8.o
                0x000000000000246e                USB_Init
 .text.USB_INT_DisableAllInterrupts
                0x000000000000248a       0x10 ../../LUFA/Drivers/USB/Core/AVR8/USBInterrupt_AVR8.o
                0x000000000000248a                USB_INT_DisableAllInterrupts
 .text.USB_INT_ClearAllInterrupts
                0x000000000000249a        0xa ../../LUFA/Drivers/USB/Core/AVR8/USBInterrupt_AVR8.o
                0x000000000000249a                USB_INT_ClearAllInterrupts
 .text.__vector_10
                0x00000000000024a4      0x172 ../../LUFA/Drivers/USB/Core/AVR8/USBInterrupt_AVR8.o
                0x00000000000024a4                __vector_10
 .text.USB_Device_ProcessControlRequest
                0x0000000000002616      0x224 ../../LUFA/Drivers/USB/Core/DeviceStandardReq.o
                0x0000000000002616                USB_Device_ProcessControlRequest
 .text.USB_Event_Stub
                0x000000000000283a        0x2 ../../LUFA/Drivers/USB/Core/Events.o
                0x000000000000283a                EVENT_USB_Device_WakeUp
                0x000000000000283a                USB_Event_Stub
                0x000000000000283a                EVENT_USB_Device_Suspend
                0x000000000000283a                EVENT_USB_Device_StartOfFrame
                0x000000000000283a                EVENT_USB_Device_Reset
                0x000000000000283a                EVENT_USB_Device_ControlRequest
 .text.USB_USBTask
                0x000000000000283c       0x36 ../../LUFA/Drivers/USB/Core/USBTask.o
                0x000000000000283c                USB_USBTask
 .text.avr-libc
                0x0000000000002872       0x10 /usr/lib/gcc/avr/4.8.2/../../../avr/lib/avr51/libc.a(eerd_byte_at90usb1287.o)
                0x0000000000002872                __eerd_byte_usb1287
 .text.avr-libc
                0x0000000000002882       0x24 /usr/lib/gcc/avr/4.8.2/../../../avr/lib/avr51/libc.a(eeupd_byte_at90usb1287.o)
                0x0000000000002882                __eeupd_byte_usb1287
                0x0000000000002884                __eeupd_r18_usb1287
                0x00000000000028a6                . = ALIGN (0x2)
 *(.fini9)
 .fini9         0x00000000000028a6        0x0 /usr/lib/gcc/avr/4.8.2/avr51/libgcc.a(_exit.o)
                0x00000000000028a6                exit
                0x00000000000028a6                _exit
 *(.fini9)
 *(.fini8)
 *(.fini8)
 *(.fini7)
 *(.fini7)
 *(.fini6)
 *(.fini6)
 *(.fini5)
 *(.fini5)
 *(.fini4)
 *(.fini4)
 *(.fini3)
 *(.fini3)
 *(.fini2)
 *(.fini2)
 *(.fini1)
 *(.fini1)
 *(.fini0)
 .fini0         0x00000000000028a6        0x4 /usr/lib/gcc/avr/4.8.2/avr51/libgcc.a(_exit.o)
 *(.fini0)
                0x00000000000028aa                _etext = .

.data           0x0000000000800100       0xa0 load address 0x00000000000028aa
                0x0000000000800100                PROVIDE (__data_start, .)
 *(.data)
 .data          0x0000000000800100        0x0 /usr/lib/gcc/avr/4.8.2/../../../avr/lib/avr51/crtusb1287.o
 .data          0x0000000000800100        0x0 AVRISP-MKII.o
 .data          0x0000000000800100       0x3e AVRISPDescriptors.o
                0x0000000000800100                AVRISP_SerialString
                0x000000000080011e                AVRISP_ConfigurationDescriptor
 .data          0x000000000080013e        0x0 Lib/V2Protocol.o
 .data          0x000000000080013e       0x1e Lib/V2ProtocolParams.o
 .data          0x000000000080015c        0x0 Lib/ISP/ISPProtocol.o
 .data          0x000000000080015c        0x1 Lib/ISP/ISPTarget.o
                0x000000000080015c                HardwareSPIMode
 .data          0x000000000080015d        0x8 Lib/XPROG/XPROGProtocol.o
                0x000000000080015d                XPROG_Param_NVMCSRRegAddr
                0x000000000080015e                XPROG_Param_NVMCMDRegAddr
                0x000000000080015f                XPROG_Param_EEPageSize
                0x0000000000800161                XPROG_Param_NVMBase
 .data          0x0000000000800165        0x0 Lib/XPROG/XPROGTarget.o
 .data          0x0000000000800165        0x0 Lib/XPROG/XMEGANVM.o
 .data          0x0000000000800165        0x0 Lib/XPROG/TINYNVM.o
 .data          0x0000000000800165        0x0 ../../LUFA/Drivers/USB/Class/Common/HIDParser.o
 .data          0x0000000000800165        0x0 ../../LUFA/Drivers/USB/Core/AVR8/Device_AVR8.o
 .data          0x0000000000800165        0x0 ../../LUFA/Drivers/USB/Core/AVR8/EndpointStream_AVR8.o
 .data          0x0000000000800165        0x0 ../../LUFA/Drivers/USB/Core/AVR8/Endpoint_AVR8.o
 .data          0x0000000000800165        0x0 ../../LUFA/Drivers/USB/Core/AVR8/Host_AVR8.o
 .data          0x0000000000800165        0x0 ../../LUFA/Drivers/USB/Core/AVR8/PipeStream_AVR8.o
 .data          0x0000000000800165        0x0 ../../LUFA/Drivers/USB/Core/AVR8/Pipe_AVR8.o
 .data          0x0000000000800165        0x0 ../../LUFA/Drivers/USB/Core/AVR8/USBController_AVR8.o
 .data          0x0000000000800165        0x0 ../../LUFA/Drivers/USB/Core/AVR8/USBInterrupt_AVR8.o
 .data          0x0000000000800165        0x0 ../../LUFA/Drivers/USB/Core/ConfigDescriptors.o
 .data          0x0000000000800165        0x0 ../../LUFA/Drivers/USB/Core/DeviceStandardReq.o
 .data          0x0000000000800165        0x0 ../../LUFA/Drivers/USB/Core/Events.o
 .data          0x0000000000800165        0x0 ../../LUFA/Drivers/USB/Core/HostStandardReq.o
 .data          0x0000000000800165        0x0 ../../LUFA/Drivers/USB/Core/USBTask.o
 .data          0x0000000000800165        0x0 /usr/lib/gcc/avr/4.8.2/avr51/libgcc.a(_exit.o)
 .data          0x0000000000800165        0x0 /usr/lib/gcc/avr/4.8.2/avr51/libgcc.a(_copy_data.o)
 .data          0x0000000000800165        0x0 /usr/lib/gcc/avr/4.8.2/avr51/libgcc.a(_clear_bss.o)
 .data          0x0000000000800165        0x0 /usr/lib/gcc/avr/4.8.2/../../../avr/lib/avr51/libc.a(eerd_byte_at90usb1287.o)
 .data          0x0000000000800165        0x0 /usr/lib/gcc/avr/4.8.2/../../../avr/lib/avr51/libc.a(eeupd_byte_at90usb1287.o)
 *(.data*)
 *(.rodata)
 .rodata        0x0000000000800165       0x20 Lib/XPROG/XPROGProtocol.o
 .rodata        0x0000000000800185        0x8 Lib/XPROG/XMEGANVM.o
 .rodata        0x000000000080018d        0x8 Lib/XPROG/TINYNVM.o
 *(.rodata*)
 .rodata.str1.1
                0x0000000000800195        0xb Lib/V2Protocol.o
 *(.gnu.linkonce.d*)
                0x00000000008001a0                . = ALIGN (0x2)
                0x00000000008001a0                _edata = .
                0x00000000008001a0                PROVIDE (__data_end, .)

.bss            0x00000000008001a0       0x13
                0x00000000008001a0                PROVIDE (__bss_start, .)
 *(.bss)
 .bss           0x00000000008001a0        0x2 Lib/ISP/ISPTarget.o
 .bss           0x00000000008001a2        0x1 Lib/XPROG/XPROGProtocol.o
                0x00000000008001a2                XPROG_SelectedProtocol
 *(.bss*)
 *(COMMON)
 COMMON         0x00000000008001a3        0x5 Lib/V2Protocol.o
                0x00000000008001a3                MustLoadExtendedAddress
                0x00000000008001a4                CurrentAddress
 COMMON         0x00000000008001a8        0x1 Lib/XPROG/XPROGTarget.o
                0x00000000008001a8                IsSending
 COMMON         0x00000000008001a9        0x1 ../../LUFA/Drivers/USB/Core/DeviceStandardReq.o
                0x00000000008001a9                USB_Device_ConfigurationNumber
 COMMON         0x00000000008001aa        0x9 ../../LUFA/Drivers/USB/Core/USBTask.o
                0x00000000008001aa                USB_IsInitialized
                0x00000000008001ab                USB_ControlRequest
                0x00000000008001b3                PROVIDE (__bss_end, .)
                0x00000000000028aa                __data_load_start = LOADADDR (.data)
                0x000000000000294a                __data_load_end = (__data_load_start + SIZEOF (.data))

.noinit         0x00000000008001b3        0x0
                0x00000000008001b3                PROVIDE (__noinit_start, .)
 *(.noinit*)
                0x00000000008001b3                PROVIDE (__noinit_end, .)
                0x00000000008001b3                _end = .
                0x00000000008001b3                PROVIDE (__heap_start, .)

.eeprom         0x0000000000810000        0x2
 *(.eeprom*)
 .eeprom        0x0000000000810000        0x2 Lib/V2ProtocolParams.o
                0x0000000000810002                __eeprom_end = .

.fuse
 *(.fuse)
 *(.lfuse)
 *(.hfuse)
 *(.efuse)

.lock
 *(.lock*)

.signature
 *(.signature*)

.user_signatures
 *(.user_signatures*)

.stab           0x0000000000000000      0x870
 *(.stab)
 .stab          0x0000000000000000      0x6cc /usr/lib/gcc/avr/4.8.2/../../../avr/lib/avr51/crtusb1287.o
 .stab          0x00000000000006cc       0x90 /usr/lib/gcc/avr/4.8.2/../../../avr/lib/avr51/libc.a(eerd_byte_at90usb1287.o)
                                         0x9c (size before relaxing)
 .stab          0x000000000000075c      0x114 /usr/lib/gcc/avr/4.8.2/../../../avr/lib/avr51/libc.a(eeupd_byte_at90usb1287.o)
                                        0x120 (size before relaxing)

.stabstr        0x0000000000000000       0xb3
 *(.stabstr)
 .stabstr       0x0000000000000000       0xb3 /usr/lib/gcc/avr/4.8.2/../../../avr/lib/avr51/crtusb1287.o

.stab.excl
 *(.stab.excl)

.stab.exclstr
 *(.stab.exclstr)

.stab.index
 *(.stab.index)

.stab.indexstr
 *(.stab.indexstr)

.comment        0x0000000000000000       0x11
 *(.comment)
 .comment       0x0000000000000000       0x11 AVRISP-MKII.o
                                         0x12 (size before relaxing)
 .comment       0x0000000000000000       0x12 AVRISPDescriptors.o
 .comment       0x0000000000000000       0x12 Lib/V2Protocol.o
 .comment       0x0000000000000000       0x12 Lib/V2ProtocolParams.o
 .comment       0x0000000000000000       0x12 Lib/ISP/ISPProtocol.o
 .comment       0x0000000000000000       0x12 Lib/ISP/ISPTarget.o
 .comment       0x0000000000000000       0x12 Lib/XPROG/XPROGProtocol.o
 .comment       0x0000000000000000       0x12 Lib/XPROG/XPROGTarget.o
 .comment       0x0000000000000000       0x12 Lib/XPROG/XMEGANVM.o
 .comment       0x0000000000000000       0x12 Lib/XPROG/TINYNVM.o
 .comment       0x0000000000000000       0x12 ../../LUFA/Drivers/USB/Class/Common/HIDParser.o
 .comment       0x0000000000000000       0x12 ../../LUFA/Drivers/USB/Core/AVR8/Device_AVR8.o
 .comment       0x0000000000000000       0x12 ../../LUFA/Drivers/USB/Core/AVR8/EndpointStream_AVR8.o
 .comment       0x0000000000000000       0x12 ../../LUFA/Drivers/USB/Core/AVR8/Endpoint_AVR8.o
 .comment       0x0000000000000000       0x12 ../../LUFA/Drivers/USB/Core/AVR8/Host_AVR8.o
 .comment       0x0000000000000000       0x12 ../../LUFA/Drivers/USB/Core/AVR8/PipeStream_AVR8.o
 .comment       0x0000000000000000       0x12 ../../LUFA/Drivers/USB/Core/AVR8/Pipe_AVR8.o
 .comment       0x0000000000000000       0x12 ../../LUFA/Drivers/USB/Core/AVR8/USBController_AVR8.o
 .comment       0x0000000000000000       0x12 ../../LUFA/Drivers/USB/Core/AVR8/USBInterrupt_AVR8.o
 .comment       0x0000000000000000       0x12 ../../LUFA/Drivers/USB/Core/ConfigDescriptors.o
 .comment       0x0000000000000000       0x12 ../../LUFA/Drivers/USB/Core/DeviceStandardReq.o
 .comment       0x0000000000000000       0x12 ../../LUFA/Drivers/USB/Core/Events.o
 .comment       0x0000000000000000       0x12 ../../LUFA/Drivers/USB/Core/HostStandardReq.o
 .comment       0x0000000000000000       0x12 ../../LUFA/Drivers/USB/Core/USBTask.o

.debug
 *(.debug)

.line
 *(.line)

.debug_srcinfo
 *(.debug_srcinfo)

.debug_sfnames
 *(.debug_sfnames)

.debug_aranges  0x0000000000000000      0x608
 *(.debug_aranges)
 .debug_aranges
                0x0000000000000000       0x58 AVRISP-MKII.o
 .debug_aranges
                0x0000000000000058       0x20 AVRISPDescriptors.o
 .debug_aranges
                0x0000000000000078       0x30 Lib/V2Protocol.o
 .debug_aranges
                0x00000000000000a8       0x48 Lib/V2ProtocolParams.o
 .debug_aranges
                0x00000000000000f0       0x78 Lib/ISP/ISPProtocol.o
 .debug_aranges
                0x0000000000000168       0x70 Lib/ISP/ISPTarget.o
 .debug_aranges
                0x00000000000001d8       0x40 Lib/XPROG/XPROGProtocol.o
 .debug_aranges
                0x0000000000000218       0x60 Lib/XPROG/XPROGTarget.o
 .debug_aranges
                0x0000000000000278       0x70 Lib/XPROG/XMEGANVM.o
 .debug_aranges
                0x00000000000002e8       0x60 Lib/XPROG/TINYNVM.o
 .debug_aranges
                0x0000000000000348       0x38 ../../LUFA/Drivers/USB/Class/Common/HIDParser.o
 .debug_aranges
                0x0000000000000380       0x20 ../../LUFA/Drivers/USB/Core/AVR8/Device_AVR8.o
 .debug_aranges
                0x00000000000003a0       0xc8 ../../LUFA/Drivers/USB/Core/AVR8/EndpointStream_AVR8.o
 .debug_aranges
                0x0000000000000468       0x40 ../../LUFA/Drivers/USB/Core/AVR8/Endpoint_AVR8.o
 .debug_aranges
                0x00000000000004a8       0x18 ../../LUFA/Drivers/USB/Core/AVR8/Host_AVR8.o
 .debug_aranges
                0x00000000000004c0       0x18 ../../LUFA/Drivers/USB/Core/AVR8/PipeStream_AVR8.o
 .debug_aranges
                0x00000000000004d8       0x18 ../../LUFA/Drivers/USB/Core/AVR8/Pipe_AVR8.o
 .debug_aranges
                0x00000000000004f0       0x30 ../../LUFA/Drivers/USB/Core/AVR8/USBController_AVR8.o
 .debug_aranges
                0x0000000000000520       0x30 ../../LUFA/Drivers/USB/Core/AVR8/USBInterrupt_AVR8.o
 .debug_aranges
                0x0000000000000550       0x40 ../../LUFA/Drivers/USB/Core/ConfigDescriptors.o
 .debug_aranges
                0x0000000000000590       0x20 ../../LUFA/Drivers/USB/Core/DeviceStandardReq.o
 .debug_aranges
                0x00000000000005b0       0x20 ../../LUFA/Drivers/USB/Core/Events.o
 .debug_aranges
                0x00000000000005d0       0x18 ../../LUFA/Drivers/USB/Core/HostStandardReq.o
 .debug_aranges
                0x00000000000005e8       0x20 ../../LUFA/Drivers/USB/Core/USBTask.o

.debug_pubnames
 *(.debug_pubnames)

.debug_info     0x0000000000000000     0x99d8
 *(.debug_info)
 .debug_info    0x0000000000000000      0x5cc AVRISP-MKII.o
 .debug_info    0x00000000000005cc      0x62c AVRISPDescriptors.o
 .debug_info    0x0000000000000bf8      0x91c Lib/V2Protocol.o
 .debug_info    0x0000000000001514      0x396 Lib/V2ProtocolParams.o
 .debug_info    0x00000000000018aa     0x1510 Lib/ISP/ISPProtocol.o
 .debug_info    0x0000000000002dba      0x636 Lib/ISP/ISPTarget.o
 .debug_info    0x00000000000033f0     0x116e Lib/XPROG/XPROGProtocol.o
 .debug_info    0x000000000000455e      0x2eb Lib/XPROG/XPROGTarget.o
 .debug_info    0x0000000000004849      0xb94 Lib/XPROG/XMEGANVM.o
 .debug_info    0x00000000000053dd      0x5a5 Lib/XPROG/TINYNVM.o
 .debug_info    0x0000000000005982      0x73e ../../LUFA/Drivers/USB/Class/Common/HIDParser.o
 .debug_info    0x00000000000060c0       0xd2 ../../LUFA/Drivers/USB/Core/AVR8/Device_AVR8.o
 .debug_info    0x0000000000006192     0x1806 ../../LUFA/Drivers/USB/Core/AVR8/EndpointStream_AVR8.o
 .debug_info    0x0000000000007998      0x58e ../../LUFA/Drivers/USB/Core/AVR8/Endpoint_AVR8.o
 .debug_info    0x0000000000007f26       0x56 ../../LUFA/Drivers/USB/Core/AVR8/Host_AVR8.o
 .debug_info    0x0000000000007f7c       0x56 ../../LUFA/Drivers/USB/Core/AVR8/PipeStream_AVR8.o
 .debug_info    0x0000000000007fd2       0x56 ../../LUFA/Drivers/USB/Core/AVR8/Pipe_AVR8.o
 .debug_info    0x0000000000008028      0x49f ../../LUFA/Drivers/USB/Core/AVR8/USBController_AVR8.o
 .debug_info    0x00000000000084c7      0x5f9 ../../LUFA/Drivers/USB/Core/AVR8/USBInterrupt_AVR8.o
 .debug_info    0x0000000000008ac0      0x3cd ../../LUFA/Drivers/USB/Core/ConfigDescriptors.o
 .debug_info    0x0000000000008e8d      0x829 ../../LUFA/Drivers/USB/Core/DeviceStandardReq.o
 .debug_info    0x00000000000096b6       0x78 ../../LUFA/Drivers/USB/Core/Events.o
 .debug_info    0x000000000000972e       0x56 ../../LUFA/Drivers/USB/Core/HostStandardReq.o
 .debug_info    0x0000000000009784      0x254 ../../LUFA/Drivers/USB/Core/USBTask.o
 *(.gnu.linkonce.wi.*)

.debug_abbrev   0x0000000000000000     0x2779
 *(.debug_abbrev)
 .debug_abbrev  0x0000000000000000      0x288 AVRISP-MKII.o
 .debug_abbrev  0x0000000000000288      0x136 AVRISPDescriptors.o
 .debug_abbrev  0x00000000000003be      0x272 Lib/V2Protocol.o
 .debug_abbrev  0x0000000000000630      0x1a5 Lib/V2ProtocolParams.o
 .debug_abbrev  0x00000000000007d5      0x3f6 Lib/ISP/ISPProtocol.o
 .debug_abbrev  0x0000000000000bcb      0x2ec Lib/ISP/ISPTarget.o
 .debug_abbrev  0x0000000000000eb7      0x334 Lib/XPROG/XPROGProtocol.o
 .debug_abbrev  0x00000000000011eb      0x182 Lib/XPROG/XPROGTarget.o
 .debug_abbrev  0x000000000000136d      0x1e6 Lib/XPROG/XMEGANVM.o
 .debug_abbrev  0x0000000000001553      0x1d1 Lib/XPROG/TINYNVM.o
 .debug_abbrev  0x0000000000001724      0x21e ../../LUFA/Drivers/USB/Class/Common/HIDParser.o
 .debug_abbrev  0x0000000000001942       0x80 ../../LUFA/Drivers/USB/Core/AVR8/Device_AVR8.o
 .debug_abbrev  0x00000000000019c2      0x21d ../../LUFA/Drivers/USB/Core/AVR8/EndpointStream_AVR8.o
 .debug_abbrev  0x0000000000001bdf      0x203 ../../LUFA/Drivers/USB/Core/AVR8/Endpoint_AVR8.o
 .debug_abbrev  0x0000000000001de2       0x26 ../../LUFA/Drivers/USB/Core/AVR8/Host_AVR8.o
 .debug_abbrev  0x0000000000001e08       0x26 ../../LUFA/Drivers/USB/Core/AVR8/PipeStream_AVR8.o
 .debug_abbrev  0x0000000000001e2e       0x26 ../../LUFA/Drivers/USB/Core/AVR8/Pipe_AVR8.o
 .debug_abbrev  0x0000000000001e54      0x196 ../../LUFA/Drivers/USB/Core/AVR8/USBController_AVR8.o
 .debug_abbrev  0x0000000000001fea      0x1ce ../../LUFA/Drivers/USB/Core/AVR8/USBInterrupt_AVR8.o
 .debug_abbrev  0x00000000000021b8      0x183 ../../LUFA/Drivers/USB/Core/ConfigDescriptors.o
 .debug_abbrev  0x000000000000233b      0x26c ../../LUFA/Drivers/USB/Core/DeviceStandardReq.o
 .debug_abbrev  0x00000000000025a7       0x44 ../../LUFA/Drivers/USB/Core/Events.o
 .debug_abbrev  0x00000000000025eb       0x26 ../../LUFA/Drivers/USB/Core/HostStandardReq.o
 .debug_abbrev  0x0000000000002611      0x168 ../../LUFA/Drivers/USB/Core/USBTask.o

.debug_line     0x0000000000000000     0x365b
 *(.debug_line)
 .debug_line    0x0000000000000000      0x311 AVRISP-MKII.o
 .debug_line    0x0000000000000311      0x120 AVRISPDescriptors.o
 .debug_line    0x0000000000000431      0x288 Lib/V2Protocol.o
 .debug_line    0x00000000000006b9      0x16f Lib/V2ProtocolParams.o
 .debug_line    0x0000000000000828      0x59e Lib/ISP/ISPProtocol.o
 .debug_line    0x0000000000000dc6      0x293 Lib/ISP/ISPTarget.o
 .debug_line    0x0000000000001059      0x396 Lib/XPROG/XPROGProtocol.o
 .debug_line    0x00000000000013ef      0x1a2 Lib/XPROG/XPROGTarget.o
 .debug_line    0x0000000000001591      0x22f Lib/XPROG/XMEGANVM.o
 .debug_line    0x00000000000017c0      0x19c Lib/XPROG/TINYNVM.o
 .debug_line    0x000000000000195c      0x223 ../../LUFA/Drivers/USB/Class/Common/HIDParser.o
 .debug_line    0x0000000000001b7f       0xe8 ../../LUFA/Drivers/USB/Core/AVR8/Device_AVR8.o
 .debug_line    0x0000000000001c67      0xbca ../../LUFA/Drivers/USB/Core/AVR8/EndpointStream_AVR8.o
 .debug_line    0x0000000000002831      0x2ec ../../LUFA/Drivers/USB/Core/AVR8/Endpoint_AVR8.o
 .debug_line    0x0000000000002b1d       0x1a ../../LUFA/Drivers/USB/Core/AVR8/Host_AVR8.o
 .debug_line    0x0000000000002b37       0x1a ../../LUFA/Drivers/USB/Core/AVR8/PipeStream_AVR8.o
 .debug_line    0x0000000000002b51       0x1a ../../LUFA/Drivers/USB/Core/AVR8/Pipe_AVR8.o
 .debug_line    0x0000000000002b6b      0x258 ../../LUFA/Drivers/USB/Core/AVR8/USBController_AVR8.o
 .debug_line    0x0000000000002dc3      0x32f ../../LUFA/Drivers/USB/Core/AVR8/USBInterrupt_AVR8.o
 .debug_line    0x00000000000030f2      0x13f ../../LUFA/Drivers/USB/Core/ConfigDescriptors.o
 .debug_line    0x0000000000003231      0x28c ../../LUFA/Drivers/USB/Core/DeviceStandardReq.o
 .debug_line    0x00000000000034bd       0x51 ../../LUFA/Drivers/USB/Core/Events.o
 .debug_line    0x000000000000350e       0x1a ../../LUFA/Drivers/USB/Core/HostStandardReq.o
 .debug_line    0x0000000000003528      0x133 ../../LUFA/Drivers/USB/Core/USBTask.o

.debug_frame    0x0000000000000000     0x1154
 *(.debug_frame)
 .debug_frame   0x0000000000000000       0x9c AVRISP-MKII.o
 .debug_frame   0x000000000000009c       0x24 AVRISPDescriptors.o
 .debug_frame   0x00000000000000c0       0x70 Lib/V2Protocol.o
 .debug_frame   0x0000000000000130       0x98 Lib/V2ProtocolParams.o
 .debug_frame   0x00000000000001c8      0x244 Lib/ISP/ISPProtocol.o
 .debug_frame   0x000000000000040c       0xe8 Lib/ISP/ISPTarget.o
 .debug_frame   0x00000000000004f4       0xd4 Lib/XPROG/XPROGProtocol.o
 .debug_frame   0x00000000000005c8       0xb4 Lib/XPROG/XPROGTarget.o
 .debug_frame   0x000000000000067c      0x1c8 Lib/XPROG/XMEGANVM.o
 .debug_frame   0x0000000000000844      0x13c Lib/XPROG/TINYNVM.o
 .debug_frame   0x0000000000000980      0x114 ../../LUFA/Drivers/USB/Class/Common/HIDParser.o
 .debug_frame   0x0000000000000a94       0x24 ../../LUFA/Drivers/USB/Core/AVR8/Device_AVR8.o
 .debug_frame   0x0000000000000ab8      0x3ac ../../LUFA/Drivers/USB/Core/AVR8/EndpointStream_AVR8.o
 .debug_frame   0x0000000000000e64       0x78 ../../LUFA/Drivers/USB/Core/AVR8/Endpoint_AVR8.o
 .debug_frame   0x0000000000000edc       0x58 ../../LUFA/Drivers/USB/Core/AVR8/USBController_AVR8.o
 .debug_frame   0x0000000000000f34       0x8c ../../LUFA/Drivers/USB/Core/AVR8/USBInterrupt_AVR8.o
 .debug_frame   0x0000000000000fc0      0x108 ../../LUFA/Drivers/USB/Core/ConfigDescriptors.o
 .debug_frame   0x00000000000010c8       0x3c ../../LUFA/Drivers/USB/Core/DeviceStandardReq.o
 .debug_frame   0x0000000000001104       0x24 ../../LUFA/Drivers/USB/Core/Events.o
 .debug_frame   0x0000000000001128       0x2c ../../LUFA/Drivers/USB/Core/USBTask.o

.debug_str      0x0000000000000000     0x31e6
 *(.debug_str)
 .debug_str     0x0000000000000000      0x4d5 AVRISP-MKII.o
                                        0x52d (size before relaxing)
 .debug_str     0x00000000000004d5      0x651 AVRISPDescriptors.o
                                        0x882 (size before relaxing)
 .debug_str     0x0000000000000b26      0x38b Lib/V2Protocol.o
                                        0x58e (size before relaxing)
 .debug_str     0x0000000000000eb1       0xf3 Lib/V2ProtocolParams.o
                                        0x35c (size before relaxing)
 .debug_str     0x0000000000000fa4      0x4b6 Lib/ISP/ISPProtocol.o
                                        0x824 (size before relaxing)
 .debug_str     0x000000000000145a       0xd0 Lib/ISP/ISPTarget.o
                                        0x490 (size before relaxing)
 .debug_str     0x000000000000152a      0x3bc Lib/XPROG/XPROGProtocol.o
                                        0x6c5 (size before relaxing)
 .debug_str     0x00000000000018e6      0x111 Lib/XPROG/XPROGTarget.o
                                        0x309 (size before relaxing)
 .debug_str     0x00000000000019f7       0xff Lib/XPROG/XMEGANVM.o
                                        0x451 (size before relaxing)
 .debug_str     0x0000000000001af6       0xb3 Lib/XPROG/TINYNVM.o
                                        0x3c9 (size before relaxing)
 .debug_str     0x0000000000001ba9      0x4aa ../../LUFA/Drivers/USB/Class/Common/HIDParser.o
                                        0x6cc (size before relaxing)
 .debug_str     0x0000000000002053       0x77 ../../LUFA/Drivers/USB/Core/AVR8/Device_AVR8.o
                                        0x208 (size before relaxing)
 .debug_str     0x00000000000020ca      0x4c6 ../../LUFA/Drivers/USB/Core/AVR8/EndpointStream_AVR8.o
                                        0x86b (size before relaxing)
 .debug_str     0x0000000000002590      0x248 ../../LUFA/Drivers/USB/Core/AVR8/Endpoint_AVR8.o
                                        0x5f7 (size before relaxing)
 .debug_str     0x00000000000027d8       0x2d ../../LUFA/Drivers/USB/Core/AVR8/Host_AVR8.o
                                        0x1a7 (size before relaxing)
 .debug_str     0x0000000000002805       0x33 ../../LUFA/Drivers/USB/Core/AVR8/PipeStream_AVR8.o
                                        0x1ad (size before relaxing)
 .debug_str     0x0000000000002838       0x2d ../../LUFA/Drivers/USB/Core/AVR8/Pipe_AVR8.o
                                        0x1a7 (size before relaxing)
 .debug_str     0x0000000000002865      0x23d ../../LUFA/Drivers/USB/Core/AVR8/USBController_AVR8.o
                                        0x51a (size before relaxing)
 .debug_str     0x0000000000002aa2       0xf9 ../../LUFA/Drivers/USB/Core/AVR8/USBInterrupt_AVR8.o
                                        0x510 (size before relaxing)
 .debug_str     0x0000000000002b9b      0x227 ../../LUFA/Drivers/USB/Core/ConfigDescriptors.o
                                        0x3f0 (size before relaxing)
 .debug_str     0x0000000000002dc2      0x364 ../../LUFA/Drivers/USB/Core/DeviceStandardReq.o
                                        0x809 (size before relaxing)
 .debug_str     0x0000000000003126       0x34 ../../LUFA/Drivers/USB/Core/Events.o
                                        0x1ae (size before relaxing)
 .debug_str     0x000000000000315a       0x2e ../../LUFA/Drivers/USB/Core/HostStandardReq.o
                                        0x1a8 (size before relaxing)
 .debug_str     0x0000000000003188       0x5e ../../LUFA/Drivers/USB/Core/USBTask.o
                                        0x37f (size before relaxing)

.debug_loc      0x0000000000000000     0x625f
 *(.debug_loc)
 .debug_loc     0x0000000000000000      0x113 AVRISP-MKII.o
 .debug_loc     0x0000000000000113      0x23e AVRISPDescriptors.o
 .debug_loc     0x0000000000000351      0x277 Lib/V2Protocol.o
 .debug_loc     0x00000000000005c8      0x2ba Lib/V2ProtocolParams.o
 .debug_loc     0x0000000000000882      0xb09 Lib/ISP/ISPProtocol.o
 .debug_loc     0x000000000000138b      0x373 Lib/ISP/ISPTarget.o
 .debug_loc     0x00000000000016fe      0x793 Lib/XPROG/XPROGProtocol.o
 .debug_loc     0x0000000000001e91       0x9b Lib/XPROG/XPROGTarget.o
 .debug_loc     0x0000000000001f2c      0x871 Lib/XPROG/XMEGANVM.o
 .debug_loc     0x000000000000279d      0x4fd Lib/XPROG/TINYNVM.o
 .debug_loc     0x0000000000002c9a      0xab2 ../../LUFA/Drivers/USB/Class/Common/HIDParser.o
 .debug_loc     0x000000000000374c     0x1d9c ../../LUFA/Drivers/USB/Core/AVR8/EndpointStream_AVR8.o
 .debug_loc     0x00000000000054e8      0x2ff ../../LUFA/Drivers/USB/Core/AVR8/Endpoint_AVR8.o
 .debug_loc     0x00000000000057e7       0x49 ../../LUFA/Drivers/USB/Core/AVR8/USBController_AVR8.o
 .debug_loc     0x0000000000005830      0x21f ../../LUFA/Drivers/USB/Core/AVR8/USBInterrupt_AVR8.o
 .debug_loc     0x0000000000005a4f      0x5bd ../../LUFA/Drivers/USB/Core/ConfigDescriptors.o
 .debug_loc     0x000000000000600c      0x20a ../../LUFA/Drivers/USB/Core/DeviceStandardReq.o
 .debug_loc     0x0000000000006216       0x49 ../../LUFA/Drivers/USB/Core/USBTask.o

.debug_macinfo
 *(.debug_macinfo)

.debug_pubtypes
 *(.debug_pubtypes)

.debug_ranges   0x0000000000000000      0x7e0
 *(.debug_ranges)
 .debug_ranges  0x0000000000000000       0x48 AVRISP-MKII.o
 .debug_ranges  0x0000000000000048       0x10 AVRISPDescriptors.o
 .debug_ranges  0x0000000000000058       0x20 Lib/V2Protocol.o
 .debug_ranges  0x0000000000000078       0x50 Lib/V2ProtocolParams.o
 .debug_ranges  0x00000000000000c8       0x98 Lib/ISP/ISPProtocol.o
 .debug_ranges  0x0000000000000160       0x90 Lib/ISP/ISPTarget.o
 .debug_ranges  0x00000000000001f0       0x60 Lib/XPROG/XPROGProtocol.o
 .debug_ranges  0x0000000000000250       0x50 Lib/XPROG/XPROGTarget.o
 .debug_ranges  0x00000000000002a0       0x90 Lib/XPROG/XMEGANVM.o
 .debug_ranges  0x0000000000000330       0x80 Lib/XPROG/TINYNVM.o
 .debug_ranges  0x00000000000003b0       0xd0 ../../LUFA/Drivers/USB/Class/Common/HIDParser.o
 .debug_ranges  0x0000000000000480       0x10 ../../LUFA/Drivers/USB/Core/AVR8/Device_AVR8.o
 .debug_ranges  0x0000000000000490      0x250 ../../LUFA/Drivers/USB/Core/AVR8/EndpointStream_AVR8.o
 .debug_ranges  0x00000000000006e0       0x60 ../../LUFA/Drivers/USB/Core/AVR8/Endpoint_AVR8.o
 .debug_ranges  0x0000000000000740       0x20 ../../LUFA/Drivers/USB/Core/AVR8/USBController_AVR8.o
 .debug_ranges  0x0000000000000760       0x20 ../../LUFA/Drivers/USB/Core/AVR8/USBInterrupt_AVR8.o
 .debug_ranges  0x0000000000000780       0x30 ../../LUFA/Drivers/USB/Core/ConfigDescriptors.o
 .debug_ranges  0x00000000000007b0       0x10 ../../LUFA/Drivers/USB/Core/DeviceStandardReq.o
 .debug_ranges  0x00000000000007c0       0x10 ../../LUFA/Drivers/USB/Core/Events.o
 .debug_ranges  0x00000000000007d0       0x10 ../../LUFA/Drivers/USB/Core/USBTask.o

.debug_macro
 *(.debug_macro)
OUTPUT(AVRISP-MKII.elf elf32-avr)
LOAD linker stubs

Cross Reference Table

Symbol                                            File
AVRISP_ConfigurationDescriptor                    AVRISPDescriptors.o
AVRISP_DeviceDescriptor                           AVRISPDescriptors.o
AVRISP_GetDescriptor                              AVRISPDescriptors.o
                                                  AVRISP-MKII.o
AVRISP_LanguageString                             AVRISPDescriptors.o
AVRISP_ManufacturerString                         AVRISPDescriptors.o
AVRISP_ProductString                              AVRISPDescriptors.o
AVRISP_SerialString                               AVRISPDescriptors.o
AVRISP_Task                                       AVRISP-MKII.o
CALLBACK_HIDParser_FilterHIDReportItem            ../../LUFA/Drivers/USB/Class/Common/HIDParser.o
CALLBACK_USB_GetDescriptor                        AVRISP-MKII.o
                                                  ../../LUFA/Drivers/USB/Core/DeviceStandardReq.o
CurrentAddress                                    Lib/ISP/ISPTarget.o
                                                  Lib/ISP/ISPProtocol.o
                                                  Lib/V2Protocol.o
EVENT_USB_Device_ConfigurationChanged             AVRISP-MKII.o
                                                  ../../LUFA/Drivers/USB/Core/DeviceStandardReq.o
EVENT_USB_Device_Connect                          AVRISP-MKII.o
                                                  ../../LUFA/Drivers/USB/Core/AVR8/USBInterrupt_AVR8.o
EVENT_USB_Device_ControlRequest                   ../../LUFA/Drivers/USB/Core/Events.o
                                                  ../../LUFA/Drivers/USB/Core/DeviceStandardReq.o
EVENT_USB_Device_Disconnect                       AVRISP-MKII.o
                                                  ../../LUFA/Drivers/USB/Core/AVR8/USBInterrupt_AVR8.o
EVENT_USB_Device_Reset                            ../../LUFA/Drivers/USB/Core/Events.o
                                                  ../../LUFA/Drivers/USB/Core/AVR8/USBInterrupt_AVR8.o
EVENT_USB_Device_StartOfFrame                     ../../LUFA/Drivers/USB/Core/Events.o
EVENT_USB_Device_Suspend                          ../../LUFA/Drivers/USB/Core/Events.o
                                                  ../../LUFA/Drivers/USB/Core/AVR8/USBInterrupt_AVR8.o
EVENT_USB_Device_WakeUp                           ../../LUFA/Drivers/USB/Core/Events.o
                                                  ../../LUFA/Drivers/USB/Core/AVR8/USBInterrupt_AVR8.o
Endpoint_ClearEndpoints                           ../../LUFA/Drivers/USB/Core/AVR8/Endpoint_AVR8.o
Endpoint_ClearStatusStage                         ../../LUFA/Drivers/USB/Core/AVR8/Endpoint_AVR8.o
                                                  ../../LUFA/Drivers/USB/Core/DeviceStandardReq.o
Endpoint_ConfigureEndpointTable                   ../../LUFA/Drivers/USB/Core/AVR8/Endpoint_AVR8.o
Endpoint_ConfigureEndpoint_Prv                    ../../LUFA/Drivers/USB/Core/AVR8/Endpoint_AVR8.o
                                                  ../../LUFA/Drivers/USB/Core/AVR8/USBInterrupt_AVR8.o
                                                  ../../LUFA/Drivers/USB/Core/AVR8/USBController_AVR8.o
                                                  AVRISP-MKII.o
Endpoint_Discard_Stream                           ../../LUFA/Drivers/USB/Core/AVR8/EndpointStream_AVR8.o
Endpoint_Null_Stream                              ../../LUFA/Drivers/USB/Core/AVR8/EndpointStream_AVR8.o
Endpoint_Read_Control_EStream_BE                  ../../LUFA/Drivers/USB/Core/AVR8/EndpointStream_AVR8.o
Endpoint_Read_Control_EStream_LE                  ../../LUFA/Drivers/USB/Core/AVR8/EndpointStream_AVR8.o
Endpoint_Read_Control_Stream_BE                   ../../LUFA/Drivers/USB/Core/AVR8/EndpointStream_AVR8.o
Endpoint_Read_Control_Stream_LE                   ../../LUFA/Drivers/USB/Core/AVR8/EndpointStream_AVR8.o
Endpoint_Read_EStream_BE                          ../../LUFA/Drivers/USB/Core/AVR8/EndpointStream_AVR8.o
Endpoint_Read_EStream_LE                          ../../LUFA/Drivers/USB/Core/AVR8/EndpointStream_AVR8.o
Endpoint_Read_Stream_BE                           ../../LUFA/Drivers/USB/Core/AVR8/EndpointStream_AVR8.o
                                                  Lib/V2Protocol.o
Endpoint_Read_Stream_LE                           ../../LUFA/Drivers/USB/Core/AVR8/EndpointStream_AVR8.o
                                                  Lib/XPROG/XPROGProtocol.o
                                                  Lib/ISP/ISPProtocol.o
Endpoint_WaitUntilReady                           ../../LUFA/Drivers/USB/Core/AVR8/Endpoint_AVR8.o
                                                  ../../LUFA/Drivers/USB/Core/AVR8/EndpointStream_AVR8.o
                                                  Lib/XPROG/XPROGProtocol.o
                                                  Lib/ISP/ISPProtocol.o
                                                  Lib/V2Protocol.o
Endpoint_Write_Control_EStream_BE                 ../../LUFA/Drivers/USB/Core/AVR8/EndpointStream_AVR8.o
Endpoint_Write_Control_EStream_LE                 ../../LUFA/Drivers/USB/Core/AVR8/EndpointStream_AVR8.o
                                                  ../../LUFA/Drivers/USB/Core/DeviceStandardReq.o
Endpoint_Write_Control_PStream_BE                 ../../LUFA/Drivers/USB/Core/AVR8/EndpointStream_AVR8.o
Endpoint_Write_Control_PStream_LE                 ../../LUFA/Drivers/USB/Core/AVR8/EndpointStream_AVR8.o
                                                  ../../LUFA/Drivers/USB/Core/DeviceStandardReq.o
Endpoint_Write_Control_Stream_BE                  ../../LUFA/Drivers/USB/Core/AVR8/EndpointStream_AVR8.o
Endpoint_Write_Control_Stream_LE                  ../../LUFA/Drivers/USB/Core/AVR8/EndpointStream_AVR8.o
                                                  ../../LUFA/Drivers/USB/Core/DeviceStandardReq.o
Endpoint_Write_EStream_BE                         ../../LUFA/Drivers/USB/Core/AVR8/EndpointStream_AVR8.o
Endpoint_Write_EStream_LE                         ../../LUFA/Drivers/USB/Core/AVR8/EndpointStream_AVR8.o
Endpoint_Write_PStream_BE                         ../../LUFA/Drivers/USB/Core/AVR8/EndpointStream_AVR8.o
Endpoint_Write_PStream_LE                         ../../LUFA/Drivers/USB/Core/AVR8/EndpointStream_AVR8.o
Endpoint_Write_Stream_BE                          ../../LUFA/Drivers/USB/Core/AVR8/EndpointStream_AVR8.o
Endpoint_Write_Stream_LE                          ../../LUFA/Drivers/USB/Core/AVR8/EndpointStream_AVR8.o
                                                  Lib/XPROG/XPROGProtocol.o
                                                  Lib/V2Protocol.o
HardwareSPIMode                                   Lib/ISP/ISPTarget.o
                                                  Lib/ISP/ISPProtocol.o
ISPProtocol_ChipErase                             Lib/ISP/ISPProtocol.o
                                                  Lib/V2Protocol.o
ISPProtocol_DelayMS                               Lib/ISP/ISPProtocol.o
                                                  Lib/ISP/ISPTarget.o
ISPProtocol_EnterISPMode                          Lib/ISP/ISPProtocol.o
                                                  Lib/V2Protocol.o
ISPProtocol_LeaveISPMode                          Lib/ISP/ISPProtocol.o
                                                  Lib/V2Protocol.o
ISPProtocol_ProgramMemory                         Lib/ISP/ISPProtocol.o
                                                  Lib/V2Protocol.o
ISPProtocol_ReadFuseLockSigOSCCAL                 Lib/ISP/ISPProtocol.o
                                                  Lib/V2Protocol.o
ISPProtocol_ReadMemory                            Lib/ISP/ISPProtocol.o
                                                  Lib/V2Protocol.o
ISPProtocol_SPIMulti                              Lib/ISP/ISPProtocol.o
                                                  Lib/V2Protocol.o
ISPProtocol_WriteFuseLock                         Lib/ISP/ISPProtocol.o
                                                  Lib/V2Protocol.o
ISPTarget_ChangeTargetResetLine                   Lib/ISP/ISPTarget.o
                                                  Lib/ISP/ISPProtocol.o
ISPTarget_ConfigureRescueClock                    Lib/ISP/ISPTarget.o
                                                  Lib/V2Protocol.o
ISPTarget_ConfigureSoftwareSPI                    Lib/ISP/ISPTarget.o
ISPTarget_DisableTargetISP                        Lib/ISP/ISPTarget.o
                                                  Lib/ISP/ISPProtocol.o
ISPTarget_EnableTargetISP                         Lib/ISP/ISPTarget.o
                                                  Lib/ISP/ISPProtocol.o
ISPTarget_LoadExtendedAddress                     Lib/ISP/ISPTarget.o
                                                  Lib/ISP/ISPProtocol.o
ISPTarget_TransferSoftSPIByte                     Lib/ISP/ISPTarget.o
                                                  Lib/ISP/ISPProtocol.o
ISPTarget_WaitForProgComplete                     Lib/ISP/ISPTarget.o
                                                  Lib/ISP/ISPProtocol.o
ISPTarget_WaitWhileTargetBusy                     Lib/ISP/ISPTarget.o
                                                  Lib/ISP/ISPProtocol.o
IsSending                                         Lib/XPROG/XPROGTarget.o
MustLoadExtendedAddress                           Lib/ISP/ISPProtocol.o
                                                  Lib/V2Protocol.o
SetupHardware                                     AVRISP-MKII.o
TINYNVM_DisableTPI                                Lib/XPROG/TINYNVM.o
                                                  Lib/XPROG/XPROGProtocol.o
TINYNVM_EnableTPI                                 Lib/XPROG/TINYNVM.o
                                                  Lib/XPROG/XPROGProtocol.o
TINYNVM_EraseMemory                               Lib/XPROG/TINYNVM.o
                                                  Lib/XPROG/XPROGProtocol.o
TINYNVM_ReadMemory                                Lib/XPROG/TINYNVM.o
                                                  Lib/XPROG/XPROGProtocol.o
TINYNVM_WaitWhileNVMBusBusy                       Lib/XPROG/TINYNVM.o
TINYNVM_WaitWhileNVMControllerBusy                Lib/XPROG/TINYNVM.o
TINYNVM_WriteMemory                               Lib/XPROG/TINYNVM.o
                                                  Lib/XPROG/XPROGProtocol.o
USB_ControlRequest                                ../../LUFA/Drivers/USB/Core/USBTask.o
                                                  ../../LUFA/Drivers/USB/Core/DeviceStandardReq.o
                                                  ../../LUFA/Drivers/USB/Core/AVR8/Endpoint_AVR8.o
                                                  ../../LUFA/Drivers/USB/Core/AVR8/EndpointStream_AVR8.o
USB_Device_ConfigurationNumber                    ../../LUFA/Drivers/USB/Core/DeviceStandardReq.o
                                                  ../../LUFA/Drivers/USB/Core/AVR8/USBInterrupt_AVR8.o
                                                  ../../LUFA/Drivers/USB/Core/AVR8/USBController_AVR8.o
USB_Device_ProcessControlRequest                  ../../LUFA/Drivers/USB/Core/DeviceStandardReq.o
                                                  ../../LUFA/Drivers/USB/Core/USBTask.o
USB_Device_SendRemoteWakeup                       ../../LUFA/Drivers/USB/Core/AVR8/Device_AVR8.o
USB_Disable                                       ../../LUFA/Drivers/USB/Core/AVR8/USBController_AVR8.o
USB_Event_Stub                                    ../../LUFA/Drivers/USB/Core/Events.o
USB_GetHIDReportItemInfo                          ../../LUFA/Drivers/USB/Class/Common/HIDParser.o
USB_GetHIDReportSize                              ../../LUFA/Drivers/USB/Class/Common/HIDParser.o
USB_GetNextDescriptorComp                         ../../LUFA/Drivers/USB/Core/ConfigDescriptors.o
USB_GetNextDescriptorOfType                       ../../LUFA/Drivers/USB/Core/ConfigDescriptors.o
USB_GetNextDescriptorOfTypeAfter                  ../../LUFA/Drivers/USB/Core/ConfigDescriptors.o
USB_GetNextDescriptorOfTypeBefore                 ../../LUFA/Drivers/USB/Core/ConfigDescriptors.o
USB_INT_ClearAllInterrupts                        ../../LUFA/Drivers/USB/Core/AVR8/USBInterrupt_AVR8.o
                                                  ../../LUFA/Drivers/USB/Core/AVR8/USBController_AVR8.o
USB_INT_DisableAllInterrupts                      ../../LUFA/Drivers/USB/Core/AVR8/USBInterrupt_AVR8.o
                                                  ../../LUFA/Drivers/USB/Core/AVR8/USBController_AVR8.o
USB_Init                                          ../../LUFA/Drivers/USB/Core/AVR8/USBController_AVR8.o
                                                  AVRISP-MKII.o
USB_IsInitialized                                 ../../LUFA/Drivers/USB/Core/USBTask.o
                                                  ../../LUFA/Drivers/USB/Core/AVR8/USBController_AVR8.o
USB_ProcessHIDReport                              ../../LUFA/Drivers/USB/Class/Common/HIDParser.o
USB_ResetInterface                                ../../LUFA/Drivers/USB/Core/AVR8/USBController_AVR8.o
USB_SetHIDReportItemInfo                          ../../LUFA/Drivers/USB/Class/Common/HIDParser.o
USB_USBTask                                       ../../LUFA/Drivers/USB/Core/USBTask.o
                                                  ../../LUFA/Drivers/USB/Core/AVR8/EndpointStream_AVR8.o
                                                  AVRISP-MKII.o
V2Params_GetParameterPrivileges                   Lib/V2ProtocolParams.o
                                                  Lib/V2Protocol.o
V2Params_GetParameterValue                        Lib/V2ProtocolParams.o
                                                  Lib/ISP/ISPTarget.o
                                                  Lib/V2Protocol.o
V2Params_LoadNonVolatileParamValues               Lib/V2ProtocolParams.o
                                                  Lib/V2Protocol.o
V2Params_SetParameterValue                        Lib/V2ProtocolParams.o
                                                  Lib/V2Protocol.o
V2Params_UpdateParamValues                        Lib/V2ProtocolParams.o
                                                  AVRISP-MKII.o
V2Protocol_Init                                   Lib/V2Protocol.o
                                                  AVRISP-MKII.o
V2Protocol_ProcessCommand                         Lib/V2Protocol.o
                                                  AVRISP-MKII.o
XMEGANVM_DisablePDI                               Lib/XPROG/XMEGANVM.o
                                                  Lib/XPROG/XPROGProtocol.o
XMEGANVM_EnablePDI                                Lib/XPROG/XMEGANVM.o
                                                  Lib/XPROG/XPROGProtocol.o
XMEGANVM_EraseMemory                              Lib/XPROG/XMEGANVM.o
                                                  Lib/XPROG/XPROGProtocol.o
XMEGANVM_GetMemoryCRC                             Lib/XPROG/XMEGANVM.o
                                                  Lib/XPROG/XPROGProtocol.o
XMEGANVM_ReadMemory                               Lib/XPROG/XMEGANVM.o
                                                  Lib/XPROG/XPROGProtocol.o
XMEGANVM_WaitWhileNVMBusBusy                      Lib/XPROG/XMEGANVM.o
XMEGANVM_WaitWhileNVMControllerBusy               Lib/XPROG/XMEGANVM.o
XMEGANVM_WriteByteMemory                          Lib/XPROG/XMEGANVM.o
                                                  Lib/XPROG/XPROGProtocol.o
XMEGANVM_WritePageMemory                          Lib/XPROG/XMEGANVM.o
                                                  Lib/XPROG/XPROGProtocol.o
XPROGProtocol_Command                             Lib/XPROG/XPROGProtocol.o
                                                  Lib/V2Protocol.o
XPROGProtocol_SetMode                             Lib/XPROG/XPROGProtocol.o
                                                  Lib/V2Protocol.o
XPROGTarget_DisableTargetPDI                      Lib/XPROG/XPROGTarget.o
                                                  Lib/XPROG/XMEGANVM.o
XPROGTarget_DisableTargetTPI                      Lib/XPROG/XPROGTarget.o
                                                  Lib/XPROG/TINYNVM.o
XPROGTarget_EnableTargetPDI                       Lib/XPROG/XPROGTarget.o
                                                  Lib/XPROG/XMEGANVM.o
XPROGTarget_EnableTargetTPI                       Lib/XPROG/XPROGTarget.o
                                                  Lib/XPROG/TINYNVM.o
XPROGTarget_ReceiveByte                           Lib/XPROG/XPROGTarget.o
                                                  Lib/XPROG/TINYNVM.o
                                                  Lib/XPROG/XMEGANVM.o
XPROGTarget_SendByte                              Lib/XPROG/XPROGTarget.o
                                                  Lib/XPROG/TINYNVM.o
                                                  Lib/XPROG/XMEGANVM.o
XPROGTarget_SendIdle                              Lib/XPROG/XPROGTarget.o
XPROG_Param_EEPageSize                            Lib/XPROG/XPROGProtocol.o
                                                  Lib/XPROG/XMEGANVM.o
XPROG_Param_NVMBase                               Lib/XPROG/XPROGProtocol.o
                                                  Lib/XPROG/XMEGANVM.o
XPROG_Param_NVMCMDRegAddr                         Lib/XPROG/XPROGProtocol.o
                                                  Lib/XPROG/TINYNVM.o
XPROG_Param_NVMCSRRegAddr                         Lib/XPROG/XPROGProtocol.o
                                                  Lib/XPROG/TINYNVM.o
XPROG_SelectedProtocol                            Lib/XPROG/XPROGProtocol.o
__bad_interrupt                                   /usr/lib/gcc/avr/4.8.2/../../../avr/lib/avr51/crtusb1287.o
__bss_end                                         /usr/lib/gcc/avr/4.8.2/avr51/libgcc.a(_clear_bss.o)
__bss_start                                       /usr/lib/gcc/avr/4.8.2/avr51/libgcc.a(_clear_bss.o)
__data_end                                        /usr/lib/gcc/avr/4.8.2/avr51/libgcc.a(_copy_data.o)
__data_load_start                                 /usr/lib/gcc/avr/4.8.2/avr51/libgcc.a(_copy_data.o)
__data_start                                      /usr/lib/gcc/avr/4.8.2/avr51/libgcc.a(_copy_data.o)
__do_clear_bss                                    /usr/lib/gcc/avr/4.8.2/avr51/libgcc.a(_clear_bss.o)
                                                  ../../LUFA/Drivers/USB/Core/USBTask.o
                                                  ../../LUFA/Drivers/USB/Core/DeviceStandardReq.o
                                                  Lib/XPROG/XPROGTarget.o
                                                  Lib/XPROG/XPROGProtocol.o
                                                  Lib/ISP/ISPTarget.o
                                                  Lib/V2Protocol.o
__do_copy_data                                    /usr/lib/gcc/avr/4.8.2/avr51/libgcc.a(_copy_data.o)
                                                  Lib/XPROG/TINYNVM.o
                                                  Lib/XPROG/XMEGANVM.o
                                                  Lib/XPROG/XPROGProtocol.o
                                                  Lib/ISP/ISPTarget.o
                                                  Lib/V2ProtocolParams.o
                                                  Lib/V2Protocol.o
                                                  AVRISPDescriptors.o
__eerd_byte_usb1287                               /usr/lib/gcc/avr/4.8.2/../../../avr/lib/avr51/libc.a(eerd_byte_at90usb1287.o)
                                                  ../../LUFA/Drivers/USB/Core/AVR8/EndpointStream_AVR8.o
                                                  Lib/V2ProtocolParams.o
__eeupd_byte_usb1287                              /usr/lib/gcc/avr/4.8.2/../../../avr/lib/avr51/libc.a(eeupd_byte_at90usb1287.o)
                                                  ../../LUFA/Drivers/USB/Core/AVR8/EndpointStream_AVR8.o
                                                  Lib/V2ProtocolParams.o
__eeupd_r18_usb1287                               /usr/lib/gcc/avr/4.8.2/../../../avr/lib/avr51/libc.a(eeupd_byte_at90usb1287.o)
__heap_end                                        /usr/lib/gcc/avr/4.8.2/../../../avr/lib/avr51/crtusb1287.o
__init                                            /usr/lib/gcc/avr/4.8.2/../../../avr/lib/avr51/crtusb1287.o
__stack                                           /usr/lib/gcc/avr/4.8.2/../../../avr/lib/avr51/crtusb1287.o
__vector_1                                        /usr/lib/gcc/avr/4.8.2/../../../avr/lib/avr51/crtusb1287.o
__vector_10                                       ../../LUFA/Drivers/USB/Core/AVR8/USBInterrupt_AVR8.o
                                                  /usr/lib/gcc/avr/4.8.2/../../../avr/lib/avr51/crtusb1287.o
__vector_11                                       /usr/lib/gcc/avr/4.8.2/../../../avr/lib/avr51/crtusb1287.o
__vector_12                                       /usr/lib/gcc/avr/4.8.2/../../../avr/lib/avr51/crtusb1287.o
__vector_13                                       /usr/lib/gcc/avr/4.8.2/../../../avr/lib/avr51/crtusb1287.o
__vector_14                                       /usr/lib/gcc/avr/4.8.2/../../../avr/lib/avr51/crtusb1287.o
__vector_15                                       /usr/lib/gcc/avr/4.8.2/../../../avr/lib/avr51/crtusb1287.o
__vector_16                                       /usr/lib/gcc/avr/4.8.2/../../../avr/lib/avr51/crtusb1287.o
__vector_17                                       Lib/ISP/ISPTarget.o
                                                  /usr/lib/gcc/avr/4.8.2/../../../avr/lib/avr51/crtusb1287.o
__vector_18                                       /usr/lib/gcc/avr/4.8.2/../../../avr/lib/avr51/crtusb1287.o
__vector_19                                       /usr/lib/gcc/avr/4.8.2/../../../avr/lib/avr51/crtusb1287.o
__vector_2                                        /usr/lib/gcc/avr/4.8.2/../../../avr/lib/avr51/crtusb1287.o
__vector_20                                       /usr/lib/gcc/avr/4.8.2/../../../avr/lib/avr51/crtusb1287.o
__vector_21                                       Lib/V2Protocol.o
                                                  /usr/lib/gcc/avr/4.8.2/../../../avr/lib/avr51/crtusb1287.o
__vector_22                                       /usr/lib/gcc/avr/4.8.2/../../../avr/lib/avr51/crtusb1287.o
__vector_23                                       /usr/lib/gcc/avr/4.8.2/../../../avr/lib/avr51/crtusb1287.o
__vector_24                                       /usr/lib/gcc/avr/4.8.2/../../../avr/lib/avr51/crtusb1287.o
__vector_25                                       /usr/lib/gcc/avr/4.8.2/../../../avr/lib/avr51/crtusb1287.o
__vector_26                                       /usr/lib/gcc/avr/4.8.2/../../../avr/lib/avr51/crtusb1287.o
__vector_27                                       /usr/lib/gcc/avr/4.8.2/../../../avr/lib/avr51/crtusb1287.o
__vector_28                                       /usr/lib/gcc/avr/4.8.2/../../../avr/lib/avr51/crtusb1287.o
__vector_29                                       /usr/lib/gcc/avr/4.8.2/../../../avr/lib/avr51/crtusb1287.o
__vector_3                                        /usr/lib/gcc/avr/4.8.2/../../../avr/lib/avr51/crtusb1287.o
__vector_30                                       /usr/lib/gcc/avr/4.8.2/../../../avr/lib/avr51/crtusb1287.o
__vector_31                                       /usr/lib/gcc/avr/4.8.2/../../../avr/lib/avr51/crtusb1287.o
__vector_32                                       /usr/lib/gcc/avr/4.8.2/../../../avr/lib/avr51/crtusb1287.o
__vector_33                                       /usr/lib/gcc/avr/4.8.2/../../../avr/lib/avr51/crtusb1287.o
__vector_34                                       /usr/lib/gcc/avr/4.8.2/../../../avr/lib/avr51/crtusb1287.o
__vector_35                                       /usr/lib/gcc/avr/4.8.2/../../../avr/lib/avr51/crtusb1287.o
__vector_36                                       /usr/lib/gcc/avr/4.8.2/../../../avr/lib/avr51/crtusb1287.o
__vector_37                                       /usr/lib/gcc/avr/4.8.2/../../../avr/lib/avr51/crtusb1287.o
__vector_4                                        /usr/lib/gcc/avr/4.8.2/../../../avr/lib/avr51/crtusb1287.o
__vector_5                                        /usr/lib/gcc/avr/4.8.2/../../../avr/lib/avr51/crtusb1287.o
__vector_6                                        /usr/lib/gcc/avr/4.8.2/../../../avr/lib/avr51/crtusb1287.o
__vector_7                                        /usr/lib/gcc/avr/4.8.2/../../../avr/lib/avr51/crtusb1287.o
__vector_8                                        /usr/lib/gcc/avr/4.8.2/../../../avr/lib/avr51/crtusb1287.o
__vector_9                                        /usr/lib/gcc/avr/4.8.2/../../../avr/lib/avr51/crtusb1287.o
__vector_default                                  /usr/lib/gcc/avr/4.8.2/../../../avr/lib/avr51/crtusb1287.o
__vectors                                         /usr/lib/gcc/avr/4.8.2/../../../avr/lib/avr51/crtusb1287.o
_exit                                             /usr/lib/gcc/avr/4.8.2/avr51/libgcc.a(_exit.o)
exit                                              /usr/lib/gcc/avr/4.8.2/avr51/libgcc.a(_exit.o)
                                                  /usr/lib/gcc/avr/4.8.2/../../../avr/lib/avr51/crtusb1287.o
main                                              AVRISP-MKII.o
                                                  /usr/lib/gcc/avr/4.8.2/../../../avr/lib/avr51/crtusb1287.o
