	.file	"Arduino-keyboard.c"
__SP_H__ = 0x3e
__SP_L__ = 0x3d
__SREG__ = 0x3f
__tmp_reg__ = 0
__zero_reg__ = 1
	.text
.Ltext0:
	.cfi_sections	.debug_frame
	.section	.text.SetupHardware,"ax",@progbits
.global	SetupHardware
	.type	SetupHardware, @function
SetupHardware:
.LFB87:
	.file 1 "Arduino-keyboard.c"
	.loc 1 125 0
	.cfi_startproc
	push r11
.LCFI0:
	.cfi_def_cfa_offset 3
	.cfi_offset 11, -2
	push r12
.LCFI1:
	.cfi_def_cfa_offset 4
	.cfi_offset 12, -3
	push r13
.LCFI2:
	.cfi_def_cfa_offset 5
	.cfi_offset 13, -4
	push r14
.LCFI3:
	.cfi_def_cfa_offset 6
	.cfi_offset 14, -5
	push r15
.LCFI4:
	.cfi_def_cfa_offset 7
	.cfi_offset 15, -6
	push r16
.LCFI5:
	.cfi_def_cfa_offset 8
	.cfi_offset 16, -7
	push r17
.LCFI6:
	.cfi_def_cfa_offset 9
	.cfi_offset 17, -8
	push r28
.LCFI7:
	.cfi_def_cfa_offset 10
	.cfi_offset 28, -9
	push r29
.LCFI8:
	.cfi_def_cfa_offset 11
	.cfi_offset 29, -10
/* prologue: function */
/* frame size = 0 */
/* stack size = 9 */
.L__stack_usage = 9
	.loc 1 127 0
	in r24,0x34
	andi r24,lo8(-9)
	out 0x34,r24
	.loc 1 128 0
	ldi r24,lo8(24)
/* #APP */
 ;  128 "Arduino-keyboard.c" 1
	in __tmp_reg__, __SREG__
	cli
	sts 96, r24
	sts 96, __zero_reg__
	out __SREG__,__tmp_reg__
	
 ;  0 "" 2
.LVL0:
/* #NOAPP */
.LBB55:
.LBB56:
	.file 2 "../lufa-LUFA/LUFA/Drivers/Peripheral/Serial.h"
	.loc 2 102 0
	ldi r24,lo8(-52)
	mov r12,r24
	mov r13,__zero_reg__
	ldi r24,lo8(103)
	ldi r25,0
	movw r30,r12
	std Z+1,r25
	st Z,r24
	.loc 2 104 0
	ldi r25,lo8(-54)
	mov r14,r25
	mov r15,__zero_reg__
	ldi r18,lo8(6)
	mov r11,r18
	movw r30,r14
	st Z,r11
	.loc 2 105 0
	ldi r16,lo8(-56)
	ldi r17,0
	movw r30,r16
	st Z,__zero_reg__
	.loc 2 106 0
	ldi r28,lo8(-55)
	ldi r29,0
	ldi r24,lo8(24)
	st Y,r24
	.loc 2 108 0
	sbi 0xa,3
	.loc 2 109 0
	sbi 0xb,2
.LBE56:
.LBE55:
	.loc 1 132 0
	call USB_Init
.LVL1:
	.loc 1 135 0
	ldi r24,lo8(4)
	out 0x25,r24
	.loc 1 138 0
	sbi 0xb,7
	.loc 1 139 0
	sbi 0xa,7
	.loc 1 142 0
	st Y,__zero_reg__
	.loc 1 143 0
	movw r30,r16
	st Z,__zero_reg__
	.loc 1 144 0
	movw r30,r14
	st Z,__zero_reg__
	.loc 1 147 0
	ldi r24,lo8(-49)
	ldi r25,0
	movw r30,r12
	std Z+1,r25
	st Z,r24
	.loc 1 149 0
	movw r30,r14
	st Z,r11
	.loc 1 150 0
	ldi r24,lo8(2)
	movw r30,r16
	st Z,r24
	.loc 1 151 0
	ldi r24,lo8(-104)
	st Y,r24
/* epilogue start */
	.loc 1 152 0
	pop r29
	pop r28
	pop r17
	pop r16
	pop r15
	pop r14
	pop r13
	pop r12
	pop r11
	ret
	.cfi_endproc
.LFE87:
	.size	SetupHardware, .-SetupHardware
	.section	.text.startup.main,"ax",@progbits
.global	main
	.type	main, @function
main:
.LFB86:
	.loc 1 108 0
	.cfi_startproc
/* prologue: function */
/* frame size = 0 */
/* stack size = 0 */
.L__stack_usage = 0
	.loc 1 109 0
	call init_vars
.LVL2:
	.loc 1 110 0
	call SetupHardware
.LVL3:
.LBB64:
.LBB65:
	.file 3 "Lib/LightweightRingBuff.h"
	.loc 3 87 0
	in r18,__SREG__
.LVL4:
.LBB66:
.LBB67:
	.file 4 "/usr/lib/avr/include/util/atomic.h"
	.loc 4 50 0
/* #APP */
 ;  50 "/usr/lib/avr/include/util/atomic.h" 1
	cli
 ;  0 "" 2
.LVL5:
/* #NOAPP */
.LBE67:
.LBE66:
	.loc 3 89 0
	ldi r24,lo8(USARTtoUSB_Buffer)
	ldi r25,hi8(USARTtoUSB_Buffer)
	sts USARTtoUSB_Buffer+128+1,r25
	sts USARTtoUSB_Buffer+128,r24
	.loc 3 90 0
	sts USARTtoUSB_Buffer+130+1,r25
	sts USARTtoUSB_Buffer+130,r24
.LVL6:
.LBB68:
.LBB69:
	.loc 4 70 0
	out __SREG__,r18
	.loc 4 71 0
.LBE69:
.LBE68:
.LBE65:
.LBE64:
	.loc 1 114 0
/* #APP */
 ;  114 "Arduino-keyboard.c" 1
	sei
 ;  0 "" 2
.LVL7:
/* #NOAPP */
.L3:
	.loc 1 118 0 discriminator 1
	ldi r24,lo8(Keyboard_HID_Interface)
	ldi r25,hi8(Keyboard_HID_Interface)
	call HID_Device_USBTask
.LVL8:
	.loc 1 119 0 discriminator 1
	call USB_USBTask
.LVL9:
	rjmp .L3
	.cfi_endproc
.LFE86:
	.size	main, .-main
	.section	.text.EVENT_USB_Device_Connect,"ax",@progbits
.global	EVENT_USB_Device_Connect
	.type	EVENT_USB_Device_Connect, @function
EVENT_USB_Device_Connect:
.LFB88:
	.loc 1 156 0
	.cfi_startproc
/* prologue: function */
/* frame size = 0 */
/* stack size = 0 */
.L__stack_usage = 0
	ret
	.cfi_endproc
.LFE88:
	.size	EVENT_USB_Device_Connect, .-EVENT_USB_Device_Connect
	.section	.text.EVENT_USB_Device_Disconnect,"ax",@progbits
.global	EVENT_USB_Device_Disconnect
	.type	EVENT_USB_Device_Disconnect, @function
EVENT_USB_Device_Disconnect:
.LFB89:
	.loc 1 162 0
	.cfi_startproc
/* prologue: function */
/* frame size = 0 */
/* stack size = 0 */
.L__stack_usage = 0
	ret
	.cfi_endproc
.LFE89:
	.size	EVENT_USB_Device_Disconnect, .-EVENT_USB_Device_Disconnect
	.section	.text.EVENT_USB_Device_ConfigurationChanged,"ax",@progbits
.global	EVENT_USB_Device_ConfigurationChanged
	.type	EVENT_USB_Device_ConfigurationChanged, @function
EVENT_USB_Device_ConfigurationChanged:
.LFB90:
	.loc 1 168 0
	.cfi_startproc
/* prologue: function */
/* frame size = 0 */
/* stack size = 0 */
.L__stack_usage = 0
	.loc 1 171 0
	ldi r24,lo8(Keyboard_HID_Interface)
	ldi r25,hi8(Keyboard_HID_Interface)
	call HID_Device_ConfigureEndpoints
.LVL10:
.LBB70:
.LBB71:
	.file 5 "../lufa-LUFA/LUFA/Drivers/USB/HighLevel/../LowLevel/Device.h"
	.loc 5 150 0
	ldi r30,lo8(-30)
	ldi r31,0
	ld r24,Z
	ori r24,lo8(4)
	st Z,r24
	ret
.LBE71:
.LBE70:
	.cfi_endproc
.LFE90:
	.size	EVENT_USB_Device_ConfigurationChanged, .-EVENT_USB_Device_ConfigurationChanged
	.section	.text.EVENT_USB_Device_UnhandledControlRequest,"ax",@progbits
.global	EVENT_USB_Device_UnhandledControlRequest
	.type	EVENT_USB_Device_UnhandledControlRequest, @function
EVENT_USB_Device_UnhandledControlRequest:
.LFB91:
	.loc 1 178 0
	.cfi_startproc
/* prologue: function */
/* frame size = 0 */
/* stack size = 0 */
.L__stack_usage = 0
	.loc 1 179 0
	ldi r24,lo8(Keyboard_HID_Interface)
	ldi r25,hi8(Keyboard_HID_Interface)
	jmp HID_Device_ProcessControlRequest
.LVL11:
	.cfi_endproc
.LFE91:
	.size	EVENT_USB_Device_UnhandledControlRequest, .-EVENT_USB_Device_UnhandledControlRequest
	.section	.text.EVENT_USB_Device_StartOfFrame,"ax",@progbits
.global	EVENT_USB_Device_StartOfFrame
	.type	EVENT_USB_Device_StartOfFrame, @function
EVENT_USB_Device_StartOfFrame:
.LFB92:
	.loc 1 184 0
	.cfi_startproc
/* prologue: function */
/* frame size = 0 */
/* stack size = 0 */
.L__stack_usage = 0
.LVL12:
.LBB72:
.LBB73:
	.file 6 "../lufa-LUFA/LUFA/Drivers/USB/Class/Device/HID.h"
	.loc 6 201 0
	lds r24,Keyboard_HID_Interface+11
	lds r25,Keyboard_HID_Interface+11+1
	sbiw r24,0
	breq .L9
	.loc 6 202 0
	sbiw r24,1
	sts Keyboard_HID_Interface+11+1,r25
	sts Keyboard_HID_Interface+11,r24
.L9:
	ret
.LBE73:
.LBE72:
	.cfi_endproc
.LFE92:
	.size	EVENT_USB_Device_StartOfFrame, .-EVENT_USB_Device_StartOfFrame
	.section	.text.CALLBACK_HID_Device_CreateHIDReport,"ax",@progbits
.global	CALLBACK_HID_Device_CreateHIDReport
	.type	CALLBACK_HID_Device_CreateHIDReport, @function
CALLBACK_HID_Device_CreateHIDReport:
.LFB93:
	.loc 1 204 0
	.cfi_startproc
.LVL13:
	push r16
.LCFI9:
	.cfi_def_cfa_offset 3
	.cfi_offset 16, -2
	push r17
.LCFI10:
	.cfi_def_cfa_offset 4
	.cfi_offset 17, -3
/* prologue: function */
/* frame size = 0 */
/* stack size = 2 */
.L__stack_usage = 2
.LVL14:
.LBB90:
.LBB91:
.LBB92:
	.loc 3 111 0
	in r25,__SREG__
.LVL15:
.LBB93:
.LBB94:
	.loc 4 50 0
/* #APP */
 ;  50 "/usr/lib/avr/include/util/atomic.h" 1
	cli
 ;  0 "" 2
.LVL16:
/* #NOAPP */
.LBE94:
.LBE93:
	.loc 3 113 0
	lds r24,USARTtoUSB_Buffer+132
.LVL17:
.LBB95:
.LBB96:
	.loc 4 70 0
	out __SREG__,r25
	.loc 4 71 0
.LBE96:
.LBE95:
.LBE92:
.LBE91:
.LBE90:
	.loc 1 210 0
	cpi r24,lo8(8)
	brlo .L15
	ldi r26,lo8(keyboardData)
	ldi r27,hi8(keyboardData)
.LBB97:
.LBB98:
	.loc 3 187 0
	ldi r24,lo8(USARTtoUSB_Buffer)
	ldi r25,hi8(USARTtoUSB_Buffer)
.LVL18:
.L18:
	.loc 3 184 0
	lds r30,USARTtoUSB_Buffer+130
	lds r31,USARTtoUSB_Buffer+130+1
	ld r21,Z+
.LVL19:
	.loc 3 186 0
	sts USARTtoUSB_Buffer+130+1,r31
	sts USARTtoUSB_Buffer+130,r30
	subi r30,lo8(USARTtoUSB_Buffer+128)
	sbci r31,hi8(USARTtoUSB_Buffer+128)
	brne .L16
	.loc 3 187 0
	sts USARTtoUSB_Buffer+130+1,r25
	sts USARTtoUSB_Buffer+130,r24
.L16:
.LBB99:
	.loc 3 189 0
	in r22,__SREG__
.LVL20:
.LBB100:
.LBB101:
	.loc 4 50 0
/* #APP */
 ;  50 "/usr/lib/avr/include/util/atomic.h" 1
	cli
 ;  0 "" 2
.LVL21:
/* #NOAPP */
.LBE101:
.LBE100:
	.loc 3 191 0
	lds r20,USARTtoUSB_Buffer+132
	subi r20,lo8(-(-1))
	sts USARTtoUSB_Buffer+132,r20
.LVL22:
.LBB102:
.LBB103:
	.loc 4 70 0
	out __SREG__,r22
	.loc 4 71 0
.LBE103:
.LBE102:
.LBE99:
.LBE98:
.LBE97:
	.loc 1 212 0
	st X+,r21
.LVL23:
	.loc 1 211 0
	ldi r30,hi8(keyboardData+8)
	cpi r26,lo8(keyboardData+8)
	cpc r27,r30
	brne .L18
	.loc 1 216 0
	lds r24,ledReport
.LVL24:
.L20:
.LBB104:
.LBB105:
	.loc 2 142 0
	lds r25,200
	sbrs r25,5
	rjmp .L20
	.loc 2 143 0
	sts 206,r24
.LVL25:
.L15:
	ldi r26,lo8(keyboardData)
	ldi r27,hi8(keyboardData)
	movw r30,r18
.LVL26:
.L22:
.LBE105:
.LBE104:
	.loc 1 220 0 discriminator 2
	ld r24,X+
.LVL27:
	st Z+,r24
.LVL28:
	.loc 1 219 0 discriminator 2
	ldi r20,hi8(keyboardData+8)
	cpi r26,lo8(keyboardData+8)
	cpc r27,r20
	brne .L22
	.loc 1 223 0
	ldi r24,lo8(8)
	ldi r25,0
	movw r30,r16
	std Z+1,r25
	st Z,r24
	.loc 1 225 0
	ldi r24,0
/* epilogue start */
	pop r17
	pop r16
.LVL29:
	ret
	.cfi_endproc
.LFE93:
	.size	CALLBACK_HID_Device_CreateHIDReport, .-CALLBACK_HID_Device_CreateHIDReport
	.section	.text.CALLBACK_HID_Device_ProcessHIDReport,"ax",@progbits
.global	CALLBACK_HID_Device_ProcessHIDReport
	.type	CALLBACK_HID_Device_ProcessHIDReport, @function
CALLBACK_HID_Device_ProcessHIDReport:
.LFB94:
	.loc 1 240 0
	.cfi_startproc
.LVL30:
/* prologue: function */
/* frame size = 0 */
/* stack size = 0 */
.L__stack_usage = 0
	.loc 1 243 0
	call check_windows
.LVL31:
	sts ledReport,r24
	ret
	.cfi_endproc
.LFE94:
	.size	CALLBACK_HID_Device_ProcessHIDReport, .-CALLBACK_HID_Device_ProcessHIDReport
	.section	.text.__vector_23,"ax",@progbits
.global	__vector_23
	.type	__vector_23, @function
__vector_23:
.LFB95:
	.loc 1 250 0
	.cfi_startproc
	push r1
.LCFI11:
	.cfi_def_cfa_offset 3
	.cfi_offset 1, -2
	push r0
.LCFI12:
	.cfi_def_cfa_offset 4
	.cfi_offset 0, -3
	in r0,__SREG__
	push r0
	clr __zero_reg__
	push r18
.LCFI13:
	.cfi_def_cfa_offset 5
	.cfi_offset 18, -4
	push r24
.LCFI14:
	.cfi_def_cfa_offset 6
	.cfi_offset 24, -5
	push r25
.LCFI15:
	.cfi_def_cfa_offset 7
	.cfi_offset 25, -6
	push r30
.LCFI16:
	.cfi_def_cfa_offset 8
	.cfi_offset 30, -7
	push r31
.LCFI17:
	.cfi_def_cfa_offset 9
	.cfi_offset 31, -8
/* prologue: Signal */
/* frame size = 0 */
/* stack size = 8 */
.L__stack_usage = 8
	.loc 1 251 0
	lds r24,206
.LVL32:
	.loc 1 253 0
	in r25,0x1e
	cpi r25,lo8(4)
	brne .L24
.LVL33:
.LBB113:
.LBB114:
	.loc 3 161 0
	lds r30,USARTtoUSB_Buffer+128
	lds r31,USARTtoUSB_Buffer+128+1
	st Z,r24
	.loc 3 163 0
	lds r30,USARTtoUSB_Buffer+128
	lds r31,USARTtoUSB_Buffer+128+1
	movw r24,r30
.LVL34:
	adiw r24,1
	sts USARTtoUSB_Buffer+128+1,r25
	sts USARTtoUSB_Buffer+128,r24
	subi r24,lo8(USARTtoUSB_Buffer+128)
	sbci r25,hi8(USARTtoUSB_Buffer+128)
	brne .L26
	.loc 3 164 0
	ldi r24,lo8(USARTtoUSB_Buffer)
	ldi r25,hi8(USARTtoUSB_Buffer)
	std Z+2,r25
	std Z+1,r24
.L26:
.LBB115:
	.loc 3 166 0
	in r25,__SREG__
.LVL35:
.LBB116:
.LBB117:
	.loc 4 50 0
/* #APP */
 ;  50 "/usr/lib/avr/include/util/atomic.h" 1
	cli
 ;  0 "" 2
.LVL36:
/* #NOAPP */
.LBE117:
.LBE116:
	.loc 3 168 0
	lds r24,USARTtoUSB_Buffer+132
	subi r24,lo8(-(1))
	sts USARTtoUSB_Buffer+132,r24
.LVL37:
.LBB118:
.LBB119:
	.loc 4 70 0
	out __SREG__,r25
	.loc 4 71 0
.LVL38:
.L24:
/* epilogue start */
.LBE119:
.LBE118:
.LBE115:
.LBE114:
.LBE113:
	.loc 1 255 0
	pop r31
	pop r30
	pop r25
	pop r24
	pop r18
	pop r0
	out __SREG__,r0
	pop r0
	pop r1
	reti
	.cfi_endproc
.LFE95:
	.size	__vector_23, .-__vector_23
.global	ledReport
	.section .bss
	.type	ledReport, @object
	.size	ledReport, 1
ledReport:
	.zero	1
.global	keyboardData
	.type	keyboardData, @object
	.size	keyboardData, 8
keyboardData:
	.zero	8
	.comm	USARTtoUSB_Buffer,133,1
.global	Keyboard_HID_Interface
	.data
	.type	Keyboard_HID_Interface, @object
	.size	Keyboard_HID_Interface, 13
Keyboard_HID_Interface:
	.byte	0
	.byte	1
	.word	8
	.byte	0
	.word	PrevKeyboardHIDReportBuffer
	.byte	8
	.zero	5
	.comm	PrevKeyboardHIDReportBuffer,8,1
	.text
.Letext0:
	.file 7 "/usr/lib/avr/include/stdint.h"
	.file 8 "../lufa-LUFA/LUFA/Drivers/USB/HighLevel/../LowLevel/USBController.h"
	.file 9 "../lufa-LUFA/LUFA/Drivers/USB/HighLevel/USBTask.h"
	.file 10 "Descriptors.h"