
AudioInput.elf:     file format elf32-avr

Sections:
Idx Name          Size      VMA       LMA       File off  Algn
  0 .data         00000004  00800100  00000cc4  00000d58  2**0
                  CONTENTS, ALLOC, LOAD, DATA
  1 .text         00000cc4  00000000  00000000  00000094  2**1
                  CONTENTS, ALLOC, LOAD, READONLY, CODE
  2 .bss          00000011  00800104  00800104  00000d5c  2**0
                  ALLOC
  3 .stab         00000870  00000000  00000000  00000d5c  2**2
                  CONTENTS, READONLY, DEBUGGING
  4 .stabstr      000000b3  00000000  00000000  000015cc  2**0
                  CONTENTS, READONLY, DEBUGGING
  5 .comment      00000011  00000000  00000000  0000167f  2**0
                  CONTENTS, READONLY
  6 .debug_aranges 00000338  00000000  00000000  00001690  2**0
                  CONTENTS, READONLY, DEBUGGING
  7 .debug_info   0000575b  00000000  00000000  000019c8  2**0
                  CONTENTS, READONLY, DEBUGGING
  8 .debug_abbrev 00001583  00000000  00000000  00007123  2**0
                  CONTENTS, READONLY, DEBUGGING
  9 .debug_line   00002487  00000000  00000000  000086a6  2**0
                  CONTENTS, READONLY, DEBUGGING
 10 .debug_frame  000008d0  00000000  00000000  0000ab30  2**2
                  CONTENTS, READONLY, DEBUGGING
 11 .debug_str    00002b5d  00000000  00000000  0000b400  2**0
                  CONTENTS, READONLY, DEBUGGING
 12 .debug_loc    00003a73  00000000  00000000  0000df5d  2**0
                  CONTENTS, READONLY, DEBUGGING
 13 .debug_ranges 000004d0  00000000  00000000  000119d0  2**0
                  CONTENTS, READONLY, DEBUGGING

Disassembly of section .text:

00000000 <__vectors>:
#include "HIDParser.h"

uint8_t USB_ProcessHIDReport(const uint8_t* ReportData,
                             uint16_t ReportSize,
                             HID_ReportInfo_t* const ParserData)
{
   0:	af c0       	rjmp	.+350    	; 0x160 <__ctors_end>
   2:	00 00       	nop
   4:	ca c0       	rjmp	.+404    	; 0x19a <__bad_interrupt>
   6:	00 00       	nop
   8:	c8 c0       	rjmp	.+400    	; 0x19a <__bad_interrupt>
   a:	00 00       	nop
   c:	c6 c0       	rjmp	.+396    	; 0x19a <__bad_interrupt>
   e:	00 00       	nop
  10:	c4 c0       	rjmp	.+392    	; 0x19a <__bad_interrupt>
  12:	00 00       	nop
  14:	c2 c0       	rjmp	.+388    	; 0x19a <__bad_interrupt>
  16:	00 00       	nop
  18:	c0 c0       	rjmp	.+384    	; 0x19a <__bad_interrupt>
  1a:	00 00       	nop
  1c:	be c0       	rjmp	.+380    	; 0x19a <__bad_interrupt>
  1e:	00 00       	nop
  20:	bc c0       	rjmp	.+376    	; 0x19a <__bad_interrupt>
  22:	00 00       	nop
  24:	ba c0       	rjmp	.+372    	; 0x19a <__bad_interrupt>
  26:	00 00       	nop
  28:	f1 c3       	rjmp	.+2018   	; 0x80c <__vector_10>
  2a:	00 00       	nop
  2c:	b6 c0       	rjmp	.+364    	; 0x19a <__bad_interrupt>
  2e:	00 00       	nop
  30:	b4 c0       	rjmp	.+360    	; 0x19a <__bad_interrupt>
  32:	00 00       	nop
  34:	b2 c0       	rjmp	.+356    	; 0x19a <__bad_interrupt>
  36:	00 00       	nop
	HID_StateTable_t      StateTable[HID_STATETABLE_STACK_DEPTH];
	HID_StateTable_t*     CurrStateTable     = &StateTable[0];
	HID_CollectionPath_t* CurrCollectionPath = NULL;
	HID_ReportSizeInfo_t* CurrReportIDInfo   = &ParserData->ReportIDSizes[0];
  38:	b0 c0       	rjmp	.+352    	; 0x19a <__bad_interrupt>
  3a:	00 00       	nop
  3c:	ae c0       	rjmp	.+348    	; 0x19a <__bad_interrupt>
  3e:	00 00       	nop
  40:	ac c0       	rjmp	.+344    	; 0x19a <__bad_interrupt>
  42:	00 00       	nop
  44:	aa c0       	rjmp	.+340    	; 0x19a <__bad_interrupt>
	uint16_t              UsageList[HID_USAGE_STACK_DEPTH];
	uint8_t               UsageListSize      = 0;
	HID_MinMax_t          UsageMinMax        = {0, 0};

	memset(ParserData,       0x00, sizeof(HID_ReportInfo_t));
  46:	00 00       	nop
  48:	a8 c0       	rjmp	.+336    	; 0x19a <__bad_interrupt>
  4a:	00 00       	nop
  4c:	a6 c0       	rjmp	.+332    	; 0x19a <__bad_interrupt>
  4e:	00 00       	nop
  50:	a4 c0       	rjmp	.+328    	; 0x19a <__bad_interrupt>
  52:	00 00       	nop
	memset(CurrStateTable,   0x00, sizeof(HID_StateTable_t));
  54:	a4 c1       	rjmp	.+840    	; 0x39e <__vector_21>
  56:	00 00       	nop
  58:	a0 c0       	rjmp	.+320    	; 0x19a <__bad_interrupt>
  5a:	00 00       	nop
  5c:	9e c0       	rjmp	.+316    	; 0x19a <__bad_interrupt>
  5e:	00 00       	nop
  60:	9c c0       	rjmp	.+312    	; 0x19a <__bad_interrupt>
	memset(CurrReportIDInfo, 0x00, sizeof(HID_ReportSizeInfo_t));
  62:	00 00       	nop
  64:	9a c0       	rjmp	.+308    	; 0x19a <__bad_interrupt>
  66:	00 00       	nop
  68:	98 c0       	rjmp	.+304    	; 0x19a <__bad_interrupt>
  6a:	00 00       	nop

	ParserData->TotalDeviceReports = 1;
  6c:	96 c0       	rjmp	.+300    	; 0x19a <__bad_interrupt>
  6e:	00 00       	nop
  70:	94 c0       	rjmp	.+296    	; 0x19a <__bad_interrupt>
  72:	00 00       	nop
  74:	92 c0       	rjmp	.+292    	; 0x19a <__bad_interrupt>
  76:	00 00       	nop
  78:	90 c0       	rjmp	.+288    	; 0x19a <__bad_interrupt>
  7a:	00 00       	nop
  7c:	8e c0       	rjmp	.+284    	; 0x19a <__bad_interrupt>
  7e:	00 00       	nop
	HID_StateTable_t*     CurrStateTable     = &StateTable[0];
	HID_CollectionPath_t* CurrCollectionPath = NULL;
	HID_ReportSizeInfo_t* CurrReportIDInfo   = &ParserData->ReportIDSizes[0];
	uint16_t              UsageList[HID_USAGE_STACK_DEPTH];
	uint8_t               UsageListSize      = 0;
	HID_MinMax_t          UsageMinMax        = {0, 0};
  80:	8c c0       	rjmp	.+280    	; 0x19a <__bad_interrupt>
  82:	00 00       	nop
  84:	8a c0       	rjmp	.+276    	; 0x19a <__bad_interrupt>
  86:	00 00       	nop
  88:	88 c0       	rjmp	.+272    	; 0x19a <__bad_interrupt>
  8a:	00 00       	nop
	HID_StateTable_t      StateTable[HID_STATETABLE_STACK_DEPTH];
	HID_StateTable_t*     CurrStateTable     = &StateTable[0];
	HID_CollectionPath_t* CurrCollectionPath = NULL;
	HID_ReportSizeInfo_t* CurrReportIDInfo   = &ParserData->ReportIDSizes[0];
	uint16_t              UsageList[HID_USAGE_STACK_DEPTH];
	uint8_t               UsageListSize      = 0;
  8c:	86 c0       	rjmp	.+268    	; 0x19a <__bad_interrupt>
  8e:	00 00       	nop
  90:	84 c0       	rjmp	.+264    	; 0x19a <__bad_interrupt>
                             uint16_t ReportSize,
                             HID_ReportInfo_t* const ParserData)
{
	HID_StateTable_t      StateTable[HID_STATETABLE_STACK_DEPTH];
	HID_StateTable_t*     CurrStateTable     = &StateTable[0];
	HID_CollectionPath_t* CurrCollectionPath = NULL;
  92:	00 00       	nop
  94:	82 c0       	rjmp	.+260    	; 0x19a <__bad_interrupt>
  96:	00 00       	nop

00000098 <ProductString>:
  98:	26 03 4c 00 55 00 46 00 41 00 20 00 41 00 75 00     &.L.U.F.A. .A.u.

					NewReportItem.BitOffset = CurrReportIDInfo->ReportSizeBits[NewReportItem.ItemType];

					CurrReportIDInfo->ReportSizeBits[NewReportItem.ItemType] += CurrStateTable->Attributes.BitSize;

					ParserData->LargestReportSizeBits = MAX(ParserData->LargestReportSizeBits, CurrReportIDInfo->ReportSizeBits[NewReportItem.ItemType]);
  a8:	64 00 69 00 6f 00 20 00 49 00 6e 00 20 00 44 00     d.i.o. .I.n. .D.

					CurrCollectionPath = &ParserData->CollectionPaths[1];

					while (CurrCollectionPath->Parent != NULL)
					{
						if (CurrCollectionPath == &ParserData->CollectionPaths[HID_MAX_COLLECTIONS - 1])
  b8:	65 00 6d 00 6f 00 00 00                             e.m.o...

000000c0 <ManufacturerString>:
				break;

			case HID_RI_REPORT_ID(0):
				CurrStateTable->ReportID                    = ReportItemData;

				if (ParserData->UsingReportIDs)
  c0:	18 03 44 00 65 00 61 00 6e 00 20 00 43 00 61 00     ..D.e.a.n. .C.a.
				{
					CurrReportIDInfo = NULL;

					for (uint8_t i = 0; i < ParserData->TotalDeviceReports; i++)
  d0:	6d 00 65 00 72 00 61 00 00 00                       m.e.r.a...

000000da <LanguageString>:
	memset(CurrStateTable,   0x00, sizeof(HID_StateTable_t));
	memset(CurrReportIDInfo, 0x00, sizeof(HID_ReportSizeInfo_t));

	ParserData->TotalDeviceReports = 1;

	while (ReportSize)
  da:	04 03 09 04                                         ....

000000de <ConfigurationDescriptor>:
	{
		uint8_t  HIDReportItem  = *ReportData;
  de:	09 02 70 00 02 01 00 c0 32 09 04 00 00 00 01 01     ..p.....2.......
		uint32_t ReportItemData;

		ReportData++;
		ReportSize--;

		switch (HIDReportItem & HID_RI_DATA_SIZE_MASK)
  ee:	00 00 09 24 01 00 01 1e 00 01 01 0c 24 02 01 01     ...$........$...
	{
		uint8_t  HIDReportItem  = *ReportData;
		uint32_t ReportItemData;

		ReportData++;
		ReportSize--;
  fe:	02 00 01 00 00 00 00 09 24 03 02 01 01 00 01 00     ........$.......

		switch (HIDReportItem & HID_RI_DATA_SIZE_MASK)
		{
			case HID_RI_DATA_BITS_32:
				ReportItemData  = (((uint32_t)ReportData[3] << 24) | ((uint32_t)ReportData[2] << 16) |
 10e:	09 04 01 00 00 01 02 00 00 09 04 01 01 01 01 02     ................
 11e:	00 00 07 24 01 02 01 01 00 17 24 02 01 01 02 10     ...$......$.....
			                       ((uint16_t)ReportData[1] << 8)  | ReportData[0]);
 12e:	05 40 1f 00 11 2b 00 22 56 00 44 ac 00 80 bb 00     .@...+."V.D.....
		ReportSize--;

		switch (HIDReportItem & HID_RI_DATA_SIZE_MASK)
		{
			case HID_RI_DATA_BITS_32:
				ReportItemData  = (((uint32_t)ReportData[3] << 24) | ((uint32_t)ReportData[2] << 16) |
 13e:	09 05 81 0d 00 01 01 00 00 07 25 01 01 00 00 00     ..........%.....

0000014e <DeviceDescriptor>:
			                       ((uint16_t)ReportData[1] << 8)  | ReportData[0]);
				ReportSize     -= 4;
				ReportData     += 4;
				break;
 14e:	12 01 10 01 00 00 00 08 eb 03 47 20 02 00 01 02     ..........G ....

			case HID_RI_DATA_BITS_16:
				ReportItemData  = (((uint16_t)ReportData[1] << 8) | (ReportData[0]));
 15e:	00 01                                               ..

00000160 <__ctors_end>:
 160:	11 24       	eor	r1, r1
				ReportSize     -= 2;
 162:	1f be       	out	0x3f, r1	; 63
 164:	cf ef       	ldi	r28, 0xFF	; 255
				ReportData     += 2;
 166:	d0 e2       	ldi	r29, 0x20	; 32
 168:	de bf       	out	0x3e, r29	; 62
 16a:	cd bf       	out	0x3d, r28	; 61

0000016c <__do_copy_data>:
				break;
 16c:	11 e0       	ldi	r17, 0x01	; 1

			case HID_RI_DATA_BITS_8:
				ReportItemData  = ReportData[0];
 16e:	a0 e0       	ldi	r26, 0x00	; 0
 170:	b1 e0       	ldi	r27, 0x01	; 1
 172:	e4 ec       	ldi	r30, 0xC4	; 196
 174:	fc e0       	ldi	r31, 0x0C	; 12
 176:	00 e0       	ldi	r16, 0x00	; 0
 178:	0b bf       	out	0x3b, r16	; 59
				ReportSize     -= 1;
 17a:	02 c0       	rjmp	.+4      	; 0x180 <__do_copy_data+0x14>
 17c:	07 90       	elpm	r0, Z+
				ReportData     += 1;
 17e:	0d 92       	st	X+, r0
 180:	a4 30       	cpi	r26, 0x04	; 4
 182:	b1 07       	cpc	r27, r17
			default:
				ReportItemData  = 0;
				break;
		}

		switch (HIDReportItem & (HID_RI_TYPE_MASK | HID_RI_TAG_MASK))
 184:	d9 f7       	brne	.-10     	; 0x17c <__do_copy_data+0x10>

00000186 <__do_clear_bss>:
 186:	11 e0       	ldi	r17, 0x01	; 1
 188:	a4 e0       	ldi	r26, 0x04	; 4
 18a:	b1 e0       	ldi	r27, 0x01	; 1
 18c:	01 c0       	rjmp	.+2      	; 0x190 <.do_clear_bss_start>

0000018e <.do_clear_bss_loop>:
 18e:	1d 92       	st	X+, r1

00000190 <.do_clear_bss_start>:
 190:	a5 31       	cpi	r26, 0x15	; 21
 192:	b1 07       	cpc	r27, r17
 194:	e1 f7       	brne	.-8      	; 0x18e <.do_clear_bss_loop>
 196:	39 d0       	rcall	.+114    	; 0x20a <main>
 198:	93 c5       	rjmp	.+2854   	; 0xcc0 <_exit>

0000019a <__bad_interrupt>:
 19a:	32 cf       	rjmp	.-412    	; 0x0 <__vectors>

0000019c <LEDs_SetAllLEDs>:
 19c:	9b b1       	in	r25, 0x0b	; 11
 19e:	9f 70       	andi	r25, 0x0F	; 15
 1a0:	98 2b       	or	r25, r24
 1a2:	9b b9       	out	0x0b, r25	; 11
 1a4:	08 95       	ret

000001a6 <SetupHardware>:
 1a6:	cf 93       	push	r28
 1a8:	df 93       	push	r29

			case HID_RI_USAGE_PAGE(0):
				if ((HIDReportItem & HID_RI_DATA_SIZE_MASK) == HID_RI_DATA_BITS_32)
				  CurrStateTable->Attributes.Usage.Page = (ReportItemData >> 16);

				CurrStateTable->Attributes.Usage.Page       = ReportItemData;
 1aa:	84 b7       	in	r24, 0x34	; 52
 1ac:	87 7f       	andi	r24, 0xF7	; 247
 1ae:	84 bf       	out	0x34, r24	; 52
 1b0:	88 e1       	ldi	r24, 0x18	; 24
 1b2:	0f b6       	in	r0, 0x3f	; 63
				break;
 1b4:	f8 94       	cli
			default:
				ReportItemData  = 0;
				break;
		}

		switch (HIDReportItem & (HID_RI_TYPE_MASK | HID_RI_TAG_MASK))
 1b6:	80 93 60 00 	sts	0x0060, r24
 1ba:	10 92 60 00 	sts	0x0060, r1
 1be:	0f be       	out	0x3f, r0	; 63
 1c0:	90 e0       	ldi	r25, 0x00	; 0
 1c2:	80 e8       	ldi	r24, 0x80	; 128
 1c4:	0f b6       	in	r0, 0x3f	; 63
 1c6:	f8 94       	cli
 1c8:	80 93 61 00 	sts	0x0061, r24
 1cc:	90 93 61 00 	sts	0x0061, r25
 1d0:	0f be       	out	0x3f, r0	; 63
 1d2:	8a b1       	in	r24, 0x0a	; 10
 1d4:	80 6f       	ori	r24, 0xF0	; 240
				UsageMinMax.Minimum = ReportItemData;
				break;

			case HID_RI_USAGE_MAXIMUM(0):
				UsageMinMax.Maximum = ReportItemData;
				break;
 1d6:	8a b9       	out	0x0a, r24	; 10
 1d8:	8b b1       	in	r24, 0x0b	; 11
 1da:	8f 70       	andi	r24, 0x0F	; 15
			default:
				ReportItemData  = 0;
				break;
		}

		switch (HIDReportItem & (HID_RI_TYPE_MASK | HID_RI_TAG_MASK))
 1dc:	8b b9       	out	0x0b, r24	; 11
 1de:	6a 98       	cbi	0x0d, 2	; 13
 1e0:	72 9a       	sbi	0x0e, 2	; 14
 1e2:	ca e7       	ldi	r28, 0x7A	; 122
 1e4:	d0 e0       	ldi	r29, 0x00	; 0
 1e6:	85 ea       	ldi	r24, 0xA5	; 165
			case HID_RI_PHYSICAL_MAXIMUM(0):
				CurrStateTable->Attributes.Physical.Maximum = ReportItemData;
				break;

			case HID_RI_UNIT_EXPONENT(0):
				CurrStateTable->Attributes.Unit.Exponent    = ReportItemData;
 1e8:	88 83       	st	Y, r24
 1ea:	82 98       	cbi	0x10, 2	; 16
				break;
 1ec:	ee e7       	ldi	r30, 0x7E	; 126
			default:
				ReportItemData  = 0;
				break;
		}

		switch (HIDReportItem & (HID_RI_TYPE_MASK | HID_RI_TAG_MASK))
 1ee:	f0 e0       	ldi	r31, 0x00	; 0
 1f0:	80 81       	ld	r24, Z
 1f2:	84 60       	ori	r24, 0x04	; 4
 1f4:	80 83       	st	Z, r24
 1f6:	ef d2       	rcall	.+1502   	; 0x7d6 <USB_Init>
 1f8:	82 e4       	ldi	r24, 0x42	; 66
 1fa:	80 93 7c 00 	sts	0x007C, r24
 1fe:	88 81       	ld	r24, Y
 200:	80 64       	ori	r24, 0x40	; 64
			case HID_RI_UNIT(0):
				CurrStateTable->Attributes.Unit.Type        = ReportItemData;
				break;

			case HID_RI_REPORT_SIZE(0):
				CurrStateTable->Attributes.BitSize          = ReportItemData;
 202:	88 83       	st	Y, r24
 204:	df 91       	pop	r29
				break;
 206:	cf 91       	pop	r28
			default:
				ReportItemData  = 0;
				break;
		}

		switch (HIDReportItem & (HID_RI_TYPE_MASK | HID_RI_TAG_MASK))
 208:	08 95       	ret

0000020a <main>:
 20a:	cd df       	rcall	.-102    	; 0x1a6 <SetupHardware>
 20c:	80 e1       	ldi	r24, 0x10	; 16
 20e:	c6 df       	rcall	.-116    	; 0x19c <LEDs_SetAllLEDs>
 210:	78 94       	sei
 212:	18 d5       	rcall	.+2608   	; 0xc44 <USB_USBTask>
 214:	fe cf       	rjmp	.-4      	; 0x212 <main+0x8>

00000216 <EVENT_USB_Device_Connect>:
 216:	cf 93       	push	r28
 218:	80 ea       	ldi	r24, 0xA0	; 160
 21a:	c0 df       	rcall	.-128    	; 0x19c <LEDs_SetAllLEDs>
 21c:	c2 e0       	ldi	r28, 0x02	; 2
 21e:	c0 93 6e 00 	sts	0x006E, r28
 222:	20 91 00 01 	lds	r18, 0x0100
 226:	30 91 01 01 	lds	r19, 0x0101
 22a:	40 91 02 01 	lds	r20, 0x0102
 22e:	50 91 03 01 	lds	r21, 0x0103
 232:	60 e4       	ldi	r22, 0x40	; 64
					  return HID_PARSE_InsufficientReportItems;

					memcpy(&ParserData->ReportItems[ParserData->TotalReportItems],
					       &NewReportItem, sizeof(HID_ReportItem_t));

					if (!(ReportItemData & HID_IOF_CONSTANT) && CALLBACK_HIDParser_FilterHIDReportItem(&NewReportItem))
 234:	72 e4       	ldi	r23, 0x42	; 66
 236:	8f e0       	ldi	r24, 0x0F	; 15
 238:	90 e0       	ldi	r25, 0x00	; 0
 23a:	20 d5       	rcall	.+2624   	; 0xc7c <__udivmodsi4>
 23c:	21 50       	subi	r18, 0x01	; 1
 23e:	27 bd       	out	0x27, r18	; 39
 240:	c4 bd       	out	0x24, r28	; 36
 242:	c5 bd       	out	0x25, r28	; 37
 244:	cf 91       	pop	r28
 246:	08 95       	ret

00000248 <EVENT_USB_Device_Disconnect>:
 248:	15 bc       	out	0x25, r1	; 37
 24a:	10 92 07 01 	sts	0x0107, r1
 24e:	80 e1       	ldi	r24, 0x10	; 16
 250:	a5 cf       	rjmp	.-182    	; 0x19c <LEDs_SetAllLEDs>

00000252 <EVENT_USB_Device_ConfigurationChanged>:
		}

		switch (HIDReportItem & (HID_RI_TYPE_MASK | HID_RI_TAG_MASK))
		{
			case HID_RI_PUSH(0):
				if (CurrStateTable == &StateTable[HID_STATETABLE_STACK_DEPTH - 1])
 252:	46 e5       	ldi	r20, 0x56	; 86
 254:	61 e4       	ldi	r22, 0x41	; 65
 256:	81 e0       	ldi	r24, 0x01	; 1
 258:	23 d2       	rcall	.+1094   	; 0x6a0 <Endpoint_ConfigureEndpoint_Prv>
 25a:	88 23       	and	r24, r24
 25c:	11 f0       	breq	.+4      	; 0x262 <EVENT_USB_Device_ConfigurationChanged+0x10>
				  return HID_PARSE_HIDStackOverflow;

				memcpy((CurrStateTable + 1),
 25e:	80 e6       	ldi	r24, 0x60	; 96
 260:	01 c0       	rjmp	.+2      	; 0x264 <EVENT_USB_Device_ConfigurationChanged+0x12>
 262:	80 e9       	ldi	r24, 0x90	; 144
 264:	9b cf       	rjmp	.-202    	; 0x19c <LEDs_SetAllLEDs>

00000266 <EVENT_USB_Device_ControlRequest>:
 266:	cf 93       	push	r28
 268:	df 93       	push	r29
 26a:	00 d0       	rcall	.+0      	; 0x26c <EVENT_USB_Device_ControlRequest+0x6>
 26c:	1f 92       	push	r1
 26e:	cd b7       	in	r28, 0x3d	; 61
				       CurrStateTable,
				       sizeof(HID_ReportItem_t));

				CurrStateTable++;
 270:	de b7       	in	r29, 0x3e	; 62
				break;
 272:	80 91 0e 01 	lds	r24, 0x010E

			case HID_RI_POP(0):
				if (CurrStateTable == &StateTable[0])
 276:	8b 30       	cpi	r24, 0x0B	; 11
 278:	51 f0       	breq	.+20     	; 0x28e <EVENT_USB_Device_ControlRequest+0x28>
 27a:	18 f4       	brcc	.+6      	; 0x282 <EVENT_USB_Device_ControlRequest+0x1c>
 27c:	81 30       	cpi	r24, 0x01	; 1
 27e:	51 f1       	breq	.+84     	; 0x2d4 <EVENT_USB_Device_ControlRequest+0x6e>
				  return HID_PARSE_HIDStackUnderflow;

				CurrStateTable--;
 280:	88 c0       	rjmp	.+272    	; 0x392 <EVENT_USB_Device_ControlRequest+0x12c>
 282:	81 38       	cpi	r24, 0x81	; 129
				break;
 284:	09 f4       	brne	.+2      	; 0x288 <EVENT_USB_Device_ControlRequest+0x22>

				CurrStateTable->Attributes.Usage.Page       = ReportItemData;
				break;

			case HID_RI_LOGICAL_MINIMUM(0):
				CurrStateTable->Attributes.Logical.Minimum  = ReportItemData;
 286:	61 c0       	rjmp	.+194    	; 0x34a <EVENT_USB_Device_ControlRequest+0xe4>
 288:	8f 3f       	cpi	r24, 0xFF	; 255
 28a:	b9 f0       	breq	.+46     	; 0x2ba <EVENT_USB_Device_ControlRequest+0x54>
 28c:	82 c0       	rjmp	.+260    	; 0x392 <EVENT_USB_Device_ControlRequest+0x12c>
 28e:	80 91 0d 01 	lds	r24, 0x010D
				break;

			case HID_RI_LOGICAL_MAXIMUM(0):
				CurrStateTable->Attributes.Logical.Maximum  = ReportItemData;
 292:	81 30       	cpi	r24, 0x01	; 1
 294:	09 f0       	breq	.+2      	; 0x298 <EVENT_USB_Device_ControlRequest+0x32>
 296:	7d c0       	rjmp	.+250    	; 0x392 <EVENT_USB_Device_ControlRequest+0x12c>
 298:	80 91 e8 00 	lds	r24, 0x00E8
 29c:	87 7f       	andi	r24, 0xF7	; 247
 29e:	80 93 e8 00 	sts	0x00E8, r24
				break;

			case HID_RI_PHYSICAL_MINIMUM(0):
				CurrStateTable->Attributes.Physical.Minimum = ReportItemData;
 2a2:	33 d2       	rcall	.+1126   	; 0x70a <Endpoint_ClearStatusStage>
 2a4:	21 e0       	ldi	r18, 0x01	; 1
 2a6:	80 91 0f 01 	lds	r24, 0x010F
 2aa:	90 91 10 01 	lds	r25, 0x0110
				break;

			case HID_RI_PHYSICAL_MAXIMUM(0):
				CurrStateTable->Attributes.Physical.Maximum = ReportItemData;
 2ae:	89 2b       	or	r24, r25
 2b0:	09 f4       	brne	.+2      	; 0x2b4 <EVENT_USB_Device_ControlRequest+0x4e>
 2b2:	20 e0       	ldi	r18, 0x00	; 0
 2b4:	20 93 07 01 	sts	0x0107, r18
 2b8:	6c c0       	rjmp	.+216    	; 0x392 <EVENT_USB_Device_ControlRequest+0x12c>
 2ba:	80 91 0d 01 	lds	r24, 0x010D
			case HID_RI_UNIT_EXPONENT(0):
				CurrStateTable->Attributes.Unit.Exponent    = ReportItemData;
				break;

			case HID_RI_UNIT(0):
				CurrStateTable->Attributes.Unit.Type        = ReportItemData;
 2be:	81 52       	subi	r24, 0x21	; 33
 2c0:	82 30       	cpi	r24, 0x02	; 2
 2c2:	08 f0       	brcs	.+2      	; 0x2c6 <EVENT_USB_Device_ControlRequest+0x60>
 2c4:	66 c0       	rjmp	.+204    	; 0x392 <EVENT_USB_Device_ControlRequest+0x12c>
 2c6:	80 91 e8 00 	lds	r24, 0x00E8
 2ca:	87 7f       	andi	r24, 0xF7	; 247
				break;
 2cc:	80 93 e8 00 	sts	0x00E8, r24
			case HID_RI_REPORT_SIZE(0):
				CurrStateTable->Attributes.BitSize          = ReportItemData;
				break;

			case HID_RI_REPORT_COUNT(0):
				CurrStateTable->ReportCount                 = ReportItemData;
 2d0:	1c d2       	rcall	.+1080   	; 0x70a <Endpoint_ClearStatusStage>
 2d2:	5f c0       	rjmp	.+190    	; 0x392 <EVENT_USB_Device_ControlRequest+0x12c>
				break;
 2d4:	80 91 0d 01 	lds	r24, 0x010D

			case HID_RI_REPORT_ID(0):
				CurrStateTable->ReportID                    = ReportItemData;
 2d8:	82 32       	cpi	r24, 0x22	; 34
 2da:	09 f0       	breq	.+2      	; 0x2de <EVENT_USB_Device_ControlRequest+0x78>

				if (ParserData->UsingReportIDs)
 2dc:	5a c0       	rjmp	.+180    	; 0x392 <EVENT_USB_Device_ControlRequest+0x12c>
 2de:	80 91 10 01 	lds	r24, 0x0110
 2e2:	90 91 11 01 	lds	r25, 0x0111
 2e6:	91 38       	cpi	r25, 0x81	; 129
 2e8:	09 f0       	breq	.+2      	; 0x2ec <EVENT_USB_Device_ControlRequest+0x86>
 2ea:	53 c0       	rjmp	.+166    	; 0x392 <EVENT_USB_Device_ControlRequest+0x12c>
				{
					CurrReportIDInfo = NULL;

					for (uint8_t i = 0; i < ParserData->TotalDeviceReports; i++)
 2ec:	81 30       	cpi	r24, 0x01	; 1
 2ee:	09 f0       	breq	.+2      	; 0x2f2 <EVENT_USB_Device_ControlRequest+0x8c>
 2f0:	50 c0       	rjmp	.+160    	; 0x392 <EVENT_USB_Device_ControlRequest+0x12c>
 2f2:	80 91 e8 00 	lds	r24, 0x00E8
 2f6:	87 7f       	andi	r24, 0xF7	; 247
 2f8:	80 93 e8 00 	sts	0x00E8, r24
 2fc:	63 e0       	ldi	r22, 0x03	; 3
 2fe:	70 e0       	ldi	r23, 0x00	; 0
 300:	ce 01       	movw	r24, r28
 302:	01 96       	adiw	r24, 0x01	; 1
					{
						if (ParserData->ReportIDSizes[i].ReportID == CurrStateTable->ReportID)
 304:	2f d1       	rcall	.+606    	; 0x564 <Endpoint_Read_Control_Stream_LE>
 306:	80 91 e8 00 	lds	r24, 0x00E8
 30a:	8e 77       	andi	r24, 0x7E	; 126
 30c:	80 93 e8 00 	sts	0x00E8, r24
 310:	8b 81       	ldd	r24, Y+3	; 0x03
 312:	2a 81       	ldd	r18, Y+2	; 0x02
 314:	42 2f       	mov	r20, r18
 316:	50 e0       	ldi	r21, 0x00	; 0
						{
							CurrReportIDInfo = &ParserData->ReportIDSizes[i];
 318:	60 e0       	ldi	r22, 0x00	; 0
 31a:	70 e0       	ldi	r23, 0x00	; 0
 31c:	22 27       	eor	r18, r18
 31e:	34 2f       	mov	r19, r20
 320:	45 2f       	mov	r20, r21
 322:	56 2f       	mov	r21, r22
 324:	48 2b       	or	r20, r24
 326:	89 81       	ldd	r24, Y+1	; 0x01
 328:	28 2b       	or	r18, r24
 32a:	20 93 00 01 	sts	0x0100, r18
 32e:	30 93 01 01 	sts	0x0101, r19
 332:	40 93 02 01 	sts	0x0102, r20
 336:	50 93 03 01 	sts	0x0103, r21
						}
					}

					if (CurrReportIDInfo == NULL)
					{
						if (ParserData->TotalDeviceReports == HID_MAX_REPORT_IDS)
 33a:	60 e4       	ldi	r22, 0x40	; 64
 33c:	72 e4       	ldi	r23, 0x42	; 66
						  return HID_PARSE_InsufficientReportIDItems;

						CurrReportIDInfo = &ParserData->ReportIDSizes[ParserData->TotalDeviceReports++];
 33e:	8f e0       	ldi	r24, 0x0F	; 15
 340:	90 e0       	ldi	r25, 0x00	; 0
 342:	9c d4       	rcall	.+2360   	; 0xc7c <__udivmodsi4>
 344:	21 50       	subi	r18, 0x01	; 1
 346:	27 bd       	out	0x27, r18	; 39
 348:	24 c0       	rjmp	.+72     	; 0x392 <EVENT_USB_Device_ControlRequest+0x12c>
 34a:	80 91 0d 01 	lds	r24, 0x010D
 34e:	82 3a       	cpi	r24, 0xA2	; 162
 350:	01 f5       	brne	.+64     	; 0x392 <EVENT_USB_Device_ControlRequest+0x12c>
 352:	80 91 10 01 	lds	r24, 0x0110
 356:	90 91 11 01 	lds	r25, 0x0111
 35a:	91 38       	cpi	r25, 0x81	; 129
 35c:	d1 f4       	brne	.+52     	; 0x392 <EVENT_USB_Device_ControlRequest+0x12c>
 35e:	81 30       	cpi	r24, 0x01	; 1
 360:	c1 f4       	brne	.+48     	; 0x392 <EVENT_USB_Device_ControlRequest+0x12c>
 362:	80 91 00 01 	lds	r24, 0x0100
						memset(CurrReportIDInfo, 0x00, sizeof(HID_ReportSizeInfo_t));
 366:	90 91 01 01 	lds	r25, 0x0101
 36a:	20 91 02 01 	lds	r18, 0x0102
					}
				}

				ParserData->UsingReportIDs = true;
 36e:	2b 83       	std	Y+3, r18	; 0x03
 370:	9a 83       	std	Y+2, r25	; 0x02
 372:	89 83       	std	Y+1, r24	; 0x01
 374:	80 91 e8 00 	lds	r24, 0x00E8

				CurrReportIDInfo->ReportID = CurrStateTable->ReportID;
 378:	87 7f       	andi	r24, 0xF7	; 247
 37a:	80 93 e8 00 	sts	0x00E8, r24
 37e:	63 e0       	ldi	r22, 0x03	; 3
 380:	70 e0       	ldi	r23, 0x00	; 0
 382:	ce 01       	movw	r24, r28
 384:	01 96       	adiw	r24, 0x01	; 1
 386:	91 d0       	rcall	.+290    	; 0x4aa <Endpoint_Write_Control_Stream_LE>
				break;
 388:	80 91 e8 00 	lds	r24, 0x00E8

			case HID_RI_USAGE(0):
				if (UsageListSize == HID_USAGE_STACK_DEPTH)
 38c:	8b 77       	andi	r24, 0x7B	; 123
 38e:	80 93 e8 00 	sts	0x00E8, r24
 392:	0f 90       	pop	r0
 394:	0f 90       	pop	r0
				  return HID_PARSE_UsageListOverflow;

				UsageList[UsageListSize++] = ReportItemData;
 396:	0f 90       	pop	r0
 398:	df 91       	pop	r29
 39a:	cf 91       	pop	r28
 39c:	08 95       	ret

0000039e <__vector_21>:
 39e:	1f 92       	push	r1
 3a0:	0f 92       	push	r0
 3a2:	0f b6       	in	r0, 0x3f	; 63
 3a4:	0f 92       	push	r0
 3a6:	11 24       	eor	r1, r1
 3a8:	2f 93       	push	r18
 3aa:	3f 93       	push	r19
 3ac:	8f 93       	push	r24
 3ae:	9f 93       	push	r25
				break;
 3b0:	80 91 e9 00 	lds	r24, 0x00E9
			case HID_RI_USAGE_MAXIMUM(0):
				UsageMinMax.Maximum = ReportItemData;
				break;

			case HID_RI_COLLECTION(0):
				if (CurrCollectionPath == NULL)
 3b4:	8f 70       	andi	r24, 0x0F	; 15
 3b6:	90 91 ec 00 	lds	r25, 0x00EC
 3ba:	90 ff       	sbrs	r25, 0
 3bc:	02 c0       	rjmp	.+4      	; 0x3c2 <__vector_21+0x24>
				{
					CurrCollectionPath = &ParserData->CollectionPaths[0];
 3be:	90 e8       	ldi	r25, 0x80	; 128
 3c0:	01 c0       	rjmp	.+2      	; 0x3c4 <__vector_21+0x26>
 3c2:	90 e0       	ldi	r25, 0x00	; 0
 3c4:	39 2f       	mov	r19, r25
 3c6:	38 2b       	or	r19, r24
 3c8:	81 e0       	ldi	r24, 0x01	; 1
 3ca:	80 93 e9 00 	sts	0x00E9, r24
				}
				else
				{
					HID_CollectionPath_t* ParentCollectionPath = CurrCollectionPath;

					CurrCollectionPath = &ParserData->CollectionPaths[1];
 3ce:	80 91 e8 00 	lds	r24, 0x00E8
 3d2:	80 ff       	sbrs	r24, 0

					while (CurrCollectionPath->Parent != NULL)
 3d4:	2b c0       	rjmp	.+86     	; 0x42c <__vector_21+0x8e>
 3d6:	80 91 07 01 	lds	r24, 0x0107
 3da:	88 23       	and	r24, r24
					{
						if (CurrCollectionPath == &ParserData->CollectionPaths[HID_MAX_COLLECTIONS - 1])
 3dc:	39 f1       	breq	.+78     	; 0x42c <__vector_21+0x8e>
 3de:	90 91 06 01 	lds	r25, 0x0106
 3e2:	81 e0       	ldi	r24, 0x01	; 1
 3e4:	89 0f       	add	r24, r25
 3e6:	80 93 06 01 	sts	0x0106, r24
 3ea:	9f 3f       	cpi	r25, 0xFF	; 255
 3ec:	49 f4       	brne	.+18     	; 0x400 <__vector_21+0x62>
 3ee:	80 91 04 01 	lds	r24, 0x0104
						  return HID_PARSE_InsufficientCollectionPaths;

						CurrCollectionPath++;
 3f2:	90 91 05 01 	lds	r25, 0x0105
					}

					CurrCollectionPath->Parent = ParentCollectionPath;
 3f6:	90 58       	subi	r25, 0x80	; 128
 3f8:	90 93 05 01 	sts	0x0105, r25
 3fc:	80 93 04 01 	sts	0x0104, r24
 400:	62 99       	sbic	0x0c, 2	; 12
 402:	05 c0       	rjmp	.+10     	; 0x40e <__vector_21+0x70>
 404:	20 91 04 01 	lds	r18, 0x0104
				}

				CurrCollectionPath->Type       = ReportItemData;
 408:	90 91 05 01 	lds	r25, 0x0105
 40c:	02 c0       	rjmp	.+4      	; 0x412 <__vector_21+0x74>
 40e:	20 e0       	ldi	r18, 0x00	; 0
 410:	90 e0       	ldi	r25, 0x00	; 0
				CurrCollectionPath->Usage.Page = CurrStateTable->Attributes.Usage.Page;
 412:	20 93 f1 00 	sts	0x00F1, r18
 416:	90 93 f1 00 	sts	0x00F1, r25
 41a:	80 91 e8 00 	lds	r24, 0x00E8
 41e:	85 fd       	sbrc	r24, 5

				if (UsageListSize)
 420:	05 c0       	rjmp	.+10     	; 0x42c <__vector_21+0x8e>
 422:	80 91 e8 00 	lds	r24, 0x00E8
 426:	8e 77       	andi	r24, 0x7E	; 126
 428:	80 93 e8 00 	sts	0x00E8, r24
				{
					CurrCollectionPath->Usage.Usage = UsageList[0];
 42c:	83 2f       	mov	r24, r19
 42e:	8f 70       	andi	r24, 0x0F	; 15
 430:	80 93 e9 00 	sts	0x00E9, r24
 434:	9f 91       	pop	r25
 436:	8f 91       	pop	r24
 438:	3f 91       	pop	r19
 43a:	2f 91       	pop	r18
 43c:	0f 90       	pop	r0
 43e:	0f be       	out	0x3f, r0	; 63

					for (uint8_t i = 1; i < UsageListSize; i++)
 440:	0f 90       	pop	r0
 442:	1f 90       	pop	r1
 444:	18 95       	reti

00000446 <CALLBACK_USB_GetDescriptor>:
 446:	29 2f       	mov	r18, r25
 448:	33 27       	eor	r19, r19
 44a:	22 30       	cpi	r18, 0x02	; 2
					  UsageList[i - 1] = UsageList[i];
 44c:	31 05       	cpc	r19, r1
 44e:	59 f0       	breq	.+22     	; 0x466 <CALLBACK_USB_GetDescriptor+0x20>
 450:	23 30       	cpi	r18, 0x03	; 3
 452:	31 05       	cpc	r19, r1

				if (UsageListSize)
				{
					CurrCollectionPath->Usage.Usage = UsageList[0];

					for (uint8_t i = 1; i < UsageListSize; i++)
 454:	69 f0       	breq	.+26     	; 0x470 <CALLBACK_USB_GetDescriptor+0x2a>
 456:	21 30       	cpi	r18, 0x01	; 1
					  UsageList[i - 1] = UsageList[i];

					UsageListSize--;
 458:	31 05       	cpc	r19, r1
 45a:	f9 f4       	brne	.+62     	; 0x49a <CALLBACK_USB_GetDescriptor+0x54>
 45c:	82 e1       	ldi	r24, 0x12	; 18
 45e:	90 e0       	ldi	r25, 0x00	; 0
 460:	2e e4       	ldi	r18, 0x4E	; 78
				}
				else if (UsageMinMax.Minimum <= UsageMinMax.Maximum)
 462:	31 e0       	ldi	r19, 0x01	; 1
 464:	1e c0       	rjmp	.+60     	; 0x4a2 <CALLBACK_USB_GetDescriptor+0x5c>
 466:	80 e7       	ldi	r24, 0x70	; 112
 468:	90 e0       	ldi	r25, 0x00	; 0
 46a:	2e ed       	ldi	r18, 0xDE	; 222
 46c:	30 e0       	ldi	r19, 0x00	; 0
				{
					CurrCollectionPath->Usage.Usage = UsageMinMax.Minimum++;
 46e:	19 c0       	rjmp	.+50     	; 0x4a2 <CALLBACK_USB_GetDescriptor+0x5c>
 470:	99 27       	eor	r25, r25
 472:	81 30       	cpi	r24, 0x01	; 1
 474:	91 05       	cpc	r25, r1
 476:	41 f0       	breq	.+16     	; 0x488 <CALLBACK_USB_GetDescriptor+0x42>
 478:	82 30       	cpi	r24, 0x02	; 2
 47a:	91 05       	cpc	r25, r1
 47c:	41 f0       	breq	.+16     	; 0x48e <CALLBACK_USB_GetDescriptor+0x48>
 47e:	89 2b       	or	r24, r25
 480:	61 f4       	brne	.+24     	; 0x49a <CALLBACK_USB_GetDescriptor+0x54>
 482:	ea ed       	ldi	r30, 0xDA	; 218
 484:	f0 e0       	ldi	r31, 0x00	; 0
 486:	05 c0       	rjmp	.+10     	; 0x492 <CALLBACK_USB_GetDescriptor+0x4c>
 488:	e0 ec       	ldi	r30, 0xC0	; 192
				}

				break;

			case HID_RI_END_COLLECTION(0):
				if (CurrCollectionPath == NULL)
 48a:	f0 e0       	ldi	r31, 0x00	; 0
 48c:	02 c0       	rjmp	.+4      	; 0x492 <CALLBACK_USB_GetDescriptor+0x4c>
 48e:	e8 e9       	ldi	r30, 0x98	; 152
 490:	f0 e0       	ldi	r31, 0x00	; 0
 492:	84 91       	lpm	r24, Z
 494:	90 e0       	ldi	r25, 0x00	; 0
 496:	9f 01       	movw	r18, r30
 498:	04 c0       	rjmp	.+8      	; 0x4a2 <CALLBACK_USB_GetDescriptor+0x5c>
				  return HID_PARSE_UnexpectedEndCollection;

				CurrCollectionPath = CurrCollectionPath->Parent;
 49a:	80 e0       	ldi	r24, 0x00	; 0
 49c:	90 e0       	ldi	r25, 0x00	; 0
 49e:	20 e0       	ldi	r18, 0x00	; 0
 4a0:	30 e0       	ldi	r19, 0x00	; 0
 4a2:	fa 01       	movw	r30, r20
 4a4:	31 83       	std	Z+1, r19	; 0x01
 4a6:	20 83       	st	Z, r18
 4a8:	08 95       	ret

000004aa <Endpoint_Write_Control_Stream_LE>:
 4aa:	20 91 13 01 	lds	r18, 0x0113
					ParserData->LargestReportSizeBits = MAX(ParserData->LargestReportSizeBits, CurrReportIDInfo->ReportSizeBits[NewReportItem.ItemType]);

					if (ParserData->TotalReportItems == HID_MAX_REPORTITEMS)
					  return HID_PARSE_InsufficientReportItems;

					memcpy(&ParserData->ReportItems[ParserData->TotalReportItems],
 4ae:	30 91 14 01 	lds	r19, 0x0114
 4b2:	26 17       	cp	r18, r22
 4b4:	37 07       	cpc	r19, r23
 4b6:	48 f0       	brcs	.+18     	; 0x4ca <Endpoint_Write_Control_Stream_LE+0x20>
 4b8:	61 15       	cp	r22, r1
 4ba:	71 05       	cpc	r23, r1
 4bc:	39 f4       	brne	.+14     	; 0x4cc <Endpoint_Write_Control_Stream_LE+0x22>
 4be:	20 91 e8 00 	lds	r18, 0x00E8
 4c2:	2e 77       	andi	r18, 0x7E	; 126
 4c4:	20 93 e8 00 	sts	0x00E8, r18
 4c8:	01 c0       	rjmp	.+2      	; 0x4cc <Endpoint_Write_Control_Stream_LE+0x22>
					       &NewReportItem, sizeof(HID_ReportItem_t));

					if (!(ReportItemData & HID_IOF_CONSTANT) && CALLBACK_HIDParser_FilterHIDReportItem(&NewReportItem))
 4ca:	b9 01       	movw	r22, r18
 4cc:	fc 01       	movw	r30, r24
 4ce:	20 e0       	ldi	r18, 0x00	; 0
 4d0:	61 15       	cp	r22, r1
 4d2:	71 05       	cpc	r23, r1
 4d4:	99 f1       	breq	.+102    	; 0x53c <Endpoint_Write_Control_Stream_LE+0x92>
 4d6:	80 91 0c 01 	lds	r24, 0x010C
 4da:	88 23       	and	r24, r24
 4dc:	e9 f1       	breq	.+122    	; 0x558 <Endpoint_Write_Control_Stream_LE+0xae>
 4de:	85 30       	cpi	r24, 0x05	; 5
 4e0:	e9 f1       	breq	.+122    	; 0x55c <Endpoint_Write_Control_Stream_LE+0xb2>
 4e2:	80 91 e8 00 	lds	r24, 0x00E8
				break;

			case HID_RI_INPUT(0):
			case HID_RI_OUTPUT(0):
			case HID_RI_FEATURE(0):
				for (uint8_t ReportItemNum = 0; ReportItemNum < CurrStateTable->ReportCount; ReportItemNum++)
 4e6:	83 fd       	sbrc	r24, 3
 4e8:	3b c0       	rjmp	.+118    	; 0x560 <Endpoint_Write_Control_Stream_LE+0xb6>
 4ea:	80 91 e8 00 	lds	r24, 0x00E8
 4ee:	82 ff       	sbrs	r24, 2
				{
					HID_ReportItem_t NewReportItem;

					memcpy(&NewReportItem.Attributes,
 4f0:	06 c0       	rjmp	.+12     	; 0x4fe <Endpoint_Write_Control_Stream_LE+0x54>
 4f2:	80 91 e8 00 	lds	r24, 0x00E8
 4f6:	82 ff       	sbrs	r24, 2
 4f8:	24 c0       	rjmp	.+72     	; 0x542 <Endpoint_Write_Control_Stream_LE+0x98>
 4fa:	80 e0       	ldi	r24, 0x00	; 0
 4fc:	08 95       	ret
 4fe:	80 91 e8 00 	lds	r24, 0x00E8
					       &CurrStateTable->Attributes,
					       sizeof(HID_ReportItem_Attributes_t));

					NewReportItem.ItemFlags      = ReportItemData;
 502:	80 ff       	sbrs	r24, 0
 504:	e5 cf       	rjmp	.-54     	; 0x4d0 <Endpoint_Write_Control_Stream_LE+0x26>
					NewReportItem.CollectionPath = CurrCollectionPath;
 506:	80 91 f2 00 	lds	r24, 0x00F2
 50a:	90 91 f3 00 	lds	r25, 0x00F3
 50e:	61 15       	cp	r22, r1
 510:	71 05       	cpc	r23, r1
 512:	51 f0       	breq	.+20     	; 0x528 <Endpoint_Write_Control_Stream_LE+0x7e>
 514:	88 30       	cpi	r24, 0x08	; 8
					NewReportItem.ReportID       = CurrStateTable->ReportID;
 516:	91 05       	cpc	r25, r1
 518:	38 f4       	brcc	.+14     	; 0x528 <Endpoint_Write_Control_Stream_LE+0x7e>
 51a:	21 91       	ld	r18, Z+
 51c:	20 93 f1 00 	sts	0x00F1, r18

					if (UsageListSize)
 520:	61 50       	subi	r22, 0x01	; 1
 522:	71 09       	sbc	r23, r1
 524:	01 96       	adiw	r24, 0x01	; 1
 526:	f3 cf       	rjmp	.-26     	; 0x50e <Endpoint_Write_Control_Stream_LE+0x64>
					{
						NewReportItem.Attributes.Usage.Usage = UsageList[0];
 528:	21 e0       	ldi	r18, 0x01	; 1
 52a:	08 97       	sbiw	r24, 0x08	; 8
 52c:	09 f0       	breq	.+2      	; 0x530 <Endpoint_Write_Control_Stream_LE+0x86>
 52e:	20 e0       	ldi	r18, 0x00	; 0
 530:	80 91 e8 00 	lds	r24, 0x00E8
 534:	8e 77       	andi	r24, 0x7E	; 126
 536:	80 93 e8 00 	sts	0x00E8, r24
 53a:	ca cf       	rjmp	.-108    	; 0x4d0 <Endpoint_Write_Control_Stream_LE+0x26>
 53c:	21 11       	cpse	r18, r1

						for (uint8_t i = 1; i < UsageListSize; i++)
 53e:	cb cf       	rjmp	.-106    	; 0x4d6 <Endpoint_Write_Control_Stream_LE+0x2c>
 540:	d8 cf       	rjmp	.-80     	; 0x4f2 <Endpoint_Write_Control_Stream_LE+0x48>
 542:	80 91 0c 01 	lds	r24, 0x010C
 546:	88 23       	and	r24, r24
 548:	39 f0       	breq	.+14     	; 0x558 <Endpoint_Write_Control_Stream_LE+0xae>
						  UsageList[i - 1] = UsageList[i];
 54a:	85 30       	cpi	r24, 0x05	; 5
 54c:	39 f0       	breq	.+14     	; 0x55c <Endpoint_Write_Control_Stream_LE+0xb2>
 54e:	80 91 e8 00 	lds	r24, 0x00E8

					if (UsageListSize)
					{
						NewReportItem.Attributes.Usage.Usage = UsageList[0];

						for (uint8_t i = 1; i < UsageListSize; i++)
 552:	83 ff       	sbrs	r24, 3
 554:	ce cf       	rjmp	.-100    	; 0x4f2 <Endpoint_Write_Control_Stream_LE+0x48>
						  UsageList[i - 1] = UsageList[i];

						UsageListSize--;
 556:	04 c0       	rjmp	.+8      	; 0x560 <Endpoint_Write_Control_Stream_LE+0xb6>
 558:	82 e0       	ldi	r24, 0x02	; 2
 55a:	08 95       	ret
 55c:	83 e0       	ldi	r24, 0x03	; 3
 55e:	08 95       	ret
					}
					else if (UsageMinMax.Minimum <= UsageMinMax.Maximum)
 560:	81 e0       	ldi	r24, 0x01	; 1
 562:	08 95       	ret

00000564 <Endpoint_Read_Control_Stream_LE>:
 564:	61 15       	cp	r22, r1
 566:	71 05       	cpc	r23, r1
 568:	29 f4       	brne	.+10     	; 0x574 <Endpoint_Read_Control_Stream_LE+0x10>
					{
						NewReportItem.Attributes.Usage.Usage = UsageMinMax.Minimum++;
 56a:	20 91 e8 00 	lds	r18, 0x00E8
 56e:	2b 77       	andi	r18, 0x7B	; 123
 570:	20 93 e8 00 	sts	0x00E8, r18
 574:	61 15       	cp	r22, r1
 576:	71 05       	cpc	r23, r1
 578:	31 f1       	breq	.+76     	; 0x5c6 <Endpoint_Read_Control_Stream_LE+0x62>
 57a:	20 91 0c 01 	lds	r18, 0x010C
					}

					uint8_t ItemTypeTag = (HIDReportItem & (HID_RI_TYPE_MASK | HID_RI_TAG_MASK));

					if (ItemTypeTag == HID_RI_INPUT(0))
 57e:	22 23       	and	r18, r18
					  NewReportItem.ItemType = HID_REPORT_ITEM_In;
 580:	59 f1       	breq	.+86     	; 0x5d8 <Endpoint_Read_Control_Stream_LE+0x74>
 582:	25 30       	cpi	r18, 0x05	; 5
					else if (ItemTypeTag == HID_RI_OUTPUT(0))
 584:	59 f1       	breq	.+86     	; 0x5dc <Endpoint_Read_Control_Stream_LE+0x78>
 586:	20 91 e8 00 	lds	r18, 0x00E8
					  NewReportItem.ItemType = HID_REPORT_ITEM_Out;
 58a:	23 fd       	sbrc	r18, 3
 58c:	21 c0       	rjmp	.+66     	; 0x5d0 <Endpoint_Read_Control_Stream_LE+0x6c>
					else
					  NewReportItem.ItemType = HID_REPORT_ITEM_Feature;
 58e:	20 91 e8 00 	lds	r18, 0x00E8

					NewReportItem.BitOffset = CurrReportIDInfo->ReportSizeBits[NewReportItem.ItemType];
 592:	22 ff       	sbrs	r18, 2
 594:	f2 cf       	rjmp	.-28     	; 0x57a <Endpoint_Read_Control_Stream_LE+0x16>
 596:	fc 01       	movw	r30, r24
 598:	cf 01       	movw	r24, r30
 59a:	20 91 f2 00 	lds	r18, 0x00F2
 59e:	30 91 f3 00 	lds	r19, 0x00F3
 5a2:	23 2b       	or	r18, r19
 5a4:	11 f3       	breq	.-60     	; 0x56a <Endpoint_Read_Control_Stream_LE+0x6>
 5a6:	80 91 f1 00 	lds	r24, 0x00F1
 5aa:	81 93       	st	Z+, r24

					CurrReportIDInfo->ReportSizeBits[NewReportItem.ItemType] += CurrStateTable->Attributes.BitSize;
 5ac:	cf 01       	movw	r24, r30
 5ae:	61 50       	subi	r22, 0x01	; 1
 5b0:	71 09       	sbc	r23, r1
 5b2:	61 15       	cp	r22, r1
 5b4:	71 05       	cpc	r23, r1
 5b6:	81 f7       	brne	.-32     	; 0x598 <Endpoint_Read_Control_Stream_LE+0x34>
 5b8:	d8 cf       	rjmp	.-80     	; 0x56a <Endpoint_Read_Control_Stream_LE+0x6>
 5ba:	80 91 0c 01 	lds	r24, 0x010C

					ParserData->LargestReportSizeBits = MAX(ParserData->LargestReportSizeBits, CurrReportIDInfo->ReportSizeBits[NewReportItem.ItemType]);
 5be:	88 23       	and	r24, r24
 5c0:	59 f0       	breq	.+22     	; 0x5d8 <Endpoint_Read_Control_Stream_LE+0x74>
 5c2:	85 30       	cpi	r24, 0x05	; 5
 5c4:	59 f0       	breq	.+22     	; 0x5dc <Endpoint_Read_Control_Stream_LE+0x78>
 5c6:	80 91 e8 00 	lds	r24, 0x00E8
 5ca:	80 ff       	sbrs	r24, 0
 5cc:	f6 cf       	rjmp	.-20     	; 0x5ba <Endpoint_Read_Control_Stream_LE+0x56>
 5ce:	02 c0       	rjmp	.+4      	; 0x5d4 <Endpoint_Read_Control_Stream_LE+0x70>
 5d0:	81 e0       	ldi	r24, 0x01	; 1
 5d2:	08 95       	ret
 5d4:	80 e0       	ldi	r24, 0x00	; 0
 5d6:	08 95       	ret
 5d8:	82 e0       	ldi	r24, 0x02	; 2
 5da:	08 95       	ret
 5dc:	83 e0       	ldi	r24, 0x03	; 3
 5de:	08 95       	ret

000005e0 <Endpoint_Write_Control_PStream_LE>:
 5e0:	20 91 13 01 	lds	r18, 0x0113
 5e4:	30 91 14 01 	lds	r19, 0x0114
 5e8:	26 17       	cp	r18, r22
 5ea:	37 07       	cpc	r19, r23
 5ec:	48 f0       	brcs	.+18     	; 0x600 <Endpoint_Write_Control_PStream_LE+0x20>
 5ee:	61 15       	cp	r22, r1
 5f0:	71 05       	cpc	r23, r1
 5f2:	39 f4       	brne	.+14     	; 0x602 <Endpoint_Write_Control_PStream_LE+0x22>

					if (ParserData->TotalReportItems == HID_MAX_REPORTITEMS)
 5f4:	20 91 e8 00 	lds	r18, 0x00E8
 5f8:	2e 77       	andi	r18, 0x7E	; 126
 5fa:	20 93 e8 00 	sts	0x00E8, r18
					  return HID_PARSE_InsufficientReportItems;
 5fe:	01 c0       	rjmp	.+2      	; 0x602 <Endpoint_Write_Control_PStream_LE+0x22>
 600:	b9 01       	movw	r22, r18

					memcpy(&ParserData->ReportItems[ParserData->TotalReportItems],
					       &NewReportItem, sizeof(HID_ReportItem_t));

					if (!(ReportItemData & HID_IOF_CONSTANT) && CALLBACK_HIDParser_FilterHIDReportItem(&NewReportItem))
 602:	fc 01       	movw	r30, r24
 604:	20 e0       	ldi	r18, 0x00	; 0
 606:	61 15       	cp	r22, r1
 608:	71 05       	cpc	r23, r1
 60a:	b1 f1       	breq	.+108    	; 0x678 <Endpoint_Write_Control_PStream_LE+0x98>
 60c:	80 91 0c 01 	lds	r24, 0x010C
 610:	88 23       	and	r24, r24
 612:	09 f4       	brne	.+2      	; 0x616 <Endpoint_Write_Control_PStream_LE+0x36>
 614:	3f c0       	rjmp	.+126    	; 0x694 <Endpoint_Write_Control_PStream_LE+0xb4>
 616:	85 30       	cpi	r24, 0x05	; 5
 618:	09 f4       	brne	.+2      	; 0x61c <Endpoint_Write_Control_PStream_LE+0x3c>
 61a:	3e c0       	rjmp	.+124    	; 0x698 <Endpoint_Write_Control_PStream_LE+0xb8>
 61c:	80 91 e8 00 	lds	r24, 0x00E8
 620:	83 fd       	sbrc	r24, 3
 622:	3c c0       	rjmp	.+120    	; 0x69c <Endpoint_Write_Control_PStream_LE+0xbc>
 624:	80 91 e8 00 	lds	r24, 0x00E8
 628:	82 ff       	sbrs	r24, 2
 62a:	06 c0       	rjmp	.+12     	; 0x638 <Endpoint_Write_Control_PStream_LE+0x58>
 62c:	80 91 e8 00 	lds	r24, 0x00E8
 630:	82 ff       	sbrs	r24, 2
 632:	25 c0       	rjmp	.+74     	; 0x67e <Endpoint_Write_Control_PStream_LE+0x9e>
 634:	80 e0       	ldi	r24, 0x00	; 0
 636:	08 95       	ret
 638:	80 91 e8 00 	lds	r24, 0x00E8
 63c:	80 ff       	sbrs	r24, 0
 63e:	e3 cf       	rjmp	.-58     	; 0x606 <Endpoint_Write_Control_PStream_LE+0x26>
 640:	80 91 f2 00 	lds	r24, 0x00F2
 644:	90 91 f3 00 	lds	r25, 0x00F3
 648:	61 15       	cp	r22, r1
 64a:	71 05       	cpc	r23, r1
 64c:	59 f0       	breq	.+22     	; 0x664 <Endpoint_Write_Control_PStream_LE+0x84>
 64e:	88 30       	cpi	r24, 0x08	; 8
 650:	91 05       	cpc	r25, r1
 652:	40 f4       	brcc	.+16     	; 0x664 <Endpoint_Write_Control_PStream_LE+0x84>
 654:	24 91       	lpm	r18, Z
 656:	20 93 f1 00 	sts	0x00F1, r18
 65a:	31 96       	adiw	r30, 0x01	; 1
 65c:	61 50       	subi	r22, 0x01	; 1
 65e:	71 09       	sbc	r23, r1
 660:	01 96       	adiw	r24, 0x01	; 1
 662:	f2 cf       	rjmp	.-28     	; 0x648 <Endpoint_Write_Control_PStream_LE+0x68>
 664:	21 e0       	ldi	r18, 0x01	; 1
 666:	08 97       	sbiw	r24, 0x08	; 8
 668:	09 f0       	breq	.+2      	; 0x66c <Endpoint_Write_Control_PStream_LE+0x8c>
 66a:	20 e0       	ldi	r18, 0x00	; 0
 66c:	80 91 e8 00 	lds	r24, 0x00E8
 670:	8e 77       	andi	r24, 0x7E	; 126
 672:	80 93 e8 00 	sts	0x00E8, r24
 676:	c7 cf       	rjmp	.-114    	; 0x606 <Endpoint_Write_Control_PStream_LE+0x26>
 678:	21 11       	cpse	r18, r1
 67a:	c8 cf       	rjmp	.-112    	; 0x60c <Endpoint_Write_Control_PStream_LE+0x2c>
 67c:	d7 cf       	rjmp	.-82     	; 0x62c <Endpoint_Write_Control_PStream_LE+0x4c>
 67e:	80 91 0c 01 	lds	r24, 0x010C
 682:	88 23       	and	r24, r24
 684:	39 f0       	breq	.+14     	; 0x694 <Endpoint_Write_Control_PStream_LE+0xb4>
 686:	85 30       	cpi	r24, 0x05	; 5
					  ParserData->TotalReportItems++;
 688:	39 f0       	breq	.+14     	; 0x698 <Endpoint_Write_Control_PStream_LE+0xb8>
 68a:	80 91 e8 00 	lds	r24, 0x00E8
 68e:	83 ff       	sbrs	r24, 3
 690:	cd cf       	rjmp	.-102    	; 0x62c <Endpoint_Write_Control_PStream_LE+0x4c>

			default:
				break;
		}

		if ((HIDReportItem & HID_RI_TYPE_MASK) == HID_RI_TYPE_MAIN)
 692:	04 c0       	rjmp	.+8      	; 0x69c <Endpoint_Write_Control_PStream_LE+0xbc>
 694:	82 e0       	ldi	r24, 0x02	; 2
 696:	08 95       	ret
 698:	83 e0       	ldi	r24, 0x03	; 3
 69a:	08 95       	ret
 69c:	81 e0       	ldi	r24, 0x01	; 1
		{
			UsageMinMax.Minimum = 0;
			UsageMinMax.Maximum = 0;
 69e:	08 95       	ret

000006a0 <Endpoint_ConfigureEndpoint_Prv>:
 6a0:	98 2f       	mov	r25, r24
 6a2:	97 30       	cpi	r25, 0x07	; 7
				break;
		}

		if ((HIDReportItem & HID_RI_TYPE_MASK) == HID_RI_TYPE_MAIN)
		{
			UsageMinMax.Minimum = 0;
 6a4:	58 f5       	brcc	.+86     	; 0x6fc <Endpoint_ConfigureEndpoint_Prv+0x5c>
 6a6:	90 93 e9 00 	sts	0x00E9, r25
			UsageMinMax.Maximum = 0;
			UsageListSize       = 0;
 6aa:	98 17       	cp	r25, r24
 6ac:	39 f0       	breq	.+14     	; 0x6bc <Endpoint_ConfigureEndpoint_Prv+0x1c>
 6ae:	70 91 ec 00 	lds	r23, 0x00EC
		}
	}

	if (!(ParserData->TotalReportItems))
 6b2:	20 91 ed 00 	lds	r18, 0x00ED
 6b6:	50 91 f0 00 	lds	r21, 0x00F0
	  return HID_PARSE_NoUnfilteredReportItems;
 6ba:	03 c0       	rjmp	.+6      	; 0x6c2 <Endpoint_ConfigureEndpoint_Prv+0x22>
 6bc:	24 2f       	mov	r18, r20

		switch (HIDReportItem & (HID_RI_TYPE_MASK | HID_RI_TAG_MASK))
		{
			case HID_RI_PUSH(0):
				if (CurrStateTable == &StateTable[HID_STATETABLE_STACK_DEPTH - 1])
				  return HID_PARSE_HIDStackOverflow;
 6be:	76 2f       	mov	r23, r22
 6c0:	50 e0       	ldi	r21, 0x00	; 0
				CurrStateTable++;
				break;

			case HID_RI_POP(0):
				if (CurrStateTable == &StateTable[0])
				  return HID_PARSE_HIDStackUnderflow;
 6c2:	21 ff       	sbrs	r18, 1
 6c4:	19 c0       	rjmp	.+50     	; 0x6f8 <Endpoint_ConfigureEndpoint_Prv+0x58>
				CurrReportIDInfo->ReportID = CurrStateTable->ReportID;
				break;

			case HID_RI_USAGE(0):
				if (UsageListSize == HID_USAGE_STACK_DEPTH)
				  return HID_PARSE_UsageListOverflow;
 6c6:	30 91 eb 00 	lds	r19, 0x00EB
					CurrCollectionPath = &ParserData->CollectionPaths[1];

					while (CurrCollectionPath->Parent != NULL)
					{
						if (CurrCollectionPath == &ParserData->CollectionPaths[HID_MAX_COLLECTIONS - 1])
						  return HID_PARSE_InsufficientCollectionPaths;
 6ca:	3e 7f       	andi	r19, 0xFE	; 254
 6cc:	30 93 eb 00 	sts	0x00EB, r19

				break;

			case HID_RI_END_COLLECTION(0):
				if (CurrCollectionPath == NULL)
				  return HID_PARSE_UnexpectedEndCollection;
 6d0:	30 91 ed 00 	lds	r19, 0x00ED
	}

	if (!(ParserData->TotalReportItems))
	  return HID_PARSE_NoUnfilteredReportItems;

	return HID_PARSE_Successful;
 6d4:	3d 7f       	andi	r19, 0xFD	; 253
					}

					if (CurrReportIDInfo == NULL)
					{
						if (ParserData->TotalDeviceReports == HID_MAX_REPORT_IDS)
						  return HID_PARSE_InsufficientReportIDItems;
 6d6:	30 93 ed 00 	sts	0x00ED, r19

	if (!(ParserData->TotalReportItems))
	  return HID_PARSE_NoUnfilteredReportItems;

	return HID_PARSE_Successful;
}
 6da:	30 91 eb 00 	lds	r19, 0x00EB
 6de:	31 60       	ori	r19, 0x01	; 1
 6e0:	30 93 eb 00 	sts	0x00EB, r19
 6e4:	70 93 ec 00 	sts	0x00EC, r23
 6e8:	20 93 ed 00 	sts	0x00ED, r18
 6ec:	50 93 f0 00 	sts	0x00F0, r21
 6f0:	20 91 ee 00 	lds	r18, 0x00EE
 6f4:	27 ff       	sbrs	r18, 7
 6f6:	07 c0       	rjmp	.+14     	; 0x706 <Endpoint_ConfigureEndpoint_Prv+0x66>
 6f8:	9f 5f       	subi	r25, 0xFF	; 255
 6fa:	d3 cf       	rjmp	.-90     	; 0x6a2 <Endpoint_ConfigureEndpoint_Prv+0x2>
 6fc:	8f 70       	andi	r24, 0x0F	; 15
 6fe:	80 93 e9 00 	sts	0x00E9, r24
 702:	81 e0       	ldi	r24, 0x01	; 1
 704:	08 95       	ret
 706:	80 e0       	ldi	r24, 0x00	; 0
 708:	08 95       	ret

0000070a <Endpoint_ClearStatusStage>:
 70a:	80 91 0d 01 	lds	r24, 0x010D
	}
}

void Endpoint_ClearStatusStage(void)
{
	if (USB_ControlRequest.bmRequestType & REQDIR_DEVICETOHOST)
 70e:	87 fd       	sbrc	r24, 7
 710:	05 c0       	rjmp	.+10     	; 0x71c <Endpoint_ClearStatusStage+0x12>
			 *  \return Boolean \c true if the current endpoint is ready for an IN packet, \c false otherwise.
			 */
			static inline bool Endpoint_IsINReady(void) ATTR_WARN_UNUSED_RESULT ATTR_ALWAYS_INLINE;
			static inline bool Endpoint_IsINReady(void)
			{
				return ((UEINTX & (1 << TXINI)) ? true : false);
 712:	80 91 e8 00 	lds	r24, 0x00E8

		Endpoint_ClearOUT();
	}
	else
	{
		while (!(Endpoint_IsINReady()))
 716:	80 ff       	sbrs	r24, 0
 718:	0e c0       	rjmp	.+28     	; 0x736 <Endpoint_ClearStatusStage+0x2c>
 71a:	12 c0       	rjmp	.+36     	; 0x740 <Endpoint_ClearStatusStage+0x36>
			 *  \return Boolean \c true if current endpoint is has received an OUT packet, \c false otherwise.
			 */
			static inline bool Endpoint_IsOUTReceived(void) ATTR_WARN_UNUSED_RESULT ATTR_ALWAYS_INLINE;
			static inline bool Endpoint_IsOUTReceived(void)
			{
				return ((UEINTX & (1 << RXOUTI)) ? true : false);
 71c:	80 91 e8 00 	lds	r24, 0x00E8

void Endpoint_ClearStatusStage(void)
{
	if (USB_ControlRequest.bmRequestType & REQDIR_DEVICETOHOST)
	{
		while (!(Endpoint_IsOUTReceived()))
 720:	82 fd       	sbrc	r24, 2
 722:	05 c0       	rjmp	.+10     	; 0x72e <Endpoint_ClearStatusStage+0x24>
		{
			if (USB_DeviceState == DEVICE_STATE_Unattached)
 724:	80 91 0c 01 	lds	r24, 0x010C
 728:	81 11       	cpse	r24, r1
 72a:	f8 cf       	rjmp	.-16     	; 0x71c <Endpoint_ClearStatusStage+0x12>
 72c:	08 95       	ret
			 */
			static inline void Endpoint_ClearOUT(void) ATTR_ALWAYS_INLINE;
			static inline void Endpoint_ClearOUT(void)
			{
				#if !defined(CONTROL_ONLY_DEVICE)
					UEINTX &= ~((1 << RXOUTI) | (1 << FIFOCON));
 72e:	80 91 e8 00 	lds	r24, 0x00E8
 732:	8b 77       	andi	r24, 0x7B	; 123
 734:	08 c0       	rjmp	.+16     	; 0x746 <Endpoint_ClearStatusStage+0x3c>
	}
	else
	{
		while (!(Endpoint_IsINReady()))
		{
			if (USB_DeviceState == DEVICE_STATE_Unattached)
 736:	80 91 0c 01 	lds	r24, 0x010C
 73a:	81 11       	cpse	r24, r1
 73c:	ea cf       	rjmp	.-44     	; 0x712 <Endpoint_ClearStatusStage+0x8>
 73e:	08 95       	ret
			 */
			static inline void Endpoint_ClearIN(void) ATTR_ALWAYS_INLINE;
			static inline void Endpoint_ClearIN(void)
			{
				#if !defined(CONTROL_ONLY_DEVICE)
					UEINTX &= ~((1 << TXINI) | (1 << FIFOCON));
 740:	80 91 e8 00 	lds	r24, 0x00E8
 744:	8e 77       	andi	r24, 0x7E	; 126
 746:	80 93 e8 00 	sts	0x00E8, r24
 74a:	08 95       	ret

0000074c <USB_ResetInterface>:

	USB_IsInitialized = false;
}

void USB_ResetInterface(void)
{
 74c:	0f 93       	push	r16
 74e:	1f 93       	push	r17
 750:	cf 93       	push	r28
 752:	df 93       	push	r29
	#if defined(USB_CAN_BE_BOTH)
	bool UIDModeSelectEnabled = ((UHWCON & (1 << UIDE)) != 0);
	#endif

	USB_INT_DisableAllInterrupts();
 754:	4e d0       	rcall	.+156    	; 0x7f2 <USB_INT_DisableAllInterrupts>
 756:	55 d0       	rcall	.+170    	; 0x802 <USB_INT_ClearAllInterrupts>
	USB_INT_ClearAllInterrupts();
 758:	c8 ed       	ldi	r28, 0xD8	; 216
 75a:	d0 e0       	ldi	r29, 0x00	; 0
			}

			static inline void USB_Controller_Reset(void) ATTR_ALWAYS_INLINE;
			static inline void USB_Controller_Reset(void)
			{
				USBCON &= ~(1 << USBE);
 75c:	88 81       	ld	r24, Y
 75e:	8f 77       	andi	r24, 0x7F	; 127
 760:	88 83       	st	Y, r24
 762:	88 81       	ld	r24, Y
 764:	80 68       	ori	r24, 0x80	; 128
				USBCON |=  (1 << USBE);
 766:	88 83       	st	Y, r24
 768:	88 81       	ld	r24, Y
 76a:	8f 7d       	andi	r24, 0xDF	; 223
			}

			static inline void USB_CLK_Unfreeze(void) ATTR_ALWAYS_INLINE;
			static inline void USB_CLK_Unfreeze(void)
			{
				USBCON &= ~(1 << FRZCLK);
 76c:	88 83       	st	Y, r24
 76e:	e7 ed       	ldi	r30, 0xD7	; 215
 770:	f0 e0       	ldi	r31, 0x00	; 0

	if (USB_CurrentMode == USB_MODE_Device)
	{
		#if defined(USB_CAN_BE_DEVICE)
		#if (defined(USB_SERIES_6_AVR) || defined(USB_SERIES_7_AVR))
		UHWCON |=  (1 << UIMOD);
 772:	80 81       	ld	r24, Z
 774:	80 68       	ori	r24, 0x80	; 128
 776:	80 83       	st	Z, r24
 778:	19 bc       	out	0x29, r1	; 41
 77a:	10 92 0c 01 	sts	0x010C, r1
}

#if defined(USB_CAN_BE_DEVICE)
static void USB_Init_Device(void)
{
	USB_DeviceState                 = DEVICE_STATE_Unattached;
 77e:	10 92 08 01 	sts	0x0108, r1
	USB_Device_ConfigurationNumber  = 0;
 782:	10 92 0a 01 	sts	0x010A, r1

	#if !defined(NO_DEVICE_REMOTE_WAKEUP)
	USB_Device_RemoteWakeupEnabled  = false;
 786:	10 92 09 01 	sts	0x0109, r1
	#endif

	#if !defined(NO_DEVICE_SELF_POWER)
	USB_Device_CurrentlySelfPowered = false;
 78a:	00 ee       	ldi	r16, 0xE0	; 224
 78c:	10 e0       	ldi	r17, 0x00	; 0
			}

			static inline void USB_Device_SetFullSpeed(void) ATTR_ALWAYS_INLINE;
			static inline void USB_Device_SetFullSpeed(void)
			{
				UDCON &= ~(1 << LSM);
 78e:	f8 01       	movw	r30, r16
 790:	80 81       	ld	r24, Z
 792:	8b 7f       	andi	r24, 0xFB	; 251
 794:	80 83       	st	Z, r24
 796:	88 81       	ld	r24, Y
 798:	81 60       	ori	r24, 0x01	; 1
			{
				switch (Interrupt)
				{
					#if (defined(USB_SERIES_4_AVR) || defined(USB_SERIES_6_AVR) || defined(USB_SERIES_7_AVR))
					case USB_INT_VBUSTI:
						USBCON |= (1 << VBUSTE);
 79a:	88 83       	st	Y, r24
 79c:	42 e0       	ldi	r20, 0x02	; 2
 79e:	60 e0       	ldi	r22, 0x00	; 0
				uint8_t Number = (Address & ENDPOINT_EPNUM_MASK);

				if (Number >= ENDPOINT_TOTAL_ENDPOINTS)
				  return false;

				return Endpoint_ConfigureEndpoint_Prv(Number,
 7a0:	80 e0       	ldi	r24, 0x00	; 0
 7a2:	7e df       	rcall	.-260    	; 0x6a0 <Endpoint_ConfigureEndpoint_Prv>
 7a4:	e1 ee       	ldi	r30, 0xE1	; 225
 7a6:	f0 e0       	ldi	r31, 0x00	; 0
 7a8:	80 81       	ld	r24, Z
					#if defined(USB_CAN_BE_DEVICE)
					case USB_INT_WAKEUPI:
						UDINT  &= ~(1 << WAKEUPI);
						break;
					case USB_INT_SUSPI:
						UDINT  &= ~(1 << SUSPI);
 7aa:	8e 7f       	andi	r24, 0xFE	; 254
 7ac:	80 83       	st	Z, r24
 7ae:	e2 ee       	ldi	r30, 0xE2	; 226
 7b0:	f0 e0       	ldi	r31, 0x00	; 0
 7b2:	80 81       	ld	r24, Z
					#if defined(USB_CAN_BE_DEVICE)
					case USB_INT_WAKEUPI:
						UDIEN  |= (1 << WAKEUPE);
						break;
					case USB_INT_SUSPI:
						UDIEN  |= (1 << SUSPE);
 7b4:	81 60       	ori	r24, 0x01	; 1
 7b6:	80 83       	st	Z, r24
 7b8:	80 81       	ld	r24, Z
 7ba:	88 60       	ori	r24, 0x08	; 8
 7bc:	80 83       	st	Z, r24
						break;
					case USB_INT_EORSTI:
						UDIEN  |= (1 << EORSTE);
 7be:	f8 01       	movw	r30, r16
 7c0:	80 81       	ld	r24, Z
 7c2:	8e 7f       	andi	r24, 0xFE	; 254
			 *  register and despite the datasheet making no mention of its requirement in host mode.
			 */
			static inline void USB_Attach(void) ATTR_ALWAYS_INLINE;
			static inline void USB_Attach(void)
			{
				UDCON  &= ~(1 << DETACH);
 7c4:	80 83       	st	Z, r24
 7c6:	88 81       	ld	r24, Y
 7c8:	80 61       	ori	r24, 0x10	; 16
 7ca:	88 83       	st	Y, r24

			#if defined(USB_SERIES_4_AVR) || defined(USB_SERIES_6_AVR) || defined(USB_SERIES_7_AVR)
			static inline void USB_OTGPAD_On(void) ATTR_ALWAYS_INLINE;
			static inline void USB_OTGPAD_On(void)
			{
				USBCON |=  (1 << OTGPADE);
 7cc:	df 91       	pop	r29
 7ce:	cf 91       	pop	r28
 7d0:	1f 91       	pop	r17
	}

	#if (defined(USB_SERIES_4_AVR) || defined(USB_SERIES_6_AVR) || defined(USB_SERIES_7_AVR))
	USB_OTGPAD_On();
	#endif
}
 7d2:	0f 91       	pop	r16
 7d4:	08 95       	ret

000007d6 <USB_Init>:
 7d6:	e8 ed       	ldi	r30, 0xD8	; 216
 7d8:	f0 e0       	ldi	r31, 0x00	; 0
 7da:	80 81       	ld	r24, Z
			}

			static inline void USB_OTGPAD_Off(void) ATTR_ALWAYS_INLINE;
			static inline void USB_OTGPAD_Off(void)
			{
				USBCON &= ~(1 << OTGPADE);
 7dc:	8f 7e       	andi	r24, 0xEF	; 239
 7de:	80 83       	st	Z, r24

			static inline void USB_REG_On(void) ATTR_ALWAYS_INLINE;
			static inline void USB_REG_On(void)
			{
			#if defined(USB_SERIES_4_AVR) || defined(USB_SERIES_6_AVR) || defined(USB_SERIES_7_AVR)
				UHWCON |=  (1 << UVREGE);
 7e0:	e7 ed       	ldi	r30, 0xD7	; 215
 7e2:	f0 e0       	ldi	r31, 0x00	; 0
 7e4:	80 81       	ld	r24, Z
 7e6:	81 60       	ori	r24, 0x01	; 1
 7e8:	80 83       	st	Z, r24
		UHWCON &= ~(1 << UIDE);
		USB_CurrentMode = Mode;
	}
	#endif

	USB_IsInitialized = true;
 7ea:	81 e0       	ldi	r24, 0x01	; 1
 7ec:	80 93 0b 01 	sts	0x010B, r24

	USB_ResetInterface();
 7f0:	ad cf       	rjmp	.-166    	; 0x74c <USB_ResetInterface>

000007f2 <USB_INT_DisableAllInterrupts>:
 7f2:	e8 ed       	ldi	r30, 0xD8	; 216
#include "../USBInterrupt.h"

void USB_INT_DisableAllInterrupts(void)
{
	#if defined(USB_SERIES_6_AVR) || defined(USB_SERIES_7_AVR)
	USBCON &= ~((1 << VBUSTE) | (1 << IDTE));
 7f4:	f0 e0       	ldi	r31, 0x00	; 0
 7f6:	80 81       	ld	r24, Z
 7f8:	8c 7f       	andi	r24, 0xFC	; 252
 7fa:	80 83       	st	Z, r24
	#if defined(USB_CAN_BE_HOST)
	UHIEN   = 0;
	#endif

	#if defined(USB_CAN_BE_DEVICE)
	UDIEN   = 0;
 7fc:	10 92 e2 00 	sts	0x00E2, r1
 800:	08 95       	ret

00000802 <USB_INT_ClearAllInterrupts>:
}

void USB_INT_ClearAllInterrupts(void)
{
	#if defined(USB_SERIES_4_AVR) || defined(USB_SERIES_6_AVR) || defined(USB_SERIES_7_AVR)
	USBINT = 0;
 802:	10 92 da 00 	sts	0x00DA, r1
	#if defined(USB_CAN_BE_HOST)
	UHINT  = 0;
	#endif

	#if defined(USB_CAN_BE_DEVICE)
	UDINT  = 0;
 806:	10 92 e1 00 	sts	0x00E1, r1
 80a:	08 95       	ret

0000080c <__vector_10>:
	#endif
}

ISR(USB_GEN_vect, ISR_BLOCK)
{
 80c:	1f 92       	push	r1
 80e:	0f 92       	push	r0
 810:	0f b6       	in	r0, 0x3f	; 63
 812:	0f 92       	push	r0
 814:	11 24       	eor	r1, r1
 816:	0b b6       	in	r0, 0x3b	; 59
 818:	0f 92       	push	r0
 81a:	2f 93       	push	r18
 81c:	3f 93       	push	r19
 81e:	4f 93       	push	r20
 820:	5f 93       	push	r21
 822:	6f 93       	push	r22
 824:	7f 93       	push	r23
 826:	8f 93       	push	r24
 828:	9f 93       	push	r25
 82a:	af 93       	push	r26
 82c:	bf 93       	push	r27
 82e:	ef 93       	push	r30
 830:	ff 93       	push	r31
					case USB_INT_SUSPI:
						return (UDINT  & (1 << SUSPI));
					case USB_INT_EORSTI:
						return (UDINT  & (1 << EORSTI));
					case USB_INT_SOFI:
						return (UDINT  & (1 << SOFI));
 832:	80 91 e1 00 	lds	r24, 0x00E1
	#if defined(USB_CAN_BE_DEVICE)
	#if !defined(NO_SOF_EVENTS)
	if (USB_INT_HasOccurred(USB_INT_SOFI) && USB_INT_IsEnabled(USB_INT_SOFI))
 836:	82 ff       	sbrs	r24, 2
 838:	0a c0       	rjmp	.+20     	; 0x84e <__vector_10+0x42>
					case USB_INT_SUSPI:
						return (UDIEN  & (1 << SUSPE));
					case USB_INT_EORSTI:
						return (UDIEN  & (1 << EORSTE));
					case USB_INT_SOFI:
						return (UDIEN  & (1 << SOFE));
 83a:	80 91 e2 00 	lds	r24, 0x00E2
 83e:	82 ff       	sbrs	r24, 2
 840:	06 c0       	rjmp	.+12     	; 0x84e <__vector_10+0x42>
						break;
					case USB_INT_EORSTI:
						UDINT  &= ~(1 << EORSTI);
						break;
					case USB_INT_SOFI:
						UDINT  &= ~(1 << SOFI);
 842:	80 91 e1 00 	lds	r24, 0x00E1
 846:	8b 7f       	andi	r24, 0xFB	; 251
 848:	80 93 e1 00 	sts	0x00E1, r24
	{
		USB_INT_Clear(USB_INT_SOFI);

		EVENT_USB_Device_StartOfFrame();
 84c:	fa d1       	rcall	.+1012   	; 0xc42 <USB_Event_Stub>
 84e:	80 91 da 00 	lds	r24, 0x00DA
			{
				switch (Interrupt)
				{
					#if (defined(USB_SERIES_4_AVR) || defined(USB_SERIES_6_AVR) || defined(USB_SERIES_7_AVR))
					case USB_INT_VBUSTI:
						return (USBINT & (1 << VBUSTI));
 852:	80 ff       	sbrs	r24, 0
	}
	#endif

	#if defined(USB_SERIES_4_AVR) || defined(USB_SERIES_6_AVR) || defined(USB_SERIES_7_AVR)
	if (USB_INT_HasOccurred(USB_INT_VBUSTI) && USB_INT_IsEnabled(USB_INT_VBUSTI))
 854:	1d c0       	rjmp	.+58     	; 0x890 <__vector_10+0x84>
 856:	80 91 d8 00 	lds	r24, 0x00D8
			{
				switch (Interrupt)
				{
					#if (defined(USB_SERIES_4_AVR) || defined(USB_SERIES_6_AVR) || defined(USB_SERIES_7_AVR))
					case USB_INT_VBUSTI:
						return (USBCON & (1 << VBUSTE));
 85a:	80 ff       	sbrs	r24, 0
 85c:	19 c0       	rjmp	.+50     	; 0x890 <__vector_10+0x84>
 85e:	80 91 da 00 	lds	r24, 0x00DA
			{
				switch (Interrupt)
				{
					#if (defined(USB_SERIES_4_AVR) || defined(USB_SERIES_6_AVR) || defined(USB_SERIES_7_AVR))
					case USB_INT_VBUSTI:
						USBINT &= ~(1 << VBUSTI);
 862:	8e 7f       	andi	r24, 0xFE	; 254
 864:	80 93 da 00 	sts	0x00DA, r24
 868:	80 91 d9 00 	lds	r24, 0x00D9
				 *  \return Boolean \c true if the VBUS line is currently detecting power from a host, \c false otherwise.
				 */
				static inline bool USB_VBUS_GetStatus(void) ATTR_WARN_UNUSED_RESULT ATTR_ALWAYS_INLINE;
				static inline bool USB_VBUS_GetStatus(void)
				{
					return ((USBSTA & (1 << VBUS)) ? true : false);
 86c:	80 ff       	sbrs	r24, 0
	{
		USB_INT_Clear(USB_INT_VBUSTI);

		if (USB_VBUS_GetStatus())
 86e:	0c c0       	rjmp	.+24     	; 0x888 <__vector_10+0x7c>
 870:	8c e0       	ldi	r24, 0x0C	; 12

		/* Inline Functions: */
			static inline void USB_PLL_On(void) ATTR_ALWAYS_INLINE;
			static inline void USB_PLL_On(void)
			{
				PLLCSR = USB_PLL_PSC;
 872:	89 bd       	out	0x29, r24	; 41
 874:	8e e0       	ldi	r24, 0x0E	; 14
				PLLCSR = (USB_PLL_PSC | (1 << PLLE));
 876:	89 bd       	out	0x29, r24	; 41
 878:	09 b4       	in	r0, 0x29	; 41
		{
			if (!(USB_Options & USB_OPT_MANUAL_PLL))
			{
				USB_PLL_On();
				while (!(USB_PLL_IsReady()));
 87a:	00 fe       	sbrs	r0, 0
 87c:	fd cf       	rjmp	.-6      	; 0x878 <__vector_10+0x6c>
 87e:	81 e0       	ldi	r24, 0x01	; 1
			}

			USB_DeviceState = DEVICE_STATE_Powered;
 880:	80 93 0c 01 	sts	0x010C, r24
 884:	c8 dc       	rcall	.-1648   	; 0x216 <EVENT_USB_Device_Connect>
			EVENT_USB_Device_Connect();
 886:	04 c0       	rjmp	.+8      	; 0x890 <__vector_10+0x84>
 888:	19 bc       	out	0x29, r1	; 41
 88a:	10 92 0c 01 	sts	0x010C, r1
		else
		{
			if (!(USB_Options & USB_OPT_MANUAL_PLL))
			  USB_PLL_Off();

			USB_DeviceState = DEVICE_STATE_Unattached;
 88e:	dc dc       	rcall	.-1608   	; 0x248 <EVENT_USB_Device_Disconnect>
 890:	80 91 e1 00 	lds	r24, 0x00E1
			EVENT_USB_Device_Disconnect();
 894:	80 ff       	sbrs	r24, 0
					#endif
					#if defined(USB_CAN_BE_DEVICE)
					case USB_INT_WAKEUPI:
						return (UDINT  & (1 << WAKEUPI));
					case USB_INT_SUSPI:
						return (UDINT  & (1 << SUSPI));
 896:	18 c0       	rjmp	.+48     	; 0x8c8 <__vector_10+0xbc>
 898:	80 91 e2 00 	lds	r24, 0x00E2
		}
	}
	#endif

	if (USB_INT_HasOccurred(USB_INT_SUSPI) && USB_INT_IsEnabled(USB_INT_SUSPI))
 89c:	80 ff       	sbrs	r24, 0
					#endif
					#if defined(USB_CAN_BE_DEVICE)
					case USB_INT_WAKEUPI:
						return (UDIEN  & (1 << WAKEUPE));
					case USB_INT_SUSPI:
						return (UDIEN  & (1 << SUSPE));
 89e:	14 c0       	rjmp	.+40     	; 0x8c8 <__vector_10+0xbc>
 8a0:	80 91 e2 00 	lds	r24, 0x00E2
 8a4:	8e 7f       	andi	r24, 0xFE	; 254
					#if defined(USB_CAN_BE_DEVICE)
					case USB_INT_WAKEUPI:
						UDIEN  &= ~(1 << WAKEUPE);
						break;
					case USB_INT_SUSPI:
						UDIEN  &= ~(1 << SUSPE);
 8a6:	80 93 e2 00 	sts	0x00E2, r24
 8aa:	80 91 e2 00 	lds	r24, 0x00E2
 8ae:	80 61       	ori	r24, 0x10	; 16
						USBCON |= (1 << IDTE);
						break;
					#endif
					#if defined(USB_CAN_BE_DEVICE)
					case USB_INT_WAKEUPI:
						UDIEN  |= (1 << WAKEUPE);
 8b0:	80 93 e2 00 	sts	0x00E2, r24
 8b4:	80 91 d8 00 	lds	r24, 0x00D8
 8b8:	80 62       	ori	r24, 0x20	; 32
			#endif

			static inline void USB_CLK_Freeze(void) ATTR_ALWAYS_INLINE;
			static inline void USB_CLK_Freeze(void)
			{
				USBCON |=  (1 << FRZCLK);
 8ba:	80 93 d8 00 	sts	0x00D8, r24
 8be:	19 bc       	out	0x29, r1	; 41
 8c0:	85 e0       	ldi	r24, 0x05	; 5
 8c2:	80 93 0c 01 	sts	0x010C, r24

		#if defined(USB_SERIES_2_AVR) && !defined(NO_LIMITED_CONTROLLER_CONNECT)
		USB_DeviceState = DEVICE_STATE_Unattached;
		EVENT_USB_Device_Disconnect();
		#else
		USB_DeviceState = DEVICE_STATE_Suspended;
 8c6:	bd d1       	rcall	.+890    	; 0xc42 <USB_Event_Stub>
 8c8:	80 91 e1 00 	lds	r24, 0x00E1
		EVENT_USB_Device_Suspend();
 8cc:	84 ff       	sbrs	r24, 4
 8ce:	2f c0       	rjmp	.+94     	; 0x92e <__vector_10+0x122>
					case USB_INT_IDTI:
						return (USBINT & (1 << IDTI));
					#endif
					#if defined(USB_CAN_BE_DEVICE)
					case USB_INT_WAKEUPI:
						return (UDINT  & (1 << WAKEUPI));
 8d0:	80 91 e2 00 	lds	r24, 0x00E2
		#endif
	}

	if (USB_INT_HasOccurred(USB_INT_WAKEUPI) && USB_INT_IsEnabled(USB_INT_WAKEUPI))
 8d4:	84 ff       	sbrs	r24, 4
 8d6:	2b c0       	rjmp	.+86     	; 0x92e <__vector_10+0x122>
					case USB_INT_IDTI:
						return (USBCON & (1 << IDTE));
					#endif
					#if defined(USB_CAN_BE_DEVICE)
					case USB_INT_WAKEUPI:
						return (UDIEN  & (1 << WAKEUPE));
 8d8:	8c e0       	ldi	r24, 0x0C	; 12
 8da:	89 bd       	out	0x29, r24	; 41
 8dc:	8e e0       	ldi	r24, 0x0E	; 14
 8de:	89 bd       	out	0x29, r24	; 41

		/* Inline Functions: */
			static inline void USB_PLL_On(void) ATTR_ALWAYS_INLINE;
			static inline void USB_PLL_On(void)
			{
				PLLCSR = USB_PLL_PSC;
 8e0:	09 b4       	in	r0, 0x29	; 41
 8e2:	00 fe       	sbrs	r0, 0
				PLLCSR = (USB_PLL_PSC | (1 << PLLE));
 8e4:	fd cf       	rjmp	.-6      	; 0x8e0 <__vector_10+0xd4>
 8e6:	80 91 d8 00 	lds	r24, 0x00D8
	{
		if (!(USB_Options & USB_OPT_MANUAL_PLL))
		{
			USB_PLL_On();
			while (!(USB_PLL_IsReady()));
 8ea:	8f 7d       	andi	r24, 0xDF	; 223
 8ec:	80 93 d8 00 	sts	0x00D8, r24
			}

			static inline void USB_CLK_Unfreeze(void) ATTR_ALWAYS_INLINE;
			static inline void USB_CLK_Unfreeze(void)
			{
				USBCON &= ~(1 << FRZCLK);
 8f0:	80 91 e1 00 	lds	r24, 0x00E1
 8f4:	8f 7e       	andi	r24, 0xEF	; 239
 8f6:	80 93 e1 00 	sts	0x00E1, r24
						USBINT &= ~(1 << IDTI);
						break;
					#endif
					#if defined(USB_CAN_BE_DEVICE)
					case USB_INT_WAKEUPI:
						UDINT  &= ~(1 << WAKEUPI);
 8fa:	80 91 e2 00 	lds	r24, 0x00E2
 8fe:	8f 7e       	andi	r24, 0xEF	; 239
 900:	80 93 e2 00 	sts	0x00E2, r24
						USBCON &= ~(1 << IDTE);
						break;
					#endif
					#if defined(USB_CAN_BE_DEVICE)
					case USB_INT_WAKEUPI:
						UDIEN  &= ~(1 << WAKEUPE);
 904:	80 91 e2 00 	lds	r24, 0x00E2
 908:	81 60       	ori	r24, 0x01	; 1
 90a:	80 93 e2 00 	sts	0x00E2, r24
					#if defined(USB_CAN_BE_DEVICE)
					case USB_INT_WAKEUPI:
						UDIEN  |= (1 << WAKEUPE);
						break;
					case USB_INT_SUSPI:
						UDIEN  |= (1 << SUSPE);
 90e:	80 91 08 01 	lds	r24, 0x0108
 912:	88 23       	and	r24, r24
 914:	11 f0       	breq	.+4      	; 0x91a <__vector_10+0x10e>
		USB_INT_Clear(USB_INT_WAKEUPI);

		USB_INT_Disable(USB_INT_WAKEUPI);
		USB_INT_Enable(USB_INT_SUSPI);

		if (USB_Device_ConfigurationNumber)
 916:	84 e0       	ldi	r24, 0x04	; 4
 918:	07 c0       	rjmp	.+14     	; 0x928 <__vector_10+0x11c>
 91a:	80 91 e3 00 	lds	r24, 0x00E3
		  USB_DeviceState = DEVICE_STATE_Configured;
 91e:	87 ff       	sbrs	r24, 7
 920:	02 c0       	rjmp	.+4      	; 0x926 <__vector_10+0x11a>
			}

			static inline bool USB_Device_IsAddressSet(void) ATTR_ALWAYS_INLINE ATTR_WARN_UNUSED_RESULT;
			static inline bool USB_Device_IsAddressSet(void)
			{
				return (UDADDR & (1 << ADDEN));
 922:	83 e0       	ldi	r24, 0x03	; 3
 924:	01 c0       	rjmp	.+2      	; 0x928 <__vector_10+0x11c>
		else
		  USB_DeviceState = (USB_Device_IsAddressSet()) ? DEVICE_STATE_Addressed : DEVICE_STATE_Powered;
 926:	81 e0       	ldi	r24, 0x01	; 1
 928:	80 93 0c 01 	sts	0x010C, r24
 92c:	8a d1       	rcall	.+788    	; 0xc42 <USB_Event_Stub>
 92e:	80 91 e1 00 	lds	r24, 0x00E1
 932:	83 ff       	sbrs	r24, 3

		#if defined(USB_SERIES_2_AVR) && !defined(NO_LIMITED_CONTROLLER_CONNECT)
		EVENT_USB_Device_Connect();
		#else
		EVENT_USB_Device_WakeUp();
 934:	22 c0       	rjmp	.+68     	; 0x97a <__vector_10+0x16e>
 936:	80 91 e2 00 	lds	r24, 0x00E2
					case USB_INT_WAKEUPI:
						return (UDINT  & (1 << WAKEUPI));
					case USB_INT_SUSPI:
						return (UDINT  & (1 << SUSPI));
					case USB_INT_EORSTI:
						return (UDINT  & (1 << EORSTI));
 93a:	83 ff       	sbrs	r24, 3
		#endif
	}

	if (USB_INT_HasOccurred(USB_INT_EORSTI) && USB_INT_IsEnabled(USB_INT_EORSTI))
 93c:	1e c0       	rjmp	.+60     	; 0x97a <__vector_10+0x16e>
 93e:	80 91 e1 00 	lds	r24, 0x00E1
					case USB_INT_WAKEUPI:
						return (UDIEN  & (1 << WAKEUPE));
					case USB_INT_SUSPI:
						return (UDIEN  & (1 << SUSPE));
					case USB_INT_EORSTI:
						return (UDIEN  & (1 << EORSTE));
 942:	87 7f       	andi	r24, 0xF7	; 247
 944:	80 93 e1 00 	sts	0x00E1, r24
						break;
					case USB_INT_SUSPI:
						UDINT  &= ~(1 << SUSPI);
						break;
					case USB_INT_EORSTI:
						UDINT  &= ~(1 << EORSTI);
 948:	82 e0       	ldi	r24, 0x02	; 2
 94a:	80 93 0c 01 	sts	0x010C, r24
 94e:	10 92 08 01 	sts	0x0108, r1
	{
		USB_INT_Clear(USB_INT_EORSTI);

		USB_DeviceState                = DEVICE_STATE_Default;
 952:	80 91 e1 00 	lds	r24, 0x00E1
 956:	8e 7f       	andi	r24, 0xFE	; 254
		USB_Device_ConfigurationNumber = 0;
 958:	80 93 e1 00 	sts	0x00E1, r24
					#if defined(USB_CAN_BE_DEVICE)
					case USB_INT_WAKEUPI:
						UDINT  &= ~(1 << WAKEUPI);
						break;
					case USB_INT_SUSPI:
						UDINT  &= ~(1 << SUSPI);
 95c:	80 91 e2 00 	lds	r24, 0x00E2
 960:	8e 7f       	andi	r24, 0xFE	; 254
 962:	80 93 e2 00 	sts	0x00E2, r24
					#if defined(USB_CAN_BE_DEVICE)
					case USB_INT_WAKEUPI:
						UDIEN  &= ~(1 << WAKEUPE);
						break;
					case USB_INT_SUSPI:
						UDIEN  &= ~(1 << SUSPE);
 966:	80 91 e2 00 	lds	r24, 0x00E2
 96a:	80 61       	ori	r24, 0x10	; 16
 96c:	80 93 e2 00 	sts	0x00E2, r24
						USBCON |= (1 << IDTE);
						break;
					#endif
					#if defined(USB_CAN_BE_DEVICE)
					case USB_INT_WAKEUPI:
						UDIEN  |= (1 << WAKEUPE);
 970:	42 e0       	ldi	r20, 0x02	; 2
 972:	60 e0       	ldi	r22, 0x00	; 0
 974:	80 e0       	ldi	r24, 0x00	; 0
 976:	94 de       	rcall	.-728    	; 0x6a0 <Endpoint_ConfigureEndpoint_Prv>
 978:	64 d1       	rcall	.+712    	; 0xc42 <USB_Event_Stub>
				uint8_t Number = (Address & ENDPOINT_EPNUM_MASK);

				if (Number >= ENDPOINT_TOTAL_ENDPOINTS)
				  return false;

				return Endpoint_ConfigureEndpoint_Prv(Number,
 97a:	ff 91       	pop	r31
 97c:	ef 91       	pop	r30
 97e:	bf 91       	pop	r27
 980:	af 91       	pop	r26
 982:	9f 91       	pop	r25

		#if defined(INTERRUPT_CONTROL_ENDPOINT)
		USB_INT_Enable(USB_INT_RXSTPI);
		#endif

		EVENT_USB_Device_Reset();
 984:	8f 91       	pop	r24
 986:	7f 91       	pop	r23
		USB_ResetInterface();

		EVENT_USB_UIDChange();
	}
	#endif
}
 988:	6f 91       	pop	r22
 98a:	5f 91       	pop	r21
 98c:	4f 91       	pop	r20
 98e:	3f 91       	pop	r19
 990:	2f 91       	pop	r18
 992:	0f 90       	pop	r0
 994:	0b be       	out	0x3b, r0	; 59
 996:	0f 90       	pop	r0
 998:	0f be       	out	0x3f, r0	; 63
 99a:	0f 90       	pop	r0
 99c:	1f 90       	pop	r1
 99e:	18 95       	reti

000009a0 <USB_Device_ProcessControlRequest>:
 9a0:	1f 93       	push	r17
 9a2:	cf 93       	push	r28
 9a4:	df 93       	push	r29
 9a6:	cd b7       	in	r28, 0x3d	; 61
 9a8:	de b7       	in	r29, 0x3e	; 62
 9aa:	aa 97       	sbiw	r28, 0x2a	; 42
 9ac:	0f b6       	in	r0, 0x3f	; 63
#if !defined(NO_DEVICE_REMOTE_WAKEUP)
bool    USB_Device_RemoteWakeupEnabled;
#endif

void USB_Device_ProcessControlRequest(void)
{
 9ae:	f8 94       	cli
 9b0:	de bf       	out	0x3e, r29	; 62
 9b2:	0f be       	out	0x3f, r0	; 63
 9b4:	cd bf       	out	0x3d, r28	; 61
 9b6:	ed e0       	ldi	r30, 0x0D	; 13
 9b8:	f1 e0       	ldi	r31, 0x01	; 1
			 *  \return Next byte in the currently selected endpoint's FIFO buffer.
			 */
			static inline uint8_t Endpoint_Read_8(void) ATTR_WARN_UNUSED_RESULT ATTR_ALWAYS_INLINE;
			static inline uint8_t Endpoint_Read_8(void)
			{
				return UEDATX;
 9ba:	80 91 f1 00 	lds	r24, 0x00F1
	USB_ControlRequest.wLength       = Endpoint_Read_16_LE();
	#else
	uint8_t* RequestHeader = (uint8_t*)&USB_ControlRequest;

	for (uint8_t RequestHeaderByte = 0; RequestHeaderByte < sizeof(USB_Request_Header_t); RequestHeaderByte++)
	  *(RequestHeader++) = Endpoint_Read_8();
 9be:	81 93       	st	Z+, r24
	USB_ControlRequest.wIndex        = Endpoint_Read_16_LE();
	USB_ControlRequest.wLength       = Endpoint_Read_16_LE();
	#else
	uint8_t* RequestHeader = (uint8_t*)&USB_ControlRequest;

	for (uint8_t RequestHeaderByte = 0; RequestHeaderByte < sizeof(USB_Request_Header_t); RequestHeaderByte++)
 9c0:	21 e0       	ldi	r18, 0x01	; 1
 9c2:	e5 31       	cpi	r30, 0x15	; 21
 9c4:	f2 07       	cpc	r31, r18
 9c6:	c9 f7       	brne	.-14     	; 0x9ba <USB_Device_ProcessControlRequest+0x1a>
	  *(RequestHeader++) = Endpoint_Read_8();
	#endif

	EVENT_USB_Device_ControlRequest();
 9c8:	4e dc       	rcall	.-1892   	; 0x266 <EVENT_USB_Device_ControlRequest>
 9ca:	80 91 e8 00 	lds	r24, 0x00E8
			 *  \return Boolean \c true if the selected endpoint has received a SETUP packet, \c false otherwise.
			 */
			static inline bool Endpoint_IsSETUPReceived(void) ATTR_WARN_UNUSED_RESULT ATTR_ALWAYS_INLINE;
			static inline bool Endpoint_IsSETUPReceived(void)
			{
				return ((UEINTX & (1 << RXSTPI)) ? true : false);
 9ce:	83 ff       	sbrs	r24, 3

	if (Endpoint_IsSETUPReceived())
 9d0:	20 c1       	rjmp	.+576    	; 0xc12 <USB_Device_ProcessControlRequest+0x272>
 9d2:	90 91 0d 01 	lds	r25, 0x010D
	{
		uint8_t bmRequestType = USB_ControlRequest.bmRequestType;
 9d6:	80 91 0e 01 	lds	r24, 0x010E

		switch (USB_ControlRequest.bRequest)
 9da:	85 30       	cpi	r24, 0x05	; 5
 9dc:	09 f4       	brne	.+2      	; 0x9e0 <USB_Device_ProcessControlRequest+0x40>
 9de:	77 c0       	rjmp	.+238    	; 0xace <USB_Device_ProcessControlRequest+0x12e>
 9e0:	30 f4       	brcc	.+12     	; 0x9ee <USB_Device_ProcessControlRequest+0x4e>
 9e2:	81 30       	cpi	r24, 0x01	; 1
 9e4:	81 f1       	breq	.+96     	; 0xa46 <USB_Device_ProcessControlRequest+0xa6>
 9e6:	68 f0       	brcs	.+26     	; 0xa02 <USB_Device_ProcessControlRequest+0x62>
 9e8:	83 30       	cpi	r24, 0x03	; 3
 9ea:	69 f1       	breq	.+90     	; 0xa46 <USB_Device_ProcessControlRequest+0xa6>
 9ec:	12 c1       	rjmp	.+548    	; 0xc12 <USB_Device_ProcessControlRequest+0x272>
 9ee:	88 30       	cpi	r24, 0x08	; 8
 9f0:	09 f4       	brne	.+2      	; 0x9f4 <USB_Device_ProcessControlRequest+0x54>
 9f2:	e1 c0       	rjmp	.+450    	; 0xbb6 <USB_Device_ProcessControlRequest+0x216>
 9f4:	89 30       	cpi	r24, 0x09	; 9
 9f6:	09 f4       	brne	.+2      	; 0x9fa <USB_Device_ProcessControlRequest+0x5a>
 9f8:	f0 c0       	rjmp	.+480    	; 0xbda <USB_Device_ProcessControlRequest+0x23a>
 9fa:	86 30       	cpi	r24, 0x06	; 6
 9fc:	09 f0       	breq	.+2      	; 0xa00 <USB_Device_ProcessControlRequest+0x60>
 9fe:	09 c1       	rjmp	.+530    	; 0xc12 <USB_Device_ProcessControlRequest+0x272>
 a00:	88 c0       	rjmp	.+272    	; 0xb12 <USB_Device_ProcessControlRequest+0x172>
 a02:	90 38       	cpi	r25, 0x80	; 128
		{
			case REQ_GetStatus:
				if ((bmRequestType == (REQDIR_DEVICETOHOST | REQTYPE_STANDARD | REQREC_DEVICE)) ||
 a04:	81 f0       	breq	.+32     	; 0xa26 <USB_Device_ProcessControlRequest+0x86>
 a06:	92 38       	cpi	r25, 0x82	; 130
 a08:	09 f0       	breq	.+2      	; 0xa0c <USB_Device_ProcessControlRequest+0x6c>
 a0a:	03 c1       	rjmp	.+518    	; 0xc12 <USB_Device_ProcessControlRequest+0x272>
 a0c:	80 91 11 01 	lds	r24, 0x0111
			 */
			static inline void Endpoint_SelectEndpoint(const uint8_t Address) ATTR_ALWAYS_INLINE;
			static inline void Endpoint_SelectEndpoint(const uint8_t Address)
			{
				#if !defined(CONTROL_ONLY_DEVICE)
					UENUM = (Address & ENDPOINT_EPNUM_MASK);
 a10:	8f 70       	andi	r24, 0x0F	; 15
 a12:	80 93 e9 00 	sts	0x00E9, r24
 a16:	80 91 eb 00 	lds	r24, 0x00EB
			 *  \return Boolean \c true if the currently selected endpoint is stalled, \c false otherwise.
			 */
			static inline bool Endpoint_IsStalled(void) ATTR_WARN_UNUSED_RESULT ATTR_ALWAYS_INLINE;
			static inline bool Endpoint_IsStalled(void)
			{
				return ((UECONX & (1 << STALLRQ)) ? true : false);
 a1a:	85 fb       	bst	r24, 5
 a1c:	88 27       	eor	r24, r24
 a1e:	80 f9       	bld	r24, 0
 a20:	10 92 e9 00 	sts	0x00E9, r1
			 */
			static inline void Endpoint_SelectEndpoint(const uint8_t Address) ATTR_ALWAYS_INLINE;
			static inline void Endpoint_SelectEndpoint(const uint8_t Address)
			{
				#if !defined(CONTROL_ONLY_DEVICE)
					UENUM = (Address & ENDPOINT_EPNUM_MASK);
 a24:	06 c0       	rjmp	.+12     	; 0xa32 <USB_Device_ProcessControlRequest+0x92>
 a26:	80 91 09 01 	lds	r24, 0x0109
	Endpoint_ClearOUT();
}

static void USB_Device_GetStatus(void)
{
	uint8_t CurrentStatus = 0;
 a2a:	90 91 0a 01 	lds	r25, 0x010A
			if (USB_Device_CurrentlySelfPowered)
			  CurrentStatus |= FEATURE_SELFPOWERED_ENABLED;
			#endif

			#if !defined(NO_DEVICE_REMOTE_WAKEUP)
			if (USB_Device_RemoteWakeupEnabled)
 a2e:	91 11       	cpse	r25, r1
 a30:	82 60       	ori	r24, 0x02	; 2
			  CurrentStatus |= FEATURE_REMOTE_WAKEUP_ENABLED;
 a32:	90 91 e8 00 	lds	r25, 0x00E8
			 *  \note This is not applicable for non CONTROL type endpoints.
			 */
			static inline void Endpoint_ClearSETUP(void) ATTR_ALWAYS_INLINE;
			static inline void Endpoint_ClearSETUP(void)
			{
				UEINTX &= ~(1 << RXSTPI);
 a36:	97 7f       	andi	r25, 0xF7	; 247
 a38:	90 93 e8 00 	sts	0x00E8, r25
 a3c:	80 93 f1 00 	sts	0x00F1, r24
			 *  \param[in] Data  Data to write to the currently selected endpoint's FIFO buffer.
			 */
			static inline void Endpoint_Write_16_LE(const uint16_t Data) ATTR_ALWAYS_INLINE;
			static inline void Endpoint_Write_16_LE(const uint16_t Data)
			{
				UEDATX = (Data & 0xFF);
 a40:	10 92 f1 00 	sts	0x00F1, r1
				UEDATX = (Data >> 8);
 a44:	c3 c0       	rjmp	.+390    	; 0xbcc <USB_Device_ProcessControlRequest+0x22c>
 a46:	29 2f       	mov	r18, r25
				}

				break;
			case REQ_ClearFeature:
			case REQ_SetFeature:
				if ((bmRequestType == (REQDIR_HOSTTODEVICE | REQTYPE_STANDARD | REQREC_DEVICE)) ||
 a48:	2d 7f       	andi	r18, 0xFD	; 253
 a4a:	09 f0       	breq	.+2      	; 0xa4e <USB_Device_ProcessControlRequest+0xae>
 a4c:	e2 c0       	rjmp	.+452    	; 0xc12 <USB_Device_ProcessControlRequest+0x272>
 a4e:	99 23       	and	r25, r25
	Endpoint_ClearStatusStage();
}

static void USB_Device_ClearSetFeature(void)
{
	switch (USB_ControlRequest.bmRequestType & CONTROL_REQTYPE_RECIPIENT)
 a50:	19 f0       	breq	.+6      	; 0xa58 <USB_Device_ProcessControlRequest+0xb8>
 a52:	92 30       	cpi	r25, 0x02	; 2
 a54:	61 f0       	breq	.+24     	; 0xa6e <USB_Device_ProcessControlRequest+0xce>
 a56:	dd c0       	rjmp	.+442    	; 0xc12 <USB_Device_ProcessControlRequest+0x272>
 a58:	90 91 0f 01 	lds	r25, 0x010F
	{
		#if !defined(NO_DEVICE_REMOTE_WAKEUP)
		case REQREC_DEVICE:
			if ((uint8_t)USB_ControlRequest.wValue == FEATURE_SEL_DeviceRemoteWakeup)
 a5c:	91 30       	cpi	r25, 0x01	; 1
 a5e:	09 f0       	breq	.+2      	; 0xa62 <USB_Device_ProcessControlRequest+0xc2>
 a60:	d8 c0       	rjmp	.+432    	; 0xc12 <USB_Device_ProcessControlRequest+0x272>
 a62:	83 30       	cpi	r24, 0x03	; 3
			  USB_Device_RemoteWakeupEnabled = (USB_ControlRequest.bRequest == REQ_SetFeature);
 a64:	09 f0       	breq	.+2      	; 0xa68 <USB_Device_ProcessControlRequest+0xc8>
 a66:	90 e0       	ldi	r25, 0x00	; 0
 a68:	90 93 0a 01 	sts	0x010A, r25
 a6c:	2a c0       	rjmp	.+84     	; 0xac2 <USB_Device_ProcessControlRequest+0x122>
 a6e:	90 91 0f 01 	lds	r25, 0x010F

			break;
		#endif
		#if !defined(CONTROL_ONLY_DEVICE)
		case REQREC_ENDPOINT:
			if ((uint8_t)USB_ControlRequest.wValue == FEATURE_SEL_EndpointHalt)
 a72:	91 11       	cpse	r25, r1
 a74:	26 c0       	rjmp	.+76     	; 0xac2 <USB_Device_ProcessControlRequest+0x122>
 a76:	20 91 11 01 	lds	r18, 0x0111
			{
				uint8_t EndpointIndex = ((uint8_t)USB_ControlRequest.wIndex & ENDPOINT_EPNUM_MASK);
 a7a:	2f 70       	andi	r18, 0x0F	; 15
 a7c:	09 f4       	brne	.+2      	; 0xa80 <USB_Device_ProcessControlRequest+0xe0>

				if (EndpointIndex == ENDPOINT_CONTROLEP)
 a7e:	c9 c0       	rjmp	.+402    	; 0xc12 <USB_Device_ProcessControlRequest+0x272>
 a80:	20 93 e9 00 	sts	0x00E9, r18
			 */
			static inline void Endpoint_SelectEndpoint(const uint8_t Address) ATTR_ALWAYS_INLINE;
			static inline void Endpoint_SelectEndpoint(const uint8_t Address)
			{
				#if !defined(CONTROL_ONLY_DEVICE)
					UENUM = (Address & ENDPOINT_EPNUM_MASK);
 a84:	90 91 eb 00 	lds	r25, 0x00EB
			 * \return Boolean \c true if the currently selected endpoint is enabled, \c false otherwise.
			 */
			static inline bool Endpoint_IsEnabled(void) ATTR_WARN_UNUSED_RESULT ATTR_ALWAYS_INLINE;
			static inline bool Endpoint_IsEnabled(void)
			{
				return ((UECONX & (1 << EPEN)) ? true : false);
 a88:	90 ff       	sbrs	r25, 0
				  return;

				Endpoint_SelectEndpoint(EndpointIndex);

				if (Endpoint_IsEnabled())
 a8a:	1b c0       	rjmp	.+54     	; 0xac2 <USB_Device_ProcessControlRequest+0x122>
 a8c:	83 30       	cpi	r24, 0x03	; 3
				{
					if (USB_ControlRequest.bRequest == REQ_SetFeature)
 a8e:	21 f4       	brne	.+8      	; 0xa98 <USB_Device_ProcessControlRequest+0xf8>
 a90:	80 91 eb 00 	lds	r24, 0x00EB
			 *  \ingroup Group_EndpointPacketManagement_AVR8
			 */
			static inline void Endpoint_StallTransaction(void) ATTR_ALWAYS_INLINE;
			static inline void Endpoint_StallTransaction(void)
			{
				UECONX |= (1 << STALLRQ);
 a94:	80 62       	ori	r24, 0x20	; 32
 a96:	13 c0       	rjmp	.+38     	; 0xabe <USB_Device_ProcessControlRequest+0x11e>
 a98:	80 91 eb 00 	lds	r24, 0x00EB
			 *  \ingroup Group_EndpointPacketManagement_AVR8
			 */
			static inline void Endpoint_ClearStall(void) ATTR_ALWAYS_INLINE;
			static inline void Endpoint_ClearStall(void)
			{
				UECONX |= (1 << STALLRQC);
 a9c:	80 61       	ori	r24, 0x10	; 16
 a9e:	80 93 eb 00 	sts	0x00EB, r24
 aa2:	81 e0       	ldi	r24, 0x01	; 1
			 *  \param[in] Address  Endpoint address whose FIFO buffers are to be reset.
			 */
			static inline void Endpoint_ResetEndpoint(const uint8_t Address) ATTR_ALWAYS_INLINE;
			static inline void Endpoint_ResetEndpoint(const uint8_t Address)
			{
				UERST = (1 << (Address & ENDPOINT_EPNUM_MASK));
 aa4:	90 e0       	ldi	r25, 0x00	; 0
 aa6:	02 2e       	mov	r0, r18
 aa8:	01 c0       	rjmp	.+2      	; 0xaac <USB_Device_ProcessControlRequest+0x10c>
 aaa:	88 0f       	add	r24, r24
 aac:	0a 94       	dec	r0
 aae:	ea f7       	brpl	.-6      	; 0xaaa <USB_Device_ProcessControlRequest+0x10a>
 ab0:	80 93 ea 00 	sts	0x00EA, r24
 ab4:	10 92 ea 00 	sts	0x00EA, r1
				UERST = 0;
 ab8:	80 91 eb 00 	lds	r24, 0x00EB

			/** Resets the data toggle of the currently selected endpoint. */
			static inline void Endpoint_ResetDataToggle(void) ATTR_ALWAYS_INLINE;
			static inline void Endpoint_ResetDataToggle(void)
			{
				UECONX |= (1 << RSTDT);
 abc:	88 60       	ori	r24, 0x08	; 8
 abe:	80 93 eb 00 	sts	0x00EB, r24
 ac2:	10 92 e9 00 	sts	0x00E9, r1
			 */
			static inline void Endpoint_SelectEndpoint(const uint8_t Address) ATTR_ALWAYS_INLINE;
			static inline void Endpoint_SelectEndpoint(const uint8_t Address)
			{
				#if !defined(CONTROL_ONLY_DEVICE)
					UENUM = (Address & ENDPOINT_EPNUM_MASK);
 ac6:	80 91 e8 00 	lds	r24, 0x00E8
			 *  \note This is not applicable for non CONTROL type endpoints.
			 */
			static inline void Endpoint_ClearSETUP(void) ATTR_ALWAYS_INLINE;
			static inline void Endpoint_ClearSETUP(void)
			{
				UEINTX &= ~(1 << RXSTPI);
 aca:	87 7f       	andi	r24, 0xF7	; 247
 acc:	82 c0       	rjmp	.+260    	; 0xbd2 <USB_Device_ProcessControlRequest+0x232>
 ace:	91 11       	cpse	r25, r1
					USB_Device_ClearSetFeature();
				}

				break;
			case REQ_SetAddress:
				if (bmRequestType == (REQDIR_HOSTTODEVICE | REQTYPE_STANDARD | REQREC_DEVICE))
 ad0:	a0 c0       	rjmp	.+320    	; 0xc12 <USB_Device_ProcessControlRequest+0x272>
 ad2:	10 91 0f 01 	lds	r17, 0x010F
	}
}

static void USB_Device_SetAddress(void)
{
	uint8_t DeviceAddress = (USB_ControlRequest.wValue & 0x7F);
 ad6:	1f 77       	andi	r17, 0x7F	; 127
 ad8:	80 91 e3 00 	lds	r24, 0x00E3
			#endif

			static inline void USB_Device_SetDeviceAddress(const uint8_t Address) ATTR_ALWAYS_INLINE;
			static inline void USB_Device_SetDeviceAddress(const uint8_t Address)
			{
				UDADDR = (UDADDR & (1 << ADDEN)) | (Address & 0x7F);
 adc:	80 78       	andi	r24, 0x80	; 128
 ade:	81 2b       	or	r24, r17
 ae0:	80 93 e3 00 	sts	0x00E3, r24
 ae4:	80 91 e8 00 	lds	r24, 0x00E8
 ae8:	87 7f       	andi	r24, 0xF7	; 247
 aea:	80 93 e8 00 	sts	0x00E8, r24
 aee:	0d de       	rcall	.-998    	; 0x70a <Endpoint_ClearStatusStage>

	USB_Device_SetDeviceAddress(DeviceAddress);

	Endpoint_ClearSETUP();

	Endpoint_ClearStatusStage();
 af0:	80 91 e8 00 	lds	r24, 0x00E8
			 *  \return Boolean \c true if the current endpoint is ready for an IN packet, \c false otherwise.
			 */
			static inline bool Endpoint_IsINReady(void) ATTR_WARN_UNUSED_RESULT ATTR_ALWAYS_INLINE;
			static inline bool Endpoint_IsINReady(void)
			{
				return ((UEINTX & (1 << TXINI)) ? true : false);
 af4:	80 ff       	sbrs	r24, 0
 af6:	fc cf       	rjmp	.-8      	; 0xaf0 <USB_Device_ProcessControlRequest+0x150>

	while (!(Endpoint_IsINReady()));
 af8:	80 91 e3 00 	lds	r24, 0x00E3
			static inline void USB_Device_EnableDeviceAddress(const uint8_t Address) ATTR_ALWAYS_INLINE;
			static inline void USB_Device_EnableDeviceAddress(const uint8_t Address)
			{
				(void)Address;

				UDADDR |= (1 << ADDEN);
 afc:	80 68       	ori	r24, 0x80	; 128
 afe:	80 93 e3 00 	sts	0x00E3, r24
 b02:	11 23       	and	r17, r17
 b04:	11 f0       	breq	.+4      	; 0xb0a <USB_Device_ProcessControlRequest+0x16a>

	USB_Device_EnableDeviceAddress(DeviceAddress);

	USB_DeviceState = (DeviceAddress) ? DEVICE_STATE_Addressed : DEVICE_STATE_Default;
 b06:	83 e0       	ldi	r24, 0x03	; 3
 b08:	01 c0       	rjmp	.+2      	; 0xb0c <USB_Device_ProcessControlRequest+0x16c>
 b0a:	82 e0       	ldi	r24, 0x02	; 2
 b0c:	80 93 0c 01 	sts	0x010C, r24
 b10:	80 c0       	rjmp	.+256    	; 0xc12 <USB_Device_ProcessControlRequest+0x272>
 b12:	90 58       	subi	r25, 0x80	; 128
 b14:	92 30       	cpi	r25, 0x02	; 2
				if (bmRequestType == (REQDIR_HOSTTODEVICE | REQTYPE_STANDARD | REQREC_DEVICE))
				  USB_Device_SetAddress();

				break;
			case REQ_GetDescriptor:
				if ((bmRequestType == (REQDIR_DEVICETOHOST | REQTYPE_STANDARD | REQREC_DEVICE)) ||
 b16:	08 f0       	brcs	.+2      	; 0xb1a <USB_Device_ProcessControlRequest+0x17a>
 b18:	7c c0       	rjmp	.+248    	; 0xc12 <USB_Device_ProcessControlRequest+0x272>
 b1a:	80 91 0f 01 	lds	r24, 0x010F
	    !(defined(USE_FLASH_DESCRIPTORS) || defined(USE_EEPROM_DESCRIPTORS) || defined(USE_RAM_DESCRIPTORS))
	uint8_t DescriptorAddressSpace;
	#endif

	#if !defined(NO_INTERNAL_SERIAL) && (USE_INTERNAL_SERIAL != NO_DESCRIPTOR)
	if (USB_ControlRequest.wValue == ((DTYPE_String << 8) | USE_INTERNAL_SERIAL))
 b1e:	90 91 10 01 	lds	r25, 0x0110
 b22:	8c 3d       	cpi	r24, 0xDC	; 220
 b24:	23 e0       	ldi	r18, 0x03	; 3
 b26:	92 07       	cpc	r25, r18
 b28:	71 f5       	brne	.+92     	; 0xb86 <USB_Device_ProcessControlRequest+0x1e6>
 b2a:	83 e0       	ldi	r24, 0x03	; 3
 b2c:	8a 83       	std	Y+2, r24	; 0x02
	{
		USB_Descriptor_Header_t Header;
		uint16_t                UnicodeString[INTERNAL_SERIAL_LENGTH_BITS / 4];
	} SignatureDescriptor;

	SignatureDescriptor.Header.Type = DTYPE_String;
 b2e:	8a e2       	ldi	r24, 0x2A	; 42
 b30:	89 83       	std	Y+1, r24	; 0x01
	SignatureDescriptor.Header.Size = USB_STRING_LEN(INTERNAL_SERIAL_LENGTH_BITS / 4);
 b32:	4f b7       	in	r20, 0x3f	; 63
 b34:	f8 94       	cli
			static inline uint_reg_t GetGlobalInterruptMask(void)
			{
				GCC_MEMORY_BARRIER();

				#if (ARCH == ARCH_AVR8)
				return SREG;
 b36:	de 01       	movw	r26, r28
			static inline void GlobalInterruptDisable(void)
			{
				GCC_MEMORY_BARRIER();

				#if (ARCH == ARCH_AVR8)
				cli();
 b38:	13 96       	adiw	r26, 0x03	; 3
				__builtin_ssrf(AVR32_SR_GM_OFFSET);
				#elif (ARCH == ARCH_XMEGA)
				cli();
				#endif

				GCC_MEMORY_BARRIER();
 b3a:	20 e0       	ldi	r18, 0x00	; 0
 b3c:	3e e0       	ldi	r19, 0x0E	; 14
				uint_reg_t CurrentGlobalInt = GetGlobalInterruptMask();
				GlobalInterruptDisable();

				uint8_t SigReadAddress = INTERNAL_SERIAL_START_ADDRESS;

				for (uint8_t SerialCharNum = 0; SerialCharNum < (INTERNAL_SERIAL_LENGTH_BITS / 4); SerialCharNum++)
 b3e:	51 e2       	ldi	r21, 0x21	; 33
			static inline void USB_Device_GetSerialString(uint16_t* const UnicodeString)
			{
				uint_reg_t CurrentGlobalInt = GetGlobalInterruptMask();
				GlobalInterruptDisable();

				uint8_t SigReadAddress = INTERNAL_SERIAL_START_ADDRESS;
 b40:	e3 2f       	mov	r30, r19

				for (uint8_t SerialCharNum = 0; SerialCharNum < (INTERNAL_SERIAL_LENGTH_BITS / 4); SerialCharNum++)
				{
					uint8_t SerialByte = boot_signature_byte_get(SigReadAddress);
 b42:	f0 e0       	ldi	r31, 0x00	; 0
 b44:	50 93 57 00 	sts	0x0057, r21
 b48:	e4 91       	lpm	r30, Z
 b4a:	20 ff       	sbrs	r18, 0
 b4c:	03 c0       	rjmp	.+6      	; 0xb54 <USB_Device_ProcessControlRequest+0x1b4>

					if (SerialCharNum & 0x01)
 b4e:	e2 95       	swap	r30
 b50:	ef 70       	andi	r30, 0x0F	; 15
					{
						SerialByte >>= 4;
 b52:	3f 5f       	subi	r19, 0xFF	; 255
 b54:	ef 70       	andi	r30, 0x0F	; 15
						SigReadAddress++;
 b56:	8e 2f       	mov	r24, r30
					}

					SerialByte &= 0x0F;
 b58:	90 e0       	ldi	r25, 0x00	; 0
 b5a:	ea 30       	cpi	r30, 0x0A	; 10
 b5c:	10 f0       	brcs	.+4      	; 0xb62 <USB_Device_ProcessControlRequest+0x1c2>

					UnicodeString[SerialCharNum] = cpu_to_le16((SerialByte >= 10) ?
 b5e:	c7 96       	adiw	r24, 0x37	; 55
 b60:	01 c0       	rjmp	.+2      	; 0xb64 <USB_Device_ProcessControlRequest+0x1c4>
 b62:	c0 96       	adiw	r24, 0x30	; 48
 b64:	8d 93       	st	X+, r24
 b66:	9d 93       	st	X+, r25
 b68:	2f 5f       	subi	r18, 0xFF	; 255
 b6a:	24 31       	cpi	r18, 0x14	; 20
				uint_reg_t CurrentGlobalInt = GetGlobalInterruptMask();
				GlobalInterruptDisable();

				uint8_t SigReadAddress = INTERNAL_SERIAL_START_ADDRESS;

				for (uint8_t SerialCharNum = 0; SerialCharNum < (INTERNAL_SERIAL_LENGTH_BITS / 4); SerialCharNum++)
 b6c:	49 f7       	brne	.-46     	; 0xb40 <USB_Device_ProcessControlRequest+0x1a0>
 b6e:	4f bf       	out	0x3f, r20	; 63
 b70:	80 91 e8 00 	lds	r24, 0x00E8
			 *  \note This is not applicable for non CONTROL type endpoints.
			 */
			static inline void Endpoint_ClearSETUP(void) ATTR_ALWAYS_INLINE;
			static inline void Endpoint_ClearSETUP(void)
			{
				UEINTX &= ~(1 << RXSTPI);
 b74:	87 7f       	andi	r24, 0xF7	; 247
 b76:	80 93 e8 00 	sts	0x00E8, r24
 b7a:	6a e2       	ldi	r22, 0x2A	; 42
 b7c:	70 e0       	ldi	r23, 0x00	; 0

	USB_Device_GetSerialString(SignatureDescriptor.UnicodeString);

	Endpoint_ClearSETUP();

	Endpoint_Write_Control_Stream_LE(&SignatureDescriptor, sizeof(SignatureDescriptor));
 b7e:	ce 01       	movw	r24, r28
 b80:	01 96       	adiw	r24, 0x01	; 1
 b82:	93 dc       	rcall	.-1754   	; 0x4aa <Endpoint_Write_Control_Stream_LE>
 b84:	12 c0       	rjmp	.+36     	; 0xbaa <USB_Device_ProcessControlRequest+0x20a>
 b86:	ae 01       	movw	r20, r28
 b88:	4f 5f       	subi	r20, 0xFF	; 255
 b8a:	5f 4f       	sbci	r21, 0xFF	; 255
		USB_Device_GetInternalSerialDescriptor();
		return;
	}
	#endif

	if ((DescriptorSize = CALLBACK_USB_GetDescriptor(USB_ControlRequest.wValue, USB_ControlRequest.wIndex,
 b8c:	60 91 11 01 	lds	r22, 0x0111
 b90:	5a dc       	rcall	.-1868   	; 0x446 <CALLBACK_USB_GetDescriptor>
 b92:	00 97       	sbiw	r24, 0x00	; 0
 b94:	09 f4       	brne	.+2      	; 0xb98 <USB_Device_ProcessControlRequest+0x1f8>
 b96:	3d c0       	rjmp	.+122    	; 0xc12 <USB_Device_ProcessControlRequest+0x272>
 b98:	20 91 e8 00 	lds	r18, 0x00E8
 b9c:	27 7f       	andi	r18, 0xF7	; 247
 b9e:	20 93 e8 00 	sts	0x00E8, r18
 ba2:	bc 01       	movw	r22, r24
 ba4:	89 81       	ldd	r24, Y+1	; 0x01
 ba6:	9a 81       	ldd	r25, Y+2	; 0x02
 ba8:	1b dd       	rcall	.-1482   	; 0x5e0 <Endpoint_Write_Control_PStream_LE>
	#if defined(USE_RAM_DESCRIPTORS) || !defined(ARCH_HAS_MULTI_ADDRESS_SPACE)
	Endpoint_Write_Control_Stream_LE(DescriptorPointer, DescriptorSize);
	#elif defined(USE_EEPROM_DESCRIPTORS)
	Endpoint_Write_Control_EStream_LE(DescriptorPointer, DescriptorSize);
	#elif defined(USE_FLASH_DESCRIPTORS)
	Endpoint_Write_Control_PStream_LE(DescriptorPointer, DescriptorSize);
 baa:	80 91 e8 00 	lds	r24, 0x00E8
 bae:	8b 77       	andi	r24, 0x7B	; 123
 bb0:	80 93 e8 00 	sts	0x00E8, r24
			 */
			static inline void Endpoint_ClearOUT(void) ATTR_ALWAYS_INLINE;
			static inline void Endpoint_ClearOUT(void)
			{
				#if !defined(CONTROL_ONLY_DEVICE)
					UEINTX &= ~((1 << RXOUTI) | (1 << FIFOCON));
 bb4:	2e c0       	rjmp	.+92     	; 0xc12 <USB_Device_ProcessControlRequest+0x272>
 bb6:	90 38       	cpi	r25, 0x80	; 128
 bb8:	61 f5       	brne	.+88     	; 0xc12 <USB_Device_ProcessControlRequest+0x272>
 bba:	80 91 e8 00 	lds	r24, 0x00E8
 bbe:	87 7f       	andi	r24, 0xF7	; 247
					USB_Device_GetDescriptor();
				}

				break;
			case REQ_GetConfiguration:
				if (bmRequestType == (REQDIR_DEVICETOHOST | REQTYPE_STANDARD | REQREC_DEVICE))
 bc0:	80 93 e8 00 	sts	0x00E8, r24
			 *  \note This is not applicable for non CONTROL type endpoints.
			 */
			static inline void Endpoint_ClearSETUP(void) ATTR_ALWAYS_INLINE;
			static inline void Endpoint_ClearSETUP(void)
			{
				UEINTX &= ~(1 << RXSTPI);
 bc4:	80 91 08 01 	lds	r24, 0x0108
 bc8:	80 93 f1 00 	sts	0x00F1, r24
 bcc:	80 91 e8 00 	lds	r24, 0x00E8

static void USB_Device_GetConfiguration(void)
{
	Endpoint_ClearSETUP();

	Endpoint_Write_8(USB_Device_ConfigurationNumber);
 bd0:	8e 77       	andi	r24, 0x7E	; 126
			 *  \param[in] Data  Data to write into the the currently selected endpoint's FIFO buffer.
			 */
			static inline void Endpoint_Write_8(const uint8_t Data) ATTR_ALWAYS_INLINE;
			static inline void Endpoint_Write_8(const uint8_t Data)
			{
				UEDATX = Data;
 bd2:	80 93 e8 00 	sts	0x00E8, r24
			 */
			static inline void Endpoint_ClearIN(void) ATTR_ALWAYS_INLINE;
			static inline void Endpoint_ClearIN(void)
			{
				#if !defined(CONTROL_ONLY_DEVICE)
					UEINTX &= ~((1 << TXINI) | (1 << FIFOCON));
 bd6:	99 dd       	rcall	.-1230   	; 0x70a <Endpoint_ClearStatusStage>
 bd8:	1c c0       	rjmp	.+56     	; 0xc12 <USB_Device_ProcessControlRequest+0x272>
 bda:	91 11       	cpse	r25, r1
 bdc:	1a c0       	rjmp	.+52     	; 0xc12 <USB_Device_ProcessControlRequest+0x272>
 bde:	90 91 0f 01 	lds	r25, 0x010F
	Endpoint_ClearIN();

	Endpoint_ClearStatusStage();
 be2:	92 30       	cpi	r25, 0x02	; 2
 be4:	b0 f4       	brcc	.+44     	; 0xc12 <USB_Device_ProcessControlRequest+0x272>
				if (bmRequestType == (REQDIR_DEVICETOHOST | REQTYPE_STANDARD | REQREC_DEVICE))
				  USB_Device_GetConfiguration();

				break;
			case REQ_SetConfiguration:
				if (bmRequestType == (REQDIR_HOSTTODEVICE | REQTYPE_STANDARD | REQREC_DEVICE))
 be6:	80 91 e8 00 	lds	r24, 0x00E8
}

static void USB_Device_SetConfiguration(void)
{
	#if defined(FIXED_NUM_CONFIGURATIONS)
	if ((uint8_t)USB_ControlRequest.wValue > FIXED_NUM_CONFIGURATIONS)
 bea:	87 7f       	andi	r24, 0xF7	; 247
 bec:	80 93 e8 00 	sts	0x00E8, r24
 bf0:	90 93 08 01 	sts	0x0108, r25
			 *  \note This is not applicable for non CONTROL type endpoints.
			 */
			static inline void Endpoint_ClearSETUP(void) ATTR_ALWAYS_INLINE;
			static inline void Endpoint_ClearSETUP(void)
			{
				UEINTX &= ~(1 << RXSTPI);
 bf4:	8a dd       	rcall	.-1260   	; 0x70a <Endpoint_ClearStatusStage>
 bf6:	80 91 08 01 	lds	r24, 0x0108
 bfa:	81 11       	cpse	r24, r1
	#endif
	#endif

	Endpoint_ClearSETUP();

	USB_Device_ConfigurationNumber = (uint8_t)USB_ControlRequest.wValue;
 bfc:	04 c0       	rjmp	.+8      	; 0xc06 <USB_Device_ProcessControlRequest+0x266>
 bfe:	80 91 e3 00 	lds	r24, 0x00E3

	Endpoint_ClearStatusStage();
 c02:	87 ff       	sbrs	r24, 7

	if (USB_Device_ConfigurationNumber)
 c04:	02 c0       	rjmp	.+4      	; 0xc0a <USB_Device_ProcessControlRequest+0x26a>
 c06:	84 e0       	ldi	r24, 0x04	; 4
 c08:	01 c0       	rjmp	.+2      	; 0xc0c <USB_Device_ProcessControlRequest+0x26c>
 c0a:	81 e0       	ldi	r24, 0x01	; 1
			}

			static inline bool USB_Device_IsAddressSet(void) ATTR_ALWAYS_INLINE ATTR_WARN_UNUSED_RESULT;
			static inline bool USB_Device_IsAddressSet(void)
			{
				return (UDADDR & (1 << ADDEN));
 c0c:	80 93 0c 01 	sts	0x010C, r24
	  USB_DeviceState = DEVICE_STATE_Configured;
	else
	  USB_DeviceState = (USB_Device_IsAddressSet()) ? DEVICE_STATE_Configured : DEVICE_STATE_Powered;
 c10:	20 db       	rcall	.-2496   	; 0x252 <EVENT_USB_Device_ConfigurationChanged>
 c12:	80 91 e8 00 	lds	r24, 0x00E8
 c16:	83 ff       	sbrs	r24, 3
 c18:	0a c0       	rjmp	.+20     	; 0xc2e <USB_Device_ProcessControlRequest+0x28e>
 c1a:	80 91 e8 00 	lds	r24, 0x00E8

	EVENT_USB_Device_ConfigurationChanged();
 c1e:	87 7f       	andi	r24, 0xF7	; 247
 c20:	80 93 e8 00 	sts	0x00E8, r24
			 *  \return Boolean \c true if the selected endpoint has received a SETUP packet, \c false otherwise.
			 */
			static inline bool Endpoint_IsSETUPReceived(void) ATTR_WARN_UNUSED_RESULT ATTR_ALWAYS_INLINE;
			static inline bool Endpoint_IsSETUPReceived(void)
			{
				return ((UEINTX & (1 << RXSTPI)) ? true : false);
 c24:	80 91 eb 00 	lds	r24, 0x00EB
			default:
				break;
		}
	}

	if (Endpoint_IsSETUPReceived())
 c28:	80 62       	ori	r24, 0x20	; 32
			 *  \note This is not applicable for non CONTROL type endpoints.
			 */
			static inline void Endpoint_ClearSETUP(void) ATTR_ALWAYS_INLINE;
			static inline void Endpoint_ClearSETUP(void)
			{
				UEINTX &= ~(1 << RXSTPI);
 c2a:	80 93 eb 00 	sts	0x00EB, r24
 c2e:	aa 96       	adiw	r28, 0x2a	; 42
 c30:	0f b6       	in	r0, 0x3f	; 63
 c32:	f8 94       	cli
			 *  \ingroup Group_EndpointPacketManagement_AVR8
			 */
			static inline void Endpoint_StallTransaction(void) ATTR_ALWAYS_INLINE;
			static inline void Endpoint_StallTransaction(void)
			{
				UECONX |= (1 << STALLRQ);
 c34:	de bf       	out	0x3e, r29	; 62
 c36:	0f be       	out	0x3f, r0	; 63
 c38:	cd bf       	out	0x3d, r28	; 61
 c3a:	df 91       	pop	r29
 c3c:	cf 91       	pop	r28
	{
		Endpoint_ClearSETUP();
		Endpoint_StallTransaction();
	}
}
 c3e:	1f 91       	pop	r17
 c40:	08 95       	ret

00000c42 <USB_Event_Stub>:
 c42:	08 95       	ret

00000c44 <USB_USBTask>:
 c44:	cf 93       	push	r28
 c46:	80 91 0c 01 	lds	r24, 0x010C
 c4a:	88 23       	and	r24, r24
 c4c:	a9 f0       	breq	.+42     	; 0xc78 <USB_USBTask+0x34>
 c4e:	80 91 e9 00 	lds	r24, 0x00E9
			 */
			static inline uint8_t Endpoint_GetCurrentEndpoint(void) ATTR_WARN_UNUSED_RESULT ATTR_ALWAYS_INLINE;
			static inline uint8_t Endpoint_GetCurrentEndpoint(void)
			{
				#if !defined(CONTROL_ONLY_DEVICE)
					return ((UENUM & ENDPOINT_EPNUM_MASK) | Endpoint_GetEndpointDirection());
 c52:	8f 70       	andi	r24, 0x0F	; 15
			 *  \return The currently selected endpoint's direction, as a \c ENDPOINT_DIR_* mask.
			 */
			static inline uint8_t Endpoint_GetEndpointDirection(void) ATTR_WARN_UNUSED_RESULT ATTR_ALWAYS_INLINE;
			static inline uint8_t Endpoint_GetEndpointDirection(void)
			{
				return (UECFG0X & (1 << EPDIR)) ? ENDPOINT_DIR_IN : ENDPOINT_DIR_OUT;
 c54:	90 91 ec 00 	lds	r25, 0x00EC
 c58:	90 ff       	sbrs	r25, 0
 c5a:	02 c0       	rjmp	.+4      	; 0xc60 <USB_USBTask+0x1c>
 c5c:	90 e8       	ldi	r25, 0x80	; 128
 c5e:	01 c0       	rjmp	.+2      	; 0xc62 <USB_USBTask+0x1e>
 c60:	90 e0       	ldi	r25, 0x00	; 0
			 */
			static inline uint8_t Endpoint_GetCurrentEndpoint(void) ATTR_WARN_UNUSED_RESULT ATTR_ALWAYS_INLINE;
			static inline uint8_t Endpoint_GetCurrentEndpoint(void)
			{
				#if !defined(CONTROL_ONLY_DEVICE)
					return ((UENUM & ENDPOINT_EPNUM_MASK) | Endpoint_GetEndpointDirection());
 c62:	c9 2f       	mov	r28, r25
 c64:	c8 2b       	or	r28, r24
			 */
			static inline void Endpoint_SelectEndpoint(const uint8_t Address) ATTR_ALWAYS_INLINE;
			static inline void Endpoint_SelectEndpoint(const uint8_t Address)
			{
				#if !defined(CONTROL_ONLY_DEVICE)
					UENUM = (Address & ENDPOINT_EPNUM_MASK);
 c66:	10 92 e9 00 	sts	0x00E9, r1
			 *  \return Boolean \c true if the selected endpoint has received a SETUP packet, \c false otherwise.
			 */
			static inline bool Endpoint_IsSETUPReceived(void) ATTR_WARN_UNUSED_RESULT ATTR_ALWAYS_INLINE;
			static inline bool Endpoint_IsSETUPReceived(void)
			{
				return ((UEINTX & (1 << RXSTPI)) ? true : false);
 c6a:	80 91 e8 00 	lds	r24, 0x00E8

	uint8_t PrevEndpoint = Endpoint_GetCurrentEndpoint();

	Endpoint_SelectEndpoint(ENDPOINT_CONTROLEP);

	if (Endpoint_IsSETUPReceived())
 c6e:	83 fd       	sbrc	r24, 3
	  USB_Device_ProcessControlRequest();
 c70:	97 de       	rcall	.-722    	; 0x9a0 <USB_Device_ProcessControlRequest>
 c72:	cf 70       	andi	r28, 0x0F	; 15
			 */
			static inline void Endpoint_SelectEndpoint(const uint8_t Address) ATTR_ALWAYS_INLINE;
			static inline void Endpoint_SelectEndpoint(const uint8_t Address)
			{
				#if !defined(CONTROL_ONLY_DEVICE)
					UENUM = (Address & ENDPOINT_EPNUM_MASK);
 c74:	c0 93 e9 00 	sts	0x00E9, r28
 c78:	cf 91       	pop	r28
	#elif defined(USB_CAN_BE_HOST)
		USB_HostTask();
	#elif defined(USB_CAN_BE_DEVICE)
		USB_DeviceTask();
	#endif
}
 c7a:	08 95       	ret

00000c7c <__udivmodsi4>:
 c7c:	a1 e2       	ldi	r26, 0x21	; 33
 c7e:	1a 2e       	mov	r1, r26
 c80:	aa 1b       	sub	r26, r26
 c82:	bb 1b       	sub	r27, r27
 c84:	fd 01       	movw	r30, r26
 c86:	0d c0       	rjmp	.+26     	; 0xca2 <__udivmodsi4_ep>

00000c88 <__udivmodsi4_loop>:
 c88:	aa 1f       	adc	r26, r26
 c8a:	bb 1f       	adc	r27, r27
 c8c:	ee 1f       	adc	r30, r30
 c8e:	ff 1f       	adc	r31, r31
 c90:	a2 17       	cp	r26, r18
 c92:	b3 07       	cpc	r27, r19
 c94:	e4 07       	cpc	r30, r20
 c96:	f5 07       	cpc	r31, r21
 c98:	20 f0       	brcs	.+8      	; 0xca2 <__udivmodsi4_ep>
 c9a:	a2 1b       	sub	r26, r18
 c9c:	b3 0b       	sbc	r27, r19
 c9e:	e4 0b       	sbc	r30, r20
 ca0:	f5 0b       	sbc	r31, r21

00000ca2 <__udivmodsi4_ep>:
 ca2:	66 1f       	adc	r22, r22
 ca4:	77 1f       	adc	r23, r23
 ca6:	88 1f       	adc	r24, r24
 ca8:	99 1f       	adc	r25, r25
 caa:	1a 94       	dec	r1
 cac:	69 f7       	brne	.-38     	; 0xc88 <__udivmodsi4_loop>
 cae:	60 95       	com	r22
 cb0:	70 95       	com	r23
 cb2:	80 95       	com	r24
 cb4:	90 95       	com	r25
 cb6:	9b 01       	movw	r18, r22
 cb8:	ac 01       	movw	r20, r24
 cba:	bd 01       	movw	r22, r26
 cbc:	cf 01       	movw	r24, r30
 cbe:	08 95       	ret

00000cc0 <_exit>:
 cc0:	f8 94       	cli

00000cc2 <__stop_program>:
 cc2:	ff cf       	rjmp	.-2      	; 0xcc2 <__stop_program>
