
AudioInputHost.elf:     file format elf32-avr

Sections:
Idx Name          Size      VMA       LMA       File off  Algn
  0 .data         00000012  00800100  000018ac  00001940  2**0
                  CONTENTS, ALLOC, LOAD, DATA
  1 .text         000018ac  00000000  00000000  00000094  2**1
                  CONTENTS, ALLOC, LOAD, READONLY, CODE
  2 .bss          00000025  00800112  00800112  00001952  2**0
                  ALLOC
  3 .stab         00002820  00000000  00000000  00001954  2**2
                  CONTENTS, READONLY, DEBUGGING
  4 .stabstr      000010b2  00000000  00000000  00004174  2**0
                  CONTENTS, READONLY, DEBUGGING
  5 .comment      00000011  00000000  00000000  00005226  2**0
                  CONTENTS, READONLY
  6 .debug_aranges 000003b8  00000000  00000000  00005237  2**0
                  CONTENTS, READONLY, DEBUGGING
  7 .debug_info   00005989  00000000  00000000  000055ef  2**0
                  CONTENTS, READONLY, DEBUGGING
  8 .debug_abbrev 00001abd  00000000  00000000  0000af78  2**0
                  CONTENTS, READONLY, DEBUGGING
  9 .debug_line   00002630  00000000  00000000  0000ca35  2**0
                  CONTENTS, READONLY, DEBUGGING
 10 .debug_frame  00000a24  00000000  00000000  0000f068  2**2
                  CONTENTS, READONLY, DEBUGGING
 11 .debug_str    00002803  00000000  00000000  0000fa8c  2**0
                  CONTENTS, READONLY, DEBUGGING
 12 .debug_loc    00003d59  00000000  00000000  0001228f  2**0
                  CONTENTS, READONLY, DEBUGGING
 13 .debug_ranges 000003d8  00000000  00000000  00015fe8  2**0
                  CONTENTS, READONLY, DEBUGGING

Disassembly of section .text:

00000000 <__vectors>:
#include "HIDParser.h"

uint8_t USB_ProcessHIDReport(const uint8_t* ReportData,
                             uint16_t ReportSize,
                             HID_ReportInfo_t* const ParserData)
{
       0:	79 c1       	rjmp	.+754    	; 0x2f4 <__ctors_end>
       2:	00 00       	nop
       4:	95 c1       	rjmp	.+810    	; 0x330 <__bad_interrupt>
       6:	00 00       	nop
       8:	93 c1       	rjmp	.+806    	; 0x330 <__bad_interrupt>
       a:	00 00       	nop
       c:	91 c1       	rjmp	.+802    	; 0x330 <__bad_interrupt>
       e:	00 00       	nop
      10:	8f c1       	rjmp	.+798    	; 0x330 <__bad_interrupt>
      12:	00 00       	nop
      14:	8d c1       	rjmp	.+794    	; 0x330 <__bad_interrupt>
      16:	00 00       	nop
      18:	8b c1       	rjmp	.+790    	; 0x330 <__bad_interrupt>
      1a:	00 00       	nop
      1c:	89 c1       	rjmp	.+786    	; 0x330 <__bad_interrupt>
      1e:	00 00       	nop
      20:	87 c1       	rjmp	.+782    	; 0x330 <__bad_interrupt>
      22:	00 00       	nop
      24:	85 c1       	rjmp	.+778    	; 0x330 <__bad_interrupt>
      26:	00 00       	nop
      28:	75 c6       	rjmp	.+3306   	; 0xd14 <__vector_10>
      2a:	00 00       	nop
      2c:	81 c1       	rjmp	.+770    	; 0x330 <__bad_interrupt>
      2e:	00 00       	nop
      30:	7f c1       	rjmp	.+766    	; 0x330 <__bad_interrupt>
      32:	00 00       	nop
      34:	7d c1       	rjmp	.+762    	; 0x330 <__bad_interrupt>
      36:	00 00       	nop
	HID_StateTable_t      StateTable[HID_STATETABLE_STACK_DEPTH];
	HID_StateTable_t*     CurrStateTable     = &StateTable[0];
	HID_CollectionPath_t* CurrCollectionPath = NULL;
	HID_ReportSizeInfo_t* CurrReportIDInfo   = &ParserData->ReportIDSizes[0];
      38:	7b c1       	rjmp	.+758    	; 0x330 <__bad_interrupt>
      3a:	00 00       	nop
      3c:	79 c1       	rjmp	.+754    	; 0x330 <__bad_interrupt>
      3e:	00 00       	nop
      40:	77 c1       	rjmp	.+750    	; 0x330 <__bad_interrupt>
      42:	00 00       	nop
      44:	75 c1       	rjmp	.+746    	; 0x330 <__bad_interrupt>
	uint16_t              UsageList[HID_USAGE_STACK_DEPTH];
	uint8_t               UsageListSize      = 0;
	HID_MinMax_t          UsageMinMax        = {0, 0};

	memset(ParserData,       0x00, sizeof(HID_ReportInfo_t));
      46:	00 00       	nop
      48:	73 c1       	rjmp	.+742    	; 0x330 <__bad_interrupt>
      4a:	00 00       	nop
      4c:	71 c1       	rjmp	.+738    	; 0x330 <__bad_interrupt>
      4e:	00 00       	nop
      50:	6f c1       	rjmp	.+734    	; 0x330 <__bad_interrupt>
      52:	00 00       	nop
	memset(CurrStateTable,   0x00, sizeof(HID_StateTable_t));
      54:	65 c2       	rjmp	.+1226   	; 0x520 <__vector_21>
      56:	00 00       	nop
      58:	6b c1       	rjmp	.+726    	; 0x330 <__bad_interrupt>
      5a:	00 00       	nop
      5c:	69 c1       	rjmp	.+722    	; 0x330 <__bad_interrupt>
      5e:	00 00       	nop
      60:	67 c1       	rjmp	.+718    	; 0x330 <__bad_interrupt>
	memset(CurrReportIDInfo, 0x00, sizeof(HID_ReportSizeInfo_t));
      62:	00 00       	nop
      64:	65 c1       	rjmp	.+714    	; 0x330 <__bad_interrupt>
      66:	00 00       	nop
      68:	63 c1       	rjmp	.+710    	; 0x330 <__bad_interrupt>
      6a:	00 00       	nop

	ParserData->TotalDeviceReports = 1;
      6c:	61 c1       	rjmp	.+706    	; 0x330 <__bad_interrupt>
      6e:	00 00       	nop
      70:	5f c1       	rjmp	.+702    	; 0x330 <__bad_interrupt>
      72:	00 00       	nop
      74:	5d c1       	rjmp	.+698    	; 0x330 <__bad_interrupt>
      76:	00 00       	nop
      78:	5b c1       	rjmp	.+694    	; 0x330 <__bad_interrupt>
      7a:	00 00       	nop
      7c:	59 c1       	rjmp	.+690    	; 0x330 <__bad_interrupt>
      7e:	00 00       	nop
	HID_StateTable_t*     CurrStateTable     = &StateTable[0];
	HID_CollectionPath_t* CurrCollectionPath = NULL;
	HID_ReportSizeInfo_t* CurrReportIDInfo   = &ParserData->ReportIDSizes[0];
	uint16_t              UsageList[HID_USAGE_STACK_DEPTH];
	uint8_t               UsageListSize      = 0;
	HID_MinMax_t          UsageMinMax        = {0, 0};
      80:	57 c1       	rjmp	.+686    	; 0x330 <__bad_interrupt>
      82:	00 00       	nop
      84:	55 c1       	rjmp	.+682    	; 0x330 <__bad_interrupt>
      86:	00 00       	nop
      88:	53 c1       	rjmp	.+678    	; 0x330 <__bad_interrupt>
      8a:	00 00       	nop
	HID_StateTable_t      StateTable[HID_STATETABLE_STACK_DEPTH];
	HID_StateTable_t*     CurrStateTable     = &StateTable[0];
	HID_CollectionPath_t* CurrCollectionPath = NULL;
	HID_ReportSizeInfo_t* CurrReportIDInfo   = &ParserData->ReportIDSizes[0];
	uint16_t              UsageList[HID_USAGE_STACK_DEPTH];
	uint8_t               UsageListSize      = 0;
      8c:	51 c1       	rjmp	.+674    	; 0x330 <__bad_interrupt>
      8e:	00 00       	nop
      90:	4f c1       	rjmp	.+670    	; 0x330 <__bad_interrupt>
                             uint16_t ReportSize,
                             HID_ReportInfo_t* const ParserData)
{
	HID_StateTable_t      StateTable[HID_STATETABLE_STACK_DEPTH];
	HID_StateTable_t*     CurrStateTable     = &StateTable[0];
	HID_CollectionPath_t* CurrCollectionPath = NULL;
      92:	00 00       	nop
      94:	4d c1       	rjmp	.+666    	; 0x330 <__bad_interrupt>
      96:	00 00       	nop

00000098 <__c.4571>:
      98:	1b 5b 33 31 6d 44 65 76 20 45 6e 75 6d 20 45 72     .[31mDev Enum Er

					NewReportItem.BitOffset = CurrReportIDInfo->ReportSizeBits[NewReportItem.ItemType];

					CurrReportIDInfo->ReportSizeBits[NewReportItem.ItemType] += CurrStateTable->Attributes.BitSize;

					ParserData->LargestReportSizeBits = MAX(ParserData->LargestReportSizeBits, CurrReportIDInfo->ReportSizeBits[NewReportItem.ItemType]);
      a8:	72 6f 72 0d 0a 20 2d 2d 20 45 72 72 6f 72 20 43     ror.. -- Error C

					CurrCollectionPath = &ParserData->CollectionPaths[1];

					while (CurrCollectionPath->Parent != NULL)
					{
						if (CurrCollectionPath == &ParserData->CollectionPaths[HID_MAX_COLLECTIONS - 1])
      b8:	6f 64 65 20 25 64 0d 0a 20 2d 2d 20 53 75 62 20     ode %d.. -- Sub 
				break;

			case HID_RI_REPORT_ID(0):
				CurrStateTable->ReportID                    = ReportItemData;

				if (ParserData->UsingReportIDs)
      c8:	45 72 72 6f 72 20 43 6f 64 65 20 25 64 0d 0a 20     Error Code %d.. 
	memset(CurrStateTable,   0x00, sizeof(HID_StateTable_t));
	memset(CurrReportIDInfo, 0x00, sizeof(HID_ReportSizeInfo_t));

	ParserData->TotalDeviceReports = 1;

	while (ReportSize)
      d8:	2d 2d 20 49 6e 20 53 74 61 74 65 20 25 64 0d 0a     -- In State %d..
		uint32_t ReportItemData;

		ReportData++;
		ReportSize--;

		switch (HIDReportItem & HID_RI_DATA_SIZE_MASK)
      e8:	1b 5b 33 37 6d 00                                   .[37m.

000000ee <__c.4564>:
      ee:	1b 5b 33 31 6d 48 6f 73 74 20 4d 6f 64 65 20 45     .[31mHost Mode E
	{
		uint8_t  HIDReportItem  = *ReportData;
		uint32_t ReportItemData;

		ReportData++;
		ReportSize--;
      fe:	72 72 6f 72 0d 0a 20 2d 2d 20 45 72 72 6f 72 20     rror.. -- Error 

		switch (HIDReportItem & HID_RI_DATA_SIZE_MASK)
		{
			case HID_RI_DATA_BITS_32:
				ReportItemData  = (((uint32_t)ReportData[3] << 24) | ((uint32_t)ReportData[2] << 16) |
     10e:	43 6f 64 65 20 25 64 0d 0a 1b 5b 33 37 6d 00        Code %d...[37m.

0000011d <__c.4559>:
     11d:	4d 69 63 72 6f 70 68 6f 6e 65 20 45 6e 75 6d 65     Microphone Enume
     12d:	72 61 74 65 64 2e 0d 0a 00                          rated....

00000136 <__c.4557>:
			                       ((uint16_t)ReportData[1] << 8)  | ReportData[0]);
     136:	1b 5b 33 31 6d 43 6f 75 6c 64 20 6e 6f 74 20 73     .[31mCould not s
				ReportSize     -= 4;
     146:	65 74 20 72 65 71 75 65 73 74 65 64 20 41 75 64     et requested Aud
				ReportData     += 4;
				break;

			case HID_RI_DATA_BITS_16:
				ReportItemData  = (((uint16_t)ReportData[1] << 8) | (ReportData[0]));
     156:	69 6f 20 73 61 6d 70 6c 65 20 72 61 74 65 2e 0d     io sample rate..
				ReportSize     -= 2;
				ReportData     += 2;
     166:	0a 20 2d 2d 20 45 72 72 6f 72 20 43 6f 64 65 3a     . -- Error Code:
				break;

			case HID_RI_DATA_BITS_8:
				ReportItemData  = ReportData[0];
     176:	20 25 64 0d 0a 1b 5b 33 37 6d 00                     %d...[37m.

00000181 <__c.4553>:
				ReportSize     -= 1;
				ReportData     += 1;
     181:	1b 5b 33 31 6d 43 6f 75 6c 64 20 6e 6f 74 20 73     .[31mCould not s
			default:
				ReportItemData  = 0;
				break;
		}

		switch (HIDReportItem & (HID_RI_TYPE_MASK | HID_RI_TAG_MASK))
     191:	65 74 20 61 6c 74 65 72 6e 61 74 69 76 65 20 73     et alternative s
     1a1:	74 72 65 61 6d 69 6e 67 20 69 6e 74 65 72 66 61     treaming interfa

			case HID_RI_USAGE_PAGE(0):
				if ((HIDReportItem & HID_RI_DATA_SIZE_MASK) == HID_RI_DATA_BITS_32)
				  CurrStateTable->Attributes.Usage.Page = (ReportItemData >> 16);

				CurrStateTable->Attributes.Usage.Page       = ReportItemData;
     1b1:	63 65 20 73 65 74 74 69 6e 67 2e 0d 0a 20 2d 2d     ce setting... --
			default:
				ReportItemData  = 0;
				break;
		}

		switch (HIDReportItem & (HID_RI_TYPE_MASK | HID_RI_TAG_MASK))
     1c1:	20 45 72 72 6f 72 20 43 6f 64 65 3a 20 25 64 0d      Error Code: %d.
     1d1:	0a 1b 5b 33 37 6d 00                                ..[37m.

000001d8 <__c.4551>:
				UsageMinMax.Minimum = ReportItemData;
				break;

			case HID_RI_USAGE_MAXIMUM(0):
				UsageMinMax.Maximum = ReportItemData;
				break;
     1d8:	1b 5b 33 31 6d 43 6f 6e 74 72 6f 6c 20 45 72 72     .[31mControl Err
			case HID_RI_PHYSICAL_MAXIMUM(0):
				CurrStateTable->Attributes.Physical.Maximum = ReportItemData;
				break;

			case HID_RI_UNIT_EXPONENT(0):
				CurrStateTable->Attributes.Unit.Exponent    = ReportItemData;
     1e8:	6f 72 20 28 53 65 74 20 43 6f 6e 66 69 67 75 72     or (Set Configur
			default:
				ReportItemData  = 0;
				break;
		}

		switch (HIDReportItem & (HID_RI_TYPE_MASK | HID_RI_TAG_MASK))
     1f8:	61 74 69 6f 6e 29 2e 0d 0a 20 2d 2d 20 45 72 72     ation)... -- Err
     208:	6f 72 20 43 6f 64 65 3a 20 25 64 0d 0a 1b 5b 33     or Code: %d...[3
     218:	37 6d 00                                            7m.

0000021b <__c.4549>:
     21b:	20 2d 2d 20 45 72 72 6f 72 20 43 6f 64 65 3a 20      -- Error Code: 
     22b:	25 64 0d 0a 1b 5b 33 37 6d 00                       %d...[37m.

00000235 <__c.4547>:
					  return HID_PARSE_InsufficientReportItems;

					memcpy(&ParserData->ReportItems[ParserData->TotalReportItems],
					       &NewReportItem, sizeof(HID_ReportItem_t));

					if (!(ReportItemData & HID_IOF_CONSTANT) && CALLBACK_HIDParser_FilterHIDReportItem(&NewReportItem))
     235:	1b 5b 33 31 6d 49 6e 76 61 6c 69 64 20 44 65 76     .[31mInvalid Dev
     245:	69 63 65 2e 0d 0a 00                                ice....

0000024c <__c.4545>:
     24c:	1b 5b 33 31 6d 43 6f 6e 74 72 6f 6c 20 45 72 72     .[31mControl Err
		}

		switch (HIDReportItem & (HID_RI_TYPE_MASK | HID_RI_TAG_MASK))
		{
			case HID_RI_PUSH(0):
				if (CurrStateTable == &StateTable[HID_STATETABLE_STACK_DEPTH - 1])
     25c:	6f 72 20 28 47 65 74 20 43 6f 6e 66 69 67 75 72     or (Get Configur
				  return HID_PARSE_HIDStackOverflow;

				memcpy((CurrStateTable + 1),
     26c:	61 74 69 6f 6e 29 2e 0d 0a 00                       ation)....

00000276 <__c.4542>:

				CurrStateTable++;
				break;

			case HID_RI_POP(0):
				if (CurrStateTable == &StateTable[0])
     276:	47 65 74 74 69 6e 67 20 43 6f 6e 66 69 67 20 44     Getting Config D

				CurrStateTable->Attributes.Usage.Page       = ReportItemData;
				break;

			case HID_RI_LOGICAL_MINIMUM(0):
				CurrStateTable->Attributes.Logical.Minimum  = ReportItemData;
     286:	61 74 61 2e 0d 0a 00                                ata....

0000028d <__c.4537>:
     28d:	1b 5b 33 32 6d 44 65 76 69 63 65 20 55 6e 61 74     .[32mDevice Unat
				break;

			case HID_RI_LOGICAL_MAXIMUM(0):
				CurrStateTable->Attributes.Logical.Maximum  = ReportItemData;
     29d:	74 61 63 68 65 64 2e 0d 0a 1b 5b 33 37 6d 00        tached....[37m.

000002ac <__c.4532>:
				break;

			case HID_RI_PHYSICAL_MINIMUM(0):
				CurrStateTable->Attributes.Physical.Minimum = ReportItemData;
				break;
     2ac:	1b 5b 33 32 6d 44 65 76 69 63 65 20 41 74 74 61     .[32mDevice Atta

			case HID_RI_PHYSICAL_MAXIMUM(0):
				CurrStateTable->Attributes.Physical.Maximum = ReportItemData;
				break;
     2bc:	63 68 65 64 2e 0d 0a 1b 5b 33 37 6d 00              ched....[37m.

000002c9 <__c.4523>:
			case HID_RI_UNIT_EXPONENT(0):
				CurrStateTable->Attributes.Unit.Exponent    = ReportItemData;
				break;

			case HID_RI_UNIT(0):
				CurrStateTable->Attributes.Unit.Type        = ReportItemData;
     2c9:	1b 5b 33 36 6d 41 75 64 69 6f 20 49 6e 70 75 74     .[36mAudio Input
			case HID_RI_REPORT_COUNT(0):
				CurrStateTable->ReportCount                 = ReportItemData;
				break;

			case HID_RI_REPORT_ID(0):
				CurrStateTable->ReportID                    = ReportItemData;
     2d9:	20 48 6f 73 74 20 44 65 6d 6f 20 72 75 6e 6e 69      Host Demo runni

				if (ParserData->UsingReportIDs)
     2e9:	6e 67 2e 0d 0a 1b 5b 33 37 6d 00                    ng....[37m.

000002f4 <__ctors_end>:
				{
					CurrReportIDInfo = NULL;

					for (uint8_t i = 0; i < ParserData->TotalDeviceReports; i++)
     2f4:	11 24       	eor	r1, r1
     2f6:	1f be       	out	0x3f, r1	; 63
     2f8:	cf ef       	ldi	r28, 0xFF	; 255
     2fa:	d0 e2       	ldi	r29, 0x20	; 32
     2fc:	de bf       	out	0x3e, r29	; 62
     2fe:	cd bf       	out	0x3d, r28	; 61

00000300 <__do_copy_data>:
     300:	11 e0       	ldi	r17, 0x01	; 1
     302:	a0 e0       	ldi	r26, 0x00	; 0
					{
						if (ParserData->ReportIDSizes[i].ReportID == CurrStateTable->ReportID)
     304:	b1 e0       	ldi	r27, 0x01	; 1
     306:	ec ea       	ldi	r30, 0xAC	; 172
     308:	f8 e1       	ldi	r31, 0x18	; 24
     30a:	00 e0       	ldi	r16, 0x00	; 0
     30c:	0b bf       	out	0x3b, r16	; 59
     30e:	02 c0       	rjmp	.+4      	; 0x314 <__do_copy_data+0x14>
     310:	07 90       	elpm	r0, Z+
     312:	0d 92       	st	X+, r0
     314:	a2 31       	cpi	r26, 0x12	; 18
     316:	b1 07       	cpc	r27, r17
						{
							CurrReportIDInfo = &ParserData->ReportIDSizes[i];
     318:	d9 f7       	brne	.-10     	; 0x310 <__do_copy_data+0x10>

0000031a <__do_clear_bss>:
     31a:	11 e0       	ldi	r17, 0x01	; 1
     31c:	a2 e1       	ldi	r26, 0x12	; 18
     31e:	b1 e0       	ldi	r27, 0x01	; 1
     320:	01 c0       	rjmp	.+2      	; 0x324 <.do_clear_bss_start>

00000322 <.do_clear_bss_loop>:
     322:	1d 92       	st	X+, r1

00000324 <.do_clear_bss_start>:
     324:	a7 33       	cpi	r26, 0x37	; 55
     326:	b1 07       	cpc	r27, r17
     328:	e1 f7       	brne	.-8      	; 0x322 <.do_clear_bss_loop>
     32a:	36 d0       	rcall	.+108    	; 0x398 <main>
     32c:	0c 94 54 0c 	jmp	0x18a8	; 0x18a8 <_exit>

00000330 <__bad_interrupt>:
     330:	67 ce       	rjmp	.-818    	; 0x0 <__vectors>

00000332 <LEDs_SetAllLEDs>:
     332:	9b b1       	in	r25, 0x0b	; 11
     334:	9f 70       	andi	r25, 0x0F	; 15
     336:	98 2b       	or	r25, r24
						}
					}

					if (CurrReportIDInfo == NULL)
					{
						if (ParserData->TotalDeviceReports == HID_MAX_REPORT_IDS)
     338:	9b b9       	out	0x0b, r25	; 11
     33a:	08 95       	ret

0000033c <SetupHardware>:
     33c:	84 b7       	in	r24, 0x34	; 52
						  return HID_PARSE_InsufficientReportIDItems;

						CurrReportIDInfo = &ParserData->ReportIDSizes[ParserData->TotalDeviceReports++];
     33e:	87 7f       	andi	r24, 0xF7	; 247
     340:	84 bf       	out	0x34, r24	; 52
     342:	88 e1       	ldi	r24, 0x18	; 24
     344:	0f b6       	in	r0, 0x3f	; 63
     346:	f8 94       	cli
     348:	80 93 60 00 	sts	0x0060, r24
     34c:	10 92 60 00 	sts	0x0060, r1
     350:	0f be       	out	0x3f, r0	; 63
     352:	90 e0       	ldi	r25, 0x00	; 0
     354:	80 e8       	ldi	r24, 0x80	; 128
     356:	0f b6       	in	r0, 0x3f	; 63
     358:	f8 94       	cli
     35a:	80 93 61 00 	sts	0x0061, r24
     35e:	90 93 61 00 	sts	0x0061, r25
     362:	0f be       	out	0x3f, r0	; 63
						memset(CurrReportIDInfo, 0x00, sizeof(HID_ReportSizeInfo_t));
     364:	83 e3       	ldi	r24, 0x33	; 51
     366:	90 e0       	ldi	r25, 0x00	; 0
     368:	90 93 cd 00 	sts	0x00CD, r25
					}
				}

				ParserData->UsingReportIDs = true;
     36c:	80 93 cc 00 	sts	0x00CC, r24
     370:	86 e0       	ldi	r24, 0x06	; 6
     372:	80 93 ca 00 	sts	0x00CA, r24
     376:	10 92 c8 00 	sts	0x00C8, r1

				CurrReportIDInfo->ReportID = CurrStateTable->ReportID;
     37a:	88 e1       	ldi	r24, 0x18	; 24
     37c:	80 93 c9 00 	sts	0x00C9, r24
     380:	53 9a       	sbi	0x0a, 3	; 10
     382:	5a 9a       	sbi	0x0b, 2	; 11
     384:	8a b1       	in	r24, 0x0a	; 10
     386:	80 6f       	ori	r24, 0xF0	; 240
				break;
     388:	8a b9       	out	0x0a, r24	; 10

			case HID_RI_USAGE(0):
				if (UsageListSize == HID_USAGE_STACK_DEPTH)
     38a:	8b b1       	in	r24, 0x0b	; 11
     38c:	8f 70       	andi	r24, 0x0F	; 15
     38e:	8b b9       	out	0x0b, r24	; 11
     390:	a6 d4       	rcall	.+2380   	; 0xcde <USB_Init>
     392:	80 e0       	ldi	r24, 0x00	; 0
     394:	90 e0       	ldi	r25, 0x00	; 0
				  return HID_PARSE_UsageListOverflow;

				UsageList[UsageListSize++] = ReportItemData;
     396:	84 c7       	rjmp	.+3848   	; 0x12a0 <Serial_CreateStream>

00000398 <main>:
     398:	d1 df       	rcall	.-94     	; 0x33c <SetupHardware>
     39a:	89 ec       	ldi	r24, 0xC9	; 201
     39c:	92 e0       	ldi	r25, 0x02	; 2
     39e:	c1 d7       	rcall	.+3970   	; 0x1322 <puts_P>
     3a0:	80 e1       	ldi	r24, 0x10	; 16
     3a2:	c7 df       	rcall	.-114    	; 0x332 <LEDs_SetAllLEDs>
     3a4:	78 94       	sei
     3a6:	54 d7       	rcall	.+3752   	; 0x1250 <USB_USBTask>
     3a8:	fe cf       	rjmp	.-4      	; 0x3a6 <main+0xe>

000003aa <EVENT_USB_Host_DeviceAttached>:
     3aa:	8c ea       	ldi	r24, 0xAC	; 172
     3ac:	92 e0       	ldi	r25, 0x02	; 2
     3ae:	b9 d7       	rcall	.+3954   	; 0x1322 <puts_P>
				break;
     3b0:	80 ea       	ldi	r24, 0xA0	; 160
			case HID_RI_USAGE_MAXIMUM(0):
				UsageMinMax.Maximum = ReportItemData;
				break;

			case HID_RI_COLLECTION(0):
				if (CurrCollectionPath == NULL)
     3b2:	bf cf       	rjmp	.-130    	; 0x332 <LEDs_SetAllLEDs>

000003b4 <EVENT_USB_Host_DeviceUnattached>:
     3b4:	8d e8       	ldi	r24, 0x8D	; 141
     3b6:	92 e0       	ldi	r25, 0x02	; 2
     3b8:	b4 d7       	rcall	.+3944   	; 0x1322 <puts_P>
     3ba:	80 e1       	ldi	r24, 0x10	; 16
     3bc:	ba cf       	rjmp	.-140    	; 0x332 <LEDs_SetAllLEDs>

000003be <EVENT_USB_Host_DeviceEnumerationComplete>:
				{
					CurrCollectionPath = &ParserData->CollectionPaths[0];
     3be:	1f 93       	push	r17
     3c0:	cf 93       	push	r28
     3c2:	df 93       	push	r29
     3c4:	00 d0       	rcall	.+0      	; 0x3c6 <EVENT_USB_Host_DeviceEnumerationComplete+0x8>
     3c6:	1f 92       	push	r1
     3c8:	cd b7       	in	r28, 0x3d	; 61
     3ca:	de b7       	in	r29, 0x3e	; 62
     3cc:	86 e7       	ldi	r24, 0x76	; 118
				}
				else
				{
					HID_CollectionPath_t* ParentCollectionPath = CurrCollectionPath;

					CurrCollectionPath = &ParserData->CollectionPaths[1];
     3ce:	92 e0       	ldi	r25, 0x02	; 2
     3d0:	a8 d7       	rcall	.+3920   	; 0x1322 <puts_P>
     3d2:	46 d1       	rcall	.+652    	; 0x660 <ProcessConfigurationDescriptor>

					while (CurrCollectionPath->Parent != NULL)
     3d4:	18 2f       	mov	r17, r24
     3d6:	88 23       	and	r24, r24
     3d8:	91 f0       	breq	.+36     	; 0x3fe <EVENT_USB_Host_DeviceEnumerationComplete+0x40>
     3da:	81 30       	cpi	r24, 0x01	; 1
					{
						if (CurrCollectionPath == &ParserData->CollectionPaths[HID_MAX_COLLECTIONS - 1])
     3dc:	19 f4       	brne	.+6      	; 0x3e4 <EVENT_USB_Host_DeviceEnumerationComplete+0x26>
     3de:	8c e4       	ldi	r24, 0x4C	; 76
     3e0:	92 e0       	ldi	r25, 0x02	; 2
     3e2:	02 c0       	rjmp	.+4      	; 0x3e8 <EVENT_USB_Host_DeviceEnumerationComplete+0x2a>
     3e4:	85 e3       	ldi	r24, 0x35	; 53
     3e6:	92 e0       	ldi	r25, 0x02	; 2
     3e8:	9c d7       	rcall	.+3896   	; 0x1322 <puts_P>
     3ea:	1f 92       	push	r1
     3ec:	1f 93       	push	r17
     3ee:	8b e1       	ldi	r24, 0x1B	; 27
						  return HID_PARSE_InsufficientCollectionPaths;

						CurrCollectionPath++;
     3f0:	92 e0       	ldi	r25, 0x02	; 2
     3f2:	9f 93       	push	r25
					}

					CurrCollectionPath->Parent = ParentCollectionPath;
     3f4:	8f 93       	push	r24
     3f6:	72 d7       	rcall	.+3812   	; 0x12dc <printf_P>
     3f8:	80 e9       	ldi	r24, 0x90	; 144
     3fa:	9b df       	rcall	.-202    	; 0x332 <LEDs_SetAllLEDs>
     3fc:	45 c0       	rjmp	.+138    	; 0x488 <EVENT_USB_Host_DeviceEnumerationComplete+0xca>
     3fe:	81 e0       	ldi	r24, 0x01	; 1
     400:	e7 d6       	rcall	.+3534   	; 0x11d0 <USB_Host_SetDeviceConfiguration>
     402:	88 23       	and	r24, r24
     404:	29 f0       	breq	.+10     	; 0x410 <EVENT_USB_Host_DeviceEnumerationComplete+0x52>
     406:	1f 92       	push	r1
				}

				CurrCollectionPath->Type       = ReportItemData;
     408:	8f 93       	push	r24
     40a:	88 ed       	ldi	r24, 0xD8	; 216
     40c:	91 e0       	ldi	r25, 0x01	; 1
     40e:	f1 cf       	rjmp	.-30     	; 0x3f2 <EVENT_USB_Host_DeviceEnumerationComplete+0x34>
     410:	60 91 13 01 	lds	r22, 0x0113
				CurrCollectionPath->Usage.Page = CurrStateTable->Attributes.Usage.Page;
     414:	80 91 14 01 	lds	r24, 0x0114
     418:	02 d7       	rcall	.+3588   	; 0x121e <USB_Host_SetInterfaceAltSetting>
     41a:	88 23       	and	r24, r24
     41c:	29 f0       	breq	.+10     	; 0x428 <EVENT_USB_Host_DeviceEnumerationComplete+0x6a>
     41e:	1f 92       	push	r1

				if (UsageListSize)
     420:	8f 93       	push	r24
     422:	81 e8       	ldi	r24, 0x81	; 129
     424:	91 e0       	ldi	r25, 0x01	; 1
     426:	29 c0       	rjmp	.+82     	; 0x47a <EVENT_USB_Host_DeviceEnumerationComplete+0xbc>
     428:	80 91 12 01 	lds	r24, 0x0112
				{
					CurrCollectionPath->Usage.Usage = UsageList[0];
     42c:	90 e0       	ldi	r25, 0x00	; 0
     42e:	22 e2       	ldi	r18, 0x22	; 34
     430:	20 93 1a 01 	sts	0x011A, r18
     434:	21 e0       	ldi	r18, 0x01	; 1
     436:	20 93 1b 01 	sts	0x011B, r18
     43a:	20 e0       	ldi	r18, 0x00	; 0
     43c:	31 e0       	ldi	r19, 0x01	; 1
     43e:	30 93 1d 01 	sts	0x011D, r19

					for (uint8_t i = 1; i < UsageListSize; i++)
     442:	20 93 1c 01 	sts	0x011C, r18
     446:	90 93 1f 01 	sts	0x011F, r25
     44a:	80 93 1e 01 	sts	0x011E, r24
					  UsageList[i - 1] = UsageList[i];
     44e:	83 e0       	ldi	r24, 0x03	; 3
     450:	90 e0       	ldi	r25, 0x00	; 0
     452:	90 93 21 01 	sts	0x0121, r25

				if (UsageListSize)
				{
					CurrCollectionPath->Usage.Usage = UsageList[0];

					for (uint8_t i = 1; i < UsageListSize; i++)
     456:	80 93 20 01 	sts	0x0120, r24
					  UsageList[i - 1] = UsageList[i];

					UsageListSize--;
     45a:	80 e8       	ldi	r24, 0x80	; 128
     45c:	89 83       	std	Y+1, r24	; 0x01
     45e:	8b eb       	ldi	r24, 0xBB	; 187
     460:	8a 83       	std	Y+2, r24	; 0x02
				}
				else if (UsageMinMax.Minimum <= UsageMinMax.Maximum)
     462:	1b 82       	std	Y+3, r1	; 0x03
     464:	10 92 a7 00 	sts	0x00A7, r1
     468:	ce 01       	movw	r24, r28
     46a:	01 96       	adiw	r24, 0x01	; 1
     46c:	b6 d5       	rcall	.+2924   	; 0xfda <USB_Host_SendControlRequest>
				{
					CurrCollectionPath->Usage.Usage = UsageMinMax.Minimum++;
     46e:	88 23       	and	r24, r24
     470:	81 f0       	breq	.+32     	; 0x492 <EVENT_USB_Host_DeviceEnumerationComplete+0xd4>
     472:	1f 92       	push	r1
     474:	8f 93       	push	r24
     476:	86 e3       	ldi	r24, 0x36	; 54
     478:	91 e0       	ldi	r25, 0x01	; 1
     47a:	9f 93       	push	r25
     47c:	8f 93       	push	r24
     47e:	2e d7       	rcall	.+3676   	; 0x12dc <printf_P>
     480:	80 e9       	ldi	r24, 0x90	; 144
     482:	57 df       	rcall	.-338    	; 0x332 <LEDs_SetAllLEDs>
     484:	80 e0       	ldi	r24, 0x00	; 0
     486:	a4 d6       	rcall	.+3400   	; 0x11d0 <USB_Host_SetDeviceConfiguration>
     488:	0f 90       	pop	r0
				}

				break;

			case HID_RI_END_COLLECTION(0):
				if (CurrCollectionPath == NULL)
     48a:	0f 90       	pop	r0
     48c:	0f 90       	pop	r0
     48e:	0f 90       	pop	r0
     490:	13 c0       	rjmp	.+38     	; 0x4b8 <EVENT_USB_Host_DeviceEnumerationComplete+0xfa>
     492:	82 e0       	ldi	r24, 0x02	; 2
     494:	80 93 6e 00 	sts	0x006E, r24
     498:	93 e1       	ldi	r25, 0x13	; 19
				  return HID_PARSE_UnexpectedEndCollection;

				CurrCollectionPath = CurrCollectionPath->Parent;
     49a:	97 bd       	out	0x27, r25	; 39
     49c:	84 bd       	out	0x24, r24	; 36
     49e:	85 bd       	out	0x25, r24	; 37
     4a0:	3e 9a       	sbi	0x07, 6	; 7
     4a2:	81 ec       	ldi	r24, 0xC1	; 193
     4a4:	80 93 90 00 	sts	0x0090, r24
     4a8:	89 e0       	ldi	r24, 0x09	; 9
     4aa:	80 93 91 00 	sts	0x0091, r24
					ParserData->LargestReportSizeBits = MAX(ParserData->LargestReportSizeBits, CurrReportIDInfo->ReportSizeBits[NewReportItem.ItemType]);

					if (ParserData->TotalReportItems == HID_MAX_REPORTITEMS)
					  return HID_PARSE_InsufficientReportItems;

					memcpy(&ParserData->ReportItems[ParserData->TotalReportItems],
     4ae:	8d e1       	ldi	r24, 0x1D	; 29
     4b0:	91 e0       	ldi	r25, 0x01	; 1
     4b2:	37 d7       	rcall	.+3694   	; 0x1322 <puts_P>
     4b4:	80 e6       	ldi	r24, 0x60	; 96
     4b6:	3d df       	rcall	.-390    	; 0x332 <LEDs_SetAllLEDs>
     4b8:	0f 90       	pop	r0
     4ba:	0f 90       	pop	r0
     4bc:	0f 90       	pop	r0
     4be:	df 91       	pop	r29
     4c0:	cf 91       	pop	r28
     4c2:	1f 91       	pop	r17
     4c4:	08 95       	ret

000004c6 <EVENT_USB_Host_HostError>:
     4c6:	cf 93       	push	r28
     4c8:	df 93       	push	r29
					       &NewReportItem, sizeof(HID_ReportItem_t));

					if (!(ReportItemData & HID_IOF_CONSTANT) && CALLBACK_HIDParser_FilterHIDReportItem(&NewReportItem))
     4ca:	1f 92       	push	r1
     4cc:	cd b7       	in	r28, 0x3d	; 61
     4ce:	de b7       	in	r29, 0x3e	; 62
     4d0:	89 83       	std	Y+1, r24	; 0x01
     4d2:	9d d3       	rcall	.+1850   	; 0xc0e <USB_Disable>
     4d4:	1f 92       	push	r1
     4d6:	89 81       	ldd	r24, Y+1	; 0x01
     4d8:	8f 93       	push	r24
     4da:	8e ee       	ldi	r24, 0xEE	; 238
     4dc:	90 e0       	ldi	r25, 0x00	; 0
     4de:	9f 93       	push	r25
     4e0:	8f 93       	push	r24
     4e2:	fc d6       	rcall	.+3576   	; 0x12dc <printf_P>
				break;

			case HID_RI_INPUT(0):
			case HID_RI_OUTPUT(0):
			case HID_RI_FEATURE(0):
				for (uint8_t ReportItemNum = 0; ReportItemNum < CurrStateTable->ReportCount; ReportItemNum++)
     4e4:	80 e9       	ldi	r24, 0x90	; 144
     4e6:	25 df       	rcall	.-438    	; 0x332 <LEDs_SetAllLEDs>
     4e8:	0f 90       	pop	r0
     4ea:	0f 90       	pop	r0
     4ec:	0f 90       	pop	r0
     4ee:	0f 90       	pop	r0
				{
					HID_ReportItem_t NewReportItem;

					memcpy(&NewReportItem.Attributes,
     4f0:	ff cf       	rjmp	.-2      	; 0x4f0 <EVENT_USB_Host_HostError+0x2a>

000004f2 <EVENT_USB_Host_DeviceEnumerationFailed>:
     4f2:	90 91 22 01 	lds	r25, 0x0122
     4f6:	1f 92       	push	r1
     4f8:	9f 93       	push	r25
     4fa:	1f 92       	push	r1
     4fc:	6f 93       	push	r22
     4fe:	1f 92       	push	r1
     500:	8f 93       	push	r24
					       &CurrStateTable->Attributes,
					       sizeof(HID_ReportItem_Attributes_t));

					NewReportItem.ItemFlags      = ReportItemData;
     502:	88 e9       	ldi	r24, 0x98	; 152
     504:	90 e0       	ldi	r25, 0x00	; 0
					NewReportItem.CollectionPath = CurrCollectionPath;
     506:	9f 93       	push	r25
     508:	8f 93       	push	r24
     50a:	e8 d6       	rcall	.+3536   	; 0x12dc <printf_P>
     50c:	8d b7       	in	r24, 0x3d	; 61
     50e:	9e b7       	in	r25, 0x3e	; 62
     510:	08 96       	adiw	r24, 0x08	; 8
     512:	0f b6       	in	r0, 0x3f	; 63
     514:	f8 94       	cli
					NewReportItem.ReportID       = CurrStateTable->ReportID;
     516:	9e bf       	out	0x3e, r25	; 62
     518:	0f be       	out	0x3f, r0	; 63
     51a:	8d bf       	out	0x3d, r24	; 61
     51c:	80 e9       	ldi	r24, 0x90	; 144

					if (UsageListSize)
     51e:	09 cf       	rjmp	.-494    	; 0x332 <LEDs_SetAllLEDs>

00000520 <__vector_21>:
     520:	1f 92       	push	r1
     522:	0f 92       	push	r0
     524:	0f b6       	in	r0, 0x3f	; 63
     526:	0f 92       	push	r0
					{
						NewReportItem.Attributes.Usage.Usage = UsageList[0];
     528:	11 24       	eor	r1, r1
     52a:	0b b6       	in	r0, 0x3b	; 59
     52c:	0f 92       	push	r0
     52e:	2f 93       	push	r18
     530:	3f 93       	push	r19
     532:	4f 93       	push	r20
     534:	5f 93       	push	r21
     536:	6f 93       	push	r22
     538:	7f 93       	push	r23
     53a:	8f 93       	push	r24
     53c:	9f 93       	push	r25

						for (uint8_t i = 1; i < UsageListSize; i++)
     53e:	af 93       	push	r26
     540:	bf 93       	push	r27
     542:	cf 93       	push	r28
     544:	ef 93       	push	r30
     546:	ff 93       	push	r31
     548:	80 91 a7 00 	lds	r24, 0x00A7
						  UsageList[i - 1] = UsageList[i];
     54c:	8f 70       	andi	r24, 0x0F	; 15
     54e:	90 91 aa 00 	lds	r25, 0x00AA

					if (UsageListSize)
					{
						NewReportItem.Attributes.Usage.Usage = UsageList[0];

						for (uint8_t i = 1; i < UsageListSize; i++)
     552:	90 ff       	sbrs	r25, 0
     554:	02 c0       	rjmp	.+4      	; 0x55a <__vector_21+0x3a>
						  UsageList[i - 1] = UsageList[i];

						UsageListSize--;
     556:	90 e8       	ldi	r25, 0x80	; 128
     558:	01 c0       	rjmp	.+2      	; 0x55c <__vector_21+0x3c>
     55a:	90 e0       	ldi	r25, 0x00	; 0
     55c:	c9 2f       	mov	r28, r25
     55e:	c8 2b       	or	r28, r24
					}
					else if (UsageMinMax.Minimum <= UsageMinMax.Maximum)
     560:	81 e0       	ldi	r24, 0x01	; 1
     562:	80 93 a7 00 	sts	0x00A7, r24
     566:	80 91 a9 00 	lds	r24, 0x00A9
					{
						NewReportItem.Attributes.Usage.Usage = UsageMinMax.Minimum++;
     56a:	8f 7b       	andi	r24, 0xBF	; 191
     56c:	80 93 a9 00 	sts	0x00A9, r24
     570:	80 91 a6 00 	lds	r24, 0x00A6
     574:	80 ff       	sbrs	r24, 0
     576:	28 c0       	rjmp	.+80     	; 0x5c8 <__vector_21+0xa8>
     578:	80 91 af 00 	lds	r24, 0x00AF
					}

					uint8_t ItemTypeTag = (HIDReportItem & (HID_RI_TYPE_MASK | HID_RI_TAG_MASK));

					if (ItemTypeTag == HID_RI_INPUT(0))
     57c:	20 91 af 00 	lds	r18, 0x00AF
					  NewReportItem.ItemType = HID_REPORT_ITEM_In;
     580:	80 91 a6 00 	lds	r24, 0x00A6
					else if (ItemTypeTag == HID_RI_OUTPUT(0))
     584:	85 fd       	sbrc	r24, 5
     586:	05 c0       	rjmp	.+10     	; 0x592 <__vector_21+0x72>
					  NewReportItem.ItemType = HID_REPORT_ITEM_Out;
     588:	80 91 a6 00 	lds	r24, 0x00A6
     58c:	8e 77       	andi	r24, 0x7E	; 126
					else
					  NewReportItem.ItemType = HID_REPORT_ITEM_Feature;
     58e:	80 93 a6 00 	sts	0x00A6, r24

					NewReportItem.BitOffset = CurrReportIDInfo->ReportSizeBits[NewReportItem.ItemType];
     592:	82 2f       	mov	r24, r18
     594:	99 27       	eor	r25, r25
     596:	87 fd       	sbrc	r24, 7
     598:	90 95       	com	r25
     59a:	80 58       	subi	r24, 0x80	; 128
     59c:	90 93 99 00 	sts	0x0099, r25
     5a0:	80 93 98 00 	sts	0x0098, r24
     5a4:	21 31       	cpi	r18, 0x11	; 17
     5a6:	44 f4       	brge	.+16     	; 0x5b8 <__vector_21+0x98>
     5a8:	29 30       	cpi	r18, 0x09	; 9
     5aa:	44 f4       	brge	.+16     	; 0x5bc <__vector_21+0x9c>

					CurrReportIDInfo->ReportSizeBits[NewReportItem.ItemType] += CurrStateTable->Attributes.BitSize;
     5ac:	25 30       	cpi	r18, 0x05	; 5
     5ae:	44 f4       	brge	.+16     	; 0x5c0 <__vector_21+0xa0>
     5b0:	23 30       	cpi	r18, 0x03	; 3
     5b2:	44 f4       	brge	.+16     	; 0x5c4 <__vector_21+0xa4>
     5b4:	80 e0       	ldi	r24, 0x00	; 0
     5b6:	07 c0       	rjmp	.+14     	; 0x5c6 <__vector_21+0xa6>
     5b8:	80 ef       	ldi	r24, 0xF0	; 240
     5ba:	05 c0       	rjmp	.+10     	; 0x5c6 <__vector_21+0xa6>

					ParserData->LargestReportSizeBits = MAX(ParserData->LargestReportSizeBits, CurrReportIDInfo->ReportSizeBits[NewReportItem.ItemType]);
     5bc:	80 eb       	ldi	r24, 0xB0	; 176
     5be:	03 c0       	rjmp	.+6      	; 0x5c6 <__vector_21+0xa6>
     5c0:	80 e3       	ldi	r24, 0x30	; 48
     5c2:	01 c0       	rjmp	.+2      	; 0x5c6 <__vector_21+0xa6>
     5c4:	80 e1       	ldi	r24, 0x10	; 16
     5c6:	b5 de       	rcall	.-662    	; 0x332 <LEDs_SetAllLEDs>
     5c8:	80 91 a9 00 	lds	r24, 0x00A9
     5cc:	80 64       	ori	r24, 0x40	; 64
     5ce:	80 93 a9 00 	sts	0x00A9, r24
     5d2:	cf 70       	andi	r28, 0x0F	; 15
     5d4:	c0 93 a7 00 	sts	0x00A7, r28
     5d8:	ff 91       	pop	r31
     5da:	ef 91       	pop	r30
     5dc:	cf 91       	pop	r28
     5de:	bf 91       	pop	r27
     5e0:	af 91       	pop	r26
     5e2:	9f 91       	pop	r25
     5e4:	8f 91       	pop	r24
     5e6:	7f 91       	pop	r23
     5e8:	6f 91       	pop	r22
     5ea:	5f 91       	pop	r21
     5ec:	4f 91       	pop	r20
     5ee:	3f 91       	pop	r19
     5f0:	2f 91       	pop	r18
     5f2:	0f 90       	pop	r0

					if (ParserData->TotalReportItems == HID_MAX_REPORTITEMS)
     5f4:	0b be       	out	0x3b, r0	; 59
     5f6:	0f 90       	pop	r0
     5f8:	0f be       	out	0x3f, r0	; 63
     5fa:	0f 90       	pop	r0
     5fc:	1f 90       	pop	r1
					  return HID_PARSE_InsufficientReportItems;
     5fe:	18 95       	reti

00000600 <DComp_NextAudioControlInterface>:
     600:	fc 01       	movw	r30, r24

					memcpy(&ParserData->ReportItems[ParserData->TotalReportItems],
					       &NewReportItem, sizeof(HID_ReportItem_t));

					if (!(ReportItemData & HID_IOF_CONSTANT) && CALLBACK_HIDParser_FilterHIDReportItem(&NewReportItem))
     602:	81 81       	ldd	r24, Z+1	; 0x01
     604:	84 30       	cpi	r24, 0x04	; 4
     606:	51 f4       	brne	.+20     	; 0x61c <DComp_NextAudioControlInterface+0x1c>
     608:	85 81       	ldd	r24, Z+5	; 0x05
     60a:	81 30       	cpi	r24, 0x01	; 1
     60c:	39 f4       	brne	.+14     	; 0x61c <DComp_NextAudioControlInterface+0x1c>
     60e:	86 81       	ldd	r24, Z+6	; 0x06
     610:	81 30       	cpi	r24, 0x01	; 1
     612:	21 f4       	brne	.+8      	; 0x61c <DComp_NextAudioControlInterface+0x1c>
     614:	87 81       	ldd	r24, Z+7	; 0x07
     616:	81 11       	cpse	r24, r1
     618:	01 c0       	rjmp	.+2      	; 0x61c <DComp_NextAudioControlInterface+0x1c>
     61a:	08 95       	ret
     61c:	82 e0       	ldi	r24, 0x02	; 2
     61e:	08 95       	ret

00000620 <DComp_NextAudioStreamInterface>:
     620:	fc 01       	movw	r30, r24
     622:	81 81       	ldd	r24, Z+1	; 0x01
     624:	84 30       	cpi	r24, 0x04	; 4
     626:	51 f4       	brne	.+20     	; 0x63c <DComp_NextAudioStreamInterface+0x1c>
     628:	85 81       	ldd	r24, Z+5	; 0x05
     62a:	81 30       	cpi	r24, 0x01	; 1
     62c:	39 f4       	brne	.+14     	; 0x63c <DComp_NextAudioStreamInterface+0x1c>
     62e:	86 81       	ldd	r24, Z+6	; 0x06
     630:	82 30       	cpi	r24, 0x02	; 2
     632:	21 f4       	brne	.+8      	; 0x63c <DComp_NextAudioStreamInterface+0x1c>
     634:	87 81       	ldd	r24, Z+7	; 0x07
     636:	81 11       	cpse	r24, r1
     638:	01 c0       	rjmp	.+2      	; 0x63c <DComp_NextAudioStreamInterface+0x1c>
     63a:	08 95       	ret
     63c:	82 e0       	ldi	r24, 0x02	; 2
     63e:	08 95       	ret

00000640 <DComp_NextAudioInterfaceDataEndpoint>:
     640:	fc 01       	movw	r30, r24
     642:	21 81       	ldd	r18, Z+1	; 0x01
     644:	25 30       	cpi	r18, 0x05	; 5
     646:	31 f4       	brne	.+12     	; 0x654 <DComp_NextAudioInterfaceDataEndpoint+0x14>
     648:	83 81       	ldd	r24, Z+3	; 0x03
     64a:	83 70       	andi	r24, 0x03	; 3
     64c:	81 30       	cpi	r24, 0x01	; 1
     64e:	31 f0       	breq	.+12     	; 0x65c <DComp_NextAudioInterfaceDataEndpoint+0x1c>
     650:	82 e0       	ldi	r24, 0x02	; 2
     652:	08 95       	ret
     654:	24 30       	cpi	r18, 0x04	; 4
     656:	e1 f7       	brne	.-8      	; 0x650 <DComp_NextAudioInterfaceDataEndpoint+0x10>
     658:	81 e0       	ldi	r24, 0x01	; 1
     65a:	08 95       	ret
     65c:	80 e0       	ldi	r24, 0x00	; 0
     65e:	08 95       	ret

00000660 <ProcessConfigurationDescriptor>:
     660:	ef 92       	push	r14
     662:	ff 92       	push	r15
     664:	0f 93       	push	r16
     666:	1f 93       	push	r17
     668:	cf 93       	push	r28
     66a:	df 93       	push	r29
     66c:	cd b7       	in	r28, 0x3d	; 61
     66e:	de b7       	in	r29, 0x3e	; 62
     670:	c4 50       	subi	r28, 0x04	; 4
     672:	d2 40       	sbci	r29, 0x02	; 2
     674:	0f b6       	in	r0, 0x3f	; 63
     676:	f8 94       	cli
     678:	de bf       	out	0x3e, r29	; 62
     67a:	0f be       	out	0x3f, r0	; 63
     67c:	cd bf       	out	0x3d, r28	; 61
     67e:	ae 01       	movw	r20, r28
     680:	4f 5f       	subi	r20, 0xFF	; 255
     682:	5f 4f       	sbci	r21, 0xFF	; 255
     684:	cd 5f       	subi	r28, 0xFD	; 253
     686:	dd 4f       	sbci	r29, 0xFD	; 253
					  ParserData->TotalReportItems++;
     688:	59 83       	std	Y+1, r21	; 0x01
     68a:	48 83       	st	Y, r20
     68c:	c3 50       	subi	r28, 0x03	; 3
     68e:	d2 40       	sbci	r29, 0x02	; 2
     690:	20 e0       	ldi	r18, 0x00	; 0

			default:
				break;
		}

		if ((HIDReportItem & HID_RI_TYPE_MASK) == HID_RI_TYPE_MAIN)
     692:	32 e0       	ldi	r19, 0x02	; 2
     694:	be 01       	movw	r22, r28
     696:	6f 5f       	subi	r22, 0xFF	; 255
     698:	7d 4f       	sbci	r23, 0xFD	; 253
     69a:	81 e0       	ldi	r24, 0x01	; 1
     69c:	ea d3       	rcall	.+2004   	; 0xe72 <USB_Host_GetDeviceConfigDescriptor>
		{
			UsageMinMax.Minimum = 0;
			UsageMinMax.Maximum = 0;
     69e:	85 30       	cpi	r24, 0x05	; 5
     6a0:	09 f4       	brne	.+2      	; 0x6a4 <ProcessConfigurationDescriptor+0x44>
     6a2:	6a c0       	rjmp	.+212    	; 0x778 <ProcessConfigurationDescriptor+0x118>
				break;
		}

		if ((HIDReportItem & HID_RI_TYPE_MASK) == HID_RI_TYPE_MAIN)
		{
			UsageMinMax.Minimum = 0;
     6a4:	86 30       	cpi	r24, 0x06	; 6
     6a6:	21 f0       	breq	.+8      	; 0x6b0 <ProcessConfigurationDescriptor+0x50>
     6a8:	88 23       	and	r24, r24
			UsageMinMax.Maximum = 0;
			UsageListSize       = 0;
     6aa:	21 f0       	breq	.+8      	; 0x6b4 <ProcessConfigurationDescriptor+0x54>
     6ac:	81 e0       	ldi	r24, 0x01	; 1
     6ae:	65 c0       	rjmp	.+202    	; 0x77a <ProcessConfigurationDescriptor+0x11a>
     6b0:	83 e0       	ldi	r24, 0x03	; 3
		}
	}

	if (!(ParserData->TotalReportItems))
     6b2:	63 c0       	rjmp	.+198    	; 0x77a <ProcessConfigurationDescriptor+0x11a>
     6b4:	00 e0       	ldi	r16, 0x00	; 0
     6b6:	10 e0       	ldi	r17, 0x00	; 0
     6b8:	e1 2c       	mov	r14, r1
	  return HID_PARSE_NoUnfilteredReportItems;
     6ba:	f1 2c       	mov	r15, r1
     6bc:	e1 14       	cp	r14, r1

		switch (HIDReportItem & (HID_RI_TYPE_MASK | HID_RI_TAG_MASK))
		{
			case HID_RI_PUSH(0):
				if (CurrStateTable == &StateTable[HID_STATETABLE_STACK_DEPTH - 1])
				  return HID_PARSE_HIDStackOverflow;
     6be:	f1 04       	cpc	r15, r1
     6c0:	b1 f0       	breq	.+44     	; 0x6ee <ProcessConfigurationDescriptor+0x8e>
				CurrStateTable++;
				break;

			case HID_RI_POP(0):
				if (CurrStateTable == &StateTable[0])
				  return HID_PARSE_HIDStackUnderflow;
     6c2:	40 e2       	ldi	r20, 0x20	; 32
     6c4:	53 e0       	ldi	r21, 0x03	; 3
				CurrReportIDInfo->ReportID = CurrStateTable->ReportID;
				break;

			case HID_RI_USAGE(0):
				if (UsageListSize == HID_USAGE_STACK_DEPTH)
				  return HID_PARSE_UsageListOverflow;
     6c6:	be 01       	movw	r22, r28
     6c8:	6d 5f       	subi	r22, 0xFD	; 253
					CurrCollectionPath = &ParserData->CollectionPaths[1];

					while (CurrCollectionPath->Parent != NULL)
					{
						if (CurrCollectionPath == &ParserData->CollectionPaths[HID_MAX_COLLECTIONS - 1])
						  return HID_PARSE_InsufficientCollectionPaths;
     6ca:	7d 4f       	sbci	r23, 0xFD	; 253
     6cc:	ce 01       	movw	r24, r28

				break;

			case HID_RI_END_COLLECTION(0):
				if (CurrCollectionPath == NULL)
				  return HID_PARSE_UnexpectedEndCollection;
     6ce:	8f 5f       	subi	r24, 0xFF	; 255
     6d0:	9d 4f       	sbci	r25, 0xFD	; 253
	}

	if (!(ParserData->TotalReportItems))
	  return HID_PARSE_NoUnfilteredReportItems;

	return HID_PARSE_Successful;
     6d2:	29 d4       	rcall	.+2130   	; 0xf26 <USB_GetNextDescriptorComp>
     6d4:	88 23       	and	r24, r24
					}

					if (CurrReportIDInfo == NULL)
					{
						if (ParserData->TotalDeviceReports == HID_MAX_REPORT_IDS)
						  return HID_PARSE_InsufficientReportIDItems;
     6d6:	81 f1       	breq	.+96     	; 0x738 <ProcessConfigurationDescriptor+0xd8>

	if (!(ParserData->TotalReportItems))
	  return HID_PARSE_NoUnfilteredReportItems;

	return HID_PARSE_Successful;
}
     6d8:	40 e1       	ldi	r20, 0x10	; 16
     6da:	53 e0       	ldi	r21, 0x03	; 3
     6dc:	be 01       	movw	r22, r28
     6de:	6d 5f       	subi	r22, 0xFD	; 253
     6e0:	7d 4f       	sbci	r23, 0xFD	; 253
     6e2:	ce 01       	movw	r24, r28
     6e4:	8f 5f       	subi	r24, 0xFF	; 255
     6e6:	9d 4f       	sbci	r25, 0xFD	; 253
     6e8:	1e d4       	rcall	.+2108   	; 0xf26 <USB_GetNextDescriptorComp>
     6ea:	88 23       	and	r24, r24
     6ec:	f1 f0       	breq	.+60     	; 0x72a <ProcessConfigurationDescriptor+0xca>
     6ee:	40 e0       	ldi	r20, 0x00	; 0
     6f0:	53 e0       	ldi	r21, 0x03	; 3
     6f2:	be 01       	movw	r22, r28
     6f4:	6d 5f       	subi	r22, 0xFD	; 253
     6f6:	7d 4f       	sbci	r23, 0xFD	; 253
     6f8:	ce 01       	movw	r24, r28
     6fa:	8f 5f       	subi	r24, 0xFF	; 255
     6fc:	9d 4f       	sbci	r25, 0xFD	; 253
     6fe:	13 d4       	rcall	.+2086   	; 0xf26 <USB_GetNextDescriptorComp>
     700:	88 23       	and	r24, r24
     702:	11 f0       	breq	.+4      	; 0x708 <ProcessConfigurationDescriptor+0xa8>
     704:	84 e0       	ldi	r24, 0x04	; 4
     706:	39 c0       	rjmp	.+114    	; 0x77a <ProcessConfigurationDescriptor+0x11a>
     708:	cd 5f       	subi	r28, 0xFD	; 253
     70a:	dd 4f       	sbci	r29, 0xFD	; 253
				/* Find a new Audio Control interface if the current one doesn't contain a compatible streaming interface */
				if (USB_GetNextDescriptorComp(&CurrConfigBytesRem, &CurrConfigLocation,
				                              DComp_NextAudioControlInterface) != DESCRIPTOR_SEARCH_COMP_Found)
				{
					/* Descriptor not found, error out */
					return NoCompatibleInterfaceFound;
     70c:	e8 80       	ld	r14, Y
     70e:	f9 80       	ldd	r15, Y+1	; 0x01
				}

				/* Save the interface in case we need to refer back to it later */
				AudioControlInterface = DESCRIPTOR_PCAST(CurrConfigLocation, USB_Descriptor_Interface_t);
     710:	c3 50       	subi	r28, 0x03	; 3
     712:	d2 40       	sbci	r29, 0x02	; 2
     714:	40 e1       	ldi	r20, 0x10	; 16
     716:	53 e0       	ldi	r21, 0x03	; 3
     718:	be 01       	movw	r22, r28
     71a:	6d 5f       	subi	r22, 0xFD	; 253

				/* Find the next Audio Streaming interface within that Audio Control interface */
				if (USB_GetNextDescriptorComp(&CurrConfigBytesRem, &CurrConfigLocation,
     71c:	7d 4f       	sbci	r23, 0xFD	; 253
     71e:	ce 01       	movw	r24, r28
     720:	8f 5f       	subi	r24, 0xFF	; 255
     722:	9d 4f       	sbci	r25, 0xFD	; 253
     724:	00 d4       	rcall	.+2048   	; 0xf26 <USB_GetNextDescriptorComp>
     726:	81 11       	cpse	r24, r1
     728:	ed cf       	rjmp	.-38     	; 0x704 <ProcessConfigurationDescriptor+0xa4>
     72a:	cd 5f       	subi	r28, 0xFD	; 253
     72c:	dd 4f       	sbci	r29, 0xFD	; 253
     72e:	08 81       	ld	r16, Y
     730:	19 81       	ldd	r17, Y+1	; 0x01
     732:	c3 50       	subi	r28, 0x03	; 3
					return NoCompatibleInterfaceFound;
				}
			}

			/* Save the interface in case we need to refer back to it later */
			AudioStreamingInterface = DESCRIPTOR_PCAST(CurrConfigLocation, USB_Descriptor_Interface_t);
     734:	d2 40       	sbci	r29, 0x02	; 2
     736:	c2 cf       	rjmp	.-124    	; 0x6bc <ProcessConfigurationDescriptor+0x5c>
     738:	cd 5f       	subi	r28, 0xFD	; 253
     73a:	dd 4f       	sbci	r29, 0xFD	; 253
     73c:	e8 81       	ld	r30, Y
     73e:	f9 81       	ldd	r31, Y+1	; 0x01

			/* Skip the remainder of the loop as we have not found an endpoint yet */
			continue;
     740:	c3 50       	subi	r28, 0x03	; 3
		}

		/* Retrieve the endpoint address from the endpoint descriptor */
		USB_Descriptor_Endpoint_t* EndpointData = DESCRIPTOR_PCAST(CurrConfigLocation, USB_Descriptor_Endpoint_t);
     742:	d2 40       	sbci	r29, 0x02	; 2
     744:	42 81       	ldd	r20, Z+2	; 0x02
     746:	47 ff       	sbrs	r20, 7
     748:	b9 cf       	rjmp	.-142    	; 0x6bc <ProcessConfigurationDescriptor+0x5c>
     74a:	30 97       	sbiw	r30, 0x00	; 0
     74c:	09 f4       	brne	.+2      	; 0x750 <ProcessConfigurationDescriptor+0xf0>

		/* Save the endpoint if it is an IN type endpoint */
		if ((EndpointData->EndpointAddress & ENDPOINT_DIR_MASK) == ENDPOINT_DIR_IN)
     74e:	b6 cf       	rjmp	.-148    	; 0x6bc <ProcessConfigurationDescriptor+0x5c>
     750:	d8 01       	movw	r26, r16
     752:	12 96       	adiw	r26, 0x02	; 2
			return DescriptorTooLarge;
		default:
			return ControlError;
	}

	while (!(DataINEndpoint))
     754:	8c 91       	ld	r24, X
     756:	12 97       	sbiw	r26, 0x02	; 2
     758:	80 93 14 01 	sts	0x0114, r24
		/* Save the endpoint if it is an IN type endpoint */
		if ((EndpointData->EndpointAddress & ENDPOINT_DIR_MASK) == ENDPOINT_DIR_IN)
		  DataINEndpoint = EndpointData;
	}

	StreamingInterfaceIndex      = AudioStreamingInterface->InterfaceNumber;
     75c:	13 96       	adiw	r26, 0x03	; 3
     75e:	8c 91       	ld	r24, X
     760:	80 93 13 01 	sts	0x0113, r24
     764:	40 93 12 01 	sts	0x0112, r20
	StreamingInterfaceAltSetting = AudioStreamingInterface->AlternateSetting;
     768:	24 81       	ldd	r18, Z+4	; 0x04
     76a:	35 81       	ldd	r19, Z+5	; 0x05
     76c:	02 e0       	ldi	r16, 0x02	; 2
	StreamingEndpointAddress     = DataINEndpoint->EndpointAddress;
     76e:	61 e0       	ldi	r22, 0x01	; 1
     770:	81 e8       	ldi	r24, 0x81	; 129

	/* Configure the Audio data IN pipe */
	Pipe_ConfigurePipe(AUDIO_DATA_IN_PIPE, EP_TYPE_ISOCHRONOUS, DataINEndpoint->EndpointAddress, DataINEndpoint->EndpointSize, 2);
     772:	d1 d1       	rcall	.+930    	; 0xb16 <Pipe_ConfigurePipe>
     774:	80 e0       	ldi	r24, 0x00	; 0
     776:	01 c0       	rjmp	.+2      	; 0x77a <ProcessConfigurationDescriptor+0x11a>
     778:	82 e0       	ldi	r24, 0x02	; 2
     77a:	cc 5f       	subi	r28, 0xFC	; 252
     77c:	dd 4f       	sbci	r29, 0xFD	; 253
     77e:	0f b6       	in	r0, 0x3f	; 63

	/* Valid data found, return success */
	return SuccessfulConfigRead;
     780:	f8 94       	cli
     782:	de bf       	out	0x3e, r29	; 62
		case HOST_GETCONFIG_Successful:
			break;
		case HOST_GETCONFIG_InvalidData:
			return InvalidConfigDataReturned;
		case HOST_GETCONFIG_BuffOverflow:
			return DescriptorTooLarge;
     784:	0f be       	out	0x3f, r0	; 63
	/* Configure the Audio data IN pipe */
	Pipe_ConfigurePipe(AUDIO_DATA_IN_PIPE, EP_TYPE_ISOCHRONOUS, DataINEndpoint->EndpointAddress, DataINEndpoint->EndpointSize, 2);

	/* Valid data found, return success */
	return SuccessfulConfigRead;
}
     786:	cd bf       	out	0x3d, r28	; 61
     788:	df 91       	pop	r29
     78a:	cf 91       	pop	r28
     78c:	1f 91       	pop	r17
     78e:	0f 91       	pop	r16
     790:	ff 90       	pop	r15
     792:	ef 90       	pop	r14
     794:	08 95       	ret

00000796 <USB_Host_ResetDevice>:
     796:	80 91 9e 00 	lds	r24, 0x009E
     79a:	81 70       	andi	r24, 0x01	; 1
     79c:	90 91 a0 00 	lds	r25, 0x00A0
     7a0:	9d 7f       	andi	r25, 0xFD	; 253
						break;
					case USB_INT_DCONNI:
						UHIEN  &= ~(1 << DCONNE);
						break;
					case USB_INT_DDISCI:
						UHIEN  &= ~(1 << DDISCE);
     7a2:	90 93 a0 00 	sts	0x00A0, r25
			 *  woken up automatically and the bus resumed after the reset has been correctly issued.
			 */
			static inline void USB_Host_ResetBus(void) ATTR_ALWAYS_INLINE;
			static inline void USB_Host_ResetBus(void)
			{
				UHCON |=  (1 << RESET);
     7a6:	90 91 9e 00 	lds	r25, 0x009E
     7aa:	92 60       	ori	r25, 0x02	; 2
     7ac:	90 93 9e 00 	sts	0x009E, r25
			 *  \return Boolean \c true if no bus reset is currently being sent, \c false otherwise.
			 */
			static inline bool USB_Host_IsBusResetComplete(void) ATTR_WARN_UNUSED_RESULT ATTR_ALWAYS_INLINE;
			static inline bool USB_Host_IsBusResetComplete(void)
			{
				return ((UHCON & (1 << RESET)) ? false : true);
     7b0:	90 91 9e 00 	lds	r25, 0x009E
	bool BusSuspended = USB_Host_IsBusSuspended();

	USB_INT_Disable(USB_INT_DDISCI);

	USB_Host_ResetBus();
	while (!(USB_Host_IsBusResetComplete()));
     7b4:	91 fd       	sbrc	r25, 1
     7b6:	fc cf       	rjmp	.-8      	; 0x7b0 <USB_Host_ResetDevice+0x1a>
			 *  host and attached device may occur.
			 */
			static inline void USB_Host_ResumeBus(void) ATTR_ALWAYS_INLINE;
			static inline void USB_Host_ResumeBus(void)
			{
				UHCON |=  (1 << SOFEN);
     7b8:	90 91 9e 00 	lds	r25, 0x009E
     7bc:	91 60       	ori	r25, 0x01	; 1
     7be:	90 93 9e 00 	sts	0x009E, r25
	USB_Host_ResumeBus();

	USB_Host_ConfigurationNumber = 0;
     7c2:	10 92 18 01 	sts	0x0118, r1
					case USB_INT_RXSTPI:
						return (UEIENX & (1 << RXSTPE));
					#endif
					#if defined(USB_CAN_BE_HOST)
					case USB_INT_HSOFI:
						return (UHIEN  & (1 << HSOFE));
     7c6:	90 91 a0 00 	lds	r25, 0x00A0
     7ca:	90 72       	andi	r25, 0x20	; 32
						UEIENX &= ~(1 << RXSTPE);
						break;
					#endif
					#if defined(USB_CAN_BE_HOST)
					case USB_INT_HSOFI:
						UHIEN  &= ~(1 << HSOFE);
     7cc:	20 91 a0 00 	lds	r18, 0x00A0
     7d0:	2f 7d       	andi	r18, 0xDF	; 223
     7d2:	20 93 a0 00 	sts	0x00A0, r18
						UEINTX &= ~(1 << RXSTPI);
						break;
					#endif
					#if defined(USB_CAN_BE_HOST)
					case USB_INT_HSOFI:
						UHINT  &= ~(1 << HSOFI);
     7d6:	20 91 9f 00 	lds	r18, 0x009F
     7da:	2f 7d       	andi	r18, 0xDF	; 223
     7dc:	20 93 9f 00 	sts	0x009F, r18
     7e0:	2a e0       	ldi	r18, 0x0A	; 10
					case USB_INT_RXSTPI:
						return (UEINTX & (1 << RXSTPI));
					#endif
					#if defined(USB_CAN_BE_HOST)
					case USB_INT_HSOFI:
						return (UHINT  & (1 << HSOFI));
     7e2:	30 91 9f 00 	lds	r19, 0x009F
		/* Workaround for powerless-pull-up devices. After a USB bus reset,
		   all disconnection interrupts are suppressed while a USB frame is
		   looked for - if it is found within 10ms, the device is still
		   present.                                                        */

		if (USB_INT_HasOccurred(USB_INT_HSOFI))
     7e6:	35 ff       	sbrs	r19, 5
     7e8:	0b c0       	rjmp	.+22     	; 0x800 <USB_Host_ResetDevice+0x6a>
						UEINTX &= ~(1 << RXSTPI);
						break;
					#endif
					#if defined(USB_CAN_BE_HOST)
					case USB_INT_HSOFI:
						UHINT  &= ~(1 << HSOFI);
     7ea:	20 91 9f 00 	lds	r18, 0x009F
     7ee:	2f 7d       	andi	r18, 0xDF	; 223
     7f0:	20 93 9f 00 	sts	0x009F, r18
						break;
					case USB_INT_DCONNI:
						UHINT  &= ~(1 << DCONNI);
						break;
					case USB_INT_DDISCI:
						UHINT  &= ~(1 << DDISCI);
     7f4:	20 91 9f 00 	lds	r18, 0x009F
     7f8:	2d 7f       	andi	r18, 0xFD	; 253
     7fa:	20 93 9f 00 	sts	0x009F, r18
     7fe:	08 c0       	rjmp	.+16     	; 0x810 <USB_Host_ResetDevice+0x7a>
	#else
		//round up by default
		__ticks_dc = (uint32_t)(ceil(fabs(__tmp)));
	#endif

	__builtin_avr_delay_cycles(__ticks_dc);
     800:	ef ec       	ldi	r30, 0xCF	; 207
     802:	f7 e0       	ldi	r31, 0x07	; 7
     804:	31 97       	sbiw	r30, 0x01	; 1
     806:	f1 f7       	brne	.-4      	; 0x804 <USB_Host_ResetDevice+0x6e>
     808:	00 c0       	rjmp	.+0      	; 0x80a <USB_Host_ResetDevice+0x74>
     80a:	00 00       	nop
     80c:	21 50       	subi	r18, 0x01	; 1
	bool HSOFIEnabled = USB_INT_IsEnabled(USB_INT_HSOFI);

	USB_INT_Disable(USB_INT_HSOFI);
	USB_INT_Clear(USB_INT_HSOFI);

	for (uint8_t MSRem = 10; MSRem != 0; MSRem--)
     80e:	49 f7       	brne	.-46     	; 0x7e2 <USB_Host_ResetDevice+0x4c>
		}

		Delay_MS(1);
	}

	if (HSOFIEnabled)
     810:	99 23       	and	r25, r25
     812:	29 f0       	breq	.+10     	; 0x81e <USB_Host_ResetDevice+0x88>
						UEIENX |= (1 << RXSTPE);
						break;
					#endif
					#if defined(USB_CAN_BE_HOST)
					case USB_INT_HSOFI:
						UHIEN  |= (1 << HSOFE);
     814:	90 91 a0 00 	lds	r25, 0x00A0
     818:	90 62       	ori	r25, 0x20	; 32
     81a:	90 93 a0 00 	sts	0x00A0, r25
	  USB_INT_Enable(USB_INT_HSOFI);

	if (BusSuspended)
     81e:	81 11       	cpse	r24, r1
     820:	05 c0       	rjmp	.+10     	; 0x82c <USB_Host_ResetDevice+0x96>
			 *             some events (such as device disconnections) will not fire until the bus is resumed.
			 */
			static inline void USB_Host_SuspendBus(void) ATTR_ALWAYS_INLINE;
			static inline void USB_Host_SuspendBus(void)
			{
				UHCON &= ~(1 << SOFEN);
     822:	80 91 9e 00 	lds	r24, 0x009E
     826:	8e 7f       	andi	r24, 0xFE	; 254
     828:	80 93 9e 00 	sts	0x009E, r24
						break;
					case USB_INT_DCONNI:
						UHIEN  |= (1 << DCONNE);
						break;
					case USB_INT_DDISCI:
						UHIEN  |= (1 << DDISCE);
     82c:	80 91 a0 00 	lds	r24, 0x00A0
     830:	82 60       	ori	r24, 0x02	; 2
     832:	80 93 a0 00 	sts	0x00A0, r24
     836:	08 95       	ret

00000838 <USB_Host_WaitMS>:
			 *  \return Boolean \c true if the bus is currently suspended, \c false otherwise.
			 */
			static inline bool USB_Host_IsBusSuspended(void) ATTR_WARN_UNUSED_RESULT ATTR_ALWAYS_INLINE;
			static inline bool USB_Host_IsBusSuspended(void)
			{
				return ((UHCON & (1 << SOFEN)) ? false : true);
     838:	20 91 9e 00 	lds	r18, 0x009E
     83c:	21 70       	andi	r18, 0x01	; 1
					case USB_INT_RXSTPI:
						return (UEIENX & (1 << RXSTPE));
					#endif
					#if defined(USB_CAN_BE_HOST)
					case USB_INT_HSOFI:
						return (UHIEN  & (1 << HSOFE));
     83e:	90 91 a0 00 	lds	r25, 0x00A0
     842:	90 72       	andi	r25, 0x20	; 32
						UEIENX &= ~(1 << RXSTPE);
						break;
					#endif
					#if defined(USB_CAN_BE_HOST)
					case USB_INT_HSOFI:
						UHIEN  &= ~(1 << HSOFE);
     844:	30 91 a0 00 	lds	r19, 0x00A0
     848:	3f 7d       	andi	r19, 0xDF	; 223
     84a:	30 93 a0 00 	sts	0x00A0, r19
						UEINTX &= ~(1 << RXSTPI);
						break;
					#endif
					#if defined(USB_CAN_BE_HOST)
					case USB_INT_HSOFI:
						UHINT  &= ~(1 << HSOFI);
     84e:	30 91 9f 00 	lds	r19, 0x009F
     852:	3f 7d       	andi	r19, 0xDF	; 223
     854:	30 93 9f 00 	sts	0x009F, r19
			 *  host and attached device may occur.
			 */
			static inline void USB_Host_ResumeBus(void) ATTR_ALWAYS_INLINE;
			static inline void USB_Host_ResumeBus(void)
			{
				UHCON |=  (1 << SOFEN);
     858:	30 91 9e 00 	lds	r19, 0x009E
     85c:	31 60       	ori	r19, 0x01	; 1
     85e:	30 93 9e 00 	sts	0x009E, r19
	USB_INT_Disable(USB_INT_HSOFI);
	USB_INT_Clear(USB_INT_HSOFI);

	USB_Host_ResumeBus();

	while (MS)
     862:	88 23       	and	r24, r24
     864:	39 f1       	breq	.+78     	; 0x8b4 <USB_Host_WaitMS+0x7c>
					case USB_INT_RXSTPI:
						return (UEINTX & (1 << RXSTPI));
					#endif
					#if defined(USB_CAN_BE_HOST)
					case USB_INT_HSOFI:
						return (UHINT  & (1 << HSOFI));
     866:	30 91 9f 00 	lds	r19, 0x009F
	{
		if (USB_INT_HasOccurred(USB_INT_HSOFI))
     86a:	35 ff       	sbrs	r19, 5
     86c:	06 c0       	rjmp	.+12     	; 0x87a <USB_Host_WaitMS+0x42>
						UEINTX &= ~(1 << RXSTPI);
						break;
					#endif
					#if defined(USB_CAN_BE_HOST)
					case USB_INT_HSOFI:
						UHINT  &= ~(1 << HSOFI);
     86e:	30 91 9f 00 	lds	r19, 0x009F
     872:	3f 7d       	andi	r19, 0xDF	; 223
     874:	30 93 9f 00 	sts	0x009F, r19
		{
			USB_INT_Clear(USB_INT_HSOFI);
			MS--;
     878:	81 50       	subi	r24, 0x01	; 1
		}

		if ((USB_HostState == HOST_STATE_Unattached) || (USB_CurrentMode != USB_MODE_Host))
     87a:	30 91 22 01 	lds	r19, 0x0122
     87e:	31 30       	cpi	r19, 0x01	; 1
     880:	c1 f0       	breq	.+48     	; 0x8b2 <USB_Host_WaitMS+0x7a>
			 *  \return Boolean \c true if an error has occurred on the selected pipe, \c false otherwise.
			 */
			static inline bool Pipe_IsError(void) ATTR_WARN_UNUSED_RESULT ATTR_ALWAYS_INLINE;
			static inline bool Pipe_IsError(void)
			{
				return ((UPINTX & (1 << PERRI)) ? true : false);
     882:	30 91 a6 00 	lds	r19, 0x00A6
			ErrorCode = HOST_WAITERROR_DeviceDisconnect;

			break;
		}

		if (Pipe_IsError())
     886:	34 ff       	sbrs	r19, 4
     888:	09 c0       	rjmp	.+18     	; 0x89c <USB_Host_WaitMS+0x64>

			/** Clears the error flags for the currently selected pipe. */
			static inline void Pipe_ClearError(void) ATTR_ALWAYS_INLINE;
			static inline void Pipe_ClearError(void)
			{
				UPERRX = 0;
     88a:	10 92 f5 00 	sts	0x00F5, r1
				UPINTX &= ~(1 << PERRI);
     88e:	80 91 a6 00 	lds	r24, 0x00A6
     892:	8f 7e       	andi	r24, 0xEF	; 239
     894:	80 93 a6 00 	sts	0x00A6, r24
		{
			Pipe_ClearError();
			ErrorCode = HOST_WAITERROR_PipeError;
     898:	82 e0       	ldi	r24, 0x02	; 2

			break;
     89a:	0c c0       	rjmp	.+24     	; 0x8b4 <USB_Host_WaitMS+0x7c>
			 *  \return Boolean \c true if the current pipe has been stalled by the attached device, \c false otherwise.
			 */
			static inline bool Pipe_IsStalled(void) ATTR_WARN_UNUSED_RESULT ATTR_ALWAYS_INLINE;
			static inline bool Pipe_IsStalled(void)
			{
				return ((UPINTX & (1 << RXSTALLI)) ? true : false);
     89c:	30 91 a6 00 	lds	r19, 0x00A6
		}

		if (Pipe_IsStalled())
     8a0:	31 ff       	sbrs	r19, 1
     8a2:	df cf       	rjmp	.-66     	; 0x862 <USB_Host_WaitMS+0x2a>
			 *  \ingroup Group_PipePacketManagement_AVR8
			 */
			static inline void Pipe_ClearStall(void) ATTR_ALWAYS_INLINE;
			static inline void Pipe_ClearStall(void)
			{
				UPINTX &= ~(1 << RXSTALLI);
     8a4:	80 91 a6 00 	lds	r24, 0x00A6
     8a8:	8d 7f       	andi	r24, 0xFD	; 253
     8aa:	80 93 a6 00 	sts	0x00A6, r24
		{
			Pipe_ClearStall();
			ErrorCode = HOST_WAITERROR_SetupStalled;
     8ae:	83 e0       	ldi	r24, 0x03	; 3

			break;
     8b0:	01 c0       	rjmp	.+2      	; 0x8b4 <USB_Host_WaitMS+0x7c>
			MS--;
		}

		if ((USB_HostState == HOST_STATE_Unattached) || (USB_CurrentMode != USB_MODE_Host))
		{
			ErrorCode = HOST_WAITERROR_DeviceDisconnect;
     8b2:	81 e0       	ldi	r24, 0x01	; 1

			break;
		}
	}

	if (BusSuspended)
     8b4:	21 11       	cpse	r18, r1
     8b6:	05 c0       	rjmp	.+10     	; 0x8c2 <USB_Host_WaitMS+0x8a>
			 *             some events (such as device disconnections) will not fire until the bus is resumed.
			 */
			static inline void USB_Host_SuspendBus(void) ATTR_ALWAYS_INLINE;
			static inline void USB_Host_SuspendBus(void)
			{
				UHCON &= ~(1 << SOFEN);
     8b8:	20 91 9e 00 	lds	r18, 0x009E
     8bc:	2e 7f       	andi	r18, 0xFE	; 254
     8be:	20 93 9e 00 	sts	0x009E, r18
	  USB_Host_SuspendBus();

	if (HSOFIEnabled)
     8c2:	99 23       	and	r25, r25
     8c4:	29 f0       	breq	.+10     	; 0x8d0 <USB_Host_WaitMS+0x98>
						UEIENX |= (1 << RXSTPE);
						break;
					#endif
					#if defined(USB_CAN_BE_HOST)
					case USB_INT_HSOFI:
						UHIEN  |= (1 << HSOFE);
     8c6:	90 91 a0 00 	lds	r25, 0x00A0
     8ca:	90 62       	ori	r25, 0x20	; 32
     8cc:	90 93 a0 00 	sts	0x00A0, r25
	  USB_INT_Enable(USB_INT_HSOFI);

	return ErrorCode;
}
     8d0:	08 95       	ret

000008d2 <USB_Host_ProcessNextHostState>:

#define  __INCLUDE_FROM_HOST_C
#include "../Host.h"

void USB_Host_ProcessNextHostState(void)
{
     8d2:	0f 93       	push	r16
     8d4:	1f 93       	push	r17
     8d6:	cf 93       	push	r28
     8d8:	df 93       	push	r29
     8da:	cd b7       	in	r28, 0x3d	; 61
     8dc:	de b7       	in	r29, 0x3e	; 62
     8de:	28 97       	sbiw	r28, 0x08	; 8
     8e0:	0f b6       	in	r0, 0x3f	; 63
     8e2:	f8 94       	cli
     8e4:	de bf       	out	0x3e, r29	; 62
     8e6:	0f be       	out	0x3f, r0	; 63
     8e8:	cd bf       	out	0x3d, r28	; 61
	uint8_t SubErrorCode = HOST_ENUMERROR_NoError;

	static uint16_t WaitMSRemaining;
	static uint8_t  PostWaitState;

	switch (USB_HostState)
     8ea:	80 91 22 01 	lds	r24, 0x0122
     8ee:	85 30       	cpi	r24, 0x05	; 5
     8f0:	09 f4       	brne	.+2      	; 0x8f4 <USB_Host_ProcessNextHostState+0x22>
     8f2:	9c c0       	rjmp	.+312    	; 0xa2c <USB_Host_ProcessNextHostState+0x15a>
     8f4:	68 f4       	brcc	.+26     	; 0x910 <USB_Host_ProcessNextHostState+0x3e>
     8f6:	82 30       	cpi	r24, 0x02	; 2
     8f8:	e1 f1       	breq	.+120    	; 0x972 <USB_Host_ProcessNextHostState+0xa0>
     8fa:	18 f4       	brcc	.+6      	; 0x902 <USB_Host_ProcessNextHostState+0x30>
     8fc:	88 23       	and	r24, r24
     8fe:	d9 f0       	breq	.+54     	; 0x936 <USB_Host_ProcessNextHostState+0x64>
     900:	ff c0       	rjmp	.+510    	; 0xb00 <USB_Host_ProcessNextHostState+0x22e>
     902:	83 30       	cpi	r24, 0x03	; 3
     904:	09 f4       	brne	.+2      	; 0x908 <USB_Host_ProcessNextHostState+0x36>
     906:	3f c0       	rjmp	.+126    	; 0x986 <USB_Host_ProcessNextHostState+0xb4>
     908:	84 30       	cpi	r24, 0x04	; 4
     90a:	09 f4       	brne	.+2      	; 0x90e <USB_Host_ProcessNextHostState+0x3c>
     90c:	67 c0       	rjmp	.+206    	; 0x9dc <USB_Host_ProcessNextHostState+0x10a>
     90e:	f8 c0       	rjmp	.+496    	; 0xb00 <USB_Host_ProcessNextHostState+0x22e>
     910:	87 30       	cpi	r24, 0x07	; 7
     912:	09 f4       	brne	.+2      	; 0x916 <USB_Host_ProcessNextHostState+0x44>
     914:	a6 c0       	rjmp	.+332    	; 0xa62 <USB_Host_ProcessNextHostState+0x190>
     916:	08 f4       	brcc	.+2      	; 0x91a <USB_Host_ProcessNextHostState+0x48>
     918:	96 c0       	rjmp	.+300    	; 0xa46 <USB_Host_ProcessNextHostState+0x174>
     91a:	88 30       	cpi	r24, 0x08	; 8
     91c:	09 f4       	brne	.+2      	; 0x920 <USB_Host_ProcessNextHostState+0x4e>
     91e:	bf c0       	rjmp	.+382    	; 0xa9e <USB_Host_ProcessNextHostState+0x1cc>
     920:	89 30       	cpi	r24, 0x09	; 9
     922:	09 f0       	breq	.+2      	; 0x926 <USB_Host_ProcessNextHostState+0x54>
     924:	ed c0       	rjmp	.+474    	; 0xb00 <USB_Host_ProcessNextHostState+0x22e>
			}

			static inline void USB_Host_SetDeviceAddress(const uint8_t Address) ATTR_ALWAYS_INLINE;
			static inline void USB_Host_SetDeviceAddress(const uint8_t Address)
			{
				UHADDR  =  (Address & 0x7F);
     926:	81 e0       	ldi	r24, 0x01	; 1
     928:	80 93 a1 00 	sts	0x00A1, r24
			HOST_TASK_NONBLOCK_WAIT(100, HOST_STATE_Default_PostAddressSet);
			break;
		case HOST_STATE_Default_PostAddressSet:
			USB_Host_SetDeviceAddress(USB_HOST_DEVICEADDRESS);

			USB_HostState = HOST_STATE_Addressed;
     92c:	8a e0       	ldi	r24, 0x0A	; 10
     92e:	80 93 22 01 	sts	0x0122, r24

			EVENT_USB_Host_DeviceEnumerationComplete();
     932:	45 dd       	rcall	.-1398   	; 0x3be <EVENT_USB_Host_DeviceEnumerationComplete>
     934:	e5 c0       	rjmp	.+458    	; 0xb00 <USB_Host_ProcessNextHostState+0x22e>
			break;
     936:	00 91 16 01 	lds	r16, 0x0116
	static uint8_t  PostWaitState;

	switch (USB_HostState)
	{
		case HOST_STATE_WaitForDevice:
			if (WaitMSRemaining)
     93a:	10 91 17 01 	lds	r17, 0x0117
     93e:	01 15       	cp	r16, r1
     940:	11 05       	cpc	r17, r1
     942:	09 f4       	brne	.+2      	; 0x946 <USB_Host_ProcessNextHostState+0x74>
     944:	dd c0       	rjmp	.+442    	; 0xb00 <USB_Host_ProcessNextHostState+0x22e>
     946:	81 e0       	ldi	r24, 0x01	; 1
			{
				if ((SubErrorCode = USB_Host_WaitMS(1)) != HOST_WAITERROR_Successful)
     948:	77 df       	rcall	.-274    	; 0x838 <USB_Host_WaitMS>
     94a:	88 23       	and	r24, r24
     94c:	31 f0       	breq	.+12     	; 0x95a <USB_Host_ProcessNextHostState+0x88>
     94e:	90 91 15 01 	lds	r25, 0x0115
				{
					USB_HostState = PostWaitState;
     952:	90 93 22 01 	sts	0x0122, r25
     956:	91 e0       	ldi	r25, 0x01	; 1
     958:	c5 c0       	rjmp	.+394    	; 0xae4 <USB_Host_ProcessNextHostState+0x212>
					ErrorCode     = HOST_ENUMERROR_WaitStage;
     95a:	01 50       	subi	r16, 0x01	; 1
					break;
     95c:	11 09       	sbc	r17, r1
				}

				if (!(--WaitMSRemaining))
     95e:	10 93 17 01 	sts	0x0117, r17
     962:	00 93 16 01 	sts	0x0116, r16
     966:	01 2b       	or	r16, r17
     968:	09 f0       	breq	.+2      	; 0x96c <USB_Host_ProcessNextHostState+0x9a>
     96a:	ca c0       	rjmp	.+404    	; 0xb00 <USB_Host_ProcessNextHostState+0x22e>
     96c:	80 91 15 01 	lds	r24, 0x0115
				  USB_HostState = PostWaitState;
     970:	07 c0       	rjmp	.+14     	; 0x980 <USB_Host_ProcessNextHostState+0xae>
     972:	88 ee       	ldi	r24, 0xE8	; 232
     974:	93 e0       	ldi	r25, 0x03	; 3
			}

			break;
		case HOST_STATE_Powered:
			WaitMSRemaining = HOST_DEVICE_SETTLE_DELAY_MS;
     976:	90 93 17 01 	sts	0x0117, r25
     97a:	80 93 16 01 	sts	0x0116, r24
     97e:	83 e0       	ldi	r24, 0x03	; 3
     980:	80 93 22 01 	sts	0x0122, r24

			USB_HostState = HOST_STATE_Powered_WaitForDeviceSettle;
     984:	bd c0       	rjmp	.+378    	; 0xb00 <USB_Host_ProcessNextHostState+0x22e>
     986:	80 91 16 01 	lds	r24, 0x0116
			break;
		case HOST_STATE_Powered_WaitForDeviceSettle:
			if (WaitMSRemaining--)
     98a:	90 91 17 01 	lds	r25, 0x0117
     98e:	9c 01       	movw	r18, r24
     990:	21 50       	subi	r18, 0x01	; 1
     992:	31 09       	sbc	r19, r1
     994:	30 93 17 01 	sts	0x0117, r19
     998:	20 93 16 01 	sts	0x0116, r18
     99c:	89 2b       	or	r24, r25
     99e:	39 f0       	breq	.+14     	; 0x9ae <USB_Host_ProcessNextHostState+0xdc>
     9a0:	8f ec       	ldi	r24, 0xCF	; 207
     9a2:	97 e0       	ldi	r25, 0x07	; 7
     9a4:	01 97       	sbiw	r24, 0x01	; 1
     9a6:	f1 f7       	brne	.-4      	; 0x9a4 <USB_Host_ProcessNextHostState+0xd2>
     9a8:	00 c0       	rjmp	.+0      	; 0x9aa <USB_Host_ProcessNextHostState+0xd8>
     9aa:	00 00       	nop
     9ac:	a9 c0       	rjmp	.+338    	; 0xb00 <USB_Host_ProcessNextHostState+0x22e>
     9ae:	77 98       	cbi	0x0e, 7	; 14
     9b0:	80 91 d8 00 	lds	r24, 0x00D8

			#if defined(USB_SERIES_4_AVR) || defined(USB_SERIES_6_AVR) || defined(USB_SERIES_7_AVR)
			static inline void USB_OTGPAD_On(void) ATTR_ALWAYS_INLINE;
			static inline void USB_OTGPAD_On(void)
			{
				USBCON |=  (1 << OTGPADE);
     9b4:	80 61       	ori	r24, 0x10	; 16
     9b6:	80 93 d8 00 	sts	0x00D8, r24
     9ba:	80 91 dd 00 	lds	r24, 0x00DD
			}

			static inline void USB_Host_VBUS_Auto_Enable(void) ATTR_ALWAYS_INLINE;
			static inline void USB_Host_VBUS_Auto_Enable(void)
			{
				OTGCON &= ~(1 << VBUSHWC);
     9be:	8b 7f       	andi	r24, 0xFB	; 251
     9c0:	80 93 dd 00 	sts	0x00DD, r24
     9c4:	80 91 d7 00 	lds	r24, 0x00D7
				UHWCON |=  (1 << UVCONE);
     9c8:	80 61       	ori	r24, 0x10	; 16
     9ca:	80 93 d7 00 	sts	0x00D7, r24
     9ce:	80 91 dd 00 	lds	r24, 0x00DD
			}

			static inline void USB_Host_VBUS_Auto_On(void) ATTR_ALWAYS_INLINE;
			static inline void USB_Host_VBUS_Auto_On(void)
			{
				OTGCON |=  (1 << VBUSREQ);
     9d2:	82 60       	ori	r24, 0x02	; 2
     9d4:	80 93 dd 00 	sts	0x00DD, r24
     9d8:	84 e0       	ldi	r24, 0x04	; 4
     9da:	d2 cf       	rjmp	.-92     	; 0x980 <USB_Host_ProcessNextHostState+0xae>
				#if defined(NO_AUTO_VBUS_MANAGEMENT)
				USB_Host_VBUS_Manual_Enable();
				USB_Host_VBUS_Manual_On();
				#endif

				USB_HostState = HOST_STATE_Powered_WaitForConnect;
     9dc:	80 91 9f 00 	lds	r24, 0x009F
					#endif
					#if defined(USB_CAN_BE_HOST)
					case USB_INT_HSOFI:
						return (UHINT  & (1 << HSOFI));
					case USB_INT_DCONNI:
						return (UHINT  & (1 << DCONNI));
     9e0:	80 ff       	sbrs	r24, 0
     9e2:	8e c0       	rjmp	.+284    	; 0xb00 <USB_Host_ProcessNextHostState+0x22e>
			}

			break;
		case HOST_STATE_Powered_WaitForConnect:
			if (USB_INT_HasOccurred(USB_INT_DCONNI))
     9e4:	80 91 9f 00 	lds	r24, 0x009F
					#if defined(USB_CAN_BE_HOST)
					case USB_INT_HSOFI:
						UHINT  &= ~(1 << HSOFI);
						break;
					case USB_INT_DCONNI:
						UHINT  &= ~(1 << DCONNI);
     9e8:	8e 7f       	andi	r24, 0xFE	; 254
     9ea:	80 93 9f 00 	sts	0x009F, r24
     9ee:	80 91 9f 00 	lds	r24, 0x009F
						break;
					case USB_INT_DDISCI:
						UHINT  &= ~(1 << DDISCI);
     9f2:	8d 7f       	andi	r24, 0xFD	; 253
     9f4:	80 93 9f 00 	sts	0x009F, r24
     9f8:	80 91 df 00 	lds	r24, 0x00DF
						break;
					case USB_INT_BCERRI:
						OTGINT &= ~(1 << BCERRI);
						break;
					case USB_INT_VBERRI:
						OTGINT &= ~(1 << VBERRI);
     9fc:	8d 7f       	andi	r24, 0xFD	; 253
     9fe:	80 93 df 00 	sts	0x00DF, r24
     a02:	80 91 de 00 	lds	r24, 0x00DE
						break;
					case USB_INT_BCERRI:
						OTGIEN |= (1 << BCERRE);
						break;
					case USB_INT_VBERRI:
						OTGIEN |= (1 << VBERRE);
     a06:	82 60       	ori	r24, 0x02	; 2
     a08:	80 93 de 00 	sts	0x00DE, r24
     a0c:	80 91 9e 00 	lds	r24, 0x009E
			 *  host and attached device may occur.
			 */
			static inline void USB_Host_ResumeBus(void) ATTR_ALWAYS_INLINE;
			static inline void USB_Host_ResumeBus(void)
			{
				UHCON |=  (1 << SOFEN);
     a10:	81 60       	ori	r24, 0x01	; 1
     a12:	80 93 9e 00 	sts	0x009E, r24
     a16:	e7 d0       	rcall	.+462    	; 0xbe6 <Pipe_ClearPipes>
     a18:	10 92 22 01 	sts	0x0122, r1

				USB_INT_Clear(USB_INT_VBERRI);
				USB_INT_Enable(USB_INT_VBERRI);

				USB_Host_ResumeBus();
				Pipe_ClearPipes();
     a1c:	84 e6       	ldi	r24, 0x64	; 100

				HOST_TASK_NONBLOCK_WAIT(100, HOST_STATE_Powered_DoReset);
     a1e:	90 e0       	ldi	r25, 0x00	; 0
     a20:	90 93 17 01 	sts	0x0117, r25
     a24:	80 93 16 01 	sts	0x0116, r24
     a28:	85 e0       	ldi	r24, 0x05	; 5
     a2a:	0a c0       	rjmp	.+20     	; 0xa40 <USB_Host_ProcessNextHostState+0x16e>
     a2c:	b4 de       	rcall	.-664    	; 0x796 <USB_Host_ResetDevice>
     a2e:	10 92 22 01 	sts	0x0122, r1
			}

			break;
		case HOST_STATE_Powered_DoReset:
			USB_Host_ResetDevice();
     a32:	88 ec       	ldi	r24, 0xC8	; 200
     a34:	90 e0       	ldi	r25, 0x00	; 0

			HOST_TASK_NONBLOCK_WAIT(200, HOST_STATE_Powered_ConfigPipe);
     a36:	90 93 17 01 	sts	0x0117, r25
     a3a:	80 93 16 01 	sts	0x0116, r24
     a3e:	86 e0       	ldi	r24, 0x06	; 6
     a40:	80 93 15 01 	sts	0x0115, r24
     a44:	5d c0       	rjmp	.+186    	; 0xb00 <USB_Host_ProcessNextHostState+0x22e>
     a46:	01 e0       	ldi	r16, 0x01	; 1
     a48:	20 e4       	ldi	r18, 0x40	; 64
     a4a:	30 e0       	ldi	r19, 0x00	; 0
			break;
     a4c:	40 e0       	ldi	r20, 0x00	; 0
		case HOST_STATE_Powered_ConfigPipe:
			if (!(Pipe_ConfigurePipe(PIPE_CONTROLPIPE, EP_TYPE_CONTROL, ENDPOINT_CONTROLEP, PIPE_CONTROLPIPE_DEFAULT_SIZE, 1)))
     a4e:	60 e0       	ldi	r22, 0x00	; 0
     a50:	80 e0       	ldi	r24, 0x00	; 0
     a52:	61 d0       	rcall	.+194    	; 0xb16 <Pipe_ConfigurePipe>
     a54:	81 11       	cpse	r24, r1
     a56:	03 c0       	rjmp	.+6      	; 0xa5e <USB_Host_ProcessNextHostState+0x18c>
     a58:	80 e0       	ldi	r24, 0x00	; 0
     a5a:	94 e0       	ldi	r25, 0x04	; 4
     a5c:	43 c0       	rjmp	.+134    	; 0xae4 <USB_Host_ProcessNextHostState+0x212>
     a5e:	87 e0       	ldi	r24, 0x07	; 7
     a60:	8f cf       	rjmp	.-226    	; 0x980 <USB_Host_ProcessNextHostState+0xae>
			{
				ErrorCode    = HOST_ENUMERROR_PipeConfigError;
				SubErrorCode = 0;
     a62:	88 e0       	ldi	r24, 0x08	; 8
			HOST_TASK_NONBLOCK_WAIT(200, HOST_STATE_Powered_ConfigPipe);
			break;
		case HOST_STATE_Powered_ConfigPipe:
			if (!(Pipe_ConfigurePipe(PIPE_CONTROLPIPE, EP_TYPE_CONTROL, ENDPOINT_CONTROLEP, PIPE_CONTROLPIPE_DEFAULT_SIZE, 1)))
			{
				ErrorCode    = HOST_ENUMERROR_PipeConfigError;
     a64:	e1 e0       	ldi	r30, 0x01	; 1
     a66:	f1 e0       	ldi	r31, 0x01	; 1
				SubErrorCode = 0;
				break;
			}

			USB_HostState = HOST_STATE_Default;
     a68:	aa e1       	ldi	r26, 0x1A	; 26
     a6a:	b1 e0       	ldi	r27, 0x01	; 1
			break;
		case HOST_STATE_Default:
			USB_ControlRequest = (USB_Request_Header_t)
     a6c:	01 90       	ld	r0, Z+
     a6e:	0d 92       	st	X+, r0
     a70:	8a 95       	dec	r24
     a72:	e1 f7       	brne	.-8      	; 0xa6c <USB_Host_ProcessNextHostState+0x19a>
     a74:	10 92 a7 00 	sts	0x00A7, r1
     a78:	ce 01       	movw	r24, r28
     a7a:	01 96       	adiw	r24, 0x01	; 1
     a7c:	ae d2       	rcall	.+1372   	; 0xfda <USB_Host_SendControlRequest>
			 *  \param[in] Address  Address of the pipe to select.
			 */
			static inline void Pipe_SelectPipe(const uint8_t Address) ATTR_ALWAYS_INLINE;
			static inline void Pipe_SelectPipe(const uint8_t Address)
			{
				UPNUM = (Address & PIPE_PIPENUM_MASK);
     a7e:	81 11       	cpse	r24, r1
     a80:	30 c0       	rjmp	.+96     	; 0xae2 <USB_Host_ProcessNextHostState+0x210>
				};

			uint8_t DataBuffer[8];

			Pipe_SelectPipe(PIPE_CONTROLPIPE);
			if ((SubErrorCode = USB_Host_SendControlRequest(DataBuffer)) != HOST_SENDCONTROL_Successful)
     a82:	88 85       	ldd	r24, Y+8	; 0x08
     a84:	80 93 00 01 	sts	0x0100, r24
     a88:	86 de       	rcall	.-756    	; 0x796 <USB_Host_ResetDevice>
     a8a:	10 92 22 01 	sts	0x0122, r1
			{
				ErrorCode = HOST_ENUMERROR_ControlError;
				break;
			}

			USB_Host_ControlPipeSize = DataBuffer[offsetof(USB_Descriptor_Device_t, Endpoint0Size)];
     a8e:	88 ec       	ldi	r24, 0xC8	; 200
     a90:	90 e0       	ldi	r25, 0x00	; 0
     a92:	90 93 17 01 	sts	0x0117, r25

			USB_Host_ResetDevice();
     a96:	80 93 16 01 	sts	0x0116, r24

			HOST_TASK_NONBLOCK_WAIT(200, HOST_STATE_Default_PostReset);
     a9a:	88 e0       	ldi	r24, 0x08	; 8
     a9c:	d1 cf       	rjmp	.-94     	; 0xa40 <USB_Host_ProcessNextHostState+0x16e>
     a9e:	20 91 00 01 	lds	r18, 0x0100
     aa2:	30 e0       	ldi	r19, 0x00	; 0
     aa4:	01 e0       	ldi	r16, 0x01	; 1
     aa6:	40 e0       	ldi	r20, 0x00	; 0
     aa8:	60 e0       	ldi	r22, 0x00	; 0
     aaa:	80 e0       	ldi	r24, 0x00	; 0
			break;
		case HOST_STATE_Default_PostReset:
			if (!(Pipe_ConfigurePipe(PIPE_CONTROLPIPE, EP_TYPE_CONTROL, ENDPOINT_CONTROLEP, USB_Host_ControlPipeSize, 1)))
     aac:	34 d0       	rcall	.+104    	; 0xb16 <Pipe_ConfigurePipe>
     aae:	88 23       	and	r24, r24
     ab0:	99 f2       	breq	.-90     	; 0xa58 <USB_Host_ProcessNextHostState+0x186>
     ab2:	88 e0       	ldi	r24, 0x08	; 8
     ab4:	e9 e0       	ldi	r30, 0x09	; 9
     ab6:	f1 e0       	ldi	r31, 0x01	; 1
     ab8:	aa e1       	ldi	r26, 0x1A	; 26
     aba:	b1 e0       	ldi	r27, 0x01	; 1
     abc:	01 90       	ld	r0, Z+
     abe:	0d 92       	st	X+, r0
     ac0:	8a 95       	dec	r24
				ErrorCode    = HOST_ENUMERROR_PipeConfigError;
				SubErrorCode = 0;
				break;
			}

			USB_ControlRequest = (USB_Request_Header_t)
     ac2:	e1 f7       	brne	.-8      	; 0xabc <USB_Host_ProcessNextHostState+0x1ea>
     ac4:	80 e0       	ldi	r24, 0x00	; 0
     ac6:	90 e0       	ldi	r25, 0x00	; 0
     ac8:	88 d2       	rcall	.+1296   	; 0xfda <USB_Host_SendControlRequest>
     aca:	81 11       	cpse	r24, r1
     acc:	0a c0       	rjmp	.+20     	; 0xae2 <USB_Host_ProcessNextHostState+0x210>
     ace:	10 92 22 01 	sts	0x0122, r1
     ad2:	84 e6       	ldi	r24, 0x64	; 100
					.wValue        = USB_HOST_DEVICEADDRESS,
					.wIndex        = 0,
					.wLength       = 0,
				};

			if ((SubErrorCode = USB_Host_SendControlRequest(NULL)) != HOST_SENDCONTROL_Successful)
     ad4:	90 e0       	ldi	r25, 0x00	; 0
     ad6:	90 93 17 01 	sts	0x0117, r25
     ada:	80 93 16 01 	sts	0x0116, r24
     ade:	89 e0       	ldi	r24, 0x09	; 9
			{
				ErrorCode = HOST_ENUMERROR_ControlError;
				break;
			}

			HOST_TASK_NONBLOCK_WAIT(100, HOST_STATE_Default_PostAddressSet);
     ae0:	af cf       	rjmp	.-162    	; 0xa40 <USB_Host_ProcessNextHostState+0x16e>
     ae2:	93 e0       	ldi	r25, 0x03	; 3
     ae4:	20 91 22 01 	lds	r18, 0x0122
     ae8:	21 30       	cpi	r18, 0x01	; 1
     aea:	51 f0       	breq	.+20     	; 0xb00 <USB_Host_ProcessNextHostState+0x22e>
     aec:	68 2f       	mov	r22, r24
     aee:	89 2f       	mov	r24, r25
     af0:	00 dd       	rcall	.-1536   	; 0x4f2 <EVENT_USB_Host_DeviceEnumerationFailed>
     af2:	80 91 dd 00 	lds	r24, 0x00DD

		default:
			break;
	}

	if ((ErrorCode != HOST_ENUMERROR_NoError) && (USB_HostState != HOST_STATE_Unattached))
     af6:	81 60       	ori	r24, 0x01	; 1
     af8:	80 93 dd 00 	sts	0x00DD, r24
     afc:	5b dc       	rcall	.-1866   	; 0x3b4 <EVENT_USB_Host_DeviceUnattached>
	{
		EVENT_USB_Host_DeviceEnumerationFailed(ErrorCode, SubErrorCode);
     afe:	9f d0       	rcall	.+318    	; 0xc3e <USB_ResetInterface>
     b00:	28 96       	adiw	r28, 0x08	; 8
     b02:	0f b6       	in	r0, 0x3f	; 63
     b04:	f8 94       	cli
			}

			static inline void USB_Host_VBUS_Auto_Off(void) ATTR_ALWAYS_INLINE;
			static inline void USB_Host_VBUS_Auto_Off(void)
			{
				OTGCON |=  (1 << VBUSRQC);
     b06:	de bf       	out	0x3e, r29	; 62
     b08:	0f be       	out	0x3f, r0	; 63
     b0a:	cd bf       	out	0x3d, r28	; 61
     b0c:	df 91       	pop	r29
     b0e:	cf 91       	pop	r28

		USB_Host_VBUS_Auto_Off();

		EVENT_USB_Host_DeviceUnattached();
     b10:	1f 91       	pop	r17
     b12:	0f 91       	pop	r16

		USB_ResetInterface();
     b14:	08 95       	ret

00000b16 <Pipe_ConfigurePipe>:
     b16:	0f 93       	push	r16
	}
}
     b18:	e8 2f       	mov	r30, r24
     b1a:	ef 70       	andi	r30, 0x0F	; 15
     b1c:	87 ff       	sbrs	r24, 7
     b1e:	02 c0       	rjmp	.+4      	; 0xb24 <Pipe_ConfigurePipe+0xe>
     b20:	80 e1       	ldi	r24, 0x10	; 16
     b22:	01 c0       	rjmp	.+2      	; 0xb26 <Pipe_ConfigurePipe+0x10>
     b24:	80 e2       	ldi	r24, 0x20	; 32
     b26:	e7 30       	cpi	r30, 0x07	; 7
     b28:	10 f0       	brcs	.+4      	; 0xb2e <Pipe_ConfigurePipe+0x18>
     b2a:	80 e0       	ldi	r24, 0x00	; 0
     b2c:	5a c0       	rjmp	.+180    	; 0xbe2 <Pipe_ConfigurePipe+0xcc>
	uint8_t Token  = (Address & PIPE_DIR_IN) ? PIPE_TOKEN_IN : PIPE_TOKEN_OUT;

	if (Number >= PIPE_TOTAL_PIPES)
	  return false;

	if (Type == EP_TYPE_CONTROL)
     b2e:	61 11       	cpse	r22, r1
     b30:	01 c0       	rjmp	.+2      	; 0xb34 <Pipe_ConfigurePipe+0x1e>
	  Token = PIPE_TOKEN_SETUP;
     b32:	80 e0       	ldi	r24, 0x00	; 0

		Pipe_SelectPipe(PNum);

		if (PNum == Number)
		{
			UPCFG0XTemp = ((Type << EPTYPE0) | Token | ((EndpointAddress & PIPE_EPNUM_MASK) << PEPNUM0));
     b34:	90 e4       	ldi	r25, 0x40	; 64
     b36:	69 9f       	mul	r22, r25
     b38:	b0 01       	movw	r22, r0
     b3a:	11 24       	eor	r1, r1
     b3c:	4f 70       	andi	r20, 0x0F	; 15
     b3e:	46 2b       	or	r20, r22
     b40:	48 2b       	or	r20, r24
     b42:	5e 2f       	mov	r21, r30
			 *  \param[in] Address  Address of the pipe to select.
			 */
			static inline void Pipe_SelectPipe(const uint8_t Address) ATTR_ALWAYS_INLINE;
			static inline void Pipe_SelectPipe(const uint8_t Address)
			{
				UPNUM = (Address & PIPE_PIPENUM_MASK);
     b44:	50 93 a7 00 	sts	0x00A7, r21
		uint8_t UPCFG2XTemp;
		uint8_t UPIENXTemp;

		Pipe_SelectPipe(PNum);

		if (PNum == Number)
     b48:	5e 13       	cpse	r21, r30
     b4a:	19 c0       	rjmp	.+50     	; 0xb7e <Pipe_ConfigurePipe+0x68>
		{
			UPCFG0XTemp = ((Type << EPTYPE0) | Token | ((EndpointAddress & PIPE_EPNUM_MASK) << PEPNUM0));
			UPCFG1XTemp = ((1 << ALLOC) | ((Banks > 1) ? (1 << EPBK0) : 0) | Pipe_BytesToEPSizeMask(Size));
     b4c:	02 30       	cpi	r16, 0x02	; 2
     b4e:	10 f0       	brcs	.+4      	; 0xb54 <Pipe_ConfigurePipe+0x3e>
     b50:	76 e0       	ldi	r23, 0x06	; 6
     b52:	01 c0       	rjmp	.+2      	; 0xb56 <Pipe_ConfigurePipe+0x40>
     b54:	72 e0       	ldi	r23, 0x02	; 2
		/* Inline Functions: */
			static inline uint8_t Pipe_BytesToEPSizeMask(const uint16_t Bytes) ATTR_WARN_UNUSED_RESULT ATTR_CONST ATTR_ALWAYS_INLINE;
			static inline uint8_t Pipe_BytesToEPSizeMask(const uint16_t Bytes)
			{
				uint8_t  MaskVal    = 0;
				uint16_t CheckBytes = 8;
     b56:	88 e0       	ldi	r24, 0x08	; 8
     b58:	90 e0       	ldi	r25, 0x00	; 0

		/* Inline Functions: */
			static inline uint8_t Pipe_BytesToEPSizeMask(const uint16_t Bytes) ATTR_WARN_UNUSED_RESULT ATTR_CONST ATTR_ALWAYS_INLINE;
			static inline uint8_t Pipe_BytesToEPSizeMask(const uint16_t Bytes)
			{
				uint8_t  MaskVal    = 0;
     b5a:	60 e0       	ldi	r22, 0x00	; 0
				uint16_t CheckBytes = 8;

				while ((CheckBytes < Bytes) && (CheckBytes < PIPE_MAX_SIZE))
     b5c:	82 17       	cp	r24, r18
     b5e:	93 07       	cpc	r25, r19
     b60:	40 f0       	brcs	.+16     	; 0xb72 <Pipe_ConfigurePipe+0x5c>
				{
					MaskVal++;
					CheckBytes <<= 1;
				}

				return (MaskVal << EPSIZE0);
     b62:	86 2f       	mov	r24, r22
     b64:	82 95       	swap	r24
     b66:	80 7f       	andi	r24, 0xF0	; 240
     b68:	87 2b       	or	r24, r23

		Pipe_SelectPipe(PNum);

		if (PNum == Number)
		{
			UPCFG0XTemp = ((Type << EPTYPE0) | Token | ((EndpointAddress & PIPE_EPNUM_MASK) << PEPNUM0));
     b6a:	f4 2f       	mov	r31, r20
			UPCFG1XTemp = ((1 << ALLOC) | ((Banks > 1) ? (1 << EPBK0) : 0) | Pipe_BytesToEPSizeMask(Size));
			UPCFG2XTemp = 0;
			UPIENXTemp  = 0;
     b6c:	60 e0       	ldi	r22, 0x00	; 0

		if (PNum == Number)
		{
			UPCFG0XTemp = ((Type << EPTYPE0) | Token | ((EndpointAddress & PIPE_EPNUM_MASK) << PEPNUM0));
			UPCFG1XTemp = ((1 << ALLOC) | ((Banks > 1) ? (1 << EPBK0) : 0) | Pipe_BytesToEPSizeMask(Size));
			UPCFG2XTemp = 0;
     b6e:	70 e0       	ldi	r23, 0x00	; 0
     b70:	0e c0       	rjmp	.+28     	; 0xb8e <Pipe_ConfigurePipe+0x78>
			static inline uint8_t Pipe_BytesToEPSizeMask(const uint16_t Bytes)
			{
				uint8_t  MaskVal    = 0;
				uint16_t CheckBytes = 8;

				while ((CheckBytes < Bytes) && (CheckBytes < PIPE_MAX_SIZE))
     b72:	65 30       	cpi	r22, 0x05	; 5
     b74:	b1 f3       	breq	.-20     	; 0xb62 <Pipe_ConfigurePipe+0x4c>
				{
					MaskVal++;
     b76:	6f 5f       	subi	r22, 0xFF	; 255
					CheckBytes <<= 1;
     b78:	88 0f       	add	r24, r24
     b7a:	99 1f       	adc	r25, r25
     b7c:	ef cf       	rjmp	.-34     	; 0xb5c <Pipe_ConfigurePipe+0x46>
			UPIENXTemp  = 0;
		}
		else
		{
			UPCFG0XTemp = UPCFG0X;
     b7e:	f0 91 aa 00 	lds	r31, 0x00AA
			UPCFG1XTemp = UPCFG1X;
     b82:	80 91 ab 00 	lds	r24, 0x00AB
			UPCFG2XTemp = UPCFG2X;
     b86:	70 91 ad 00 	lds	r23, 0x00AD
			UPIENXTemp  = UPIENX;
     b8a:	60 91 ae 00 	lds	r22, 0x00AE
		}

		if (!(UPCFG1XTemp & (1 << ALLOC)))
     b8e:	81 fd       	sbrc	r24, 1
     b90:	07 c0       	rjmp	.+14     	; 0xba0 <Pipe_ConfigurePipe+0x8a>

	Pipe_SetInfiniteINRequests();

	return Pipe_IsConfigured();
#else
	for (uint8_t PNum = Number; PNum < PIPE_TOTAL_PIPES; PNum++)
     b92:	5f 5f       	subi	r21, 0xFF	; 255
     b94:	57 30       	cpi	r21, 0x07	; 7
     b96:	b1 f6       	brne	.-84     	; 0xb44 <Pipe_ConfigurePipe+0x2e>
			 *  \param[in] Address  Address of the pipe to select.
			 */
			static inline void Pipe_SelectPipe(const uint8_t Address) ATTR_ALWAYS_INLINE;
			static inline void Pipe_SelectPipe(const uint8_t Address)
			{
				UPNUM = (Address & PIPE_PIPENUM_MASK);
     b98:	e0 93 a7 00 	sts	0x00A7, r30
		if (!(Pipe_IsConfigured()))
		  return false;
	}

	Pipe_SelectPipe(Number);
	return true;
     b9c:	81 e0       	ldi	r24, 0x01	; 1
     b9e:	21 c0       	rjmp	.+66     	; 0xbe2 <Pipe_ConfigurePipe+0xcc>
			 *  from an attached device.
			 */
			static inline void Pipe_DisablePipe(void) ATTR_ALWAYS_INLINE;
			static inline void Pipe_DisablePipe(void)
			{
				UPCONX &= ~(1 << PEN);
     ba0:	90 91 a9 00 	lds	r25, 0x00A9
     ba4:	9e 7f       	andi	r25, 0xFE	; 254
     ba6:	90 93 a9 00 	sts	0x00A9, r25

		if (!(UPCFG1XTemp & (1 << ALLOC)))
		  continue;

		Pipe_DisablePipe();
		UPCFG1X &= ~(1 << ALLOC);
     baa:	90 91 ab 00 	lds	r25, 0x00AB
     bae:	9d 7f       	andi	r25, 0xFD	; 253
     bb0:	90 93 ab 00 	sts	0x00AB, r25
			 *  \pre The currently selected pipe must first be configured properly via \ref Pipe_ConfigurePipe().
			 */
			static inline void Pipe_EnablePipe(void) ATTR_ALWAYS_INLINE;
			static inline void Pipe_EnablePipe(void)
			{
				UPCONX |= (1 << PEN);
     bb4:	90 91 a9 00 	lds	r25, 0x00A9
     bb8:	91 60       	ori	r25, 0x01	; 1
     bba:	90 93 a9 00 	sts	0x00A9, r25

		Pipe_EnablePipe();
		UPCFG0X = UPCFG0XTemp;
     bbe:	f0 93 aa 00 	sts	0x00AA, r31
		UPCFG1X = UPCFG1XTemp;
     bc2:	80 93 ab 00 	sts	0x00AB, r24
		UPCFG2X = UPCFG2XTemp;
     bc6:	70 93 ad 00 	sts	0x00AD, r23
		UPIENX  = UPIENXTemp;
     bca:	60 93 ae 00 	sts	0x00AE, r22

			/** Configures the currently selected pipe to allow for an unlimited number of IN requests. */
			static inline void Pipe_SetInfiniteINRequests(void) ATTR_ALWAYS_INLINE;
			static inline void Pipe_SetInfiniteINRequests(void)
			{
				UPCONX |= (1 << INMODE);
     bce:	80 91 a9 00 	lds	r24, 0x00A9
     bd2:	80 62       	ori	r24, 0x20	; 32
     bd4:	80 93 a9 00 	sts	0x00A9, r24
			 *  \return Boolean \c true if the selected pipe is configured, \c false otherwise.
			 */
			static inline bool Pipe_IsConfigured(void) ATTR_WARN_UNUSED_RESULT ATTR_ALWAYS_INLINE;
			static inline bool Pipe_IsConfigured(void)
			{
				return ((UPSTAX & (1 << CFGOK)) ? true : false);
     bd8:	80 91 ac 00 	lds	r24, 0x00AC

		Pipe_SetInfiniteINRequests();

		if (!(Pipe_IsConfigured()))
     bdc:	87 fd       	sbrc	r24, 7
     bde:	d9 cf       	rjmp	.-78     	; 0xb92 <Pipe_ConfigurePipe+0x7c>
     be0:	a4 cf       	rjmp	.-184    	; 0xb2a <Pipe_ConfigurePipe+0x14>
	}

	Pipe_SelectPipe(Number);
	return true;
#endif
}
     be2:	0f 91       	pop	r16
     be4:	08 95       	ret

00000be6 <Pipe_ClearPipes>:

void Pipe_ClearPipes(void)
{
	UPINT = 0;
     be6:	10 92 f8 00 	sts	0x00F8, r1

	for (uint8_t PNum = 0; PNum < PIPE_TOTAL_PIPES; PNum++)
     bea:	80 e0       	ldi	r24, 0x00	; 0
			 *  \param[in] Address  Address of the pipe to select.
			 */
			static inline void Pipe_SelectPipe(const uint8_t Address) ATTR_ALWAYS_INLINE;
			static inline void Pipe_SelectPipe(const uint8_t Address)
			{
				UPNUM = (Address & PIPE_PIPENUM_MASK);
     bec:	80 93 a7 00 	sts	0x00A7, r24
	{
		Pipe_SelectPipe(PNum);
		UPIENX  = 0;
     bf0:	10 92 ae 00 	sts	0x00AE, r1
		UPINTX  = 0;
     bf4:	10 92 a6 00 	sts	0x00A6, r1
		UPCFG1X = 0;
     bf8:	10 92 ab 00 	sts	0x00AB, r1
			 *  from an attached device.
			 */
			static inline void Pipe_DisablePipe(void) ATTR_ALWAYS_INLINE;
			static inline void Pipe_DisablePipe(void)
			{
				UPCONX &= ~(1 << PEN);
     bfc:	90 91 a9 00 	lds	r25, 0x00A9
     c00:	9e 7f       	andi	r25, 0xFE	; 254
     c02:	90 93 a9 00 	sts	0x00A9, r25

void Pipe_ClearPipes(void)
{
	UPINT = 0;

	for (uint8_t PNum = 0; PNum < PIPE_TOTAL_PIPES; PNum++)
     c06:	8f 5f       	subi	r24, 0xFF	; 255
     c08:	87 30       	cpi	r24, 0x07	; 7
     c0a:	81 f7       	brne	.-32     	; 0xbec <Pipe_ClearPipes+0x6>
		UPIENX  = 0;
		UPINTX  = 0;
		UPCFG1X = 0;
		Pipe_DisablePipe();
	}
}
     c0c:	08 95       	ret

00000c0e <USB_Disable>:
	USB_ResetInterface();
}

void USB_Disable(void)
{
	USB_INT_DisableAllInterrupts();
     c0e:	75 d0       	rcall	.+234    	; 0xcfa <USB_INT_DisableAllInterrupts>
     c10:	7c d0       	rcall	.+248    	; 0xd0a <USB_INT_ClearAllInterrupts>
	USB_INT_ClearAllInterrupts();
     c12:	e0 ee       	ldi	r30, 0xE0	; 224
     c14:	f0 e0       	ldi	r31, 0x00	; 0
			 *  enumerating the device once attached until \ref USB_Attach() is called.
			 */
			static inline void USB_Detach(void) ATTR_ALWAYS_INLINE;
			static inline void USB_Detach(void)
			{
				UDCON  |=  (1 << DETACH);
     c16:	80 81       	ld	r24, Z
     c18:	81 60       	ori	r24, 0x01	; 1
     c1a:	80 83       	st	Z, r24
     c1c:	e8 ed       	ldi	r30, 0xD8	; 216
     c1e:	f0 e0       	ldi	r31, 0x00	; 0
			}

			static inline void USB_Controller_Disable(void) ATTR_ALWAYS_INLINE;
			static inline void USB_Controller_Disable(void)
			{
				USBCON &= ~(1 << USBE);
     c20:	80 81       	ld	r24, Z
     c22:	8f 77       	andi	r24, 0x7F	; 127
     c24:	80 83       	st	Z, r24
     c26:	19 bc       	out	0x29, r1	; 41
     c28:	a7 ed       	ldi	r26, 0xD7	; 215
			}

			static inline void USB_PLL_Off(void) ATTR_ALWAYS_INLINE;
			static inline void USB_PLL_Off(void)
			{
				PLLCSR = 0;
     c2a:	b0 e0       	ldi	r27, 0x00	; 0

			static inline void USB_REG_Off(void) ATTR_ALWAYS_INLINE;
			static inline void USB_REG_Off(void)
			{
			#if defined(USB_SERIES_4_AVR) || defined(USB_SERIES_6_AVR) || defined(USB_SERIES_7_AVR)
				UHWCON &= ~(1 << UVREGE);
     c2c:	8c 91       	ld	r24, X
     c2e:	8e 7f       	andi	r24, 0xFE	; 254
     c30:	8c 93       	st	X, r24
     c32:	80 81       	ld	r24, Z
     c34:	8f 7e       	andi	r24, 0xEF	; 239
			}

			static inline void USB_OTGPAD_Off(void) ATTR_ALWAYS_INLINE;
			static inline void USB_OTGPAD_Off(void)
			{
				USBCON &= ~(1 << OTGPADE);
     c36:	80 83       	st	Z, r24
     c38:	10 92 19 01 	sts	0x0119, r1

	#if defined(USB_CAN_BE_BOTH)
	USB_CurrentMode = USB_MODE_None;
	#endif

	USB_IsInitialized = false;
     c3c:	08 95       	ret

00000c3e <USB_ResetInterface>:
     c3e:	5d d0       	rcall	.+186    	; 0xcfa <USB_INT_DisableAllInterrupts>
     c40:	64 d0       	rcall	.+200    	; 0xd0a <USB_INT_ClearAllInterrupts>
	#if defined(USB_CAN_BE_BOTH)
	bool UIDModeSelectEnabled = ((UHWCON & (1 << UIDE)) != 0);
	#endif

	USB_INT_DisableAllInterrupts();
	USB_INT_ClearAllInterrupts();
     c42:	80 91 d8 00 	lds	r24, 0x00D8
			}

			static inline void USB_Controller_Reset(void) ATTR_ALWAYS_INLINE;
			static inline void USB_Controller_Reset(void)
			{
				USBCON &= ~(1 << USBE);
     c46:	8f 77       	andi	r24, 0x7F	; 127
     c48:	80 93 d8 00 	sts	0x00D8, r24
     c4c:	80 91 d8 00 	lds	r24, 0x00D8
				USBCON |=  (1 << USBE);
     c50:	80 68       	ori	r24, 0x80	; 128
     c52:	80 93 d8 00 	sts	0x00D8, r24
     c56:	80 91 d8 00 	lds	r24, 0x00D8
			}

			static inline void USB_CLK_Unfreeze(void) ATTR_ALWAYS_INLINE;
			static inline void USB_CLK_Unfreeze(void)
			{
				USBCON &= ~(1 << FRZCLK);
     c5a:	8f 7d       	andi	r24, 0xDF	; 223
     c5c:	80 93 d8 00 	sts	0x00D8, r24
     c60:	80 91 d7 00 	lds	r24, 0x00D7
		#endif
	}
	else if (USB_CurrentMode == USB_MODE_Host)
	{
		#if defined(USB_CAN_BE_HOST)
		UHWCON &= ~(1 << UIMOD);
     c64:	8f 77       	andi	r24, 0x7F	; 127
     c66:	80 93 d7 00 	sts	0x00D7, r24
     c6a:	8c e0       	ldi	r24, 0x0C	; 12
     c6c:	89 bd       	out	0x29, r24	; 41

		/* Inline Functions: */
			static inline void USB_PLL_On(void) ATTR_ALWAYS_INLINE;
			static inline void USB_PLL_On(void)
			{
				PLLCSR = USB_PLL_PSC;
     c6e:	8e e0       	ldi	r24, 0x0E	; 14
     c70:	89 bd       	out	0x29, r24	; 41
				PLLCSR = (USB_PLL_PSC | (1 << PLLE));
     c72:	09 b4       	in	r0, 0x29	; 41
     c74:	00 fe       	sbrs	r0, 0

		if (!(USB_Options & USB_OPT_MANUAL_PLL))
		{
			#if defined(USB_CAN_BE_HOST)
			USB_PLL_On();
			while (!(USB_PLL_IsReady()));
     c76:	fd cf       	rjmp	.-6      	; 0xc72 <USB_ResetInterface+0x34>
     c78:	81 e0       	ldi	r24, 0x01	; 1
     c7a:	80 93 22 01 	sts	0x0122, r24
#endif

#if defined(USB_CAN_BE_HOST)
static void USB_Init_Host(void)
{
	USB_HostState                = HOST_STATE_Unattached;
     c7e:	10 92 18 01 	sts	0x0118, r1
	USB_Host_ConfigurationNumber = 0;
     c82:	80 e4       	ldi	r24, 0x40	; 64
     c84:	80 93 00 01 	sts	0x0100, r24
	USB_Host_ControlPipeSize     = PIPE_CONTROLPIPE_DEFAULT_SIZE;
     c88:	80 91 d8 00 	lds	r24, 0x00D8
	#if !defined(__DOXYGEN__)
		/* Macros: */
			static inline void USB_Host_HostMode_On(void) ATTR_ALWAYS_INLINE;
			static inline void USB_Host_HostMode_On(void)
			{
				USBCON |=  (1 << HOST);
     c8c:	80 64       	ori	r24, 0x40	; 64
     c8e:	80 93 d8 00 	sts	0x00D8, r24
     c92:	80 91 dd 00 	lds	r24, 0x00DD
			}

			static inline void USB_Host_VBUS_Auto_Off(void) ATTR_ALWAYS_INLINE;
			static inline void USB_Host_VBUS_Auto_Off(void)
			{
				OTGCON |=  (1 << VBUSRQC);
     c96:	81 60       	ori	r24, 0x01	; 1
     c98:	80 93 dd 00 	sts	0x00DD, r24
     c9c:	80 91 dd 00 	lds	r24, 0x00DD
			}

			static inline void USB_Host_VBUS_Manual_Enable(void) ATTR_ALWAYS_INLINE;
			static inline void USB_Host_VBUS_Manual_Enable(void)
			{
				OTGCON |=  (1 << VBUSHWC);
     ca0:	84 60       	ori	r24, 0x04	; 4
     ca2:	80 93 dd 00 	sts	0x00DD, r24
     ca6:	80 91 d7 00 	lds	r24, 0x00D7
				UHWCON &= ~(1 << UVCONE);
     caa:	8f 7e       	andi	r24, 0xEF	; 239
     cac:	80 93 d7 00 	sts	0x00D7, r24
     cb0:	6f 9a       	sbi	0x0d, 7	; 13
     cb2:	77 9a       	sbi	0x0e, 7	; 14

				DDRE   |=  (1 << 7);
     cb4:	80 91 de 00 	lds	r24, 0x00DE
						break;
					case USB_INT_VBERRI:
						OTGIEN |= (1 << VBERRE);
						break;
					case USB_INT_SRPI:
						OTGIEN |= (1 << SRPE);
     cb8:	81 60       	ori	r24, 0x01	; 1
     cba:	80 93 de 00 	sts	0x00DE, r24
     cbe:	80 91 de 00 	lds	r24, 0x00DE
						break;
					case USB_INT_RSTI:
						UHIEN  |= (1 << RSTE);
						break;
					case USB_INT_BCERRI:
						OTGIEN |= (1 << BCERRE);
     cc2:	84 60       	ori	r24, 0x04	; 4
     cc4:	80 93 de 00 	sts	0x00DE, r24
     cc8:	80 91 e0 00 	lds	r24, 0x00E0
			 *  register and despite the datasheet making no mention of its requirement in host mode.
			 */
			static inline void USB_Attach(void) ATTR_ALWAYS_INLINE;
			static inline void USB_Attach(void)
			{
				UDCON  &= ~(1 << DETACH);
     ccc:	8e 7f       	andi	r24, 0xFE	; 254
     cce:	80 93 e0 00 	sts	0x00E0, r24
     cd2:	80 91 d8 00 	lds	r24, 0x00D8

			#if defined(USB_SERIES_4_AVR) || defined(USB_SERIES_6_AVR) || defined(USB_SERIES_7_AVR)
			static inline void USB_OTGPAD_On(void) ATTR_ALWAYS_INLINE;
			static inline void USB_OTGPAD_On(void)
			{
				USBCON |=  (1 << OTGPADE);
     cd6:	80 61       	ori	r24, 0x10	; 16
     cd8:	80 93 d8 00 	sts	0x00D8, r24
     cdc:	08 95       	ret

00000cde <USB_Init>:
     cde:	e8 ed       	ldi	r30, 0xD8	; 216
     ce0:	f0 e0       	ldi	r31, 0x00	; 0
			}

			static inline void USB_OTGPAD_Off(void) ATTR_ALWAYS_INLINE;
			static inline void USB_OTGPAD_Off(void)
			{
				USBCON &= ~(1 << OTGPADE);
     ce2:	80 81       	ld	r24, Z
     ce4:	8f 7e       	andi	r24, 0xEF	; 239
     ce6:	80 83       	st	Z, r24

			static inline void USB_REG_On(void) ATTR_ALWAYS_INLINE;
			static inline void USB_REG_On(void)
			{
			#if defined(USB_SERIES_4_AVR) || defined(USB_SERIES_6_AVR) || defined(USB_SERIES_7_AVR)
				UHWCON |=  (1 << UVREGE);
     ce8:	e7 ed       	ldi	r30, 0xD7	; 215
     cea:	f0 e0       	ldi	r31, 0x00	; 0
     cec:	80 81       	ld	r24, Z
     cee:	81 60       	ori	r24, 0x01	; 1
     cf0:	80 83       	st	Z, r24
		UHWCON &= ~(1 << UIDE);
		USB_CurrentMode = Mode;
	}
	#endif

	USB_IsInitialized = true;
     cf2:	81 e0       	ldi	r24, 0x01	; 1
     cf4:	80 93 19 01 	sts	0x0119, r24

	USB_ResetInterface();
     cf8:	a2 cf       	rjmp	.-188    	; 0xc3e <USB_ResetInterface>

00000cfa <USB_INT_DisableAllInterrupts>:
     cfa:	e8 ed       	ldi	r30, 0xD8	; 216
#include "../USBInterrupt.h"

void USB_INT_DisableAllInterrupts(void)
{
	#if defined(USB_SERIES_6_AVR) || defined(USB_SERIES_7_AVR)
	USBCON &= ~((1 << VBUSTE) | (1 << IDTE));
     cfc:	f0 e0       	ldi	r31, 0x00	; 0
     cfe:	80 81       	ld	r24, Z
     d00:	8c 7f       	andi	r24, 0xFC	; 252
     d02:	80 83       	st	Z, r24
	#if defined(USB_CAN_BE_BOTH)
	OTGIEN  = 0;
	#endif

	#if defined(USB_CAN_BE_HOST)
	UHIEN   = 0;
     d04:	10 92 a0 00 	sts	0x00A0, r1
     d08:	08 95       	ret

00000d0a <USB_INT_ClearAllInterrupts>:
}

void USB_INT_ClearAllInterrupts(void)
{
	#if defined(USB_SERIES_4_AVR) || defined(USB_SERIES_6_AVR) || defined(USB_SERIES_7_AVR)
	USBINT = 0;
     d0a:	10 92 da 00 	sts	0x00DA, r1
	#if defined(USB_CAN_BE_BOTH)
	OTGINT = 0;
	#endif

	#if defined(USB_CAN_BE_HOST)
	UHINT  = 0;
     d0e:	10 92 9f 00 	sts	0x009F, r1
     d12:	08 95       	ret

00000d14 <__vector_10>:
	UDINT  = 0;
	#endif
}

ISR(USB_GEN_vect, ISR_BLOCK)
{
     d14:	1f 92       	push	r1
     d16:	0f 92       	push	r0
     d18:	0f b6       	in	r0, 0x3f	; 63
     d1a:	0f 92       	push	r0
     d1c:	11 24       	eor	r1, r1
     d1e:	0b b6       	in	r0, 0x3b	; 59
     d20:	0f 92       	push	r0
     d22:	2f 93       	push	r18
     d24:	3f 93       	push	r19
     d26:	4f 93       	push	r20
     d28:	5f 93       	push	r21
     d2a:	6f 93       	push	r22
     d2c:	7f 93       	push	r23
     d2e:	8f 93       	push	r24
     d30:	9f 93       	push	r25
     d32:	af 93       	push	r26
     d34:	bf 93       	push	r27
     d36:	ef 93       	push	r30
     d38:	ff 93       	push	r31
					case USB_INT_RXSTPI:
						return (UEINTX & (1 << RXSTPI));
					#endif
					#if defined(USB_CAN_BE_HOST)
					case USB_INT_HSOFI:
						return (UHINT  & (1 << HSOFI));
     d3a:	80 91 9f 00 	lds	r24, 0x009F
	}
	#endif

	#if defined(USB_CAN_BE_HOST)
	#if !defined(NO_SOF_EVENTS)
	if (USB_INT_HasOccurred(USB_INT_HSOFI) && USB_INT_IsEnabled(USB_INT_HSOFI))
     d3e:	85 ff       	sbrs	r24, 5
     d40:	0a c0       	rjmp	.+20     	; 0xd56 <__vector_10+0x42>
					case USB_INT_RXSTPI:
						return (UEIENX & (1 << RXSTPE));
					#endif
					#if defined(USB_CAN_BE_HOST)
					case USB_INT_HSOFI:
						return (UHIEN  & (1 << HSOFE));
     d42:	80 91 a0 00 	lds	r24, 0x00A0
     d46:	85 ff       	sbrs	r24, 5
     d48:	06 c0       	rjmp	.+12     	; 0xd56 <__vector_10+0x42>
						UEINTX &= ~(1 << RXSTPI);
						break;
					#endif
					#if defined(USB_CAN_BE_HOST)
					case USB_INT_HSOFI:
						UHINT  &= ~(1 << HSOFI);
     d4a:	80 91 9f 00 	lds	r24, 0x009F
     d4e:	8f 7d       	andi	r24, 0xDF	; 223
     d50:	80 93 9f 00 	sts	0x009F, r24
	{
		USB_INT_Clear(USB_INT_HSOFI);

		EVENT_USB_Host_StartOfFrame();
     d54:	1a d1       	rcall	.+564    	; 0xf8a <USB_Event_Stub>
     d56:	80 91 9f 00 	lds	r24, 0x009F
					case USB_INT_HSOFI:
						return (UHINT  & (1 << HSOFI));
					case USB_INT_DCONNI:
						return (UHINT  & (1 << DCONNI));
					case USB_INT_DDISCI:
						return (UHINT  & (1 << DDISCI));
     d5a:	81 ff       	sbrs	r24, 1
	}
	#endif

	if (USB_INT_HasOccurred(USB_INT_DDISCI) && USB_INT_IsEnabled(USB_INT_DDISCI))
     d5c:	15 c0       	rjmp	.+42     	; 0xd88 <__vector_10+0x74>
     d5e:	80 91 a0 00 	lds	r24, 0x00A0
					case USB_INT_HSOFI:
						return (UHIEN  & (1 << HSOFE));
					case USB_INT_DCONNI:
						return (UHIEN  & (1 << DCONNE));
					case USB_INT_DDISCI:
						return (UHIEN  & (1 << DDISCE));
     d62:	81 ff       	sbrs	r24, 1
     d64:	11 c0       	rjmp	.+34     	; 0xd88 <__vector_10+0x74>
     d66:	80 91 9f 00 	lds	r24, 0x009F
						break;
					case USB_INT_DCONNI:
						UHINT  &= ~(1 << DCONNI);
						break;
					case USB_INT_DDISCI:
						UHINT  &= ~(1 << DDISCI);
     d6a:	8d 7f       	andi	r24, 0xFD	; 253
     d6c:	80 93 9f 00 	sts	0x009F, r24
     d70:	80 91 9f 00 	lds	r24, 0x009F
					#if defined(USB_CAN_BE_HOST)
					case USB_INT_HSOFI:
						UHINT  &= ~(1 << HSOFI);
						break;
					case USB_INT_DCONNI:
						UHINT  &= ~(1 << DCONNI);
     d74:	8e 7f       	andi	r24, 0xFE	; 254
     d76:	80 93 9f 00 	sts	0x009F, r24
     d7a:	80 91 a0 00 	lds	r24, 0x00A0
						break;
					case USB_INT_DCONNI:
						UHIEN  &= ~(1 << DCONNE);
						break;
					case USB_INT_DDISCI:
						UHIEN  &= ~(1 << DDISCE);
     d7e:	8d 7f       	andi	r24, 0xFD	; 253
     d80:	80 93 a0 00 	sts	0x00A0, r24
     d84:	17 db       	rcall	.-2514   	; 0x3b4 <EVENT_USB_Host_DeviceUnattached>
	{
		USB_INT_Clear(USB_INT_DDISCI);
		USB_INT_Clear(USB_INT_DCONNI);
		USB_INT_Disable(USB_INT_DDISCI);

		EVENT_USB_Host_DeviceUnattached();
     d86:	5b df       	rcall	.-330    	; 0xc3e <USB_ResetInterface>
     d88:	80 91 df 00 	lds	r24, 0x00DF

		USB_ResetInterface();
     d8c:	81 ff       	sbrs	r24, 1
					case USB_INT_RSTI:
						return (UHINT  & (1 << RSTI));
					case USB_INT_BCERRI:
						return (OTGINT & (1 << BCERRI));
					case USB_INT_VBERRI:
						return (OTGINT & (1 << VBERRI));
     d8e:	15 c0       	rjmp	.+42     	; 0xdba <__vector_10+0xa6>
     d90:	80 91 de 00 	lds	r24, 0x00DE
	}

	if (USB_INT_HasOccurred(USB_INT_VBERRI) && USB_INT_IsEnabled(USB_INT_VBERRI))
     d94:	81 ff       	sbrs	r24, 1
					case USB_INT_RSTI:
						return (UHIEN  & (1 << RSTE));
					case USB_INT_BCERRI:
						return (OTGIEN & (1 << BCERRE));
					case USB_INT_VBERRI:
						return (OTGIEN & (1 << VBERRE));
     d96:	11 c0       	rjmp	.+34     	; 0xdba <__vector_10+0xa6>
     d98:	80 91 df 00 	lds	r24, 0x00DF
     d9c:	8d 7f       	andi	r24, 0xFD	; 253
						break;
					case USB_INT_BCERRI:
						OTGINT &= ~(1 << BCERRI);
						break;
					case USB_INT_VBERRI:
						OTGINT &= ~(1 << VBERRI);
     d9e:	80 93 df 00 	sts	0x00DF, r24
     da2:	77 98       	cbi	0x0e, 7	; 14
     da4:	80 91 dd 00 	lds	r24, 0x00DD
			static inline void USB_Host_VBUS_Manual_Off(void)
			{
				#if defined(INVERTED_VBUS_ENABLE_LINE)
				PORTE  |=  (1 << 7);
				#else
				PORTE  &= ~(1 << 7);
     da8:	81 60       	ori	r24, 0x01	; 1
			}

			static inline void USB_Host_VBUS_Auto_Off(void) ATTR_ALWAYS_INLINE;
			static inline void USB_Host_VBUS_Auto_Off(void)
			{
				OTGCON |=  (1 << VBUSRQC);
     daa:	80 93 dd 00 	sts	0x00DD, r24
     dae:	80 e0       	ldi	r24, 0x00	; 0
     db0:	8a db       	rcall	.-2284   	; 0x4c6 <EVENT_USB_Host_HostError>
     db2:	00 db       	rcall	.-2560   	; 0x3b4 <EVENT_USB_Host_DeviceUnattached>
		USB_INT_Clear(USB_INT_VBERRI);

		USB_Host_VBUS_Manual_Off();
		USB_Host_VBUS_Auto_Off();

		EVENT_USB_Host_HostError(HOST_ERROR_VBusVoltageDip);
     db4:	81 e0       	ldi	r24, 0x01	; 1
     db6:	80 93 22 01 	sts	0x0122, r24
		EVENT_USB_Host_DeviceUnattached();
     dba:	80 91 df 00 	lds	r24, 0x00DF

		USB_HostState = HOST_STATE_Unattached;
     dbe:	80 ff       	sbrs	r24, 0
     dc0:	17 c0       	rjmp	.+46     	; 0xdf0 <__vector_10+0xdc>
     dc2:	80 91 de 00 	lds	r24, 0x00DE
					case USB_INT_BCERRI:
						return (OTGINT & (1 << BCERRI));
					case USB_INT_VBERRI:
						return (OTGINT & (1 << VBERRI));
					case USB_INT_SRPI:
						return (OTGINT & (1 << SRPI));
     dc6:	80 ff       	sbrs	r24, 0
	}

	if (USB_INT_HasOccurred(USB_INT_SRPI) && USB_INT_IsEnabled(USB_INT_SRPI))
     dc8:	13 c0       	rjmp	.+38     	; 0xdf0 <__vector_10+0xdc>
     dca:	80 91 df 00 	lds	r24, 0x00DF
					case USB_INT_BCERRI:
						return (OTGIEN & (1 << BCERRE));
					case USB_INT_VBERRI:
						return (OTGIEN & (1 << VBERRE));
					case USB_INT_SRPI:
						return (OTGIEN & (1 << SRPE));
     dce:	8e 7f       	andi	r24, 0xFE	; 254
     dd0:	80 93 df 00 	sts	0x00DF, r24
						break;
					case USB_INT_VBERRI:
						OTGINT &= ~(1 << VBERRI);
						break;
					case USB_INT_SRPI:
						OTGINT &= ~(1 << SRPI);
     dd4:	80 91 de 00 	lds	r24, 0x00DE
     dd8:	8e 7f       	andi	r24, 0xFE	; 254
     dda:	80 93 de 00 	sts	0x00DE, r24
						break;
					case USB_INT_VBERRI:
						OTGIEN &= ~(1 << VBERRE);
						break;
					case USB_INT_SRPI:
						OTGIEN &= ~(1 << SRPE);
     dde:	e5 da       	rcall	.-2614   	; 0x3aa <EVENT_USB_Host_DeviceAttached>
     de0:	80 91 a0 00 	lds	r24, 0x00A0
     de4:	82 60       	ori	r24, 0x02	; 2
     de6:	80 93 a0 00 	sts	0x00A0, r24
	{
		USB_INT_Clear(USB_INT_SRPI);
		USB_INT_Disable(USB_INT_SRPI);

		EVENT_USB_Host_DeviceAttached();
     dea:	82 e0       	ldi	r24, 0x02	; 2
						break;
					case USB_INT_DCONNI:
						UHIEN  |= (1 << DCONNE);
						break;
					case USB_INT_DDISCI:
						UHIEN  |= (1 << DDISCE);
     dec:	80 93 22 01 	sts	0x0122, r24
     df0:	80 91 df 00 	lds	r24, 0x00DF
     df4:	82 ff       	sbrs	r24, 2

		USB_INT_Enable(USB_INT_DDISCI);

		USB_HostState = HOST_STATE_Powered;
     df6:	0e c0       	rjmp	.+28     	; 0xe14 <__vector_10+0x100>
     df8:	80 91 de 00 	lds	r24, 0x00DE
					case USB_INT_DDISCI:
						return (UHINT  & (1 << DDISCI));
					case USB_INT_RSTI:
						return (UHINT  & (1 << RSTI));
					case USB_INT_BCERRI:
						return (OTGINT & (1 << BCERRI));
     dfc:	82 ff       	sbrs	r24, 2
     dfe:	0a c0       	rjmp	.+20     	; 0xe14 <__vector_10+0x100>
	}

	if (USB_INT_HasOccurred(USB_INT_BCERRI) && USB_INT_IsEnabled(USB_INT_BCERRI))
     e00:	80 91 df 00 	lds	r24, 0x00DF
					case USB_INT_DDISCI:
						return (UHIEN  & (1 << DDISCE));
					case USB_INT_RSTI:
						return (UHIEN  & (1 << RSTE));
					case USB_INT_BCERRI:
						return (OTGIEN & (1 << BCERRE));
     e04:	8b 7f       	andi	r24, 0xFB	; 251
     e06:	80 93 df 00 	sts	0x00DF, r24
     e0a:	60 e0       	ldi	r22, 0x00	; 0
						break;
					case USB_INT_RSTI:
						UHINT  &= ~(1 << RSTI);
						break;
					case USB_INT_BCERRI:
						OTGINT &= ~(1 << BCERRI);
     e0c:	82 e0       	ldi	r24, 0x02	; 2
     e0e:	71 db       	rcall	.-2334   	; 0x4f2 <EVENT_USB_Host_DeviceEnumerationFailed>
     e10:	d1 da       	rcall	.-2654   	; 0x3b4 <EVENT_USB_Host_DeviceUnattached>
     e12:	15 df       	rcall	.-470    	; 0xc3e <USB_ResetInterface>
     e14:	ff 91       	pop	r31
	{
		USB_INT_Clear(USB_INT_BCERRI);

		EVENT_USB_Host_DeviceEnumerationFailed(HOST_ENUMERROR_NoDeviceDetected, 0);
     e16:	ef 91       	pop	r30
     e18:	bf 91       	pop	r27
     e1a:	af 91       	pop	r26
     e1c:	9f 91       	pop	r25
		EVENT_USB_Host_DeviceUnattached();
     e1e:	8f 91       	pop	r24
     e20:	7f 91       	pop	r23

		USB_ResetInterface();
     e22:	6f 91       	pop	r22
     e24:	5f 91       	pop	r21
		USB_ResetInterface();

		EVENT_USB_UIDChange();
	}
	#endif
}
     e26:	4f 91       	pop	r20
     e28:	3f 91       	pop	r19
     e2a:	2f 91       	pop	r18
     e2c:	0f 90       	pop	r0
     e2e:	0b be       	out	0x3b, r0	; 59
     e30:	0f 90       	pop	r0
     e32:	0f be       	out	0x3f, r0	; 63
     e34:	0f 90       	pop	r0
     e36:	1f 90       	pop	r1
     e38:	18 95       	reti

00000e3a <USB_GetNextDescriptor>:
     e3a:	cf 93       	push	r28
     e3c:	df 93       	push	r29
     e3e:	fc 01       	movw	r30, r24
     e40:	eb 01       	movw	r28, r22
     e42:	a8 81       	ld	r26, Y
     e44:	b9 81       	ldd	r27, Y+1	; 0x01
     e46:	8c 91       	ld	r24, X
     e48:	90 e0       	ldi	r25, 0x00	; 0
     e4a:	20 81       	ld	r18, Z
			static inline void USB_GetNextDescriptor(uint16_t* const BytesRem,
			                                         void** CurrConfigLoc)
			{
				uint16_t CurrDescriptorSize = DESCRIPTOR_CAST(*CurrConfigLoc, USB_Descriptor_Header_t).Size;

				if (*BytesRem < CurrDescriptorSize)
     e4c:	31 81       	ldd	r19, Z+1	; 0x01
     e4e:	82 17       	cp	r24, r18
     e50:	93 07       	cpc	r25, r19
     e52:	08 f4       	brcc	.+2      	; 0xe56 <USB_GetNextDescriptor+0x1c>
     e54:	9c 01       	movw	r18, r24
				  CurrDescriptorSize = *BytesRem;

				*CurrConfigLoc  = (void*)((uintptr_t)*CurrConfigLoc + CurrDescriptorSize);
     e56:	a2 0f       	add	r26, r18
     e58:	b3 1f       	adc	r27, r19
     e5a:	eb 01       	movw	r28, r22
     e5c:	b9 83       	std	Y+1, r27	; 0x01
     e5e:	a8 83       	st	Y, r26
				*BytesRem      -= CurrDescriptorSize;
     e60:	80 81       	ld	r24, Z
     e62:	91 81       	ldd	r25, Z+1	; 0x01
     e64:	82 1b       	sub	r24, r18
     e66:	93 0b       	sbc	r25, r19
     e68:	91 83       	std	Z+1, r25	; 0x01
     e6a:	80 83       	st	Z, r24
			}
     e6c:	df 91       	pop	r29
     e6e:	cf 91       	pop	r28
     e70:	08 95       	ret

00000e72 <USB_Host_GetDeviceConfigDescriptor>:
#if defined(USB_CAN_BE_HOST)
uint8_t USB_Host_GetDeviceConfigDescriptor(const uint8_t ConfigNumber,
                                           uint16_t* const ConfigSizePtr,
                                           void* const BufferPtr,
                                           const uint16_t BufferSize)
{
     e72:	cf 92       	push	r12
     e74:	df 92       	push	r13
     e76:	ef 92       	push	r14
     e78:	ff 92       	push	r15
     e7a:	0f 93       	push	r16
     e7c:	1f 93       	push	r17
     e7e:	cf 93       	push	r28
     e80:	df 93       	push	r29
     e82:	cd b7       	in	r28, 0x3d	; 61
     e84:	de b7       	in	r29, 0x3e	; 62
     e86:	29 97       	sbiw	r28, 0x09	; 9
     e88:	0f b6       	in	r0, 0x3f	; 63
     e8a:	f8 94       	cli
     e8c:	de bf       	out	0x3e, r29	; 62
     e8e:	0f be       	out	0x3f, r0	; 63
     e90:	cd bf       	out	0x3d, r28	; 61
     e92:	7b 01       	movw	r14, r22
     e94:	8a 01       	movw	r16, r20
     e96:	69 01       	movw	r12, r18
	uint8_t ErrorCode;
	uint8_t ConfigHeader[sizeof(USB_Descriptor_Configuration_Header_t)];

	USB_ControlRequest = (USB_Request_Header_t)
     e98:	90 e8       	ldi	r25, 0x80	; 128
     e9a:	90 93 1a 01 	sts	0x011A, r25
     e9e:	96 e0       	ldi	r25, 0x06	; 6
     ea0:	90 93 1b 01 	sts	0x011B, r25
		{
			.bmRequestType = (REQDIR_DEVICETOHOST | REQTYPE_STANDARD | REQREC_DEVICE),
			.bRequest      = REQ_GetDescriptor,
			.wValue        = ((DTYPE_Configuration << 8) | (ConfigNumber - 1)),
     ea4:	e8 2f       	mov	r30, r24
     ea6:	f0 e0       	ldi	r31, 0x00	; 0
     ea8:	31 97       	sbiw	r30, 0x01	; 1
     eaa:	f2 60       	ori	r31, 0x02	; 2
                                           const uint16_t BufferSize)
{
	uint8_t ErrorCode;
	uint8_t ConfigHeader[sizeof(USB_Descriptor_Configuration_Header_t)];

	USB_ControlRequest = (USB_Request_Header_t)
     eac:	f0 93 1d 01 	sts	0x011D, r31
     eb0:	e0 93 1c 01 	sts	0x011C, r30
     eb4:	10 92 1f 01 	sts	0x011F, r1
     eb8:	10 92 1e 01 	sts	0x011E, r1
     ebc:	89 e0       	ldi	r24, 0x09	; 9
     ebe:	90 e0       	ldi	r25, 0x00	; 0
     ec0:	90 93 21 01 	sts	0x0121, r25
     ec4:	80 93 20 01 	sts	0x0120, r24
     ec8:	10 92 a7 00 	sts	0x00A7, r1
			.wLength       = sizeof(USB_Descriptor_Configuration_Header_t),
		};

	Pipe_SelectPipe(PIPE_CONTROLPIPE);

	if ((ErrorCode = USB_Host_SendControlRequest(ConfigHeader)) != HOST_SENDCONTROL_Successful)
     ecc:	ce 01       	movw	r24, r28
     ece:	01 96       	adiw	r24, 0x01	; 1
     ed0:	84 d0       	rcall	.+264    	; 0xfda <USB_Host_SendControlRequest>
     ed2:	81 11       	cpse	r24, r1
     ed4:	19 c0       	rjmp	.+50     	; 0xf08 <USB_Host_GetDeviceConfigDescriptor+0x96>
     ed6:	eb 81       	ldd	r30, Y+3	; 0x03
	  return ErrorCode;

	*ConfigSizePtr = le16_to_cpu(DESCRIPTOR_PCAST(ConfigHeader, USB_Descriptor_Configuration_Header_t)->TotalConfigurationSize);
     ed8:	fc 81       	ldd	r31, Y+4	; 0x04
     eda:	d7 01       	movw	r26, r14
     edc:	ed 93       	st	X+, r30
     ede:	fc 93       	st	X, r31
     ee0:	ce 16       	cp	r12, r30

	if (*ConfigSizePtr > BufferSize)
     ee2:	df 06       	cpc	r13, r31
     ee4:	70 f0       	brcs	.+28     	; 0xf02 <USB_Host_GetDeviceConfigDescriptor+0x90>
     ee6:	f0 93 21 01 	sts	0x0121, r31
	  return HOST_GETCONFIG_BuffOverflow;

	USB_ControlRequest.wLength = *ConfigSizePtr;
     eea:	e0 93 20 01 	sts	0x0120, r30
     eee:	c8 01       	movw	r24, r16

	if ((ErrorCode = USB_Host_SendControlRequest(BufferPtr)) != HOST_SENDCONTROL_Successful)
     ef0:	74 d0       	rcall	.+232    	; 0xfda <USB_Host_SendControlRequest>
     ef2:	81 11       	cpse	r24, r1
     ef4:	09 c0       	rjmp	.+18     	; 0xf08 <USB_Host_GetDeviceConfigDescriptor+0x96>
     ef6:	f8 01       	movw	r30, r16
     ef8:	81 81       	ldd	r24, Z+1	; 0x01
	  return ErrorCode;

	if (DESCRIPTOR_TYPE(BufferPtr) != DTYPE_Configuration)
     efa:	82 30       	cpi	r24, 0x02	; 2
     efc:	21 f0       	breq	.+8      	; 0xf06 <USB_Host_GetDeviceConfigDescriptor+0x94>
     efe:	86 e0       	ldi	r24, 0x06	; 6
     f00:	03 c0       	rjmp	.+6      	; 0xf08 <USB_Host_GetDeviceConfigDescriptor+0x96>
	  return HOST_GETCONFIG_InvalidData;
     f02:	85 e0       	ldi	r24, 0x05	; 5
     f04:	01 c0       	rjmp	.+2      	; 0xf08 <USB_Host_GetDeviceConfigDescriptor+0x96>
	  return ErrorCode;

	*ConfigSizePtr = le16_to_cpu(DESCRIPTOR_PCAST(ConfigHeader, USB_Descriptor_Configuration_Header_t)->TotalConfigurationSize);

	if (*ConfigSizePtr > BufferSize)
	  return HOST_GETCONFIG_BuffOverflow;
     f06:	80 e0       	ldi	r24, 0x00	; 0
     f08:	29 96       	adiw	r28, 0x09	; 9
	  return ErrorCode;

	if (DESCRIPTOR_TYPE(BufferPtr) != DTYPE_Configuration)
	  return HOST_GETCONFIG_InvalidData;

	return HOST_GETCONFIG_Successful;
     f0a:	0f b6       	in	r0, 0x3f	; 63
}
     f0c:	f8 94       	cli
     f0e:	de bf       	out	0x3e, r29	; 62
     f10:	0f be       	out	0x3f, r0	; 63
     f12:	cd bf       	out	0x3d, r28	; 61
     f14:	df 91       	pop	r29
     f16:	cf 91       	pop	r28
     f18:	1f 91       	pop	r17
     f1a:	0f 91       	pop	r16
     f1c:	ff 90       	pop	r15
     f1e:	ef 90       	pop	r14
     f20:	df 90       	pop	r13
     f22:	cf 90       	pop	r12
     f24:	08 95       	ret

00000f26 <USB_GetNextDescriptorComp>:
     f26:	af 92       	push	r10
     f28:	bf 92       	push	r11
}

uint8_t USB_GetNextDescriptorComp(uint16_t* const BytesRem,
                                  void** const CurrConfigLoc,
                                  ConfigComparatorPtr_t const ComparatorRoutine)
{
     f2a:	cf 92       	push	r12
     f2c:	df 92       	push	r13
     f2e:	ef 92       	push	r14
     f30:	ff 92       	push	r15
     f32:	0f 93       	push	r16
     f34:	1f 93       	push	r17
     f36:	cf 93       	push	r28
     f38:	df 93       	push	r29
     f3a:	8c 01       	movw	r16, r24
     f3c:	eb 01       	movw	r28, r22
     f3e:	6a 01       	movw	r12, r20
	uint8_t ErrorCode;

	while (*BytesRem)
     f40:	f8 01       	movw	r30, r16
     f42:	e0 80       	ld	r14, Z
     f44:	f1 80       	ldd	r15, Z+1	; 0x01
     f46:	e1 14       	cp	r14, r1
     f48:	f1 04       	cpc	r15, r1
     f4a:	99 f0       	breq	.+38     	; 0xf72 <USB_GetNextDescriptorComp+0x4c>
	{
		uint8_t* PrevDescLoc  = *CurrConfigLoc;
     f4c:	a8 80       	ld	r10, Y
     f4e:	b9 80       	ldd	r11, Y+1	; 0x01
		uint16_t PrevBytesRem = *BytesRem;

		USB_GetNextDescriptor(BytesRem, CurrConfigLoc);
     f50:	be 01       	movw	r22, r28
     f52:	c8 01       	movw	r24, r16
     f54:	72 df       	rcall	.-284    	; 0xe3a <USB_GetNextDescriptor>
     f56:	88 81       	ld	r24, Y

		if ((ErrorCode = ComparatorRoutine(*CurrConfigLoc)) != DESCRIPTOR_SEARCH_NotFound)
     f58:	99 81       	ldd	r25, Y+1	; 0x01
     f5a:	f6 01       	movw	r30, r12
     f5c:	09 95       	icall
     f5e:	82 30       	cpi	r24, 0x02	; 2
     f60:	79 f3       	breq	.-34     	; 0xf40 <USB_GetNextDescriptorComp+0x1a>
     f62:	81 30       	cpi	r24, 0x01	; 1
		{
			if (ErrorCode == DESCRIPTOR_SEARCH_Fail)
     f64:	39 f4       	brne	.+14     	; 0xf74 <USB_GetNextDescriptorComp+0x4e>
     f66:	b9 82       	std	Y+1, r11	; 0x01
			{
				*CurrConfigLoc = PrevDescLoc;
     f68:	a8 82       	st	Y, r10
     f6a:	f8 01       	movw	r30, r16
				*BytesRem      = PrevBytesRem;
     f6c:	f1 82       	std	Z+1, r15	; 0x01
     f6e:	e0 82       	st	Z, r14
     f70:	01 c0       	rjmp	.+2      	; 0xf74 <USB_GetNextDescriptorComp+0x4e>
     f72:	82 e0       	ldi	r24, 0x02	; 2

			return ErrorCode;
		}
	}

	return DESCRIPTOR_SEARCH_COMP_EndOfDescriptor;
     f74:	df 91       	pop	r29
}
     f76:	cf 91       	pop	r28
     f78:	1f 91       	pop	r17
     f7a:	0f 91       	pop	r16
     f7c:	ff 90       	pop	r15
     f7e:	ef 90       	pop	r14
     f80:	df 90       	pop	r13
     f82:	cf 90       	pop	r12
     f84:	bf 90       	pop	r11
     f86:	af 90       	pop	r10
     f88:	08 95       	ret

00000f8a <USB_Event_Stub>:
     f8a:	08 95       	ret

00000f8c <USB_Host_WaitForIOS>:

	return ReturnStatus;
}

static uint8_t USB_Host_WaitForIOS(const uint8_t WaitType)
{
     f8c:	1f 93       	push	r17
     f8e:	cf 93       	push	r28
     f90:	df 93       	push	r29
     f92:	18 2f       	mov	r17, r24
	uint8_t  TimeoutCounter = USB_HOST_TIMEOUT_MS;
	#else
	uint16_t TimeoutCounter = USB_HOST_TIMEOUT_MS;
	#endif

	while (!(((WaitType == USB_HOST_WAITFOR_SetupSent)  && Pipe_IsSETUPSent())  ||
     f94:	c9 ee       	ldi	r28, 0xE9	; 233
     f96:	d3 e0       	ldi	r29, 0x03	; 3
     f98:	11 11       	cpse	r17, r1
     f9a:	0d c0       	rjmp	.+26     	; 0xfb6 <USB_Host_WaitForIOS+0x2a>
			 *  \return Boolean \c true if the current pipe is ready for a SETUP packet, \c false otherwise.
			 */
			static inline bool Pipe_IsSETUPSent(void) ATTR_WARN_UNUSED_RESULT ATTR_ALWAYS_INLINE;
			static inline bool Pipe_IsSETUPSent(void)
			{
				return ((UPINTX & (1 << TXSTPI)) ? true : false);
     f9c:	80 91 a6 00 	lds	r24, 0x00A6
     fa0:	83 fd       	sbrc	r24, 3
     fa2:	16 c0       	rjmp	.+44     	; 0xfd0 <USB_Host_WaitForIOS+0x44>
	         ((WaitType == USB_HOST_WAITFOR_InReceived) && Pipe_IsINReceived()) ||
	         ((WaitType == USB_HOST_WAITFOR_OutReady)   && Pipe_IsOUTReady())))
	{
		uint8_t ErrorCode;

		if ((ErrorCode = USB_Host_WaitMS(1)) != HOST_WAITERROR_Successful)
     fa4:	81 e0       	ldi	r24, 0x01	; 1
     fa6:	48 dc       	rcall	.-1904   	; 0x838 <USB_Host_WaitMS>
     fa8:	81 11       	cpse	r24, r1
     faa:	13 c0       	rjmp	.+38     	; 0xfd2 <USB_Host_WaitForIOS+0x46>
     fac:	21 97       	sbiw	r28, 0x01	; 1
     fae:	20 97       	sbiw	r28, 0x00	; 0
		  return ErrorCode;

		if (!(TimeoutCounter--))
     fb0:	99 f7       	brne	.-26     	; 0xf98 <USB_Host_WaitForIOS+0xc>
     fb2:	84 e0       	ldi	r24, 0x04	; 4
		  return HOST_SENDCONTROL_SoftwareTimeOut;
     fb4:	0e c0       	rjmp	.+28     	; 0xfd2 <USB_Host_WaitForIOS+0x46>
     fb6:	11 30       	cpi	r17, 0x01	; 1
	uint8_t  TimeoutCounter = USB_HOST_TIMEOUT_MS;
	#else
	uint16_t TimeoutCounter = USB_HOST_TIMEOUT_MS;
	#endif

	while (!(((WaitType == USB_HOST_WAITFOR_SetupSent)  && Pipe_IsSETUPSent())  ||
     fb8:	29 f4       	brne	.+10     	; 0xfc4 <USB_Host_WaitForIOS+0x38>
     fba:	80 91 a6 00 	lds	r24, 0x00A6
			 *  \return Boolean \c true if the current pipe has received an IN packet, \c false otherwise.
			 */
			static inline bool Pipe_IsINReceived(void) ATTR_WARN_UNUSED_RESULT ATTR_ALWAYS_INLINE;
			static inline bool Pipe_IsINReceived(void)
			{
				return ((UPINTX & (1 << RXINI)) ? true : false);
     fbe:	80 ff       	sbrs	r24, 0
	         ((WaitType == USB_HOST_WAITFOR_InReceived) && Pipe_IsINReceived()) ||
     fc0:	f1 cf       	rjmp	.-30     	; 0xfa4 <USB_Host_WaitForIOS+0x18>
     fc2:	06 c0       	rjmp	.+12     	; 0xfd0 <USB_Host_WaitForIOS+0x44>
     fc4:	12 30       	cpi	r17, 0x02	; 2
	uint8_t  TimeoutCounter = USB_HOST_TIMEOUT_MS;
	#else
	uint16_t TimeoutCounter = USB_HOST_TIMEOUT_MS;
	#endif

	while (!(((WaitType == USB_HOST_WAITFOR_SetupSent)  && Pipe_IsSETUPSent())  ||
     fc6:	71 f7       	brne	.-36     	; 0xfa4 <USB_Host_WaitForIOS+0x18>
     fc8:	80 91 a6 00 	lds	r24, 0x00A6
			 *  \return Boolean \c true if the current pipe is ready for an OUT packet, \c false otherwise.
			 */
			static inline bool Pipe_IsOUTReady(void) ATTR_WARN_UNUSED_RESULT ATTR_ALWAYS_INLINE;
			static inline bool Pipe_IsOUTReady(void)
			{
				return ((UPINTX & (1 << TXOUTI)) ? true : false);
     fcc:	82 ff       	sbrs	r24, 2
	         ((WaitType == USB_HOST_WAITFOR_InReceived) && Pipe_IsINReceived()) ||
	         ((WaitType == USB_HOST_WAITFOR_OutReady)   && Pipe_IsOUTReady())))
     fce:	ea cf       	rjmp	.-44     	; 0xfa4 <USB_Host_WaitForIOS+0x18>
     fd0:	80 e0       	ldi	r24, 0x00	; 0

		if (!(TimeoutCounter--))
		  return HOST_SENDCONTROL_SoftwareTimeOut;
	}

	return HOST_SENDCONTROL_Successful;
     fd2:	df 91       	pop	r29
}
     fd4:	cf 91       	pop	r28
     fd6:	1f 91       	pop	r17
     fd8:	08 95       	ret

00000fda <USB_Host_SendControlRequest>:
     fda:	ff 92       	push	r15

uint8_t USB_Host_SendControlRequest(void* const BufferPtr)
{
     fdc:	0f 93       	push	r16
     fde:	1f 93       	push	r17
     fe0:	cf 93       	push	r28
     fe2:	df 93       	push	r29
     fe4:	8c 01       	movw	r16, r24
			 *  \return Boolean \c true if the bus is currently suspended, \c false otherwise.
			 */
			static inline bool USB_Host_IsBusSuspended(void) ATTR_WARN_UNUSED_RESULT ATTR_ALWAYS_INLINE;
			static inline bool USB_Host_IsBusSuspended(void)
			{
				return ((UHCON & (1 << SOFEN)) ? false : true);
     fe6:	f0 90 9e 00 	lds	r15, 0x009E
     fea:	8f 2d       	mov	r24, r15
     fec:	81 70       	andi	r24, 0x01	; 1
     fee:	f8 2e       	mov	r15, r24

static uint8_t USB_Host_SendControlRequest_PRV(void* const BufferPtr)
{
	uint8_t* DataStream   = (uint8_t*)BufferPtr;
	uint8_t  ReturnStatus = HOST_SENDCONTROL_Successful;
	uint16_t DataLen      = USB_ControlRequest.wLength;
     ff0:	c0 91 20 01 	lds	r28, 0x0120
     ff4:	d0 91 21 01 	lds	r29, 0x0121
			 *  host and attached device may occur.
			 */
			static inline void USB_Host_ResumeBus(void) ATTR_ALWAYS_INLINE;
			static inline void USB_Host_ResumeBus(void)
			{
				UHCON |=  (1 << SOFEN);
     ff8:	80 91 9e 00 	lds	r24, 0x009E
     ffc:	81 60       	ori	r24, 0x01	; 1
     ffe:	80 93 9e 00 	sts	0x009E, r24

	USB_Host_ResumeBus();

	if ((ReturnStatus = USB_Host_WaitMS(1)) != HOST_WAITERROR_Successful)
    1002:	81 e0       	ldi	r24, 0x01	; 1
    1004:	19 dc       	rcall	.-1998   	; 0x838 <USB_Host_WaitMS>
    1006:	81 11       	cpse	r24, r1
    1008:	cc c0       	rjmp	.+408    	; 0x11a2 <USB_Host_SendControlRequest+0x1c8>
    100a:	80 91 aa 00 	lds	r24, 0x00AA
			 *  \param[in] Token  New pipe token to set the selected pipe to, as a \c PIPE_TOKEN_* mask.
			 */
			static inline void Pipe_SetPipeToken(const uint8_t Token) ATTR_ALWAYS_INLINE;
			static inline void Pipe_SetPipeToken(const uint8_t Token)
			{
				UPCFG0X = ((UPCFG0X & ~(0x03 << PTOKEN0)) | Token);
    100e:	8f 7c       	andi	r24, 0xCF	; 207
    1010:	80 93 aa 00 	sts	0x00AA, r24
    1014:	10 92 f5 00 	sts	0x00F5, r1

			/** Clears the error flags for the currently selected pipe. */
			static inline void Pipe_ClearError(void) ATTR_ALWAYS_INLINE;
			static inline void Pipe_ClearError(void)
			{
				UPERRX = 0;
    1018:	80 91 a6 00 	lds	r24, 0x00A6
				UPINTX &= ~(1 << PERRI);
    101c:	8f 7e       	andi	r24, 0xEF	; 239
    101e:	80 93 a6 00 	sts	0x00A6, r24
    1022:	80 91 a9 00 	lds	r24, 0x00A9

			/** Unfreezes the selected pipe, allowing it to communicate with an attached device. */
			static inline void Pipe_Unfreeze(void) ATTR_ALWAYS_INLINE;
			static inline void Pipe_Unfreeze(void)
			{
				UPCONX &= ~(1 << PFREEZE);
    1026:	8f 7b       	andi	r24, 0xBF	; 191
    1028:	80 93 a9 00 	sts	0x00A9, r24
    102c:	ea e1       	ldi	r30, 0x1A	; 26
    102e:	f1 e0       	ldi	r31, 0x01	; 1
    1030:	81 91       	ld	r24, Z+
	Pipe_Write_16_LE(USB_ControlRequest.wLength);
	#else
	uint8_t* HeaderStream = (uint8_t*)&USB_ControlRequest;

	for (uint8_t HeaderByte = 0; HeaderByte < sizeof(USB_Request_Header_t); HeaderByte++)
	  Pipe_Write_8(*(HeaderStream++));
    1032:	80 93 af 00 	sts	0x00AF, r24
			 *  \param[in] Data  Data to write into the the currently selected pipe's FIFO buffer.
			 */
			static inline void Pipe_Write_8(const uint8_t Data) ATTR_ALWAYS_INLINE;
			static inline void Pipe_Write_8(const uint8_t Data)
			{
				UPDATX = Data;
    1036:	81 e0       	ldi	r24, 0x01	; 1
	Pipe_Write_16_LE(USB_ControlRequest.wIndex);
	Pipe_Write_16_LE(USB_ControlRequest.wLength);
	#else
	uint8_t* HeaderStream = (uint8_t*)&USB_ControlRequest;

	for (uint8_t HeaderByte = 0; HeaderByte < sizeof(USB_Request_Header_t); HeaderByte++)
    1038:	e2 32       	cpi	r30, 0x22	; 34
    103a:	f8 07       	cpc	r31, r24
    103c:	c9 f7       	brne	.-14     	; 0x1030 <USB_Host_SendControlRequest+0x56>
    103e:	80 91 a6 00 	lds	r24, 0x00A6
			 *  \ingroup Group_PipePacketManagement_AVR8
			 */
			static inline void Pipe_ClearSETUP(void) ATTR_ALWAYS_INLINE;
			static inline void Pipe_ClearSETUP(void)
			{
				UPINTX &= ~((1 << TXSTPI) | (1 << FIFOCON));
    1042:	87 77       	andi	r24, 0x77	; 119
    1044:	80 93 a6 00 	sts	0x00A6, r24
    1048:	80 e0       	ldi	r24, 0x00	; 0
	  Pipe_Write_8(*(HeaderStream++));
	#endif

	Pipe_ClearSETUP();

	if ((ReturnStatus = USB_Host_WaitForIOS(USB_HOST_WAITFOR_SetupSent)) != HOST_SENDCONTROL_Successful)
    104a:	a0 df       	rcall	.-192    	; 0xf8c <USB_Host_WaitForIOS>
    104c:	81 11       	cpse	r24, r1
    104e:	a9 c0       	rjmp	.+338    	; 0x11a2 <USB_Host_SendControlRequest+0x1c8>
    1050:	80 91 a9 00 	lds	r24, 0x00A9

			/** Freezes the selected pipe, preventing it from communicating with an attached device. */
			static inline void Pipe_Freeze(void) ATTR_ALWAYS_INLINE;
			static inline void Pipe_Freeze(void)
			{
				UPCONX |= (1 << PFREEZE);
    1054:	80 64       	ori	r24, 0x40	; 64
    1056:	80 93 a9 00 	sts	0x00A9, r24
    105a:	81 e0       	ldi	r24, 0x01	; 1
    105c:	ed db       	rcall	.-2086   	; 0x838 <USB_Host_WaitMS>
	  return ReturnStatus;

	Pipe_Freeze();

	if ((ReturnStatus = USB_Host_WaitMS(1)) != HOST_WAITERROR_Successful)
    105e:	81 11       	cpse	r24, r1
    1060:	a0 c0       	rjmp	.+320    	; 0x11a2 <USB_Host_SendControlRequest+0x1c8>
    1062:	80 91 1a 01 	lds	r24, 0x011A
    1066:	87 ff       	sbrs	r24, 7
	  return ReturnStatus;

	if ((USB_ControlRequest.bmRequestType & CONTROL_REQTYPE_DIRECTION) == REQDIR_DEVICETOHOST)
    1068:	4e c0       	rjmp	.+156    	; 0x1106 <USB_Host_SendControlRequest+0x12c>
    106a:	80 91 aa 00 	lds	r24, 0x00AA
    106e:	8f 7c       	andi	r24, 0xCF	; 207
			 *  \param[in] Token  New pipe token to set the selected pipe to, as a \c PIPE_TOKEN_* mask.
			 */
			static inline void Pipe_SetPipeToken(const uint8_t Token) ATTR_ALWAYS_INLINE;
			static inline void Pipe_SetPipeToken(const uint8_t Token)
			{
				UPCFG0X = ((UPCFG0X & ~(0x03 << PTOKEN0)) | Token);
    1070:	80 61       	ori	r24, 0x10	; 16
    1072:	80 93 aa 00 	sts	0x00AA, r24
    1076:	01 15       	cp	r16, r1
    1078:	11 05       	cpc	r17, r1
    107a:	09 f0       	breq	.+2      	; 0x107e <USB_Host_SendControlRequest+0xa4>
	{
		Pipe_SetPipeToken(PIPE_TOKEN_IN);

		if (DataStream != NULL)
    107c:	3a c0       	rjmp	.+116    	; 0x10f2 <USB_Host_SendControlRequest+0x118>
    107e:	80 91 aa 00 	lds	r24, 0x00AA
    1082:	8f 7c       	andi	r24, 0xCF	; 207
    1084:	80 62       	ori	r24, 0x20	; 32
    1086:	80 93 aa 00 	sts	0x00AA, r24
    108a:	80 91 a9 00 	lds	r24, 0x00A9
    108e:	8f 7b       	andi	r24, 0xBF	; 191

			/** Unfreezes the selected pipe, allowing it to communicate with an attached device. */
			static inline void Pipe_Unfreeze(void) ATTR_ALWAYS_INLINE;
			static inline void Pipe_Unfreeze(void)
			{
				UPCONX &= ~(1 << PFREEZE);
    1090:	80 93 a9 00 	sts	0x00A9, r24
    1094:	82 e0       	ldi	r24, 0x02	; 2
    1096:	7a df       	rcall	.-268    	; 0xf8c <USB_Host_WaitForIOS>
    1098:	81 11       	cpse	r24, r1
		}

		Pipe_SetPipeToken(PIPE_TOKEN_OUT);
		Pipe_Unfreeze();

		if ((ReturnStatus = USB_Host_WaitForIOS(USB_HOST_WAITFOR_OutReady)) != HOST_SENDCONTROL_Successful)
    109a:	83 c0       	rjmp	.+262    	; 0x11a2 <USB_Host_SendControlRequest+0x1c8>
    109c:	80 91 a6 00 	lds	r24, 0x00A6
    10a0:	8b 77       	andi	r24, 0x7B	; 123
    10a2:	80 93 a6 00 	sts	0x00A6, r24
			 *  \ingroup Group_PipePacketManagement_AVR8
			 */
			static inline void Pipe_ClearOUT(void) ATTR_ALWAYS_INLINE;
			static inline void Pipe_ClearOUT(void)
			{
				UPINTX &= ~((1 << TXOUTI) | (1 << FIFOCON));
    10a6:	82 e0       	ldi	r24, 0x02	; 2
    10a8:	71 df       	rcall	.-286    	; 0xf8c <USB_Host_WaitForIOS>
    10aa:	7b c0       	rjmp	.+246    	; 0x11a2 <USB_Host_SendControlRequest+0x1c8>
    10ac:	80 91 a9 00 	lds	r24, 0x00A9
		  return ReturnStatus;

		Pipe_ClearOUT();

		if ((ReturnStatus = USB_Host_WaitForIOS(USB_HOST_WAITFOR_OutReady)) != HOST_SENDCONTROL_Successful)
    10b0:	8f 7b       	andi	r24, 0xBF	; 191
    10b2:	80 93 a9 00 	sts	0x00A9, r24

			/** Unfreezes the selected pipe, allowing it to communicate with an attached device. */
			static inline void Pipe_Unfreeze(void) ATTR_ALWAYS_INLINE;
			static inline void Pipe_Unfreeze(void)
			{
				UPCONX &= ~(1 << PFREEZE);
    10b6:	81 e0       	ldi	r24, 0x01	; 1
    10b8:	69 df       	rcall	.-302    	; 0xf8c <USB_Host_WaitForIOS>
    10ba:	81 11       	cpse	r24, r1
    10bc:	72 c0       	rjmp	.+228    	; 0x11a2 <USB_Host_SendControlRequest+0x1c8>
    10be:	80 91 f6 00 	lds	r24, 0x00F6
		{
			while (DataLen)
			{
				Pipe_Unfreeze();

				if ((ReturnStatus = USB_Host_WaitForIOS(USB_HOST_WAITFOR_InReceived)) != HOST_SENDCONTROL_Successful)
    10c2:	90 91 f7 00 	lds	r25, 0x00F7
    10c6:	89 2b       	or	r24, r25
    10c8:	11 f4       	brne	.+4      	; 0x10ce <USB_Host_SendControlRequest+0xf4>
			 *  \return Total number of bytes in the currently selected pipe's FIFO buffer.
			 */
			static inline uint16_t Pipe_BytesInPipe(void) ATTR_WARN_UNUSED_RESULT ATTR_ALWAYS_INLINE;
			static inline uint16_t Pipe_BytesInPipe(void)
			{
				return UPBCX;
    10ca:	c0 e0       	ldi	r28, 0x00	; 0
    10cc:	d0 e0       	ldi	r29, 0x00	; 0
    10ce:	f8 01       	movw	r30, r16
    10d0:	8f 01       	movw	r16, r30
				  return ReturnStatus;

				if (!(Pipe_BytesInPipe()))
    10d2:	80 91 f6 00 	lds	r24, 0x00F6
				  DataLen = 0;
    10d6:	90 91 f7 00 	lds	r25, 0x00F7
    10da:	89 2b       	or	r24, r25
    10dc:	69 f4       	brne	.+26     	; 0x10f8 <USB_Host_SendControlRequest+0x11e>
    10de:	80 91 a9 00 	lds	r24, 0x00A9
    10e2:	80 64       	ori	r24, 0x40	; 64
    10e4:	80 93 a9 00 	sts	0x00A9, r24

				while (Pipe_BytesInPipe() && DataLen)
    10e8:	80 91 a6 00 	lds	r24, 0x00A6

			/** Freezes the selected pipe, preventing it from communicating with an attached device. */
			static inline void Pipe_Freeze(void) ATTR_ALWAYS_INLINE;
			static inline void Pipe_Freeze(void)
			{
				UPCONX |= (1 << PFREEZE);
    10ec:	8e 77       	andi	r24, 0x7E	; 126
    10ee:	80 93 a6 00 	sts	0x00A6, r24
    10f2:	20 97       	sbiw	r28, 0x00	; 0
			 *  \ingroup Group_PipePacketManagement_AVR8
			 */
			static inline void Pipe_ClearIN(void) ATTR_ALWAYS_INLINE;
			static inline void Pipe_ClearIN(void)
			{
				UPINTX &= ~((1 << RXINI) | (1 << FIFOCON));
    10f4:	d9 f6       	brne	.-74     	; 0x10ac <USB_Host_SendControlRequest+0xd2>
    10f6:	c3 cf       	rjmp	.-122    	; 0x107e <USB_Host_SendControlRequest+0xa4>
    10f8:	20 97       	sbiw	r28, 0x00	; 0
    10fa:	89 f3       	breq	.-30     	; 0x10de <USB_Host_SendControlRequest+0x104>
    10fc:	80 91 af 00 	lds	r24, 0x00AF
	{
		Pipe_SetPipeToken(PIPE_TOKEN_IN);

		if (DataStream != NULL)
		{
			while (DataLen)
    1100:	81 93       	st	Z+, r24
    1102:	21 97       	sbiw	r28, 0x01	; 1
				  return ReturnStatus;

				if (!(Pipe_BytesInPipe()))
				  DataLen = 0;

				while (Pipe_BytesInPipe() && DataLen)
    1104:	e5 cf       	rjmp	.-54     	; 0x10d0 <USB_Host_SendControlRequest+0xf6>
    1106:	01 15       	cp	r16, r1
			 *  \return Next byte in the currently selected pipe's FIFO buffer.
			 */
			static inline uint8_t Pipe_Read_8(void) ATTR_WARN_UNUSED_RESULT ATTR_ALWAYS_INLINE;
			static inline uint8_t Pipe_Read_8(void)
			{
				return UPDATX;
    1108:	11 05       	cpc	r17, r1
    110a:	b1 f1       	breq	.+108    	; 0x1178 <USB_Host_SendControlRequest+0x19e>
				{
					*(DataStream++) = Pipe_Read_8();
    110c:	80 91 aa 00 	lds	r24, 0x00AA
					DataLen--;
    1110:	8f 7c       	andi	r24, 0xCF	; 207
		if ((ReturnStatus = USB_Host_WaitForIOS(USB_HOST_WAITFOR_OutReady)) != HOST_SENDCONTROL_Successful)
		  return ReturnStatus;
	}
	else
	{
		if (DataStream != NULL)
    1112:	80 62       	ori	r24, 0x20	; 32
    1114:	80 93 aa 00 	sts	0x00AA, r24
			 *  \param[in] Token  New pipe token to set the selected pipe to, as a \c PIPE_TOKEN_* mask.
			 */
			static inline void Pipe_SetPipeToken(const uint8_t Token) ATTR_ALWAYS_INLINE;
			static inline void Pipe_SetPipeToken(const uint8_t Token)
			{
				UPCFG0X = ((UPCFG0X & ~(0x03 << PTOKEN0)) | Token);
    1118:	80 91 a9 00 	lds	r24, 0x00A9
    111c:	8f 7b       	andi	r24, 0xBF	; 191
    111e:	80 93 a9 00 	sts	0x00A9, r24
    1122:	82 e0       	ldi	r24, 0x02	; 2

			/** Unfreezes the selected pipe, allowing it to communicate with an attached device. */
			static inline void Pipe_Unfreeze(void) ATTR_ALWAYS_INLINE;
			static inline void Pipe_Unfreeze(void)
			{
				UPCONX &= ~(1 << PFREEZE);
    1124:	20 97       	sbiw	r28, 0x00	; 0
    1126:	01 f1       	breq	.+64     	; 0x1168 <USB_Host_SendControlRequest+0x18e>
    1128:	31 df       	rcall	.-414    	; 0xf8c <USB_Host_WaitForIOS>
    112a:	81 11       	cpse	r24, r1
    112c:	3a c0       	rjmp	.+116    	; 0x11a2 <USB_Host_SendControlRequest+0x1c8>
			Pipe_SetPipeToken(PIPE_TOKEN_OUT);
			Pipe_Unfreeze();

			while (DataLen)
			{
				if ((ReturnStatus = USB_Host_WaitForIOS(USB_HOST_WAITFOR_OutReady)) != HOST_SENDCONTROL_Successful)
    112e:	f8 01       	movw	r30, r16
		if (DataStream != NULL)
		{
			Pipe_SetPipeToken(PIPE_TOKEN_OUT);
			Pipe_Unfreeze();

			while (DataLen)
    1130:	20 91 f6 00 	lds	r18, 0x00F6
			{
				if ((ReturnStatus = USB_Host_WaitForIOS(USB_HOST_WAITFOR_OutReady)) != HOST_SENDCONTROL_Successful)
    1134:	30 91 f7 00 	lds	r19, 0x00F7
    1138:	80 91 00 01 	lds	r24, 0x0100
    113c:	90 e0       	ldi	r25, 0x00	; 0
			 *  \return Total number of bytes in the currently selected pipe's FIFO buffer.
			 */
			static inline uint16_t Pipe_BytesInPipe(void) ATTR_WARN_UNUSED_RESULT ATTR_ALWAYS_INLINE;
			static inline uint16_t Pipe_BytesInPipe(void)
			{
				return UPBCX;
    113e:	28 17       	cp	r18, r24
    1140:	39 07       	cpc	r19, r25
    1142:	58 f4       	brcc	.+22     	; 0x115a <USB_Host_SendControlRequest+0x180>
    1144:	cf 01       	movw	r24, r30
				  return ReturnStatus;

				while (DataLen && (Pipe_BytesInPipe() < USB_Host_ControlPipeSize))
    1146:	01 96       	adiw	r24, 0x01	; 1
    1148:	8c 01       	movw	r16, r24
    114a:	20 81       	ld	r18, Z
    114c:	20 93 af 00 	sts	0x00AF, r18
    1150:	21 97       	sbiw	r28, 0x01	; 1
    1152:	20 97       	sbiw	r28, 0x00	; 0
    1154:	19 f0       	breq	.+6      	; 0x115c <USB_Host_SendControlRequest+0x182>
    1156:	fc 01       	movw	r30, r24
				{
					Pipe_Write_8(*(DataStream++));
    1158:	eb cf       	rjmp	.-42     	; 0x1130 <USB_Host_SendControlRequest+0x156>
			 *  \param[in] Data  Data to write into the the currently selected pipe's FIFO buffer.
			 */
			static inline void Pipe_Write_8(const uint8_t Data) ATTR_ALWAYS_INLINE;
			static inline void Pipe_Write_8(const uint8_t Data)
			{
				UPDATX = Data;
    115a:	8f 01       	movw	r16, r30
    115c:	80 91 a6 00 	lds	r24, 0x00A6
			while (DataLen)
			{
				if ((ReturnStatus = USB_Host_WaitForIOS(USB_HOST_WAITFOR_OutReady)) != HOST_SENDCONTROL_Successful)
				  return ReturnStatus;

				while (DataLen && (Pipe_BytesInPipe() < USB_Host_ControlPipeSize))
    1160:	8b 77       	andi	r24, 0x7B	; 123
    1162:	80 93 a6 00 	sts	0x00A6, r24
    1166:	dd cf       	rjmp	.-70     	; 0x1122 <USB_Host_SendControlRequest+0x148>
    1168:	11 df       	rcall	.-478    	; 0xf8c <USB_Host_WaitForIOS>
			 *  \ingroup Group_PipePacketManagement_AVR8
			 */
			static inline void Pipe_ClearOUT(void) ATTR_ALWAYS_INLINE;
			static inline void Pipe_ClearOUT(void)
			{
				UPINTX &= ~((1 << TXOUTI) | (1 << FIFOCON));
    116a:	81 11       	cpse	r24, r1
    116c:	1a c0       	rjmp	.+52     	; 0x11a2 <USB_Host_SendControlRequest+0x1c8>
    116e:	80 91 a9 00 	lds	r24, 0x00A9
    1172:	80 64       	ori	r24, 0x40	; 64
    1174:	80 93 a9 00 	sts	0x00A9, r24
				}

				Pipe_ClearOUT();
			}

			if ((ReturnStatus = USB_Host_WaitForIOS(USB_HOST_WAITFOR_OutReady)) != HOST_SENDCONTROL_Successful)
    1178:	80 91 aa 00 	lds	r24, 0x00AA
    117c:	8f 7c       	andi	r24, 0xCF	; 207

			/** Freezes the selected pipe, preventing it from communicating with an attached device. */
			static inline void Pipe_Freeze(void) ATTR_ALWAYS_INLINE;
			static inline void Pipe_Freeze(void)
			{
				UPCONX |= (1 << PFREEZE);
    117e:	80 61       	ori	r24, 0x10	; 16
    1180:	80 93 aa 00 	sts	0x00AA, r24
    1184:	80 91 a9 00 	lds	r24, 0x00A9
			 *  \param[in] Token  New pipe token to set the selected pipe to, as a \c PIPE_TOKEN_* mask.
			 */
			static inline void Pipe_SetPipeToken(const uint8_t Token) ATTR_ALWAYS_INLINE;
			static inline void Pipe_SetPipeToken(const uint8_t Token)
			{
				UPCFG0X = ((UPCFG0X & ~(0x03 << PTOKEN0)) | Token);
    1188:	8f 7b       	andi	r24, 0xBF	; 191
    118a:	80 93 a9 00 	sts	0x00A9, r24
    118e:	81 e0       	ldi	r24, 0x01	; 1
    1190:	fd de       	rcall	.-518    	; 0xf8c <USB_Host_WaitForIOS>
    1192:	81 11       	cpse	r24, r1

			/** Unfreezes the selected pipe, allowing it to communicate with an attached device. */
			static inline void Pipe_Unfreeze(void) ATTR_ALWAYS_INLINE;
			static inline void Pipe_Unfreeze(void)
			{
				UPCONX &= ~(1 << PFREEZE);
    1194:	06 c0       	rjmp	.+12     	; 0x11a2 <USB_Host_SendControlRequest+0x1c8>
    1196:	80 91 a6 00 	lds	r24, 0x00A6
    119a:	8e 77       	andi	r24, 0x7E	; 126
    119c:	80 93 a6 00 	sts	0x00A6, r24
		}

		Pipe_SetPipeToken(PIPE_TOKEN_IN);
		Pipe_Unfreeze();

		if ((ReturnStatus = USB_Host_WaitForIOS(USB_HOST_WAITFOR_InReceived)) != HOST_SENDCONTROL_Successful)
    11a0:	80 e0       	ldi	r24, 0x00	; 0
    11a2:	90 91 a9 00 	lds	r25, 0x00A9
    11a6:	90 64       	ori	r25, 0x40	; 64
			 *  \ingroup Group_PipePacketManagement_AVR8
			 */
			static inline void Pipe_ClearIN(void) ATTR_ALWAYS_INLINE;
			static inline void Pipe_ClearIN(void)
			{
				UPINTX &= ~((1 << RXINI) | (1 << FIFOCON));
    11a8:	90 93 a9 00 	sts	0x00A9, r25
    11ac:	f1 10       	cpse	r15, r1
    11ae:	05 c0       	rjmp	.+10     	; 0x11ba <USB_Host_SendControlRequest+0x1e0>
    11b0:	90 91 9e 00 	lds	r25, 0x009E

			/** Freezes the selected pipe, preventing it from communicating with an attached device. */
			static inline void Pipe_Freeze(void) ATTR_ALWAYS_INLINE;
			static inline void Pipe_Freeze(void)
			{
				UPCONX |= (1 << PFREEZE);
    11b4:	9e 7f       	andi	r25, 0xFE	; 254
    11b6:	90 93 9e 00 	sts	0x009E, r25
    11ba:	91 e0       	ldi	r25, 0x01	; 1
    11bc:	90 93 a8 00 	sts	0x00A8, r25
	bool BusSuspended    = USB_Host_IsBusSuspended();
	uint8_t ReturnStatus = USB_Host_SendControlRequest_PRV(BufferPtr);

	Pipe_Freeze();

	if (BusSuspended)
    11c0:	10 92 a8 00 	sts	0x00A8, r1
			 *             some events (such as device disconnections) will not fire until the bus is resumed.
			 */
			static inline void USB_Host_SuspendBus(void) ATTR_ALWAYS_INLINE;
			static inline void USB_Host_SuspendBus(void)
			{
				UHCON &= ~(1 << SOFEN);
    11c4:	df 91       	pop	r29
    11c6:	cf 91       	pop	r28
    11c8:	1f 91       	pop	r17
    11ca:	0f 91       	pop	r16
			 *  \param[in] Address  Address of the pipe to reset.
			 */
			static inline void Pipe_ResetPipe(const uint8_t Address) ATTR_ALWAYS_INLINE;
			static inline void Pipe_ResetPipe(const uint8_t Address)
			{
				UPRST = (1 << (Address & PIPE_PIPENUM_MASK));
    11cc:	ff 90       	pop	r15
    11ce:	08 95       	ret

000011d0 <USB_Host_SetDeviceConfiguration>:
    11d0:	cf 93       	push	r28
				UPRST = 0;
    11d2:	c8 2f       	mov	r28, r24
    11d4:	10 92 1a 01 	sts	0x011A, r1
	  USB_Host_SuspendBus();

	Pipe_ResetPipe(PIPE_CONTROLPIPE);

	return ReturnStatus;
}
    11d8:	89 e0       	ldi	r24, 0x09	; 9
    11da:	80 93 1b 01 	sts	0x011B, r24
    11de:	2c 2f       	mov	r18, r28
    11e0:	30 e0       	ldi	r19, 0x00	; 0

uint8_t USB_Host_SetDeviceConfiguration(const uint8_t ConfigNumber)
{
	uint8_t ErrorCode;

	USB_ControlRequest = (USB_Request_Header_t)
    11e2:	30 93 1d 01 	sts	0x011D, r19
    11e6:	20 93 1c 01 	sts	0x011C, r18
    11ea:	10 92 1f 01 	sts	0x011F, r1
    11ee:	10 92 1e 01 	sts	0x011E, r1
    11f2:	10 92 21 01 	sts	0x0121, r1
    11f6:	10 92 20 01 	sts	0x0120, r1
			 *  \param[in] Address  Address of the pipe to select.
			 */
			static inline void Pipe_SelectPipe(const uint8_t Address) ATTR_ALWAYS_INLINE;
			static inline void Pipe_SelectPipe(const uint8_t Address)
			{
				UPNUM = (Address & PIPE_PIPENUM_MASK);
    11fa:	10 92 a7 00 	sts	0x00A7, r1
			.wLength       = 0,
		};

	Pipe_SelectPipe(PIPE_CONTROLPIPE);

	if ((ErrorCode = USB_Host_SendControlRequest(NULL)) == HOST_SENDCONTROL_Successful)
    11fe:	80 e0       	ldi	r24, 0x00	; 0
    1200:	90 e0       	ldi	r25, 0x00	; 0
    1202:	eb de       	rcall	.-554    	; 0xfda <USB_Host_SendControlRequest>
    1204:	81 11       	cpse	r24, r1
    1206:	09 c0       	rjmp	.+18     	; 0x121a <USB_Host_SetDeviceConfiguration+0x4a>
    1208:	c0 93 18 01 	sts	0x0118, r28
	{
		USB_Host_ConfigurationNumber = ConfigNumber;
    120c:	cc 23       	and	r28, r28
		USB_HostState                = (ConfigNumber) ? HOST_STATE_Configured : HOST_STATE_Addressed;
    120e:	11 f0       	breq	.+4      	; 0x1214 <USB_Host_SetDeviceConfiguration+0x44>
    1210:	9b e0       	ldi	r25, 0x0B	; 11
    1212:	01 c0       	rjmp	.+2      	; 0x1216 <USB_Host_SetDeviceConfiguration+0x46>
    1214:	9a e0       	ldi	r25, 0x0A	; 10
    1216:	90 93 22 01 	sts	0x0122, r25
    121a:	cf 91       	pop	r28
	}

	return ErrorCode;
}
    121c:	08 95       	ret

0000121e <USB_Host_SetInterfaceAltSetting>:
    121e:	91 e0       	ldi	r25, 0x01	; 1
}

uint8_t USB_Host_SetInterfaceAltSetting(const uint8_t InterfaceIndex,
                                        const uint8_t AltSetting)
{
	USB_ControlRequest = (USB_Request_Header_t)
    1220:	90 93 1a 01 	sts	0x011A, r25
    1224:	9b e0       	ldi	r25, 0x0B	; 11
    1226:	90 93 1b 01 	sts	0x011B, r25
    122a:	70 e0       	ldi	r23, 0x00	; 0
    122c:	70 93 1d 01 	sts	0x011D, r23
    1230:	60 93 1c 01 	sts	0x011C, r22
    1234:	90 e0       	ldi	r25, 0x00	; 0
    1236:	90 93 1f 01 	sts	0x011F, r25
    123a:	80 93 1e 01 	sts	0x011E, r24
    123e:	10 92 21 01 	sts	0x0121, r1
    1242:	10 92 20 01 	sts	0x0120, r1
    1246:	10 92 a7 00 	sts	0x00A7, r1
			.wLength       = 0,
		};

	Pipe_SelectPipe(PIPE_CONTROLPIPE);

	return USB_Host_SendControlRequest(NULL);
    124a:	80 e0       	ldi	r24, 0x00	; 0
    124c:	90 e0       	ldi	r25, 0x00	; 0
    124e:	c5 ce       	rjmp	.-630    	; 0xfda <USB_Host_SendControlRequest>

00001250 <USB_USBTask>:
    1250:	cf 93       	push	r28
			 *  \return Index of the currently selected pipe.
			 */
			static inline uint8_t Pipe_GetCurrentPipe(void) ATTR_WARN_UNUSED_RESULT ATTR_ALWAYS_INLINE;
			static inline uint8_t Pipe_GetCurrentPipe(void)
			{
				return ((UPNUM & PIPE_PIPENUM_MASK) | Pipe_GetPipeDirection());
    1252:	c0 91 a7 00 	lds	r28, 0x00A7
    1256:	cf 70       	andi	r28, 0x0F	; 15
			 *  \return The currently selected pipe's direction, as a \c PIPE_DIR_* mask.
			 */
			static inline uint8_t Pipe_GetPipeDirection(void) ATTR_WARN_UNUSED_RESULT ATTR_ALWAYS_INLINE;
			static inline uint8_t Pipe_GetPipeDirection(void)
			{
				return (UPCFG0X & (1 << EPDIR)) ? PIPE_DIR_IN : PIPE_DIR_OUT;
    1258:	80 91 aa 00 	lds	r24, 0x00AA
			 *  \param[in] Address  Address of the pipe to select.
			 */
			static inline void Pipe_SelectPipe(const uint8_t Address) ATTR_ALWAYS_INLINE;
			static inline void Pipe_SelectPipe(const uint8_t Address)
			{
				UPNUM = (Address & PIPE_PIPENUM_MASK);
    125c:	10 92 a7 00 	sts	0x00A7, r1
{
	uint8_t PrevPipe = Pipe_GetCurrentPipe();

	Pipe_SelectPipe(PIPE_CONTROLPIPE);

	USB_Host_ProcessNextHostState();
    1260:	38 db       	rcall	.-2448   	; 0x8d2 <USB_Host_ProcessNextHostState>
    1262:	c0 93 a7 00 	sts	0x00A7, r28
    1266:	cf 91       	pop	r28
	#elif defined(USB_CAN_BE_HOST)
		USB_HostTask();
	#elif defined(USB_CAN_BE_DEVICE)
		USB_DeviceTask();
	#endif
}
    1268:	08 95       	ret

0000126a <Serial_putchar>:
    126a:	90 91 c8 00 	lds	r25, 0x00C8
			 *  \param[in] DataByte  Byte to transmit through the USART.
			 */
			static inline void Serial_SendByte(const char DataByte) ATTR_ALWAYS_INLINE;
			static inline void Serial_SendByte(const char DataByte)
			{
				while (!(Serial_IsSendReady()));
    126e:	95 ff       	sbrs	r25, 5
    1270:	fc cf       	rjmp	.-8      	; 0x126a <Serial_putchar>
				UDR1 = DataByte;
    1272:	80 93 ce 00 	sts	0x00CE, r24
{
	(void)Stream;

	Serial_SendByte(DataByte);
	return 0;
}
    1276:	80 e0       	ldi	r24, 0x00	; 0
    1278:	90 e0       	ldi	r25, 0x00	; 0
    127a:	08 95       	ret

0000127c <Serial_getchar>:
			 *  \return Boolean \c true if a character has been received, \c false otherwise.
			 */
			static inline bool Serial_IsCharReceived(void) ATTR_WARN_UNUSED_RESULT ATTR_ALWAYS_INLINE;
			static inline bool Serial_IsCharReceived(void)
			{
				return ((UCSR1A & (1 << RXC1)) ? true : false);
    127c:	80 91 c8 00 	lds	r24, 0x00C8

int Serial_getchar(FILE *Stream)
{
	(void)Stream;

	if (!(Serial_IsCharReceived()))
    1280:	87 ff       	sbrs	r24, 7
    1282:	08 c0       	rjmp	.+16     	; 0x1294 <Serial_getchar+0x18>
    1284:	80 91 c8 00 	lds	r24, 0x00C8
			 *  \return Next byte received from the USART, or a negative value if no byte has been received.
			 */
			static inline int16_t Serial_ReceiveByte(void) ATTR_ALWAYS_INLINE;
			static inline int16_t Serial_ReceiveByte(void)
			{
				if (!(Serial_IsCharReceived()))
    1288:	87 ff       	sbrs	r24, 7
    128a:	07 c0       	rjmp	.+14     	; 0x129a <Serial_getchar+0x1e>
				  return -1;

				return UDR1;
    128c:	80 91 ce 00 	lds	r24, 0x00CE
    1290:	90 e0       	ldi	r25, 0x00	; 0
    1292:	08 95       	ret
	  return _FDEV_EOF;
    1294:	8e ef       	ldi	r24, 0xFE	; 254
    1296:	9f ef       	ldi	r25, 0xFF	; 255
    1298:	08 95       	ret
			 */
			static inline int16_t Serial_ReceiveByte(void) ATTR_ALWAYS_INLINE;
			static inline int16_t Serial_ReceiveByte(void)
			{
				if (!(Serial_IsCharReceived()))
				  return -1;
    129a:	8f ef       	ldi	r24, 0xFF	; 255
    129c:	9f ef       	ldi	r25, 0xFF	; 255

	return Serial_ReceiveByte();
}
    129e:	08 95       	ret

000012a0 <Serial_CreateStream>:
	while (Length--)
	  Serial_SendByte(*((uint8_t*)Buffer++));
}

void Serial_CreateStream(FILE* Stream)
{
    12a0:	fc 01       	movw	r30, r24
	if (!(Stream))
    12a2:	00 97       	sbiw	r24, 0x00	; 0
    12a4:	59 f4       	brne	.+22     	; 0x12bc <Serial_CreateStream+0x1c>
	{
		Stream = &USARTSerialStream;
		stdin  = Stream;
    12a6:	83 e2       	ldi	r24, 0x23	; 35
    12a8:	91 e0       	ldi	r25, 0x01	; 1
    12aa:	90 93 32 01 	sts	0x0132, r25
    12ae:	80 93 31 01 	sts	0x0131, r24
		stdout = Stream;
    12b2:	90 93 34 01 	sts	0x0134, r25
    12b6:	80 93 33 01 	sts	0x0133, r24

void Serial_CreateStream(FILE* Stream)
{
	if (!(Stream))
	{
		Stream = &USARTSerialStream;
    12ba:	fc 01       	movw	r30, r24
		stdin  = Stream;
		stdout = Stream;
	}

	*Stream = (FILE)FDEV_SETUP_STREAM(Serial_putchar, Serial_getchar, _FDEV_SETUP_RW);
    12bc:	8e e0       	ldi	r24, 0x0E	; 14
    12be:	df 01       	movw	r26, r30
    12c0:	1d 92       	st	X+, r1
    12c2:	8a 95       	dec	r24
    12c4:	e9 f7       	brne	.-6      	; 0x12c0 <Serial_CreateStream+0x20>
    12c6:	83 e0       	ldi	r24, 0x03	; 3
    12c8:	83 83       	std	Z+3, r24	; 0x03
    12ca:	85 e3       	ldi	r24, 0x35	; 53
    12cc:	99 e0       	ldi	r25, 0x09	; 9
    12ce:	91 87       	std	Z+9, r25	; 0x09
    12d0:	80 87       	std	Z+8, r24	; 0x08
    12d2:	8e e3       	ldi	r24, 0x3E	; 62
    12d4:	99 e0       	ldi	r25, 0x09	; 9
    12d6:	93 87       	std	Z+11, r25	; 0x0b
    12d8:	82 87       	std	Z+10, r24	; 0x0a
    12da:	08 95       	ret

000012dc <printf_P>:
    12dc:	0f 93       	push	r16
    12de:	1f 93       	push	r17
    12e0:	cf 93       	push	r28
    12e2:	df 93       	push	r29
    12e4:	cd b7       	in	r28, 0x3d	; 61
    12e6:	de b7       	in	r29, 0x3e	; 62
    12e8:	fe 01       	movw	r30, r28
    12ea:	37 96       	adiw	r30, 0x07	; 7
    12ec:	61 91       	ld	r22, Z+
    12ee:	71 91       	ld	r23, Z+
    12f0:	03 e3       	ldi	r16, 0x33	; 51
    12f2:	11 e0       	ldi	r17, 0x01	; 1
    12f4:	d8 01       	movw	r26, r16
    12f6:	8d 91       	ld	r24, X+
    12f8:	9c 91       	ld	r25, X
    12fa:	dc 01       	movw	r26, r24
    12fc:	13 96       	adiw	r26, 0x03	; 3
    12fe:	2c 91       	ld	r18, X
    1300:	13 97       	sbiw	r26, 0x03	; 3
    1302:	28 60       	ori	r18, 0x08	; 8
    1304:	13 96       	adiw	r26, 0x03	; 3
    1306:	2c 93       	st	X, r18
    1308:	af 01       	movw	r20, r30
    130a:	3a d0       	rcall	.+116    	; 0x1380 <vfprintf>
    130c:	d8 01       	movw	r26, r16
    130e:	ed 91       	ld	r30, X+
    1310:	fc 91       	ld	r31, X
    1312:	23 81       	ldd	r18, Z+3	; 0x03
    1314:	27 7f       	andi	r18, 0xF7	; 247
    1316:	23 83       	std	Z+3, r18	; 0x03
    1318:	df 91       	pop	r29
    131a:	cf 91       	pop	r28
    131c:	1f 91       	pop	r17
    131e:	0f 91       	pop	r16
    1320:	08 95       	ret

00001322 <puts_P>:
    1322:	0f 93       	push	r16
    1324:	1f 93       	push	r17
    1326:	cf 93       	push	r28
    1328:	df 93       	push	r29
    132a:	ec 01       	movw	r28, r24
    132c:	e0 91 33 01 	lds	r30, 0x0133
    1330:	f0 91 34 01 	lds	r31, 0x0134
    1334:	83 81       	ldd	r24, Z+3	; 0x03
    1336:	81 ff       	sbrs	r24, 1
    1338:	1c c0       	rjmp	.+56     	; 0x1372 <puts_P+0x50>
    133a:	00 e0       	ldi	r16, 0x00	; 0
    133c:	10 e0       	ldi	r17, 0x00	; 0
    133e:	fe 01       	movw	r30, r28
    1340:	84 91       	lpm	r24, Z
    1342:	60 91 33 01 	lds	r22, 0x0133
    1346:	70 91 34 01 	lds	r23, 0x0134
    134a:	db 01       	movw	r26, r22
    134c:	18 96       	adiw	r26, 0x08	; 8
    134e:	ed 91       	ld	r30, X+
    1350:	fc 91       	ld	r31, X
    1352:	19 97       	sbiw	r26, 0x09	; 9
    1354:	88 23       	and	r24, r24
    1356:	39 f0       	breq	.+14     	; 0x1366 <puts_P+0x44>
    1358:	09 95       	icall
    135a:	89 2b       	or	r24, r25
    135c:	11 f0       	breq	.+4      	; 0x1362 <puts_P+0x40>
    135e:	0f ef       	ldi	r16, 0xFF	; 255
    1360:	1f ef       	ldi	r17, 0xFF	; 255
    1362:	21 96       	adiw	r28, 0x01	; 1
    1364:	ec cf       	rjmp	.-40     	; 0x133e <puts_P+0x1c>
    1366:	8a e0       	ldi	r24, 0x0A	; 10
    1368:	09 95       	icall
    136a:	89 2b       	or	r24, r25
    136c:	11 f4       	brne	.+4      	; 0x1372 <puts_P+0x50>
    136e:	c8 01       	movw	r24, r16
    1370:	02 c0       	rjmp	.+4      	; 0x1376 <puts_P+0x54>
    1372:	8f ef       	ldi	r24, 0xFF	; 255
    1374:	9f ef       	ldi	r25, 0xFF	; 255
    1376:	df 91       	pop	r29
    1378:	cf 91       	pop	r28
    137a:	1f 91       	pop	r17
    137c:	0f 91       	pop	r16
    137e:	08 95       	ret

00001380 <vfprintf>:
    1380:	2f 92       	push	r2
    1382:	3f 92       	push	r3
    1384:	4f 92       	push	r4
    1386:	5f 92       	push	r5
    1388:	6f 92       	push	r6
    138a:	7f 92       	push	r7
    138c:	8f 92       	push	r8
    138e:	9f 92       	push	r9
    1390:	af 92       	push	r10
    1392:	bf 92       	push	r11
    1394:	cf 92       	push	r12
    1396:	df 92       	push	r13
    1398:	ef 92       	push	r14
    139a:	ff 92       	push	r15
    139c:	0f 93       	push	r16
    139e:	1f 93       	push	r17
    13a0:	cf 93       	push	r28
    13a2:	df 93       	push	r29
    13a4:	cd b7       	in	r28, 0x3d	; 61
    13a6:	de b7       	in	r29, 0x3e	; 62
    13a8:	2c 97       	sbiw	r28, 0x0c	; 12
    13aa:	0f b6       	in	r0, 0x3f	; 63
    13ac:	f8 94       	cli
    13ae:	de bf       	out	0x3e, r29	; 62
    13b0:	0f be       	out	0x3f, r0	; 63
    13b2:	cd bf       	out	0x3d, r28	; 61
    13b4:	7c 01       	movw	r14, r24
    13b6:	6b 01       	movw	r12, r22
    13b8:	8a 01       	movw	r16, r20
    13ba:	fc 01       	movw	r30, r24
    13bc:	17 82       	std	Z+7, r1	; 0x07
    13be:	16 82       	std	Z+6, r1	; 0x06
    13c0:	83 81       	ldd	r24, Z+3	; 0x03
    13c2:	81 ff       	sbrs	r24, 1
    13c4:	b0 c1       	rjmp	.+864    	; 0x1726 <vfprintf+0x3a6>
    13c6:	ce 01       	movw	r24, r28
    13c8:	01 96       	adiw	r24, 0x01	; 1
    13ca:	4c 01       	movw	r8, r24
    13cc:	f7 01       	movw	r30, r14
    13ce:	93 81       	ldd	r25, Z+3	; 0x03
    13d0:	f6 01       	movw	r30, r12
    13d2:	93 fd       	sbrc	r25, 3
    13d4:	85 91       	lpm	r24, Z+
    13d6:	93 ff       	sbrs	r25, 3
    13d8:	81 91       	ld	r24, Z+
    13da:	6f 01       	movw	r12, r30
    13dc:	88 23       	and	r24, r24
    13de:	09 f4       	brne	.+2      	; 0x13e2 <vfprintf+0x62>
    13e0:	9e c1       	rjmp	.+828    	; 0x171e <vfprintf+0x39e>
    13e2:	85 32       	cpi	r24, 0x25	; 37
    13e4:	39 f4       	brne	.+14     	; 0x13f4 <vfprintf+0x74>
    13e6:	93 fd       	sbrc	r25, 3
    13e8:	85 91       	lpm	r24, Z+
    13ea:	93 ff       	sbrs	r25, 3
    13ec:	81 91       	ld	r24, Z+
    13ee:	6f 01       	movw	r12, r30
    13f0:	85 32       	cpi	r24, 0x25	; 37
    13f2:	21 f4       	brne	.+8      	; 0x13fc <vfprintf+0x7c>
    13f4:	b7 01       	movw	r22, r14
    13f6:	90 e0       	ldi	r25, 0x00	; 0
    13f8:	c7 d1       	rcall	.+910    	; 0x1788 <fputc>
    13fa:	e8 cf       	rjmp	.-48     	; 0x13cc <vfprintf+0x4c>
    13fc:	51 2c       	mov	r5, r1
    13fe:	31 2c       	mov	r3, r1
    1400:	20 e0       	ldi	r18, 0x00	; 0
    1402:	20 32       	cpi	r18, 0x20	; 32
    1404:	a0 f4       	brcc	.+40     	; 0x142e <vfprintf+0xae>
    1406:	8b 32       	cpi	r24, 0x2B	; 43
    1408:	69 f0       	breq	.+26     	; 0x1424 <vfprintf+0xa4>
    140a:	30 f4       	brcc	.+12     	; 0x1418 <vfprintf+0x98>
    140c:	80 32       	cpi	r24, 0x20	; 32
    140e:	59 f0       	breq	.+22     	; 0x1426 <vfprintf+0xa6>
    1410:	83 32       	cpi	r24, 0x23	; 35
    1412:	69 f4       	brne	.+26     	; 0x142e <vfprintf+0xae>
    1414:	20 61       	ori	r18, 0x10	; 16
    1416:	2c c0       	rjmp	.+88     	; 0x1470 <vfprintf+0xf0>
    1418:	8d 32       	cpi	r24, 0x2D	; 45
    141a:	39 f0       	breq	.+14     	; 0x142a <vfprintf+0xaa>
    141c:	80 33       	cpi	r24, 0x30	; 48
    141e:	39 f4       	brne	.+14     	; 0x142e <vfprintf+0xae>
    1420:	21 60       	ori	r18, 0x01	; 1
    1422:	26 c0       	rjmp	.+76     	; 0x1470 <vfprintf+0xf0>
    1424:	22 60       	ori	r18, 0x02	; 2
    1426:	24 60       	ori	r18, 0x04	; 4
    1428:	23 c0       	rjmp	.+70     	; 0x1470 <vfprintf+0xf0>
    142a:	28 60       	ori	r18, 0x08	; 8
    142c:	21 c0       	rjmp	.+66     	; 0x1470 <vfprintf+0xf0>
    142e:	27 fd       	sbrc	r18, 7
    1430:	27 c0       	rjmp	.+78     	; 0x1480 <vfprintf+0x100>
    1432:	30 ed       	ldi	r19, 0xD0	; 208
    1434:	38 0f       	add	r19, r24
    1436:	3a 30       	cpi	r19, 0x0A	; 10
    1438:	78 f4       	brcc	.+30     	; 0x1458 <vfprintf+0xd8>
    143a:	26 ff       	sbrs	r18, 6
    143c:	06 c0       	rjmp	.+12     	; 0x144a <vfprintf+0xca>
    143e:	fa e0       	ldi	r31, 0x0A	; 10
    1440:	5f 9e       	mul	r5, r31
    1442:	30 0d       	add	r19, r0
    1444:	11 24       	eor	r1, r1
    1446:	53 2e       	mov	r5, r19
    1448:	13 c0       	rjmp	.+38     	; 0x1470 <vfprintf+0xf0>
    144a:	8a e0       	ldi	r24, 0x0A	; 10
    144c:	38 9e       	mul	r3, r24
    144e:	30 0d       	add	r19, r0
    1450:	11 24       	eor	r1, r1
    1452:	33 2e       	mov	r3, r19
    1454:	20 62       	ori	r18, 0x20	; 32
    1456:	0c c0       	rjmp	.+24     	; 0x1470 <vfprintf+0xf0>
    1458:	8e 32       	cpi	r24, 0x2E	; 46
    145a:	21 f4       	brne	.+8      	; 0x1464 <vfprintf+0xe4>
    145c:	26 fd       	sbrc	r18, 6
    145e:	5f c1       	rjmp	.+702    	; 0x171e <vfprintf+0x39e>
    1460:	20 64       	ori	r18, 0x40	; 64
    1462:	06 c0       	rjmp	.+12     	; 0x1470 <vfprintf+0xf0>
    1464:	8c 36       	cpi	r24, 0x6C	; 108
    1466:	11 f4       	brne	.+4      	; 0x146c <vfprintf+0xec>
    1468:	20 68       	ori	r18, 0x80	; 128
    146a:	02 c0       	rjmp	.+4      	; 0x1470 <vfprintf+0xf0>
    146c:	88 36       	cpi	r24, 0x68	; 104
    146e:	41 f4       	brne	.+16     	; 0x1480 <vfprintf+0x100>
    1470:	f6 01       	movw	r30, r12
    1472:	93 fd       	sbrc	r25, 3
    1474:	85 91       	lpm	r24, Z+
    1476:	93 ff       	sbrs	r25, 3
    1478:	81 91       	ld	r24, Z+
    147a:	6f 01       	movw	r12, r30
    147c:	81 11       	cpse	r24, r1
    147e:	c1 cf       	rjmp	.-126    	; 0x1402 <vfprintf+0x82>
    1480:	98 2f       	mov	r25, r24
    1482:	9f 7d       	andi	r25, 0xDF	; 223
    1484:	95 54       	subi	r25, 0x45	; 69
    1486:	93 30       	cpi	r25, 0x03	; 3
    1488:	28 f4       	brcc	.+10     	; 0x1494 <vfprintf+0x114>
    148a:	0c 5f       	subi	r16, 0xFC	; 252
    148c:	1f 4f       	sbci	r17, 0xFF	; 255
    148e:	ff e3       	ldi	r31, 0x3F	; 63
    1490:	f9 83       	std	Y+1, r31	; 0x01
    1492:	0d c0       	rjmp	.+26     	; 0x14ae <vfprintf+0x12e>
    1494:	83 36       	cpi	r24, 0x63	; 99
    1496:	31 f0       	breq	.+12     	; 0x14a4 <vfprintf+0x124>
    1498:	83 37       	cpi	r24, 0x73	; 115
    149a:	71 f0       	breq	.+28     	; 0x14b8 <vfprintf+0x138>
    149c:	83 35       	cpi	r24, 0x53	; 83
    149e:	09 f0       	breq	.+2      	; 0x14a2 <vfprintf+0x122>
    14a0:	57 c0       	rjmp	.+174    	; 0x1550 <vfprintf+0x1d0>
    14a2:	21 c0       	rjmp	.+66     	; 0x14e6 <vfprintf+0x166>
    14a4:	f8 01       	movw	r30, r16
    14a6:	80 81       	ld	r24, Z
    14a8:	89 83       	std	Y+1, r24	; 0x01
    14aa:	0e 5f       	subi	r16, 0xFE	; 254
    14ac:	1f 4f       	sbci	r17, 0xFF	; 255
    14ae:	44 24       	eor	r4, r4
    14b0:	43 94       	inc	r4
    14b2:	51 2c       	mov	r5, r1
    14b4:	54 01       	movw	r10, r8
    14b6:	14 c0       	rjmp	.+40     	; 0x14e0 <vfprintf+0x160>
    14b8:	38 01       	movw	r6, r16
    14ba:	f2 e0       	ldi	r31, 0x02	; 2
    14bc:	6f 0e       	add	r6, r31
    14be:	71 1c       	adc	r7, r1
    14c0:	f8 01       	movw	r30, r16
    14c2:	a0 80       	ld	r10, Z
    14c4:	b1 80       	ldd	r11, Z+1	; 0x01
    14c6:	26 ff       	sbrs	r18, 6
    14c8:	03 c0       	rjmp	.+6      	; 0x14d0 <vfprintf+0x150>
    14ca:	65 2d       	mov	r22, r5
    14cc:	70 e0       	ldi	r23, 0x00	; 0
    14ce:	02 c0       	rjmp	.+4      	; 0x14d4 <vfprintf+0x154>
    14d0:	6f ef       	ldi	r22, 0xFF	; 255
    14d2:	7f ef       	ldi	r23, 0xFF	; 255
    14d4:	c5 01       	movw	r24, r10
    14d6:	2c 87       	std	Y+12, r18	; 0x0c
    14d8:	4c d1       	rcall	.+664    	; 0x1772 <strnlen>
    14da:	2c 01       	movw	r4, r24
    14dc:	83 01       	movw	r16, r6
    14de:	2c 85       	ldd	r18, Y+12	; 0x0c
    14e0:	2f 77       	andi	r18, 0x7F	; 127
    14e2:	22 2e       	mov	r2, r18
    14e4:	16 c0       	rjmp	.+44     	; 0x1512 <vfprintf+0x192>
    14e6:	38 01       	movw	r6, r16
    14e8:	f2 e0       	ldi	r31, 0x02	; 2
    14ea:	6f 0e       	add	r6, r31
    14ec:	71 1c       	adc	r7, r1
    14ee:	f8 01       	movw	r30, r16
    14f0:	a0 80       	ld	r10, Z
    14f2:	b1 80       	ldd	r11, Z+1	; 0x01
    14f4:	26 ff       	sbrs	r18, 6
    14f6:	03 c0       	rjmp	.+6      	; 0x14fe <vfprintf+0x17e>
    14f8:	65 2d       	mov	r22, r5
    14fa:	70 e0       	ldi	r23, 0x00	; 0
    14fc:	02 c0       	rjmp	.+4      	; 0x1502 <vfprintf+0x182>
    14fe:	6f ef       	ldi	r22, 0xFF	; 255
    1500:	7f ef       	ldi	r23, 0xFF	; 255
    1502:	c5 01       	movw	r24, r10
    1504:	2c 87       	std	Y+12, r18	; 0x0c
    1506:	2a d1       	rcall	.+596    	; 0x175c <strnlen_P>
    1508:	2c 01       	movw	r4, r24
    150a:	2c 85       	ldd	r18, Y+12	; 0x0c
    150c:	20 68       	ori	r18, 0x80	; 128
    150e:	22 2e       	mov	r2, r18
    1510:	83 01       	movw	r16, r6
    1512:	23 fc       	sbrc	r2, 3
    1514:	19 c0       	rjmp	.+50     	; 0x1548 <vfprintf+0x1c8>
    1516:	83 2d       	mov	r24, r3
    1518:	90 e0       	ldi	r25, 0x00	; 0
    151a:	48 16       	cp	r4, r24
    151c:	59 06       	cpc	r5, r25
    151e:	a0 f4       	brcc	.+40     	; 0x1548 <vfprintf+0x1c8>
    1520:	b7 01       	movw	r22, r14
    1522:	80 e2       	ldi	r24, 0x20	; 32
    1524:	90 e0       	ldi	r25, 0x00	; 0
    1526:	30 d1       	rcall	.+608    	; 0x1788 <fputc>
    1528:	3a 94       	dec	r3
    152a:	f5 cf       	rjmp	.-22     	; 0x1516 <vfprintf+0x196>
    152c:	f5 01       	movw	r30, r10
    152e:	27 fc       	sbrc	r2, 7
    1530:	85 91       	lpm	r24, Z+
    1532:	27 fe       	sbrs	r2, 7
    1534:	81 91       	ld	r24, Z+
    1536:	5f 01       	movw	r10, r30
    1538:	b7 01       	movw	r22, r14
    153a:	90 e0       	ldi	r25, 0x00	; 0
    153c:	25 d1       	rcall	.+586    	; 0x1788 <fputc>
    153e:	31 10       	cpse	r3, r1
    1540:	3a 94       	dec	r3
    1542:	f1 e0       	ldi	r31, 0x01	; 1
    1544:	4f 1a       	sub	r4, r31
    1546:	51 08       	sbc	r5, r1
    1548:	41 14       	cp	r4, r1
    154a:	51 04       	cpc	r5, r1
    154c:	79 f7       	brne	.-34     	; 0x152c <vfprintf+0x1ac>
    154e:	de c0       	rjmp	.+444    	; 0x170c <vfprintf+0x38c>
    1550:	84 36       	cpi	r24, 0x64	; 100
    1552:	11 f0       	breq	.+4      	; 0x1558 <vfprintf+0x1d8>
    1554:	89 36       	cpi	r24, 0x69	; 105
    1556:	31 f5       	brne	.+76     	; 0x15a4 <vfprintf+0x224>
    1558:	f8 01       	movw	r30, r16
    155a:	27 ff       	sbrs	r18, 7
    155c:	07 c0       	rjmp	.+14     	; 0x156c <vfprintf+0x1ec>
    155e:	60 81       	ld	r22, Z
    1560:	71 81       	ldd	r23, Z+1	; 0x01
    1562:	82 81       	ldd	r24, Z+2	; 0x02
    1564:	93 81       	ldd	r25, Z+3	; 0x03
    1566:	0c 5f       	subi	r16, 0xFC	; 252
    1568:	1f 4f       	sbci	r17, 0xFF	; 255
    156a:	08 c0       	rjmp	.+16     	; 0x157c <vfprintf+0x1fc>
    156c:	60 81       	ld	r22, Z
    156e:	71 81       	ldd	r23, Z+1	; 0x01
    1570:	88 27       	eor	r24, r24
    1572:	77 fd       	sbrc	r23, 7
    1574:	80 95       	com	r24
    1576:	98 2f       	mov	r25, r24
    1578:	0e 5f       	subi	r16, 0xFE	; 254
    157a:	1f 4f       	sbci	r17, 0xFF	; 255
    157c:	2f 76       	andi	r18, 0x6F	; 111
    157e:	b2 2e       	mov	r11, r18
    1580:	97 ff       	sbrs	r25, 7
    1582:	09 c0       	rjmp	.+18     	; 0x1596 <vfprintf+0x216>
    1584:	90 95       	com	r25
    1586:	80 95       	com	r24
    1588:	70 95       	com	r23
    158a:	61 95       	neg	r22
    158c:	7f 4f       	sbci	r23, 0xFF	; 255
    158e:	8f 4f       	sbci	r24, 0xFF	; 255
    1590:	9f 4f       	sbci	r25, 0xFF	; 255
    1592:	20 68       	ori	r18, 0x80	; 128
    1594:	b2 2e       	mov	r11, r18
    1596:	2a e0       	ldi	r18, 0x0A	; 10
    1598:	30 e0       	ldi	r19, 0x00	; 0
    159a:	a4 01       	movw	r20, r8
    159c:	27 d1       	rcall	.+590    	; 0x17ec <__ultoa_invert>
    159e:	a8 2e       	mov	r10, r24
    15a0:	a8 18       	sub	r10, r8
    15a2:	43 c0       	rjmp	.+134    	; 0x162a <vfprintf+0x2aa>
    15a4:	85 37       	cpi	r24, 0x75	; 117
    15a6:	29 f4       	brne	.+10     	; 0x15b2 <vfprintf+0x232>
    15a8:	2f 7e       	andi	r18, 0xEF	; 239
    15aa:	b2 2e       	mov	r11, r18
    15ac:	2a e0       	ldi	r18, 0x0A	; 10
    15ae:	30 e0       	ldi	r19, 0x00	; 0
    15b0:	25 c0       	rjmp	.+74     	; 0x15fc <vfprintf+0x27c>
    15b2:	f2 2f       	mov	r31, r18
    15b4:	f9 7f       	andi	r31, 0xF9	; 249
    15b6:	bf 2e       	mov	r11, r31
    15b8:	8f 36       	cpi	r24, 0x6F	; 111
    15ba:	c1 f0       	breq	.+48     	; 0x15ec <vfprintf+0x26c>
    15bc:	18 f4       	brcc	.+6      	; 0x15c4 <vfprintf+0x244>
    15be:	88 35       	cpi	r24, 0x58	; 88
    15c0:	79 f0       	breq	.+30     	; 0x15e0 <vfprintf+0x260>
    15c2:	ad c0       	rjmp	.+346    	; 0x171e <vfprintf+0x39e>
    15c4:	80 37       	cpi	r24, 0x70	; 112
    15c6:	19 f0       	breq	.+6      	; 0x15ce <vfprintf+0x24e>
    15c8:	88 37       	cpi	r24, 0x78	; 120
    15ca:	21 f0       	breq	.+8      	; 0x15d4 <vfprintf+0x254>
    15cc:	a8 c0       	rjmp	.+336    	; 0x171e <vfprintf+0x39e>
    15ce:	2f 2f       	mov	r18, r31
    15d0:	20 61       	ori	r18, 0x10	; 16
    15d2:	b2 2e       	mov	r11, r18
    15d4:	b4 fe       	sbrs	r11, 4
    15d6:	0d c0       	rjmp	.+26     	; 0x15f2 <vfprintf+0x272>
    15d8:	8b 2d       	mov	r24, r11
    15da:	84 60       	ori	r24, 0x04	; 4
    15dc:	b8 2e       	mov	r11, r24
    15de:	09 c0       	rjmp	.+18     	; 0x15f2 <vfprintf+0x272>
    15e0:	24 ff       	sbrs	r18, 4
    15e2:	0a c0       	rjmp	.+20     	; 0x15f8 <vfprintf+0x278>
    15e4:	9f 2f       	mov	r25, r31
    15e6:	96 60       	ori	r25, 0x06	; 6
    15e8:	b9 2e       	mov	r11, r25
    15ea:	06 c0       	rjmp	.+12     	; 0x15f8 <vfprintf+0x278>
    15ec:	28 e0       	ldi	r18, 0x08	; 8
    15ee:	30 e0       	ldi	r19, 0x00	; 0
    15f0:	05 c0       	rjmp	.+10     	; 0x15fc <vfprintf+0x27c>
    15f2:	20 e1       	ldi	r18, 0x10	; 16
    15f4:	30 e0       	ldi	r19, 0x00	; 0
    15f6:	02 c0       	rjmp	.+4      	; 0x15fc <vfprintf+0x27c>
    15f8:	20 e1       	ldi	r18, 0x10	; 16
    15fa:	32 e0       	ldi	r19, 0x02	; 2
    15fc:	f8 01       	movw	r30, r16
    15fe:	b7 fe       	sbrs	r11, 7
    1600:	07 c0       	rjmp	.+14     	; 0x1610 <vfprintf+0x290>
    1602:	60 81       	ld	r22, Z
    1604:	71 81       	ldd	r23, Z+1	; 0x01
    1606:	82 81       	ldd	r24, Z+2	; 0x02
    1608:	93 81       	ldd	r25, Z+3	; 0x03
    160a:	0c 5f       	subi	r16, 0xFC	; 252
    160c:	1f 4f       	sbci	r17, 0xFF	; 255
    160e:	06 c0       	rjmp	.+12     	; 0x161c <vfprintf+0x29c>
    1610:	60 81       	ld	r22, Z
    1612:	71 81       	ldd	r23, Z+1	; 0x01
    1614:	80 e0       	ldi	r24, 0x00	; 0
    1616:	90 e0       	ldi	r25, 0x00	; 0
    1618:	0e 5f       	subi	r16, 0xFE	; 254
    161a:	1f 4f       	sbci	r17, 0xFF	; 255
    161c:	a4 01       	movw	r20, r8
    161e:	e6 d0       	rcall	.+460    	; 0x17ec <__ultoa_invert>
    1620:	a8 2e       	mov	r10, r24
    1622:	a8 18       	sub	r10, r8
    1624:	fb 2d       	mov	r31, r11
    1626:	ff 77       	andi	r31, 0x7F	; 127
    1628:	bf 2e       	mov	r11, r31
    162a:	b6 fe       	sbrs	r11, 6
    162c:	0b c0       	rjmp	.+22     	; 0x1644 <vfprintf+0x2c4>
    162e:	2b 2d       	mov	r18, r11
    1630:	2e 7f       	andi	r18, 0xFE	; 254
    1632:	a5 14       	cp	r10, r5
    1634:	50 f4       	brcc	.+20     	; 0x164a <vfprintf+0x2ca>
    1636:	b4 fe       	sbrs	r11, 4
    1638:	0a c0       	rjmp	.+20     	; 0x164e <vfprintf+0x2ce>
    163a:	b2 fc       	sbrc	r11, 2
    163c:	08 c0       	rjmp	.+16     	; 0x164e <vfprintf+0x2ce>
    163e:	2b 2d       	mov	r18, r11
    1640:	2e 7e       	andi	r18, 0xEE	; 238
    1642:	05 c0       	rjmp	.+10     	; 0x164e <vfprintf+0x2ce>
    1644:	7a 2c       	mov	r7, r10
    1646:	2b 2d       	mov	r18, r11
    1648:	03 c0       	rjmp	.+6      	; 0x1650 <vfprintf+0x2d0>
    164a:	7a 2c       	mov	r7, r10
    164c:	01 c0       	rjmp	.+2      	; 0x1650 <vfprintf+0x2d0>
    164e:	75 2c       	mov	r7, r5
    1650:	24 ff       	sbrs	r18, 4
    1652:	0d c0       	rjmp	.+26     	; 0x166e <vfprintf+0x2ee>
    1654:	fe 01       	movw	r30, r28
    1656:	ea 0d       	add	r30, r10
    1658:	f1 1d       	adc	r31, r1
    165a:	80 81       	ld	r24, Z
    165c:	80 33       	cpi	r24, 0x30	; 48
    165e:	11 f4       	brne	.+4      	; 0x1664 <vfprintf+0x2e4>
    1660:	29 7e       	andi	r18, 0xE9	; 233
    1662:	09 c0       	rjmp	.+18     	; 0x1676 <vfprintf+0x2f6>
    1664:	22 ff       	sbrs	r18, 2
    1666:	06 c0       	rjmp	.+12     	; 0x1674 <vfprintf+0x2f4>
    1668:	73 94       	inc	r7
    166a:	73 94       	inc	r7
    166c:	04 c0       	rjmp	.+8      	; 0x1676 <vfprintf+0x2f6>
    166e:	82 2f       	mov	r24, r18
    1670:	86 78       	andi	r24, 0x86	; 134
    1672:	09 f0       	breq	.+2      	; 0x1676 <vfprintf+0x2f6>
    1674:	73 94       	inc	r7
    1676:	23 fd       	sbrc	r18, 3
    1678:	12 c0       	rjmp	.+36     	; 0x169e <vfprintf+0x31e>
    167a:	20 ff       	sbrs	r18, 0
    167c:	06 c0       	rjmp	.+12     	; 0x168a <vfprintf+0x30a>
    167e:	5a 2c       	mov	r5, r10
    1680:	73 14       	cp	r7, r3
    1682:	18 f4       	brcc	.+6      	; 0x168a <vfprintf+0x30a>
    1684:	53 0c       	add	r5, r3
    1686:	57 18       	sub	r5, r7
    1688:	73 2c       	mov	r7, r3
    168a:	73 14       	cp	r7, r3
    168c:	60 f4       	brcc	.+24     	; 0x16a6 <vfprintf+0x326>
    168e:	b7 01       	movw	r22, r14
    1690:	80 e2       	ldi	r24, 0x20	; 32
    1692:	90 e0       	ldi	r25, 0x00	; 0
    1694:	2c 87       	std	Y+12, r18	; 0x0c
    1696:	78 d0       	rcall	.+240    	; 0x1788 <fputc>
    1698:	73 94       	inc	r7
    169a:	2c 85       	ldd	r18, Y+12	; 0x0c
    169c:	f6 cf       	rjmp	.-20     	; 0x168a <vfprintf+0x30a>
    169e:	73 14       	cp	r7, r3
    16a0:	10 f4       	brcc	.+4      	; 0x16a6 <vfprintf+0x326>
    16a2:	37 18       	sub	r3, r7
    16a4:	01 c0       	rjmp	.+2      	; 0x16a8 <vfprintf+0x328>
    16a6:	31 2c       	mov	r3, r1
    16a8:	24 ff       	sbrs	r18, 4
    16aa:	11 c0       	rjmp	.+34     	; 0x16ce <vfprintf+0x34e>
    16ac:	b7 01       	movw	r22, r14
    16ae:	80 e3       	ldi	r24, 0x30	; 48
    16b0:	90 e0       	ldi	r25, 0x00	; 0
    16b2:	2c 87       	std	Y+12, r18	; 0x0c
    16b4:	69 d0       	rcall	.+210    	; 0x1788 <fputc>
    16b6:	2c 85       	ldd	r18, Y+12	; 0x0c
    16b8:	22 ff       	sbrs	r18, 2
    16ba:	16 c0       	rjmp	.+44     	; 0x16e8 <vfprintf+0x368>
    16bc:	21 ff       	sbrs	r18, 1
    16be:	03 c0       	rjmp	.+6      	; 0x16c6 <vfprintf+0x346>
    16c0:	88 e5       	ldi	r24, 0x58	; 88
    16c2:	90 e0       	ldi	r25, 0x00	; 0
    16c4:	02 c0       	rjmp	.+4      	; 0x16ca <vfprintf+0x34a>
    16c6:	88 e7       	ldi	r24, 0x78	; 120
    16c8:	90 e0       	ldi	r25, 0x00	; 0
    16ca:	b7 01       	movw	r22, r14
    16cc:	0c c0       	rjmp	.+24     	; 0x16e6 <vfprintf+0x366>
    16ce:	82 2f       	mov	r24, r18
    16d0:	86 78       	andi	r24, 0x86	; 134
    16d2:	51 f0       	breq	.+20     	; 0x16e8 <vfprintf+0x368>
    16d4:	21 fd       	sbrc	r18, 1
    16d6:	02 c0       	rjmp	.+4      	; 0x16dc <vfprintf+0x35c>
    16d8:	80 e2       	ldi	r24, 0x20	; 32
    16da:	01 c0       	rjmp	.+2      	; 0x16de <vfprintf+0x35e>
    16dc:	8b e2       	ldi	r24, 0x2B	; 43
    16de:	27 fd       	sbrc	r18, 7
    16e0:	8d e2       	ldi	r24, 0x2D	; 45
    16e2:	b7 01       	movw	r22, r14
    16e4:	90 e0       	ldi	r25, 0x00	; 0
    16e6:	50 d0       	rcall	.+160    	; 0x1788 <fputc>
    16e8:	a5 14       	cp	r10, r5
    16ea:	30 f4       	brcc	.+12     	; 0x16f8 <vfprintf+0x378>
    16ec:	b7 01       	movw	r22, r14
    16ee:	80 e3       	ldi	r24, 0x30	; 48
    16f0:	90 e0       	ldi	r25, 0x00	; 0
    16f2:	4a d0       	rcall	.+148    	; 0x1788 <fputc>
    16f4:	5a 94       	dec	r5
    16f6:	f8 cf       	rjmp	.-16     	; 0x16e8 <vfprintf+0x368>
    16f8:	aa 94       	dec	r10
    16fa:	f4 01       	movw	r30, r8
    16fc:	ea 0d       	add	r30, r10
    16fe:	f1 1d       	adc	r31, r1
    1700:	80 81       	ld	r24, Z
    1702:	b7 01       	movw	r22, r14
    1704:	90 e0       	ldi	r25, 0x00	; 0
    1706:	40 d0       	rcall	.+128    	; 0x1788 <fputc>
    1708:	a1 10       	cpse	r10, r1
    170a:	f6 cf       	rjmp	.-20     	; 0x16f8 <vfprintf+0x378>
    170c:	33 20       	and	r3, r3
    170e:	09 f4       	brne	.+2      	; 0x1712 <vfprintf+0x392>
    1710:	5d ce       	rjmp	.-838    	; 0x13cc <vfprintf+0x4c>
    1712:	b7 01       	movw	r22, r14
    1714:	80 e2       	ldi	r24, 0x20	; 32
    1716:	90 e0       	ldi	r25, 0x00	; 0
    1718:	37 d0       	rcall	.+110    	; 0x1788 <fputc>
    171a:	3a 94       	dec	r3
    171c:	f7 cf       	rjmp	.-18     	; 0x170c <vfprintf+0x38c>
    171e:	f7 01       	movw	r30, r14
    1720:	86 81       	ldd	r24, Z+6	; 0x06
    1722:	97 81       	ldd	r25, Z+7	; 0x07
    1724:	02 c0       	rjmp	.+4      	; 0x172a <vfprintf+0x3aa>
    1726:	8f ef       	ldi	r24, 0xFF	; 255
    1728:	9f ef       	ldi	r25, 0xFF	; 255
    172a:	2c 96       	adiw	r28, 0x0c	; 12
    172c:	0f b6       	in	r0, 0x3f	; 63
    172e:	f8 94       	cli
    1730:	de bf       	out	0x3e, r29	; 62
    1732:	0f be       	out	0x3f, r0	; 63
    1734:	cd bf       	out	0x3d, r28	; 61
    1736:	df 91       	pop	r29
    1738:	cf 91       	pop	r28
    173a:	1f 91       	pop	r17
    173c:	0f 91       	pop	r16
    173e:	ff 90       	pop	r15
    1740:	ef 90       	pop	r14
    1742:	df 90       	pop	r13
    1744:	cf 90       	pop	r12
    1746:	bf 90       	pop	r11
    1748:	af 90       	pop	r10
    174a:	9f 90       	pop	r9
    174c:	8f 90       	pop	r8
    174e:	7f 90       	pop	r7
    1750:	6f 90       	pop	r6
    1752:	5f 90       	pop	r5
    1754:	4f 90       	pop	r4
    1756:	3f 90       	pop	r3
    1758:	2f 90       	pop	r2
    175a:	08 95       	ret

0000175c <strnlen_P>:
    175c:	fc 01       	movw	r30, r24
    175e:	05 90       	lpm	r0, Z+
    1760:	61 50       	subi	r22, 0x01	; 1
    1762:	70 40       	sbci	r23, 0x00	; 0
    1764:	01 10       	cpse	r0, r1
    1766:	d8 f7       	brcc	.-10     	; 0x175e <strnlen_P+0x2>
    1768:	80 95       	com	r24
    176a:	90 95       	com	r25
    176c:	8e 0f       	add	r24, r30
    176e:	9f 1f       	adc	r25, r31
    1770:	08 95       	ret

00001772 <strnlen>:
    1772:	fc 01       	movw	r30, r24
    1774:	61 50       	subi	r22, 0x01	; 1
    1776:	70 40       	sbci	r23, 0x00	; 0
    1778:	01 90       	ld	r0, Z+
    177a:	01 10       	cpse	r0, r1
    177c:	d8 f7       	brcc	.-10     	; 0x1774 <strnlen+0x2>
    177e:	80 95       	com	r24
    1780:	90 95       	com	r25
    1782:	8e 0f       	add	r24, r30
    1784:	9f 1f       	adc	r25, r31
    1786:	08 95       	ret

00001788 <fputc>:
    1788:	0f 93       	push	r16
    178a:	1f 93       	push	r17
    178c:	cf 93       	push	r28
    178e:	df 93       	push	r29
    1790:	18 2f       	mov	r17, r24
    1792:	09 2f       	mov	r16, r25
    1794:	eb 01       	movw	r28, r22
    1796:	8b 81       	ldd	r24, Y+3	; 0x03
    1798:	81 fd       	sbrc	r24, 1
    179a:	03 c0       	rjmp	.+6      	; 0x17a2 <fputc+0x1a>
    179c:	8f ef       	ldi	r24, 0xFF	; 255
    179e:	9f ef       	ldi	r25, 0xFF	; 255
    17a0:	20 c0       	rjmp	.+64     	; 0x17e2 <fputc+0x5a>
    17a2:	82 ff       	sbrs	r24, 2
    17a4:	10 c0       	rjmp	.+32     	; 0x17c6 <fputc+0x3e>
    17a6:	4e 81       	ldd	r20, Y+6	; 0x06
    17a8:	5f 81       	ldd	r21, Y+7	; 0x07
    17aa:	2c 81       	ldd	r18, Y+4	; 0x04
    17ac:	3d 81       	ldd	r19, Y+5	; 0x05
    17ae:	42 17       	cp	r20, r18
    17b0:	53 07       	cpc	r21, r19
    17b2:	7c f4       	brge	.+30     	; 0x17d2 <fputc+0x4a>
    17b4:	e8 81       	ld	r30, Y
    17b6:	f9 81       	ldd	r31, Y+1	; 0x01
    17b8:	9f 01       	movw	r18, r30
    17ba:	2f 5f       	subi	r18, 0xFF	; 255
    17bc:	3f 4f       	sbci	r19, 0xFF	; 255
    17be:	39 83       	std	Y+1, r19	; 0x01
    17c0:	28 83       	st	Y, r18
    17c2:	10 83       	st	Z, r17
    17c4:	06 c0       	rjmp	.+12     	; 0x17d2 <fputc+0x4a>
    17c6:	e8 85       	ldd	r30, Y+8	; 0x08
    17c8:	f9 85       	ldd	r31, Y+9	; 0x09
    17ca:	81 2f       	mov	r24, r17
    17cc:	09 95       	icall
    17ce:	89 2b       	or	r24, r25
    17d0:	29 f7       	brne	.-54     	; 0x179c <fputc+0x14>
    17d2:	2e 81       	ldd	r18, Y+6	; 0x06
    17d4:	3f 81       	ldd	r19, Y+7	; 0x07
    17d6:	2f 5f       	subi	r18, 0xFF	; 255
    17d8:	3f 4f       	sbci	r19, 0xFF	; 255
    17da:	3f 83       	std	Y+7, r19	; 0x07
    17dc:	2e 83       	std	Y+6, r18	; 0x06
    17de:	81 2f       	mov	r24, r17
    17e0:	90 2f       	mov	r25, r16
    17e2:	df 91       	pop	r29
    17e4:	cf 91       	pop	r28
    17e6:	1f 91       	pop	r17
    17e8:	0f 91       	pop	r16
    17ea:	08 95       	ret

000017ec <__ultoa_invert>:
    17ec:	fa 01       	movw	r30, r20
    17ee:	aa 27       	eor	r26, r26
    17f0:	28 30       	cpi	r18, 0x08	; 8
    17f2:	51 f1       	breq	.+84     	; 0x1848 <__ultoa_invert+0x5c>
    17f4:	20 31       	cpi	r18, 0x10	; 16
    17f6:	81 f1       	breq	.+96     	; 0x1858 <__ultoa_invert+0x6c>
    17f8:	e8 94       	clt
    17fa:	6f 93       	push	r22
    17fc:	6e 7f       	andi	r22, 0xFE	; 254
    17fe:	6e 5f       	subi	r22, 0xFE	; 254
    1800:	7f 4f       	sbci	r23, 0xFF	; 255
    1802:	8f 4f       	sbci	r24, 0xFF	; 255
    1804:	9f 4f       	sbci	r25, 0xFF	; 255
    1806:	af 4f       	sbci	r26, 0xFF	; 255
    1808:	b1 e0       	ldi	r27, 0x01	; 1
    180a:	3e d0       	rcall	.+124    	; 0x1888 <__ultoa_invert+0x9c>
    180c:	b4 e0       	ldi	r27, 0x04	; 4
    180e:	3c d0       	rcall	.+120    	; 0x1888 <__ultoa_invert+0x9c>
    1810:	67 0f       	add	r22, r23
    1812:	78 1f       	adc	r23, r24
    1814:	89 1f       	adc	r24, r25
    1816:	9a 1f       	adc	r25, r26
    1818:	a1 1d       	adc	r26, r1
    181a:	68 0f       	add	r22, r24
    181c:	79 1f       	adc	r23, r25
    181e:	8a 1f       	adc	r24, r26
    1820:	91 1d       	adc	r25, r1
    1822:	a1 1d       	adc	r26, r1
    1824:	6a 0f       	add	r22, r26
    1826:	71 1d       	adc	r23, r1
    1828:	81 1d       	adc	r24, r1
    182a:	91 1d       	adc	r25, r1
    182c:	a1 1d       	adc	r26, r1
    182e:	20 d0       	rcall	.+64     	; 0x1870 <__ultoa_invert+0x84>
    1830:	09 f4       	brne	.+2      	; 0x1834 <__ultoa_invert+0x48>
    1832:	68 94       	set
    1834:	3f 91       	pop	r19
    1836:	2a e0       	ldi	r18, 0x0A	; 10
    1838:	26 9f       	mul	r18, r22
    183a:	11 24       	eor	r1, r1
    183c:	30 19       	sub	r19, r0
    183e:	30 5d       	subi	r19, 0xD0	; 208
    1840:	31 93       	st	Z+, r19
    1842:	de f6       	brtc	.-74     	; 0x17fa <__ultoa_invert+0xe>
    1844:	cf 01       	movw	r24, r30
    1846:	08 95       	ret
    1848:	46 2f       	mov	r20, r22
    184a:	47 70       	andi	r20, 0x07	; 7
    184c:	40 5d       	subi	r20, 0xD0	; 208
    184e:	41 93       	st	Z+, r20
    1850:	b3 e0       	ldi	r27, 0x03	; 3
    1852:	0f d0       	rcall	.+30     	; 0x1872 <__ultoa_invert+0x86>
    1854:	c9 f7       	brne	.-14     	; 0x1848 <__ultoa_invert+0x5c>
    1856:	f6 cf       	rjmp	.-20     	; 0x1844 <__ultoa_invert+0x58>
    1858:	46 2f       	mov	r20, r22
    185a:	4f 70       	andi	r20, 0x0F	; 15
    185c:	40 5d       	subi	r20, 0xD0	; 208
    185e:	4a 33       	cpi	r20, 0x3A	; 58
    1860:	18 f0       	brcs	.+6      	; 0x1868 <__ultoa_invert+0x7c>
    1862:	49 5d       	subi	r20, 0xD9	; 217
    1864:	31 fd       	sbrc	r19, 1
    1866:	40 52       	subi	r20, 0x20	; 32
    1868:	41 93       	st	Z+, r20
    186a:	02 d0       	rcall	.+4      	; 0x1870 <__ultoa_invert+0x84>
    186c:	a9 f7       	brne	.-22     	; 0x1858 <__ultoa_invert+0x6c>
    186e:	ea cf       	rjmp	.-44     	; 0x1844 <__ultoa_invert+0x58>
    1870:	b4 e0       	ldi	r27, 0x04	; 4
    1872:	a6 95       	lsr	r26
    1874:	97 95       	ror	r25
    1876:	87 95       	ror	r24
    1878:	77 95       	ror	r23
    187a:	67 95       	ror	r22
    187c:	ba 95       	dec	r27
    187e:	c9 f7       	brne	.-14     	; 0x1872 <__ultoa_invert+0x86>
    1880:	00 97       	sbiw	r24, 0x00	; 0
    1882:	61 05       	cpc	r22, r1
    1884:	71 05       	cpc	r23, r1
    1886:	08 95       	ret
    1888:	9b 01       	movw	r18, r22
    188a:	ac 01       	movw	r20, r24
    188c:	0a 2e       	mov	r0, r26
    188e:	06 94       	lsr	r0
    1890:	57 95       	ror	r21
    1892:	47 95       	ror	r20
    1894:	37 95       	ror	r19
    1896:	27 95       	ror	r18
    1898:	ba 95       	dec	r27
    189a:	c9 f7       	brne	.-14     	; 0x188e <__ultoa_invert+0xa2>
    189c:	62 0f       	add	r22, r18
    189e:	73 1f       	adc	r23, r19
    18a0:	84 1f       	adc	r24, r20
    18a2:	95 1f       	adc	r25, r21
    18a4:	a0 1d       	adc	r26, r0
    18a6:	08 95       	ret

000018a8 <_exit>:
    18a8:	f8 94       	cli

000018aa <__stop_program>:
    18aa:	ff cf       	rjmp	.-2      	; 0x18aa <__stop_program>
