   1               		.file	"HID.c"
   2               	__SP_H__ = 0x3e
   3               	__SP_L__ = 0x3d
   4               	__SREG__ = 0x3f
   5               	__tmp_reg__ = 0
   6               	__zero_reg__ = 1
   7               		.text
   8               	.Ltext0:
   9               		.cfi_sections	.debug_frame
  10               		.section	.text.HID_Device_ProcessControlRequest,"ax",@progbits
  11               	.global	HID_Device_ProcessControlRequest
  13               	HID_Device_ProcessControlRequest:
  14               	.LFB66:
  15               		.file 1 "../lufa-LUFA/LUFA/Drivers/USB/Class/Device/HID.c"
   1:../lufa-LUFA/LUFA/Drivers/USB/Class/Device/HID.c **** /*
   2:../lufa-LUFA/LUFA/Drivers/USB/Class/Device/HID.c ****              LUFA Library
   3:../lufa-LUFA/LUFA/Drivers/USB/Class/Device/HID.c ****      Copyright (C) Dean Camera, 2010.
   4:../lufa-LUFA/LUFA/Drivers/USB/Class/Device/HID.c ****               
   5:../lufa-LUFA/LUFA/Drivers/USB/Class/Device/HID.c ****   dean [at] fourwalledcubicle [dot] com
   6:../lufa-LUFA/LUFA/Drivers/USB/Class/Device/HID.c ****       www.fourwalledcubicle.com
   7:../lufa-LUFA/LUFA/Drivers/USB/Class/Device/HID.c **** */
   8:../lufa-LUFA/LUFA/Drivers/USB/Class/Device/HID.c **** 
   9:../lufa-LUFA/LUFA/Drivers/USB/Class/Device/HID.c **** /*
  10:../lufa-LUFA/LUFA/Drivers/USB/Class/Device/HID.c ****   Copyright 2010  Dean Camera (dean [at] fourwalledcubicle [dot] com)
  11:../lufa-LUFA/LUFA/Drivers/USB/Class/Device/HID.c **** 
  12:../lufa-LUFA/LUFA/Drivers/USB/Class/Device/HID.c ****   Permission to use, copy, modify, distribute, and sell this 
  13:../lufa-LUFA/LUFA/Drivers/USB/Class/Device/HID.c ****   software and its documentation for any purpose is hereby granted
  14:../lufa-LUFA/LUFA/Drivers/USB/Class/Device/HID.c ****   without fee, provided that the above copyright notice appear in 
  15:../lufa-LUFA/LUFA/Drivers/USB/Class/Device/HID.c ****   all copies and that both that the copyright notice and this
  16:../lufa-LUFA/LUFA/Drivers/USB/Class/Device/HID.c ****   permission notice and warranty disclaimer appear in supporting 
  17:../lufa-LUFA/LUFA/Drivers/USB/Class/Device/HID.c ****   documentation, and that the name of the author not be used in 
  18:../lufa-LUFA/LUFA/Drivers/USB/Class/Device/HID.c ****   advertising or publicity pertaining to distribution of the 
  19:../lufa-LUFA/LUFA/Drivers/USB/Class/Device/HID.c ****   software without specific, written prior permission.
  20:../lufa-LUFA/LUFA/Drivers/USB/Class/Device/HID.c **** 
  21:../lufa-LUFA/LUFA/Drivers/USB/Class/Device/HID.c ****   The author disclaim all warranties with regard to this
  22:../lufa-LUFA/LUFA/Drivers/USB/Class/Device/HID.c ****   software, including all implied warranties of merchantability
  23:../lufa-LUFA/LUFA/Drivers/USB/Class/Device/HID.c ****   and fitness.  In no event shall the author be liable for any
  24:../lufa-LUFA/LUFA/Drivers/USB/Class/Device/HID.c ****   special, indirect or consequential damages or any damages
  25:../lufa-LUFA/LUFA/Drivers/USB/Class/Device/HID.c ****   whatsoever resulting from loss of use, data or profits, whether
  26:../lufa-LUFA/LUFA/Drivers/USB/Class/Device/HID.c ****   in an action of contract, negligence or other tortious action,
  27:../lufa-LUFA/LUFA/Drivers/USB/Class/Device/HID.c ****   arising out of or in connection with the use or performance of
  28:../lufa-LUFA/LUFA/Drivers/USB/Class/Device/HID.c ****   this software.
  29:../lufa-LUFA/LUFA/Drivers/USB/Class/Device/HID.c **** */
  30:../lufa-LUFA/LUFA/Drivers/USB/Class/Device/HID.c **** 
  31:../lufa-LUFA/LUFA/Drivers/USB/Class/Device/HID.c **** #define  __INCLUDE_FROM_USB_DRIVER
  32:../lufa-LUFA/LUFA/Drivers/USB/Class/Device/HID.c **** #include "../../HighLevel/USBMode.h"
  33:../lufa-LUFA/LUFA/Drivers/USB/Class/Device/HID.c **** #if defined(USB_CAN_BE_DEVICE)
  34:../lufa-LUFA/LUFA/Drivers/USB/Class/Device/HID.c **** 
  35:../lufa-LUFA/LUFA/Drivers/USB/Class/Device/HID.c **** #define  __INCLUDE_FROM_HID_DRIVER
  36:../lufa-LUFA/LUFA/Drivers/USB/Class/Device/HID.c **** #include "HID.h"
  37:../lufa-LUFA/LUFA/Drivers/USB/Class/Device/HID.c **** 
  38:../lufa-LUFA/LUFA/Drivers/USB/Class/Device/HID.c **** void HID_Device_ProcessControlRequest(USB_ClassInfo_HID_Device_t* const HIDInterfaceInfo)
  39:../lufa-LUFA/LUFA/Drivers/USB/Class/Device/HID.c **** {
  16               		.loc 1 39 0
  17               		.cfi_startproc
  18               	.LVL0:
  19 0000 8F92      		push r8
  20               	.LCFI0:
  21               		.cfi_def_cfa_offset 3
  22               		.cfi_offset 8, -2
  23 0002 9F92      		push r9
  24               	.LCFI1:
  25               		.cfi_def_cfa_offset 4
  26               		.cfi_offset 9, -3
  27 0004 AF92      		push r10
  28               	.LCFI2:
  29               		.cfi_def_cfa_offset 5
  30               		.cfi_offset 10, -4
  31 0006 BF92      		push r11
  32               	.LCFI3:
  33               		.cfi_def_cfa_offset 6
  34               		.cfi_offset 11, -5
  35 0008 CF92      		push r12
  36               	.LCFI4:
  37               		.cfi_def_cfa_offset 7
  38               		.cfi_offset 12, -6
  39 000a DF92      		push r13
  40               	.LCFI5:
  41               		.cfi_def_cfa_offset 8
  42               		.cfi_offset 13, -7
  43 000c EF92      		push r14
  44               	.LCFI6:
  45               		.cfi_def_cfa_offset 9
  46               		.cfi_offset 14, -8
  47 000e FF92      		push r15
  48               	.LCFI7:
  49               		.cfi_def_cfa_offset 10
  50               		.cfi_offset 15, -9
  51 0010 0F93      		push r16
  52               	.LCFI8:
  53               		.cfi_def_cfa_offset 11
  54               		.cfi_offset 16, -10
  55 0012 1F93      		push r17
  56               	.LCFI9:
  57               		.cfi_def_cfa_offset 12
  58               		.cfi_offset 17, -11
  59 0014 CF93      		push r28
  60               	.LCFI10:
  61               		.cfi_def_cfa_offset 13
  62               		.cfi_offset 28, -12
  63 0016 DF93      		push r29
  64               	.LCFI11:
  65               		.cfi_def_cfa_offset 14
  66               		.cfi_offset 29, -13
  67 0018 00D0      		rcall .
  68 001a 1F92      		push __zero_reg__
  69               	.LCFI12:
  70               		.cfi_def_cfa_offset 17
  71 001c CDB7      		in r28,__SP_L__
  72 001e DEB7      		in r29,__SP_H__
  73               	.LCFI13:
  74               		.cfi_def_cfa_register 28
  75               	/* prologue: function */
  76               	/* frame size = 3 */
  77               	/* stack size = 15 */
  78               	.L__stack_usage = 15
  79 0020 7C01      		movw r14,r24
  40:../lufa-LUFA/LUFA/Drivers/USB/Class/Device/HID.c **** 	if (!(Endpoint_IsSETUPReceived()))
  41:../lufa-LUFA/LUFA/Drivers/USB/Class/Device/HID.c **** 	  return;
  42:../lufa-LUFA/LUFA/Drivers/USB/Class/Device/HID.c **** 	  
  43:../lufa-LUFA/LUFA/Drivers/USB/Class/Device/HID.c **** 	if (USB_ControlRequest.wIndex != HIDInterfaceInfo->Config.InterfaceNumber)
  44:../lufa-LUFA/LUFA/Drivers/USB/Class/Device/HID.c **** 	  return;
  45:../lufa-LUFA/LUFA/Drivers/USB/Class/Device/HID.c **** 
  46:../lufa-LUFA/LUFA/Drivers/USB/Class/Device/HID.c **** 	switch (USB_ControlRequest.bRequest)
  47:../lufa-LUFA/LUFA/Drivers/USB/Class/Device/HID.c **** 	{
  48:../lufa-LUFA/LUFA/Drivers/USB/Class/Device/HID.c **** 		case REQ_GetReport:
  49:../lufa-LUFA/LUFA/Drivers/USB/Class/Device/HID.c **** 			if (USB_ControlRequest.bmRequestType == (REQDIR_DEVICETOHOST | REQTYPE_CLASS | REQREC_INTERFACE)
  50:../lufa-LUFA/LUFA/Drivers/USB/Class/Device/HID.c **** 			{
  51:../lufa-LUFA/LUFA/Drivers/USB/Class/Device/HID.c **** 				Endpoint_ClearSETUP();	
  52:../lufa-LUFA/LUFA/Drivers/USB/Class/Device/HID.c **** 
  53:../lufa-LUFA/LUFA/Drivers/USB/Class/Device/HID.c **** 				uint16_t ReportSize = 0;
  54:../lufa-LUFA/LUFA/Drivers/USB/Class/Device/HID.c **** 				uint8_t  ReportID   = (USB_ControlRequest.wValue & 0xFF);
  55:../lufa-LUFA/LUFA/Drivers/USB/Class/Device/HID.c **** 				uint8_t  ReportType = (USB_ControlRequest.wValue >> 8) - 1;
  56:../lufa-LUFA/LUFA/Drivers/USB/Class/Device/HID.c **** 				uint8_t  ReportData[HIDInterfaceInfo->Config.PrevReportINBufferSize];
  57:../lufa-LUFA/LUFA/Drivers/USB/Class/Device/HID.c **** 
  58:../lufa-LUFA/LUFA/Drivers/USB/Class/Device/HID.c **** 				memset(ReportData, 0, sizeof(ReportData));
  59:../lufa-LUFA/LUFA/Drivers/USB/Class/Device/HID.c **** 
  60:../lufa-LUFA/LUFA/Drivers/USB/Class/Device/HID.c **** 				CALLBACK_HID_Device_CreateHIDReport(HIDInterfaceInfo, &ReportID, ReportType, ReportData, &Repor
  61:../lufa-LUFA/LUFA/Drivers/USB/Class/Device/HID.c **** 				
  62:../lufa-LUFA/LUFA/Drivers/USB/Class/Device/HID.c **** 				if (HIDInterfaceInfo->Config.PrevReportINBuffer != NULL)
  63:../lufa-LUFA/LUFA/Drivers/USB/Class/Device/HID.c **** 				  memcpy(HIDInterfaceInfo->Config.PrevReportINBuffer, ReportData, HIDInterfaceInfo->Config.Prev
  64:../lufa-LUFA/LUFA/Drivers/USB/Class/Device/HID.c **** 
  65:../lufa-LUFA/LUFA/Drivers/USB/Class/Device/HID.c **** 				Endpoint_SelectEndpoint(ENDPOINT_CONTROLEP);
  66:../lufa-LUFA/LUFA/Drivers/USB/Class/Device/HID.c **** 				Endpoint_Write_Control_Stream_LE(ReportData, ReportSize);
  67:../lufa-LUFA/LUFA/Drivers/USB/Class/Device/HID.c **** 				Endpoint_ClearOUT();
  68:../lufa-LUFA/LUFA/Drivers/USB/Class/Device/HID.c **** 			}
  69:../lufa-LUFA/LUFA/Drivers/USB/Class/Device/HID.c **** 		
  70:../lufa-LUFA/LUFA/Drivers/USB/Class/Device/HID.c **** 			break;
  71:../lufa-LUFA/LUFA/Drivers/USB/Class/Device/HID.c **** 		case REQ_SetReport:
  72:../lufa-LUFA/LUFA/Drivers/USB/Class/Device/HID.c **** 			if (USB_ControlRequest.bmRequestType == (REQDIR_HOSTTODEVICE | REQTYPE_CLASS | REQREC_INTERFACE)
  73:../lufa-LUFA/LUFA/Drivers/USB/Class/Device/HID.c **** 			{
  74:../lufa-LUFA/LUFA/Drivers/USB/Class/Device/HID.c **** 				Endpoint_ClearSETUP();
  75:../lufa-LUFA/LUFA/Drivers/USB/Class/Device/HID.c **** 				
  76:../lufa-LUFA/LUFA/Drivers/USB/Class/Device/HID.c **** 				uint16_t ReportSize = USB_ControlRequest.wLength;
  77:../lufa-LUFA/LUFA/Drivers/USB/Class/Device/HID.c **** 				uint8_t  ReportID   = (USB_ControlRequest.wValue & 0xFF);
  78:../lufa-LUFA/LUFA/Drivers/USB/Class/Device/HID.c **** 				uint8_t  ReportType = (USB_ControlRequest.wValue >> 8) - 1;
  79:../lufa-LUFA/LUFA/Drivers/USB/Class/Device/HID.c **** 				uint8_t  ReportData[ReportSize];
  80:../lufa-LUFA/LUFA/Drivers/USB/Class/Device/HID.c **** 
  81:../lufa-LUFA/LUFA/Drivers/USB/Class/Device/HID.c **** 				Endpoint_Read_Control_Stream_LE(ReportData, ReportSize);
  82:../lufa-LUFA/LUFA/Drivers/USB/Class/Device/HID.c **** 				CALLBACK_HID_Device_ProcessHIDReport(HIDInterfaceInfo, ReportID, ReportType, ReportData, Report
  83:../lufa-LUFA/LUFA/Drivers/USB/Class/Device/HID.c **** 				Endpoint_ClearIN();				
  84:../lufa-LUFA/LUFA/Drivers/USB/Class/Device/HID.c **** 			}
  85:../lufa-LUFA/LUFA/Drivers/USB/Class/Device/HID.c **** 			
  86:../lufa-LUFA/LUFA/Drivers/USB/Class/Device/HID.c **** 			break;
  87:../lufa-LUFA/LUFA/Drivers/USB/Class/Device/HID.c **** 		case REQ_GetProtocol:
  88:../lufa-LUFA/LUFA/Drivers/USB/Class/Device/HID.c **** 			if (USB_ControlRequest.bmRequestType == (REQDIR_DEVICETOHOST | REQTYPE_CLASS | REQREC_INTERFACE)
  89:../lufa-LUFA/LUFA/Drivers/USB/Class/Device/HID.c **** 			{
  90:../lufa-LUFA/LUFA/Drivers/USB/Class/Device/HID.c **** 				Endpoint_ClearSETUP();
  91:../lufa-LUFA/LUFA/Drivers/USB/Class/Device/HID.c **** 
  92:../lufa-LUFA/LUFA/Drivers/USB/Class/Device/HID.c **** 				Endpoint_Write_Byte(HIDInterfaceInfo->State.UsingReportProtocol);
  93:../lufa-LUFA/LUFA/Drivers/USB/Class/Device/HID.c **** 				Endpoint_ClearIN();
  94:../lufa-LUFA/LUFA/Drivers/USB/Class/Device/HID.c **** 
  95:../lufa-LUFA/LUFA/Drivers/USB/Class/Device/HID.c **** 				Endpoint_ClearStatusStage();
  96:../lufa-LUFA/LUFA/Drivers/USB/Class/Device/HID.c **** 			}
  97:../lufa-LUFA/LUFA/Drivers/USB/Class/Device/HID.c **** 			
  98:../lufa-LUFA/LUFA/Drivers/USB/Class/Device/HID.c **** 			break;
  99:../lufa-LUFA/LUFA/Drivers/USB/Class/Device/HID.c **** 		case REQ_SetProtocol:
 100:../lufa-LUFA/LUFA/Drivers/USB/Class/Device/HID.c **** 			if (USB_ControlRequest.bmRequestType == (REQDIR_HOSTTODEVICE | REQTYPE_CLASS | REQREC_INTERFACE)
 101:../lufa-LUFA/LUFA/Drivers/USB/Class/Device/HID.c **** 			{
 102:../lufa-LUFA/LUFA/Drivers/USB/Class/Device/HID.c **** 				Endpoint_ClearSETUP();
 103:../lufa-LUFA/LUFA/Drivers/USB/Class/Device/HID.c **** 
 104:../lufa-LUFA/LUFA/Drivers/USB/Class/Device/HID.c **** 				HIDInterfaceInfo->State.UsingReportProtocol = ((USB_ControlRequest.wValue & 0xFF) != 0x00);
 105:../lufa-LUFA/LUFA/Drivers/USB/Class/Device/HID.c **** 				
 106:../lufa-LUFA/LUFA/Drivers/USB/Class/Device/HID.c **** 				Endpoint_ClearStatusStage();
 107:../lufa-LUFA/LUFA/Drivers/USB/Class/Device/HID.c **** 			}
 108:../lufa-LUFA/LUFA/Drivers/USB/Class/Device/HID.c **** 			
 109:../lufa-LUFA/LUFA/Drivers/USB/Class/Device/HID.c **** 			break;
 110:../lufa-LUFA/LUFA/Drivers/USB/Class/Device/HID.c **** 		case REQ_SetIdle:
 111:../lufa-LUFA/LUFA/Drivers/USB/Class/Device/HID.c **** 			if (USB_ControlRequest.bmRequestType == (REQDIR_HOSTTODEVICE | REQTYPE_CLASS | REQREC_INTERFACE)
 112:../lufa-LUFA/LUFA/Drivers/USB/Class/Device/HID.c **** 			{
 113:../lufa-LUFA/LUFA/Drivers/USB/Class/Device/HID.c **** 				Endpoint_ClearSETUP();
 114:../lufa-LUFA/LUFA/Drivers/USB/Class/Device/HID.c **** 					
 115:../lufa-LUFA/LUFA/Drivers/USB/Class/Device/HID.c **** 				HIDInterfaceInfo->State.IdleCount = ((USB_ControlRequest.wValue & 0xFF00) >> 6);
 116:../lufa-LUFA/LUFA/Drivers/USB/Class/Device/HID.c **** 					
 117:../lufa-LUFA/LUFA/Drivers/USB/Class/Device/HID.c **** 				Endpoint_ClearStatusStage();
 118:../lufa-LUFA/LUFA/Drivers/USB/Class/Device/HID.c **** 			}
 119:../lufa-LUFA/LUFA/Drivers/USB/Class/Device/HID.c **** 			
 120:../lufa-LUFA/LUFA/Drivers/USB/Class/Device/HID.c **** 			break;
 121:../lufa-LUFA/LUFA/Drivers/USB/Class/Device/HID.c **** 		case REQ_GetIdle:
 122:../lufa-LUFA/LUFA/Drivers/USB/Class/Device/HID.c **** 			if (USB_ControlRequest.bmRequestType == (REQDIR_DEVICETOHOST | REQTYPE_CLASS | REQREC_INTERFACE)
 123:../lufa-LUFA/LUFA/Drivers/USB/Class/Device/HID.c **** 			{		
 124:../lufa-LUFA/LUFA/Drivers/USB/Class/Device/HID.c **** 				Endpoint_ClearSETUP();
 125:../lufa-LUFA/LUFA/Drivers/USB/Class/Device/HID.c **** 				
 126:../lufa-LUFA/LUFA/Drivers/USB/Class/Device/HID.c **** 				Endpoint_Write_Byte(HIDInterfaceInfo->State.IdleCount >> 2);
 127:../lufa-LUFA/LUFA/Drivers/USB/Class/Device/HID.c **** 				Endpoint_ClearIN();
 128:../lufa-LUFA/LUFA/Drivers/USB/Class/Device/HID.c **** 
 129:../lufa-LUFA/LUFA/Drivers/USB/Class/Device/HID.c **** 				Endpoint_ClearStatusStage();
 130:../lufa-LUFA/LUFA/Drivers/USB/Class/Device/HID.c **** 			}
 131:../lufa-LUFA/LUFA/Drivers/USB/Class/Device/HID.c **** 
 132:../lufa-LUFA/LUFA/Drivers/USB/Class/Device/HID.c **** 			break;
 133:../lufa-LUFA/LUFA/Drivers/USB/Class/Device/HID.c **** 	}
 134:../lufa-LUFA/LUFA/Drivers/USB/Class/Device/HID.c **** }
  80               		.loc 1 134 0
  81 0022 ADB6      		in r10,__SP_L__
  82 0024 BEB6      		in r11,__SP_H__
  83               	.LBB47:
  84               	.LBB48:
  85               		.file 2 "../lufa-LUFA/LUFA/Drivers/USB/Class/Device/../../HighLevel/../LowLevel/Endpoint.h"
   1:../lufa-LUFA/LUFA/Drivers/USB/Class/Device/../../HighLevel/../LowLevel/Endpoint.h **** /*
   2:../lufa-LUFA/LUFA/Drivers/USB/Class/Device/../../HighLevel/../LowLevel/Endpoint.h ****              LUFA Library
   3:../lufa-LUFA/LUFA/Drivers/USB/Class/Device/../../HighLevel/../LowLevel/Endpoint.h ****      Copyright (C) Dean Camera, 2010.
   4:../lufa-LUFA/LUFA/Drivers/USB/Class/Device/../../HighLevel/../LowLevel/Endpoint.h ****               
   5:../lufa-LUFA/LUFA/Drivers/USB/Class/Device/../../HighLevel/../LowLevel/Endpoint.h ****   dean [at] fourwalledcubicle [dot] com
   6:../lufa-LUFA/LUFA/Drivers/USB/Class/Device/../../HighLevel/../LowLevel/Endpoint.h ****       www.fourwalledcubicle.com
   7:../lufa-LUFA/LUFA/Drivers/USB/Class/Device/../../HighLevel/../LowLevel/Endpoint.h **** */
   8:../lufa-LUFA/LUFA/Drivers/USB/Class/Device/../../HighLevel/../LowLevel/Endpoint.h **** 
   9:../lufa-LUFA/LUFA/Drivers/USB/Class/Device/../../HighLevel/../LowLevel/Endpoint.h **** /*
  10:../lufa-LUFA/LUFA/Drivers/USB/Class/Device/../../HighLevel/../LowLevel/Endpoint.h ****   Copyright 2010  Dean Camera (dean [at] fourwalledcubicle [dot] com)
  11:../lufa-LUFA/LUFA/Drivers/USB/Class/Device/../../HighLevel/../LowLevel/Endpoint.h **** 
  12:../lufa-LUFA/LUFA/Drivers/USB/Class/Device/../../HighLevel/../LowLevel/Endpoint.h ****   Permission to use, copy, modify, distribute, and sell this 
  13:../lufa-LUFA/LUFA/Drivers/USB/Class/Device/../../HighLevel/../LowLevel/Endpoint.h ****   software and its documentation for any purpose is hereby granted
  14:../lufa-LUFA/LUFA/Drivers/USB/Class/Device/../../HighLevel/../LowLevel/Endpoint.h ****   without fee, provided that the above copyright notice appear in 
  15:../lufa-LUFA/LUFA/Drivers/USB/Class/Device/../../HighLevel/../LowLevel/Endpoint.h ****   all copies and that both that the copyright notice and this
  16:../lufa-LUFA/LUFA/Drivers/USB/Class/Device/../../HighLevel/../LowLevel/Endpoint.h ****   permission notice and warranty disclaimer appear in supporting 
  17:../lufa-LUFA/LUFA/Drivers/USB/Class/Device/../../HighLevel/../LowLevel/Endpoint.h ****   documentation, and that the name of the author not be used in 
  18:../lufa-LUFA/LUFA/Drivers/USB/Class/Device/../../HighLevel/../LowLevel/Endpoint.h ****   advertising or publicity pertaining to distribution of the 
  19:../lufa-LUFA/LUFA/Drivers/USB/Class/Device/../../HighLevel/../LowLevel/Endpoint.h ****   software without specific, written prior permission.
  20:../lufa-LUFA/LUFA/Drivers/USB/Class/Device/../../HighLevel/../LowLevel/Endpoint.h **** 
  21:../lufa-LUFA/LUFA/Drivers/USB/Class/Device/../../HighLevel/../LowLevel/Endpoint.h ****   The author disclaim all warranties with regard to this
  22:../lufa-LUFA/LUFA/Drivers/USB/Class/Device/../../HighLevel/../LowLevel/Endpoint.h ****   software, including all implied warranties of merchantability
  23:../lufa-LUFA/LUFA/Drivers/USB/Class/Device/../../HighLevel/../LowLevel/Endpoint.h ****   and fitness.  In no event shall the author be liable for any
  24:../lufa-LUFA/LUFA/Drivers/USB/Class/Device/../../HighLevel/../LowLevel/Endpoint.h ****   special, indirect or consequential damages or any damages
  25:../lufa-LUFA/LUFA/Drivers/USB/Class/Device/../../HighLevel/../LowLevel/Endpoint.h ****   whatsoever resulting from loss of use, data or profits, whether
  26:../lufa-LUFA/LUFA/Drivers/USB/Class/Device/../../HighLevel/../LowLevel/Endpoint.h ****   in an action of contract, negligence or other tortious action,
  27:../lufa-LUFA/LUFA/Drivers/USB/Class/Device/../../HighLevel/../LowLevel/Endpoint.h ****   arising out of or in connection with the use or performance of
  28:../lufa-LUFA/LUFA/Drivers/USB/Class/Device/../../HighLevel/../LowLevel/Endpoint.h ****   this software.
  29:../lufa-LUFA/LUFA/Drivers/USB/Class/Device/../../HighLevel/../LowLevel/Endpoint.h **** */
  30:../lufa-LUFA/LUFA/Drivers/USB/Class/Device/../../HighLevel/../LowLevel/Endpoint.h **** 
  31:../lufa-LUFA/LUFA/Drivers/USB/Class/Device/../../HighLevel/../LowLevel/Endpoint.h **** /** \file
  32:../lufa-LUFA/LUFA/Drivers/USB/Class/Device/../../HighLevel/../LowLevel/Endpoint.h ****  *  \brief USB device endpoint management definitions.
  33:../lufa-LUFA/LUFA/Drivers/USB/Class/Device/../../HighLevel/../LowLevel/Endpoint.h ****  *
  34:../lufa-LUFA/LUFA/Drivers/USB/Class/Device/../../HighLevel/../LowLevel/Endpoint.h ****  *  This file contains structures, function prototypes and macros related to the management of the 
  35:../lufa-LUFA/LUFA/Drivers/USB/Class/Device/../../HighLevel/../LowLevel/Endpoint.h ****  *  data endpoints when the library is initialized in USB device mode.
  36:../lufa-LUFA/LUFA/Drivers/USB/Class/Device/../../HighLevel/../LowLevel/Endpoint.h ****  *
  37:../lufa-LUFA/LUFA/Drivers/USB/Class/Device/../../HighLevel/../LowLevel/Endpoint.h ****  *  \note This file should not be included directly. It is automatically included as needed by the 
  38:../lufa-LUFA/LUFA/Drivers/USB/Class/Device/../../HighLevel/../LowLevel/Endpoint.h ****  *        dispatch header located in LUFA/Drivers/USB/USB.h.
  39:../lufa-LUFA/LUFA/Drivers/USB/Class/Device/../../HighLevel/../LowLevel/Endpoint.h ****  */
  40:../lufa-LUFA/LUFA/Drivers/USB/Class/Device/../../HighLevel/../LowLevel/Endpoint.h **** 
  41:../lufa-LUFA/LUFA/Drivers/USB/Class/Device/../../HighLevel/../LowLevel/Endpoint.h **** /** \ingroup Group_USB
  42:../lufa-LUFA/LUFA/Drivers/USB/Class/Device/../../HighLevel/../LowLevel/Endpoint.h ****  *  @defgroup Group_EndpointManagement Endpoint Management
  43:../lufa-LUFA/LUFA/Drivers/USB/Class/Device/../../HighLevel/../LowLevel/Endpoint.h ****  *
  44:../lufa-LUFA/LUFA/Drivers/USB/Class/Device/../../HighLevel/../LowLevel/Endpoint.h ****  *  Functions, macros and enums related to endpoint management when in USB Device mode. This
  45:../lufa-LUFA/LUFA/Drivers/USB/Class/Device/../../HighLevel/../LowLevel/Endpoint.h ****  *  module contains the endpoint management macros, as well as endpoint interrupt and data
  46:../lufa-LUFA/LUFA/Drivers/USB/Class/Device/../../HighLevel/../LowLevel/Endpoint.h ****  *  send/receive functions for various data types.
  47:../lufa-LUFA/LUFA/Drivers/USB/Class/Device/../../HighLevel/../LowLevel/Endpoint.h ****  *
  48:../lufa-LUFA/LUFA/Drivers/USB/Class/Device/../../HighLevel/../LowLevel/Endpoint.h ****  *  @{
  49:../lufa-LUFA/LUFA/Drivers/USB/Class/Device/../../HighLevel/../LowLevel/Endpoint.h ****  */
  50:../lufa-LUFA/LUFA/Drivers/USB/Class/Device/../../HighLevel/../LowLevel/Endpoint.h **** 
  51:../lufa-LUFA/LUFA/Drivers/USB/Class/Device/../../HighLevel/../LowLevel/Endpoint.h **** /** @defgroup Group_EndpointRW Endpoint Data Reading and Writing
  52:../lufa-LUFA/LUFA/Drivers/USB/Class/Device/../../HighLevel/../LowLevel/Endpoint.h ****  *
  53:../lufa-LUFA/LUFA/Drivers/USB/Class/Device/../../HighLevel/../LowLevel/Endpoint.h ****  *  Functions, macros, variables, enums and types related to data reading and writing from and to e
  54:../lufa-LUFA/LUFA/Drivers/USB/Class/Device/../../HighLevel/../LowLevel/Endpoint.h ****  */
  55:../lufa-LUFA/LUFA/Drivers/USB/Class/Device/../../HighLevel/../LowLevel/Endpoint.h ****  
  56:../lufa-LUFA/LUFA/Drivers/USB/Class/Device/../../HighLevel/../LowLevel/Endpoint.h **** /** \ingroup Group_EndpointRW  
  57:../lufa-LUFA/LUFA/Drivers/USB/Class/Device/../../HighLevel/../LowLevel/Endpoint.h ****  *  @defgroup Group_EndpointPrimitiveRW Read/Write of Primitive Data Types
  58:../lufa-LUFA/LUFA/Drivers/USB/Class/Device/../../HighLevel/../LowLevel/Endpoint.h ****  *
  59:../lufa-LUFA/LUFA/Drivers/USB/Class/Device/../../HighLevel/../LowLevel/Endpoint.h ****  *  Functions, macros, variables, enums and types related to data reading and writing of primitive 
  60:../lufa-LUFA/LUFA/Drivers/USB/Class/Device/../../HighLevel/../LowLevel/Endpoint.h ****  *  from and to endpoints.
  61:../lufa-LUFA/LUFA/Drivers/USB/Class/Device/../../HighLevel/../LowLevel/Endpoint.h ****  */ 
  62:../lufa-LUFA/LUFA/Drivers/USB/Class/Device/../../HighLevel/../LowLevel/Endpoint.h **** 
  63:../lufa-LUFA/LUFA/Drivers/USB/Class/Device/../../HighLevel/../LowLevel/Endpoint.h **** /** \ingroup Group_EndpointRW  
  64:../lufa-LUFA/LUFA/Drivers/USB/Class/Device/../../HighLevel/../LowLevel/Endpoint.h ****  *  @defgroup Group_EndpointStreamRW Read/Write of Multi-Byte Streams
  65:../lufa-LUFA/LUFA/Drivers/USB/Class/Device/../../HighLevel/../LowLevel/Endpoint.h ****  *
  66:../lufa-LUFA/LUFA/Drivers/USB/Class/Device/../../HighLevel/../LowLevel/Endpoint.h ****  *  Functions, macros, variables, enums and types related to data reading and writing of data strea
  67:../lufa-LUFA/LUFA/Drivers/USB/Class/Device/../../HighLevel/../LowLevel/Endpoint.h ****  *  and to endpoints.
  68:../lufa-LUFA/LUFA/Drivers/USB/Class/Device/../../HighLevel/../LowLevel/Endpoint.h ****  */ 
  69:../lufa-LUFA/LUFA/Drivers/USB/Class/Device/../../HighLevel/../LowLevel/Endpoint.h **** 
  70:../lufa-LUFA/LUFA/Drivers/USB/Class/Device/../../HighLevel/../LowLevel/Endpoint.h **** /** @defgroup Group_EndpointPacketManagement Endpoint Packet Management
  71:../lufa-LUFA/LUFA/Drivers/USB/Class/Device/../../HighLevel/../LowLevel/Endpoint.h ****  *
  72:../lufa-LUFA/LUFA/Drivers/USB/Class/Device/../../HighLevel/../LowLevel/Endpoint.h ****  *  Functions, macros, variables, enums and types related to packet management of endpoints.
  73:../lufa-LUFA/LUFA/Drivers/USB/Class/Device/../../HighLevel/../LowLevel/Endpoint.h ****  */
  74:../lufa-LUFA/LUFA/Drivers/USB/Class/Device/../../HighLevel/../LowLevel/Endpoint.h **** 
  75:../lufa-LUFA/LUFA/Drivers/USB/Class/Device/../../HighLevel/../LowLevel/Endpoint.h **** #ifndef __ENDPOINT_H__
  76:../lufa-LUFA/LUFA/Drivers/USB/Class/Device/../../HighLevel/../LowLevel/Endpoint.h **** #define __ENDPOINT_H__
  77:../lufa-LUFA/LUFA/Drivers/USB/Class/Device/../../HighLevel/../LowLevel/Endpoint.h **** 
  78:../lufa-LUFA/LUFA/Drivers/USB/Class/Device/../../HighLevel/../LowLevel/Endpoint.h **** 	/* Includes: */
  79:../lufa-LUFA/LUFA/Drivers/USB/Class/Device/../../HighLevel/../LowLevel/Endpoint.h **** 		#include <avr/io.h>
  80:../lufa-LUFA/LUFA/Drivers/USB/Class/Device/../../HighLevel/../LowLevel/Endpoint.h **** 		#include <avr/pgmspace.h>
  81:../lufa-LUFA/LUFA/Drivers/USB/Class/Device/../../HighLevel/../LowLevel/Endpoint.h **** 		#include <avr/eeprom.h>
  82:../lufa-LUFA/LUFA/Drivers/USB/Class/Device/../../HighLevel/../LowLevel/Endpoint.h **** 		#include <stdbool.h>
  83:../lufa-LUFA/LUFA/Drivers/USB/Class/Device/../../HighLevel/../LowLevel/Endpoint.h **** 
  84:../lufa-LUFA/LUFA/Drivers/USB/Class/Device/../../HighLevel/../LowLevel/Endpoint.h **** 		#include "../../../Common/Common.h"
  85:../lufa-LUFA/LUFA/Drivers/USB/Class/Device/../../HighLevel/../LowLevel/Endpoint.h **** 		#include "../HighLevel/USBTask.h"
  86:../lufa-LUFA/LUFA/Drivers/USB/Class/Device/../../HighLevel/../LowLevel/Endpoint.h **** 		#include "USBInterrupt.h"
  87:../lufa-LUFA/LUFA/Drivers/USB/Class/Device/../../HighLevel/../LowLevel/Endpoint.h **** 
  88:../lufa-LUFA/LUFA/Drivers/USB/Class/Device/../../HighLevel/../LowLevel/Endpoint.h **** 		#if !defined(NO_STREAM_CALLBACKS) || defined(__DOXYGEN__)
  89:../lufa-LUFA/LUFA/Drivers/USB/Class/Device/../../HighLevel/../LowLevel/Endpoint.h **** 			#include "../HighLevel/StreamCallbacks.h"
  90:../lufa-LUFA/LUFA/Drivers/USB/Class/Device/../../HighLevel/../LowLevel/Endpoint.h **** 		#endif
  91:../lufa-LUFA/LUFA/Drivers/USB/Class/Device/../../HighLevel/../LowLevel/Endpoint.h **** 		
  92:../lufa-LUFA/LUFA/Drivers/USB/Class/Device/../../HighLevel/../LowLevel/Endpoint.h **** 	/* Enable C linkage for C++ Compilers: */
  93:../lufa-LUFA/LUFA/Drivers/USB/Class/Device/../../HighLevel/../LowLevel/Endpoint.h **** 		#if defined(__cplusplus)
  94:../lufa-LUFA/LUFA/Drivers/USB/Class/Device/../../HighLevel/../LowLevel/Endpoint.h **** 			extern "C" {
  95:../lufa-LUFA/LUFA/Drivers/USB/Class/Device/../../HighLevel/../LowLevel/Endpoint.h **** 		#endif
  96:../lufa-LUFA/LUFA/Drivers/USB/Class/Device/../../HighLevel/../LowLevel/Endpoint.h **** 
  97:../lufa-LUFA/LUFA/Drivers/USB/Class/Device/../../HighLevel/../LowLevel/Endpoint.h **** 	/* Preprocessor Checks: */
  98:../lufa-LUFA/LUFA/Drivers/USB/Class/Device/../../HighLevel/../LowLevel/Endpoint.h **** 		#if !defined(__INCLUDE_FROM_USB_DRIVER)
  99:../lufa-LUFA/LUFA/Drivers/USB/Class/Device/../../HighLevel/../LowLevel/Endpoint.h **** 			#error Do not include this file directly. Include LUFA/Drivers/USB/USB.h instead.
 100:../lufa-LUFA/LUFA/Drivers/USB/Class/Device/../../HighLevel/../LowLevel/Endpoint.h **** 		#endif
 101:../lufa-LUFA/LUFA/Drivers/USB/Class/Device/../../HighLevel/../LowLevel/Endpoint.h **** 		
 102:../lufa-LUFA/LUFA/Drivers/USB/Class/Device/../../HighLevel/../LowLevel/Endpoint.h **** 	/* Public Interface - May be used in end-application: */
 103:../lufa-LUFA/LUFA/Drivers/USB/Class/Device/../../HighLevel/../LowLevel/Endpoint.h **** 		/* Macros: */
 104:../lufa-LUFA/LUFA/Drivers/USB/Class/Device/../../HighLevel/../LowLevel/Endpoint.h **** 			/** Endpoint data direction mask for \ref Endpoint_ConfigureEndpoint(). This indicates that the 
 105:../lufa-LUFA/LUFA/Drivers/USB/Class/Device/../../HighLevel/../LowLevel/Endpoint.h **** 			 *  should be initialized in the OUT direction - i.e. data flows from host to device.
 106:../lufa-LUFA/LUFA/Drivers/USB/Class/Device/../../HighLevel/../LowLevel/Endpoint.h **** 			 */
 107:../lufa-LUFA/LUFA/Drivers/USB/Class/Device/../../HighLevel/../LowLevel/Endpoint.h **** 			#define ENDPOINT_DIR_OUT                      (0 << EPDIR)
 108:../lufa-LUFA/LUFA/Drivers/USB/Class/Device/../../HighLevel/../LowLevel/Endpoint.h **** 
 109:../lufa-LUFA/LUFA/Drivers/USB/Class/Device/../../HighLevel/../LowLevel/Endpoint.h **** 			/** Endpoint data direction mask for \ref Endpoint_ConfigureEndpoint(). This indicates that the 
 110:../lufa-LUFA/LUFA/Drivers/USB/Class/Device/../../HighLevel/../LowLevel/Endpoint.h **** 			 *  should be initialized in the IN direction - i.e. data flows from device to host.
 111:../lufa-LUFA/LUFA/Drivers/USB/Class/Device/../../HighLevel/../LowLevel/Endpoint.h **** 			 */
 112:../lufa-LUFA/LUFA/Drivers/USB/Class/Device/../../HighLevel/../LowLevel/Endpoint.h **** 			#define ENDPOINT_DIR_IN                       (1 << EPDIR)
 113:../lufa-LUFA/LUFA/Drivers/USB/Class/Device/../../HighLevel/../LowLevel/Endpoint.h **** 
 114:../lufa-LUFA/LUFA/Drivers/USB/Class/Device/../../HighLevel/../LowLevel/Endpoint.h **** 			/** Mask for the bank mode selection for the \ref Endpoint_ConfigureEndpoint() macro. This indic
 115:../lufa-LUFA/LUFA/Drivers/USB/Class/Device/../../HighLevel/../LowLevel/Endpoint.h **** 			 *  that the endpoint should have one single bank, which requires less USB FIFO memory but resul
 116:../lufa-LUFA/LUFA/Drivers/USB/Class/Device/../../HighLevel/../LowLevel/Endpoint.h **** 			 *  in slower transfers as only one USB device (the AVR or the host) can access the endpoint's
 117:../lufa-LUFA/LUFA/Drivers/USB/Class/Device/../../HighLevel/../LowLevel/Endpoint.h **** 			 *  bank at the one time.
 118:../lufa-LUFA/LUFA/Drivers/USB/Class/Device/../../HighLevel/../LowLevel/Endpoint.h **** 			 */
 119:../lufa-LUFA/LUFA/Drivers/USB/Class/Device/../../HighLevel/../LowLevel/Endpoint.h **** 			#define ENDPOINT_BANK_SINGLE                  (0 << EPBK0)
 120:../lufa-LUFA/LUFA/Drivers/USB/Class/Device/../../HighLevel/../LowLevel/Endpoint.h **** 
 121:../lufa-LUFA/LUFA/Drivers/USB/Class/Device/../../HighLevel/../LowLevel/Endpoint.h **** 			/** Mask for the bank mode selection for the \ref Endpoint_ConfigureEndpoint() macro. This indic
 122:../lufa-LUFA/LUFA/Drivers/USB/Class/Device/../../HighLevel/../LowLevel/Endpoint.h **** 			 *  that the endpoint should have two banks, which requires more USB FIFO memory but results
 123:../lufa-LUFA/LUFA/Drivers/USB/Class/Device/../../HighLevel/../LowLevel/Endpoint.h **** 			 *  in faster transfers as one USB device (the AVR or the host) can access one bank while the ot
 124:../lufa-LUFA/LUFA/Drivers/USB/Class/Device/../../HighLevel/../LowLevel/Endpoint.h **** 			 *  accesses the second bank.
 125:../lufa-LUFA/LUFA/Drivers/USB/Class/Device/../../HighLevel/../LowLevel/Endpoint.h **** 			 */
 126:../lufa-LUFA/LUFA/Drivers/USB/Class/Device/../../HighLevel/../LowLevel/Endpoint.h **** 			#define ENDPOINT_BANK_DOUBLE                  (1 << EPBK0)
 127:../lufa-LUFA/LUFA/Drivers/USB/Class/Device/../../HighLevel/../LowLevel/Endpoint.h **** 			
 128:../lufa-LUFA/LUFA/Drivers/USB/Class/Device/../../HighLevel/../LowLevel/Endpoint.h **** 			/** Endpoint address for the default control endpoint, which always resides in address 0. This i
 129:../lufa-LUFA/LUFA/Drivers/USB/Class/Device/../../HighLevel/../LowLevel/Endpoint.h **** 			 *  defined for convenience to give more readable code when used with the endpoint macros.
 130:../lufa-LUFA/LUFA/Drivers/USB/Class/Device/../../HighLevel/../LowLevel/Endpoint.h **** 			 */
 131:../lufa-LUFA/LUFA/Drivers/USB/Class/Device/../../HighLevel/../LowLevel/Endpoint.h **** 			#define ENDPOINT_CONTROLEP                    0
 132:../lufa-LUFA/LUFA/Drivers/USB/Class/Device/../../HighLevel/../LowLevel/Endpoint.h **** 
 133:../lufa-LUFA/LUFA/Drivers/USB/Class/Device/../../HighLevel/../LowLevel/Endpoint.h **** 			#if (!defined(FIXED_CONTROL_ENDPOINT_SIZE) || defined(__DOXYGEN__))
 134:../lufa-LUFA/LUFA/Drivers/USB/Class/Device/../../HighLevel/../LowLevel/Endpoint.h **** 				/** Default size of the default control endpoint's bank, until altered by the control endpoint 
 135:../lufa-LUFA/LUFA/Drivers/USB/Class/Device/../../HighLevel/../LowLevel/Endpoint.h **** 				 *  value in the device descriptor. Not available if the FIXED_CONTROL_ENDPOINT_SIZE token is d
 136:../lufa-LUFA/LUFA/Drivers/USB/Class/Device/../../HighLevel/../LowLevel/Endpoint.h **** 				 */
 137:../lufa-LUFA/LUFA/Drivers/USB/Class/Device/../../HighLevel/../LowLevel/Endpoint.h **** 				#define ENDPOINT_CONTROLEP_DEFAULT_SIZE   8
 138:../lufa-LUFA/LUFA/Drivers/USB/Class/Device/../../HighLevel/../LowLevel/Endpoint.h **** 			#endif
 139:../lufa-LUFA/LUFA/Drivers/USB/Class/Device/../../HighLevel/../LowLevel/Endpoint.h **** 			
 140:../lufa-LUFA/LUFA/Drivers/USB/Class/Device/../../HighLevel/../LowLevel/Endpoint.h **** 			/** Endpoint number mask, for masking against endpoint addresses to retrieve the endpoint's
 141:../lufa-LUFA/LUFA/Drivers/USB/Class/Device/../../HighLevel/../LowLevel/Endpoint.h **** 			 *  numerical address in the device.
 142:../lufa-LUFA/LUFA/Drivers/USB/Class/Device/../../HighLevel/../LowLevel/Endpoint.h **** 			 */
 143:../lufa-LUFA/LUFA/Drivers/USB/Class/Device/../../HighLevel/../LowLevel/Endpoint.h **** 			#define ENDPOINT_EPNUM_MASK                   0x07
 144:../lufa-LUFA/LUFA/Drivers/USB/Class/Device/../../HighLevel/../LowLevel/Endpoint.h **** 
 145:../lufa-LUFA/LUFA/Drivers/USB/Class/Device/../../HighLevel/../LowLevel/Endpoint.h **** 			/** Endpoint direction mask, for masking against endpoint addresses to retrieve the endpoint's
 146:../lufa-LUFA/LUFA/Drivers/USB/Class/Device/../../HighLevel/../LowLevel/Endpoint.h **** 			 *  direction for comparing with the ENDPOINT_DESCRIPTOR_DIR_* masks.
 147:../lufa-LUFA/LUFA/Drivers/USB/Class/Device/../../HighLevel/../LowLevel/Endpoint.h **** 			 */
 148:../lufa-LUFA/LUFA/Drivers/USB/Class/Device/../../HighLevel/../LowLevel/Endpoint.h **** 			#define ENDPOINT_EPDIR_MASK                   0x80
 149:../lufa-LUFA/LUFA/Drivers/USB/Class/Device/../../HighLevel/../LowLevel/Endpoint.h **** 
 150:../lufa-LUFA/LUFA/Drivers/USB/Class/Device/../../HighLevel/../LowLevel/Endpoint.h **** 			/** Endpoint bank size mask, for masking against endpoint addresses to retrieve the endpoint's
 151:../lufa-LUFA/LUFA/Drivers/USB/Class/Device/../../HighLevel/../LowLevel/Endpoint.h **** 			 *  bank size in the device.
 152:../lufa-LUFA/LUFA/Drivers/USB/Class/Device/../../HighLevel/../LowLevel/Endpoint.h **** 			 */
 153:../lufa-LUFA/LUFA/Drivers/USB/Class/Device/../../HighLevel/../LowLevel/Endpoint.h **** 			#define ENDPOINT_EPSIZE_MASK                  0x7F
 154:../lufa-LUFA/LUFA/Drivers/USB/Class/Device/../../HighLevel/../LowLevel/Endpoint.h **** 			
 155:../lufa-LUFA/LUFA/Drivers/USB/Class/Device/../../HighLevel/../LowLevel/Endpoint.h **** 			/** Maximum size in bytes of a given endpoint.
 156:../lufa-LUFA/LUFA/Drivers/USB/Class/Device/../../HighLevel/../LowLevel/Endpoint.h **** 			 *
 157:../lufa-LUFA/LUFA/Drivers/USB/Class/Device/../../HighLevel/../LowLevel/Endpoint.h **** 			 *  \param[in] n  Endpoint number, a value between 0 and (ENDPOINT_TOTAL_ENDPOINTS - 1)
 158:../lufa-LUFA/LUFA/Drivers/USB/Class/Device/../../HighLevel/../LowLevel/Endpoint.h **** 			 */				
 159:../lufa-LUFA/LUFA/Drivers/USB/Class/Device/../../HighLevel/../LowLevel/Endpoint.h **** 			#define ENDPOINT_MAX_SIZE(n)                  _ENDPOINT_GET_MAXSIZE(n)
 160:../lufa-LUFA/LUFA/Drivers/USB/Class/Device/../../HighLevel/../LowLevel/Endpoint.h **** 
 161:../lufa-LUFA/LUFA/Drivers/USB/Class/Device/../../HighLevel/../LowLevel/Endpoint.h **** 			/** Indicates if the given endpoint supports double banking.
 162:../lufa-LUFA/LUFA/Drivers/USB/Class/Device/../../HighLevel/../LowLevel/Endpoint.h **** 			 *
 163:../lufa-LUFA/LUFA/Drivers/USB/Class/Device/../../HighLevel/../LowLevel/Endpoint.h **** 			 *  \param[in] n  Endpoint number, a value between 0 and (ENDPOINT_TOTAL_ENDPOINTS - 1)
 164:../lufa-LUFA/LUFA/Drivers/USB/Class/Device/../../HighLevel/../LowLevel/Endpoint.h **** 			 */				
 165:../lufa-LUFA/LUFA/Drivers/USB/Class/Device/../../HighLevel/../LowLevel/Endpoint.h **** 			#define ENDPOINT_DOUBLEBANK_SUPPORTED(n)      _ENDPOINT_GET_DOUBLEBANK(n)
 166:../lufa-LUFA/LUFA/Drivers/USB/Class/Device/../../HighLevel/../LowLevel/Endpoint.h **** 
 167:../lufa-LUFA/LUFA/Drivers/USB/Class/Device/../../HighLevel/../LowLevel/Endpoint.h **** 			#if !defined(CONTROL_ONLY_DEVICE)
 168:../lufa-LUFA/LUFA/Drivers/USB/Class/Device/../../HighLevel/../LowLevel/Endpoint.h **** 				#if defined(USB_SERIES_4_AVR) || defined(USB_SERIES_6_AVR) || defined(USB_SERIES_7_AVR) || defi
 169:../lufa-LUFA/LUFA/Drivers/USB/Class/Device/../../HighLevel/../LowLevel/Endpoint.h **** 					/** Total number of endpoints (including the default control endpoint at address 0) which may
 170:../lufa-LUFA/LUFA/Drivers/USB/Class/Device/../../HighLevel/../LowLevel/Endpoint.h **** 					 *  be used in the device. Different USB AVR models support different amounts of endpoints,
 171:../lufa-LUFA/LUFA/Drivers/USB/Class/Device/../../HighLevel/../LowLevel/Endpoint.h **** 					 *  this value reflects the maximum number of endpoints for the currently selected AVR model.
 172:../lufa-LUFA/LUFA/Drivers/USB/Class/Device/../../HighLevel/../LowLevel/Endpoint.h **** 					 */
 173:../lufa-LUFA/LUFA/Drivers/USB/Class/Device/../../HighLevel/../LowLevel/Endpoint.h **** 					#define ENDPOINT_TOTAL_ENDPOINTS      7
 174:../lufa-LUFA/LUFA/Drivers/USB/Class/Device/../../HighLevel/../LowLevel/Endpoint.h **** 				#else
 175:../lufa-LUFA/LUFA/Drivers/USB/Class/Device/../../HighLevel/../LowLevel/Endpoint.h **** 					#define ENDPOINT_TOTAL_ENDPOINTS      5
 176:../lufa-LUFA/LUFA/Drivers/USB/Class/Device/../../HighLevel/../LowLevel/Endpoint.h **** 				#endif
 177:../lufa-LUFA/LUFA/Drivers/USB/Class/Device/../../HighLevel/../LowLevel/Endpoint.h **** 			#else
 178:../lufa-LUFA/LUFA/Drivers/USB/Class/Device/../../HighLevel/../LowLevel/Endpoint.h **** 				#define ENDPOINT_TOTAL_ENDPOINTS          1
 179:../lufa-LUFA/LUFA/Drivers/USB/Class/Device/../../HighLevel/../LowLevel/Endpoint.h **** 			#endif
 180:../lufa-LUFA/LUFA/Drivers/USB/Class/Device/../../HighLevel/../LowLevel/Endpoint.h **** 
 181:../lufa-LUFA/LUFA/Drivers/USB/Class/Device/../../HighLevel/../LowLevel/Endpoint.h **** 		/* Enums: */
 182:../lufa-LUFA/LUFA/Drivers/USB/Class/Device/../../HighLevel/../LowLevel/Endpoint.h **** 			/** Enum for the possible error return codes of the \ref Endpoint_WaitUntilReady() function.
 183:../lufa-LUFA/LUFA/Drivers/USB/Class/Device/../../HighLevel/../LowLevel/Endpoint.h **** 			 *
 184:../lufa-LUFA/LUFA/Drivers/USB/Class/Device/../../HighLevel/../LowLevel/Endpoint.h **** 			 *  \ingroup Group_EndpointRW
 185:../lufa-LUFA/LUFA/Drivers/USB/Class/Device/../../HighLevel/../LowLevel/Endpoint.h **** 			 */
 186:../lufa-LUFA/LUFA/Drivers/USB/Class/Device/../../HighLevel/../LowLevel/Endpoint.h **** 			enum Endpoint_WaitUntilReady_ErrorCodes_t
 187:../lufa-LUFA/LUFA/Drivers/USB/Class/Device/../../HighLevel/../LowLevel/Endpoint.h **** 			{
 188:../lufa-LUFA/LUFA/Drivers/USB/Class/Device/../../HighLevel/../LowLevel/Endpoint.h **** 				ENDPOINT_READYWAIT_NoError                 = 0, /**< Endpoint is ready for next packet, no erro
 189:../lufa-LUFA/LUFA/Drivers/USB/Class/Device/../../HighLevel/../LowLevel/Endpoint.h **** 				ENDPOINT_READYWAIT_EndpointStalled         = 1, /**< The endpoint was stalled during the stream
 190:../lufa-LUFA/LUFA/Drivers/USB/Class/Device/../../HighLevel/../LowLevel/Endpoint.h **** 				                                                 *   transfer by the host or device.
 191:../lufa-LUFA/LUFA/Drivers/USB/Class/Device/../../HighLevel/../LowLevel/Endpoint.h **** 				                                                 */
 192:../lufa-LUFA/LUFA/Drivers/USB/Class/Device/../../HighLevel/../LowLevel/Endpoint.h **** 				ENDPOINT_READYWAIT_DeviceDisconnected      = 2,	/**< Device was disconnected from the host whil
 193:../lufa-LUFA/LUFA/Drivers/USB/Class/Device/../../HighLevel/../LowLevel/Endpoint.h **** 				                                                 *   waiting for the endpoint to become ready.
 194:../lufa-LUFA/LUFA/Drivers/USB/Class/Device/../../HighLevel/../LowLevel/Endpoint.h **** 				                                                 */
 195:../lufa-LUFA/LUFA/Drivers/USB/Class/Device/../../HighLevel/../LowLevel/Endpoint.h **** 				ENDPOINT_READYWAIT_BusSuspended            = 3, /**< The USB bus has been suspended by the host
 196:../lufa-LUFA/LUFA/Drivers/USB/Class/Device/../../HighLevel/../LowLevel/Endpoint.h **** 				                                                 *   no USB endpoint traffic can occur until th
 197:../lufa-LUFA/LUFA/Drivers/USB/Class/Device/../../HighLevel/../LowLevel/Endpoint.h **** 				                                                 *   has resumed.
 198:../lufa-LUFA/LUFA/Drivers/USB/Class/Device/../../HighLevel/../LowLevel/Endpoint.h **** 				                                                 */
 199:../lufa-LUFA/LUFA/Drivers/USB/Class/Device/../../HighLevel/../LowLevel/Endpoint.h **** 				ENDPOINT_READYWAIT_Timeout                 = 4, /**< The host failed to accept or send the next
 200:../lufa-LUFA/LUFA/Drivers/USB/Class/Device/../../HighLevel/../LowLevel/Endpoint.h **** 				                                                 *   within the software timeout period set by 
 201:../lufa-LUFA/LUFA/Drivers/USB/Class/Device/../../HighLevel/../LowLevel/Endpoint.h **** 				                                                 *   \ref USB_STREAM_TIMEOUT_MS macro.
 202:../lufa-LUFA/LUFA/Drivers/USB/Class/Device/../../HighLevel/../LowLevel/Endpoint.h **** 				                                                 */
 203:../lufa-LUFA/LUFA/Drivers/USB/Class/Device/../../HighLevel/../LowLevel/Endpoint.h **** 			};
 204:../lufa-LUFA/LUFA/Drivers/USB/Class/Device/../../HighLevel/../LowLevel/Endpoint.h **** 		
 205:../lufa-LUFA/LUFA/Drivers/USB/Class/Device/../../HighLevel/../LowLevel/Endpoint.h **** 			/** Enum for the possible error return codes of the Endpoint_*_Stream_* functions.
 206:../lufa-LUFA/LUFA/Drivers/USB/Class/Device/../../HighLevel/../LowLevel/Endpoint.h **** 			 *
 207:../lufa-LUFA/LUFA/Drivers/USB/Class/Device/../../HighLevel/../LowLevel/Endpoint.h **** 			 *  \ingroup Group_EndpointStreamRW
 208:../lufa-LUFA/LUFA/Drivers/USB/Class/Device/../../HighLevel/../LowLevel/Endpoint.h **** 			 */
 209:../lufa-LUFA/LUFA/Drivers/USB/Class/Device/../../HighLevel/../LowLevel/Endpoint.h **** 			enum Endpoint_Stream_RW_ErrorCodes_t
 210:../lufa-LUFA/LUFA/Drivers/USB/Class/Device/../../HighLevel/../LowLevel/Endpoint.h **** 			{
 211:../lufa-LUFA/LUFA/Drivers/USB/Class/Device/../../HighLevel/../LowLevel/Endpoint.h **** 				ENDPOINT_RWSTREAM_NoError            = 0, /**< Command completed successfully, no error. */
 212:../lufa-LUFA/LUFA/Drivers/USB/Class/Device/../../HighLevel/../LowLevel/Endpoint.h **** 				ENDPOINT_RWSTREAM_EndpointStalled    = 1, /**< The endpoint was stalled during the stream
 213:../lufa-LUFA/LUFA/Drivers/USB/Class/Device/../../HighLevel/../LowLevel/Endpoint.h **** 				                                           *   transfer by the host or device.
 214:../lufa-LUFA/LUFA/Drivers/USB/Class/Device/../../HighLevel/../LowLevel/Endpoint.h **** 				                                           */
 215:../lufa-LUFA/LUFA/Drivers/USB/Class/Device/../../HighLevel/../LowLevel/Endpoint.h **** 				ENDPOINT_RWSTREAM_DeviceDisconnected = 2, /**< Device was disconnected from the host during
 216:../lufa-LUFA/LUFA/Drivers/USB/Class/Device/../../HighLevel/../LowLevel/Endpoint.h **** 				                                           *   the transfer.
 217:../lufa-LUFA/LUFA/Drivers/USB/Class/Device/../../HighLevel/../LowLevel/Endpoint.h **** 				                                           */
 218:../lufa-LUFA/LUFA/Drivers/USB/Class/Device/../../HighLevel/../LowLevel/Endpoint.h **** 				ENDPOINT_RWSTREAM_BusSuspended       = 3, /**< The USB bus has been suspended by the host and
 219:../lufa-LUFA/LUFA/Drivers/USB/Class/Device/../../HighLevel/../LowLevel/Endpoint.h **** 				                                           *   no USB endpoint traffic can occur until the bus
 220:../lufa-LUFA/LUFA/Drivers/USB/Class/Device/../../HighLevel/../LowLevel/Endpoint.h **** 				                                           *   has resumed.
 221:../lufa-LUFA/LUFA/Drivers/USB/Class/Device/../../HighLevel/../LowLevel/Endpoint.h **** 				                                           */
 222:../lufa-LUFA/LUFA/Drivers/USB/Class/Device/../../HighLevel/../LowLevel/Endpoint.h **** 				ENDPOINT_RWSTREAM_Timeout            = 4, /**< The host failed to accept or send the next packe
 223:../lufa-LUFA/LUFA/Drivers/USB/Class/Device/../../HighLevel/../LowLevel/Endpoint.h **** 				                                           *   within the software timeout period set by the
 224:../lufa-LUFA/LUFA/Drivers/USB/Class/Device/../../HighLevel/../LowLevel/Endpoint.h **** 				                                           *   \ref USB_STREAM_TIMEOUT_MS macro.
 225:../lufa-LUFA/LUFA/Drivers/USB/Class/Device/../../HighLevel/../LowLevel/Endpoint.h **** 				                                           */
 226:../lufa-LUFA/LUFA/Drivers/USB/Class/Device/../../HighLevel/../LowLevel/Endpoint.h **** 				ENDPOINT_RWSTREAM_CallbackAborted    = 5, /**< Indicates that the stream's callback function
 227:../lufa-LUFA/LUFA/Drivers/USB/Class/Device/../../HighLevel/../LowLevel/Endpoint.h **** 			                                               *   aborted the transfer early.
 228:../lufa-LUFA/LUFA/Drivers/USB/Class/Device/../../HighLevel/../LowLevel/Endpoint.h **** 				                                           */
 229:../lufa-LUFA/LUFA/Drivers/USB/Class/Device/../../HighLevel/../LowLevel/Endpoint.h **** 			};
 230:../lufa-LUFA/LUFA/Drivers/USB/Class/Device/../../HighLevel/../LowLevel/Endpoint.h **** 			
 231:../lufa-LUFA/LUFA/Drivers/USB/Class/Device/../../HighLevel/../LowLevel/Endpoint.h **** 			/** Enum for the possible error return codes of the Endpoint_*_Control_Stream_* functions..
 232:../lufa-LUFA/LUFA/Drivers/USB/Class/Device/../../HighLevel/../LowLevel/Endpoint.h **** 			 *
 233:../lufa-LUFA/LUFA/Drivers/USB/Class/Device/../../HighLevel/../LowLevel/Endpoint.h **** 			 *  \ingroup Group_EndpointStreamRW
 234:../lufa-LUFA/LUFA/Drivers/USB/Class/Device/../../HighLevel/../LowLevel/Endpoint.h **** 			 */
 235:../lufa-LUFA/LUFA/Drivers/USB/Class/Device/../../HighLevel/../LowLevel/Endpoint.h **** 			enum Endpoint_ControlStream_RW_ErrorCodes_t
 236:../lufa-LUFA/LUFA/Drivers/USB/Class/Device/../../HighLevel/../LowLevel/Endpoint.h **** 			{
 237:../lufa-LUFA/LUFA/Drivers/USB/Class/Device/../../HighLevel/../LowLevel/Endpoint.h **** 				ENDPOINT_RWCSTREAM_NoError            = 0, /**< Command completed successfully, no error. */
 238:../lufa-LUFA/LUFA/Drivers/USB/Class/Device/../../HighLevel/../LowLevel/Endpoint.h **** 				ENDPOINT_RWCSTREAM_HostAborted        = 1, /**< The aborted the transfer prematurely. */
 239:../lufa-LUFA/LUFA/Drivers/USB/Class/Device/../../HighLevel/../LowLevel/Endpoint.h **** 				ENDPOINT_RWCSTREAM_DeviceDisconnected = 2, /**< Device was disconnected from the host during
 240:../lufa-LUFA/LUFA/Drivers/USB/Class/Device/../../HighLevel/../LowLevel/Endpoint.h **** 				                                            *   the transfer.
 241:../lufa-LUFA/LUFA/Drivers/USB/Class/Device/../../HighLevel/../LowLevel/Endpoint.h **** 				                                            */
 242:../lufa-LUFA/LUFA/Drivers/USB/Class/Device/../../HighLevel/../LowLevel/Endpoint.h **** 				ENDPOINT_RWCSTREAM_BusSuspended       = 3, /**< The USB bus has been suspended by the host and
 243:../lufa-LUFA/LUFA/Drivers/USB/Class/Device/../../HighLevel/../LowLevel/Endpoint.h **** 				                                            *   no USB endpoint traffic can occur until the bus
 244:../lufa-LUFA/LUFA/Drivers/USB/Class/Device/../../HighLevel/../LowLevel/Endpoint.h **** 				                                            *   has resumed.
 245:../lufa-LUFA/LUFA/Drivers/USB/Class/Device/../../HighLevel/../LowLevel/Endpoint.h **** 				                                            */
 246:../lufa-LUFA/LUFA/Drivers/USB/Class/Device/../../HighLevel/../LowLevel/Endpoint.h **** 			};
 247:../lufa-LUFA/LUFA/Drivers/USB/Class/Device/../../HighLevel/../LowLevel/Endpoint.h **** 
 248:../lufa-LUFA/LUFA/Drivers/USB/Class/Device/../../HighLevel/../LowLevel/Endpoint.h **** 		/* Inline Functions: */
 249:../lufa-LUFA/LUFA/Drivers/USB/Class/Device/../../HighLevel/../LowLevel/Endpoint.h **** 			/** Indicates the number of bytes currently stored in the current endpoint's selected bank.
 250:../lufa-LUFA/LUFA/Drivers/USB/Class/Device/../../HighLevel/../LowLevel/Endpoint.h **** 			 *
 251:../lufa-LUFA/LUFA/Drivers/USB/Class/Device/../../HighLevel/../LowLevel/Endpoint.h **** 			 *  \note The return width of this function may differ, depending on the maximum endpoint bank s
 252:../lufa-LUFA/LUFA/Drivers/USB/Class/Device/../../HighLevel/../LowLevel/Endpoint.h **** 			 *        of the selected AVR model.
 253:../lufa-LUFA/LUFA/Drivers/USB/Class/Device/../../HighLevel/../LowLevel/Endpoint.h **** 			 *
 254:../lufa-LUFA/LUFA/Drivers/USB/Class/Device/../../HighLevel/../LowLevel/Endpoint.h **** 			 *  \ingroup Group_EndpointRW
 255:../lufa-LUFA/LUFA/Drivers/USB/Class/Device/../../HighLevel/../LowLevel/Endpoint.h **** 			 *
 256:../lufa-LUFA/LUFA/Drivers/USB/Class/Device/../../HighLevel/../LowLevel/Endpoint.h **** 			 *  \return Total number of bytes in the currently selected Endpoint's FIFO buffer.
 257:../lufa-LUFA/LUFA/Drivers/USB/Class/Device/../../HighLevel/../LowLevel/Endpoint.h **** 			 */
 258:../lufa-LUFA/LUFA/Drivers/USB/Class/Device/../../HighLevel/../LowLevel/Endpoint.h **** 			static inline uint16_t Endpoint_BytesInEndpoint(void) ATTR_WARN_UNUSED_RESULT ATTR_ALWAYS_INLINE
 259:../lufa-LUFA/LUFA/Drivers/USB/Class/Device/../../HighLevel/../LowLevel/Endpoint.h **** 			static inline uint16_t Endpoint_BytesInEndpoint(void)
 260:../lufa-LUFA/LUFA/Drivers/USB/Class/Device/../../HighLevel/../LowLevel/Endpoint.h **** 			{
 261:../lufa-LUFA/LUFA/Drivers/USB/Class/Device/../../HighLevel/../LowLevel/Endpoint.h **** 				#if defined(USB_SERIES_6_AVR) || defined(USB_SERIES_7_AVR)
 262:../lufa-LUFA/LUFA/Drivers/USB/Class/Device/../../HighLevel/../LowLevel/Endpoint.h **** 					return UEBCX;
 263:../lufa-LUFA/LUFA/Drivers/USB/Class/Device/../../HighLevel/../LowLevel/Endpoint.h **** 				#elif defined(USB_SERIES_4_AVR)
 264:../lufa-LUFA/LUFA/Drivers/USB/Class/Device/../../HighLevel/../LowLevel/Endpoint.h **** 					return (((uint16_t)UEBCHX << 8) | UEBCLX);
 265:../lufa-LUFA/LUFA/Drivers/USB/Class/Device/../../HighLevel/../LowLevel/Endpoint.h **** 				#elif defined(USB_SERIES_2_AVR)
 266:../lufa-LUFA/LUFA/Drivers/USB/Class/Device/../../HighLevel/../LowLevel/Endpoint.h **** 					return UEBCLX;
 267:../lufa-LUFA/LUFA/Drivers/USB/Class/Device/../../HighLevel/../LowLevel/Endpoint.h **** 				#endif
 268:../lufa-LUFA/LUFA/Drivers/USB/Class/Device/../../HighLevel/../LowLevel/Endpoint.h **** 			}
 269:../lufa-LUFA/LUFA/Drivers/USB/Class/Device/../../HighLevel/../LowLevel/Endpoint.h **** 		
 270:../lufa-LUFA/LUFA/Drivers/USB/Class/Device/../../HighLevel/../LowLevel/Endpoint.h **** 			/** Get the endpoint address of the currently selected endpoint. This is typically used to save
 271:../lufa-LUFA/LUFA/Drivers/USB/Class/Device/../../HighLevel/../LowLevel/Endpoint.h **** 			 *  the currently selected endpoint number so that it can be restored after another endpoint has
 272:../lufa-LUFA/LUFA/Drivers/USB/Class/Device/../../HighLevel/../LowLevel/Endpoint.h **** 			 *  been manipulated.
 273:../lufa-LUFA/LUFA/Drivers/USB/Class/Device/../../HighLevel/../LowLevel/Endpoint.h **** 			 *
 274:../lufa-LUFA/LUFA/Drivers/USB/Class/Device/../../HighLevel/../LowLevel/Endpoint.h **** 			 *  \return Index of the currently selected endpoint.
 275:../lufa-LUFA/LUFA/Drivers/USB/Class/Device/../../HighLevel/../LowLevel/Endpoint.h **** 			 */
 276:../lufa-LUFA/LUFA/Drivers/USB/Class/Device/../../HighLevel/../LowLevel/Endpoint.h **** 			static inline uint8_t Endpoint_GetCurrentEndpoint(void) ATTR_WARN_UNUSED_RESULT ATTR_ALWAYS_INLI
 277:../lufa-LUFA/LUFA/Drivers/USB/Class/Device/../../HighLevel/../LowLevel/Endpoint.h **** 			static inline uint8_t Endpoint_GetCurrentEndpoint(void)
 278:../lufa-LUFA/LUFA/Drivers/USB/Class/Device/../../HighLevel/../LowLevel/Endpoint.h **** 			{
 279:../lufa-LUFA/LUFA/Drivers/USB/Class/Device/../../HighLevel/../LowLevel/Endpoint.h **** 				#if !defined(CONTROL_ONLY_DEVICE)
 280:../lufa-LUFA/LUFA/Drivers/USB/Class/Device/../../HighLevel/../LowLevel/Endpoint.h **** 					return (UENUM & ENDPOINT_EPNUM_MASK);
 281:../lufa-LUFA/LUFA/Drivers/USB/Class/Device/../../HighLevel/../LowLevel/Endpoint.h **** 				#else
 282:../lufa-LUFA/LUFA/Drivers/USB/Class/Device/../../HighLevel/../LowLevel/Endpoint.h **** 					return ENDPOINT_CONTROLEP;
 283:../lufa-LUFA/LUFA/Drivers/USB/Class/Device/../../HighLevel/../LowLevel/Endpoint.h **** 				#endif
 284:../lufa-LUFA/LUFA/Drivers/USB/Class/Device/../../HighLevel/../LowLevel/Endpoint.h **** 			}
 285:../lufa-LUFA/LUFA/Drivers/USB/Class/Device/../../HighLevel/../LowLevel/Endpoint.h **** 			
 286:../lufa-LUFA/LUFA/Drivers/USB/Class/Device/../../HighLevel/../LowLevel/Endpoint.h **** 			/** Selects the given endpoint number. If the address from the device descriptors is used, the
 287:../lufa-LUFA/LUFA/Drivers/USB/Class/Device/../../HighLevel/../LowLevel/Endpoint.h **** 			 *  value should be masked with the \ref ENDPOINT_EPNUM_MASK constant to extract only the endpoi
 288:../lufa-LUFA/LUFA/Drivers/USB/Class/Device/../../HighLevel/../LowLevel/Endpoint.h **** 			 *  number (and discarding the endpoint direction bit).
 289:../lufa-LUFA/LUFA/Drivers/USB/Class/Device/../../HighLevel/../LowLevel/Endpoint.h **** 			 *
 290:../lufa-LUFA/LUFA/Drivers/USB/Class/Device/../../HighLevel/../LowLevel/Endpoint.h **** 			 *  Any endpoint operations which do not require the endpoint number to be indicated will operat
 291:../lufa-LUFA/LUFA/Drivers/USB/Class/Device/../../HighLevel/../LowLevel/Endpoint.h **** 			 *  the currently selected endpoint.
 292:../lufa-LUFA/LUFA/Drivers/USB/Class/Device/../../HighLevel/../LowLevel/Endpoint.h **** 			 *
 293:../lufa-LUFA/LUFA/Drivers/USB/Class/Device/../../HighLevel/../LowLevel/Endpoint.h **** 			 *  \param[in] EndpointNumber Endpoint number to select.
 294:../lufa-LUFA/LUFA/Drivers/USB/Class/Device/../../HighLevel/../LowLevel/Endpoint.h **** 			 */
 295:../lufa-LUFA/LUFA/Drivers/USB/Class/Device/../../HighLevel/../LowLevel/Endpoint.h **** 			static inline void Endpoint_SelectEndpoint(const uint8_t EndpointNumber) ATTR_ALWAYS_INLINE;
 296:../lufa-LUFA/LUFA/Drivers/USB/Class/Device/../../HighLevel/../LowLevel/Endpoint.h **** 			static inline void Endpoint_SelectEndpoint(const uint8_t EndpointNumber)
 297:../lufa-LUFA/LUFA/Drivers/USB/Class/Device/../../HighLevel/../LowLevel/Endpoint.h **** 			{
 298:../lufa-LUFA/LUFA/Drivers/USB/Class/Device/../../HighLevel/../LowLevel/Endpoint.h **** 				#if !defined(CONTROL_ONLY_DEVICE)
 299:../lufa-LUFA/LUFA/Drivers/USB/Class/Device/../../HighLevel/../LowLevel/Endpoint.h **** 					UENUM = EndpointNumber;
 300:../lufa-LUFA/LUFA/Drivers/USB/Class/Device/../../HighLevel/../LowLevel/Endpoint.h **** 				#endif			
 301:../lufa-LUFA/LUFA/Drivers/USB/Class/Device/../../HighLevel/../LowLevel/Endpoint.h **** 			}
 302:../lufa-LUFA/LUFA/Drivers/USB/Class/Device/../../HighLevel/../LowLevel/Endpoint.h **** 			
 303:../lufa-LUFA/LUFA/Drivers/USB/Class/Device/../../HighLevel/../LowLevel/Endpoint.h **** 			/** Resets the endpoint bank FIFO. This clears all the endpoint banks and resets the USB control
 304:../lufa-LUFA/LUFA/Drivers/USB/Class/Device/../../HighLevel/../LowLevel/Endpoint.h **** 			 *  In and Out pointers to the bank's contents.
 305:../lufa-LUFA/LUFA/Drivers/USB/Class/Device/../../HighLevel/../LowLevel/Endpoint.h **** 			 *
 306:../lufa-LUFA/LUFA/Drivers/USB/Class/Device/../../HighLevel/../LowLevel/Endpoint.h **** 			 *  \param[in] EndpointNumber Endpoint number whose FIFO buffers are to be reset.
 307:../lufa-LUFA/LUFA/Drivers/USB/Class/Device/../../HighLevel/../LowLevel/Endpoint.h **** 			 */
 308:../lufa-LUFA/LUFA/Drivers/USB/Class/Device/../../HighLevel/../LowLevel/Endpoint.h **** 			static inline void Endpoint_ResetFIFO(const uint8_t EndpointNumber) ATTR_ALWAYS_INLINE;
 309:../lufa-LUFA/LUFA/Drivers/USB/Class/Device/../../HighLevel/../LowLevel/Endpoint.h **** 			static inline void Endpoint_ResetFIFO(const uint8_t EndpointNumber)
 310:../lufa-LUFA/LUFA/Drivers/USB/Class/Device/../../HighLevel/../LowLevel/Endpoint.h **** 			{
 311:../lufa-LUFA/LUFA/Drivers/USB/Class/Device/../../HighLevel/../LowLevel/Endpoint.h **** 				UERST = (1 << EndpointNumber);
 312:../lufa-LUFA/LUFA/Drivers/USB/Class/Device/../../HighLevel/../LowLevel/Endpoint.h **** 				UERST = 0;
 313:../lufa-LUFA/LUFA/Drivers/USB/Class/Device/../../HighLevel/../LowLevel/Endpoint.h **** 			}
 314:../lufa-LUFA/LUFA/Drivers/USB/Class/Device/../../HighLevel/../LowLevel/Endpoint.h **** 			
 315:../lufa-LUFA/LUFA/Drivers/USB/Class/Device/../../HighLevel/../LowLevel/Endpoint.h **** 			/** Enables the currently selected endpoint so that data can be sent and received through it to
 316:../lufa-LUFA/LUFA/Drivers/USB/Class/Device/../../HighLevel/../LowLevel/Endpoint.h **** 			 *  and from a host.
 317:../lufa-LUFA/LUFA/Drivers/USB/Class/Device/../../HighLevel/../LowLevel/Endpoint.h **** 			 *
 318:../lufa-LUFA/LUFA/Drivers/USB/Class/Device/../../HighLevel/../LowLevel/Endpoint.h **** 			 *  \note Endpoints must first be configured properly via \ref Endpoint_ConfigureEndpoint().
 319:../lufa-LUFA/LUFA/Drivers/USB/Class/Device/../../HighLevel/../LowLevel/Endpoint.h **** 			 */
 320:../lufa-LUFA/LUFA/Drivers/USB/Class/Device/../../HighLevel/../LowLevel/Endpoint.h **** 			static inline void Endpoint_EnableEndpoint(void) ATTR_ALWAYS_INLINE;
 321:../lufa-LUFA/LUFA/Drivers/USB/Class/Device/../../HighLevel/../LowLevel/Endpoint.h **** 			static inline void Endpoint_EnableEndpoint(void)
 322:../lufa-LUFA/LUFA/Drivers/USB/Class/Device/../../HighLevel/../LowLevel/Endpoint.h **** 			{
 323:../lufa-LUFA/LUFA/Drivers/USB/Class/Device/../../HighLevel/../LowLevel/Endpoint.h **** 				UECONX |= (1 << EPEN);
 324:../lufa-LUFA/LUFA/Drivers/USB/Class/Device/../../HighLevel/../LowLevel/Endpoint.h **** 			}
 325:../lufa-LUFA/LUFA/Drivers/USB/Class/Device/../../HighLevel/../LowLevel/Endpoint.h **** 
 326:../lufa-LUFA/LUFA/Drivers/USB/Class/Device/../../HighLevel/../LowLevel/Endpoint.h **** 			/** Disables the currently selected endpoint so that data cannot be sent and received through it
 327:../lufa-LUFA/LUFA/Drivers/USB/Class/Device/../../HighLevel/../LowLevel/Endpoint.h **** 			 *  to and from a host.
 328:../lufa-LUFA/LUFA/Drivers/USB/Class/Device/../../HighLevel/../LowLevel/Endpoint.h **** 			 */
 329:../lufa-LUFA/LUFA/Drivers/USB/Class/Device/../../HighLevel/../LowLevel/Endpoint.h **** 			static inline void Endpoint_DisableEndpoint(void) ATTR_ALWAYS_INLINE;
 330:../lufa-LUFA/LUFA/Drivers/USB/Class/Device/../../HighLevel/../LowLevel/Endpoint.h **** 			static inline void Endpoint_DisableEndpoint(void)
 331:../lufa-LUFA/LUFA/Drivers/USB/Class/Device/../../HighLevel/../LowLevel/Endpoint.h **** 			{
 332:../lufa-LUFA/LUFA/Drivers/USB/Class/Device/../../HighLevel/../LowLevel/Endpoint.h **** 				UECONX &= ~(1 << EPEN);
 333:../lufa-LUFA/LUFA/Drivers/USB/Class/Device/../../HighLevel/../LowLevel/Endpoint.h **** 			}
 334:../lufa-LUFA/LUFA/Drivers/USB/Class/Device/../../HighLevel/../LowLevel/Endpoint.h **** 			
 335:../lufa-LUFA/LUFA/Drivers/USB/Class/Device/../../HighLevel/../LowLevel/Endpoint.h **** 			/** Determines if the currently selected endpoint is enabled, but not necessarily configured.
 336:../lufa-LUFA/LUFA/Drivers/USB/Class/Device/../../HighLevel/../LowLevel/Endpoint.h **** 			 *
 337:../lufa-LUFA/LUFA/Drivers/USB/Class/Device/../../HighLevel/../LowLevel/Endpoint.h **** 			 * \return Boolean True if the currently selected endpoint is enabled, false otherwise.
 338:../lufa-LUFA/LUFA/Drivers/USB/Class/Device/../../HighLevel/../LowLevel/Endpoint.h **** 			 */
 339:../lufa-LUFA/LUFA/Drivers/USB/Class/Device/../../HighLevel/../LowLevel/Endpoint.h **** 			static inline bool Endpoint_IsEnabled(void) ATTR_WARN_UNUSED_RESULT ATTR_ALWAYS_INLINE;
 340:../lufa-LUFA/LUFA/Drivers/USB/Class/Device/../../HighLevel/../LowLevel/Endpoint.h **** 			static inline bool Endpoint_IsEnabled(void)
 341:../lufa-LUFA/LUFA/Drivers/USB/Class/Device/../../HighLevel/../LowLevel/Endpoint.h **** 			{
 342:../lufa-LUFA/LUFA/Drivers/USB/Class/Device/../../HighLevel/../LowLevel/Endpoint.h **** 				return ((UECONX & (1 << EPEN)) ? true : false);
 343:../lufa-LUFA/LUFA/Drivers/USB/Class/Device/../../HighLevel/../LowLevel/Endpoint.h **** 			}
 344:../lufa-LUFA/LUFA/Drivers/USB/Class/Device/../../HighLevel/../LowLevel/Endpoint.h **** 			
 345:../lufa-LUFA/LUFA/Drivers/USB/Class/Device/../../HighLevel/../LowLevel/Endpoint.h **** 			/** Determines if the currently selected endpoint may be read from (if data is waiting in the en
 346:../lufa-LUFA/LUFA/Drivers/USB/Class/Device/../../HighLevel/../LowLevel/Endpoint.h **** 			 *  bank and the endpoint is an OUT direction, or if the bank is not yet full if the endpoint is
 347:../lufa-LUFA/LUFA/Drivers/USB/Class/Device/../../HighLevel/../LowLevel/Endpoint.h **** 			 *  direction). This function will return false if an error has occurred in the endpoint, if the
 348:../lufa-LUFA/LUFA/Drivers/USB/Class/Device/../../HighLevel/../LowLevel/Endpoint.h **** 			 *  is an OUT direction and no packet (or an empty packet) has been received, or if the endpoint
 349:../lufa-LUFA/LUFA/Drivers/USB/Class/Device/../../HighLevel/../LowLevel/Endpoint.h **** 			 *  direction and the endpoint bank is full.
 350:../lufa-LUFA/LUFA/Drivers/USB/Class/Device/../../HighLevel/../LowLevel/Endpoint.h **** 			 *
 351:../lufa-LUFA/LUFA/Drivers/USB/Class/Device/../../HighLevel/../LowLevel/Endpoint.h **** 			 *  \ingroup Group_EndpointPacketManagement
 352:../lufa-LUFA/LUFA/Drivers/USB/Class/Device/../../HighLevel/../LowLevel/Endpoint.h **** 			 *
 353:../lufa-LUFA/LUFA/Drivers/USB/Class/Device/../../HighLevel/../LowLevel/Endpoint.h **** 			 *  \return Boolean true if the currently selected endpoint may be read from or written to, depe
 354:../lufa-LUFA/LUFA/Drivers/USB/Class/Device/../../HighLevel/../LowLevel/Endpoint.h **** 			 */
 355:../lufa-LUFA/LUFA/Drivers/USB/Class/Device/../../HighLevel/../LowLevel/Endpoint.h **** 			static inline bool Endpoint_IsReadWriteAllowed(void) ATTR_WARN_UNUSED_RESULT ATTR_ALWAYS_INLINE;
 356:../lufa-LUFA/LUFA/Drivers/USB/Class/Device/../../HighLevel/../LowLevel/Endpoint.h **** 			static inline bool Endpoint_IsReadWriteAllowed(void)
 357:../lufa-LUFA/LUFA/Drivers/USB/Class/Device/../../HighLevel/../LowLevel/Endpoint.h **** 			{
 358:../lufa-LUFA/LUFA/Drivers/USB/Class/Device/../../HighLevel/../LowLevel/Endpoint.h **** 				return ((UEINTX & (1 << RWAL)) ? true : false);
 359:../lufa-LUFA/LUFA/Drivers/USB/Class/Device/../../HighLevel/../LowLevel/Endpoint.h **** 			}
 360:../lufa-LUFA/LUFA/Drivers/USB/Class/Device/../../HighLevel/../LowLevel/Endpoint.h **** 			
 361:../lufa-LUFA/LUFA/Drivers/USB/Class/Device/../../HighLevel/../LowLevel/Endpoint.h **** 			/** Determines if the currently selected endpoint is configured.
 362:../lufa-LUFA/LUFA/Drivers/USB/Class/Device/../../HighLevel/../LowLevel/Endpoint.h **** 			 *
 363:../lufa-LUFA/LUFA/Drivers/USB/Class/Device/../../HighLevel/../LowLevel/Endpoint.h **** 			 *  \return Boolean true if the currently selected endpoint has been configured, false otherwise
 364:../lufa-LUFA/LUFA/Drivers/USB/Class/Device/../../HighLevel/../LowLevel/Endpoint.h **** 			 */
 365:../lufa-LUFA/LUFA/Drivers/USB/Class/Device/../../HighLevel/../LowLevel/Endpoint.h **** 			static inline bool Endpoint_IsConfigured(void) ATTR_WARN_UNUSED_RESULT ATTR_ALWAYS_INLINE;
 366:../lufa-LUFA/LUFA/Drivers/USB/Class/Device/../../HighLevel/../LowLevel/Endpoint.h **** 			static inline bool Endpoint_IsConfigured(void)
 367:../lufa-LUFA/LUFA/Drivers/USB/Class/Device/../../HighLevel/../LowLevel/Endpoint.h **** 			{
 368:../lufa-LUFA/LUFA/Drivers/USB/Class/Device/../../HighLevel/../LowLevel/Endpoint.h **** 				return ((UESTA0X & (1 << CFGOK)) ? true : false);
 369:../lufa-LUFA/LUFA/Drivers/USB/Class/Device/../../HighLevel/../LowLevel/Endpoint.h **** 			}
 370:../lufa-LUFA/LUFA/Drivers/USB/Class/Device/../../HighLevel/../LowLevel/Endpoint.h **** 			
 371:../lufa-LUFA/LUFA/Drivers/USB/Class/Device/../../HighLevel/../LowLevel/Endpoint.h **** 			/** Returns a mask indicating which INTERRUPT type endpoints have interrupted - i.e. their
 372:../lufa-LUFA/LUFA/Drivers/USB/Class/Device/../../HighLevel/../LowLevel/Endpoint.h **** 			 *  interrupt duration has elapsed. Which endpoints have interrupted can be determined by
 373:../lufa-LUFA/LUFA/Drivers/USB/Class/Device/../../HighLevel/../LowLevel/Endpoint.h **** 			 *  masking the return value against (1 << {Endpoint Number}).
 374:../lufa-LUFA/LUFA/Drivers/USB/Class/Device/../../HighLevel/../LowLevel/Endpoint.h **** 			 *
 375:../lufa-LUFA/LUFA/Drivers/USB/Class/Device/../../HighLevel/../LowLevel/Endpoint.h **** 			 *  \return Mask whose bits indicate which endpoints have interrupted.
 376:../lufa-LUFA/LUFA/Drivers/USB/Class/Device/../../HighLevel/../LowLevel/Endpoint.h **** 			 */
 377:../lufa-LUFA/LUFA/Drivers/USB/Class/Device/../../HighLevel/../LowLevel/Endpoint.h **** 			static inline uint8_t Endpoint_GetEndpointInterrupts(void) ATTR_WARN_UNUSED_RESULT ATTR_ALWAYS_I
 378:../lufa-LUFA/LUFA/Drivers/USB/Class/Device/../../HighLevel/../LowLevel/Endpoint.h **** 			static inline uint8_t Endpoint_GetEndpointInterrupts(void)
 379:../lufa-LUFA/LUFA/Drivers/USB/Class/Device/../../HighLevel/../LowLevel/Endpoint.h **** 			{
 380:../lufa-LUFA/LUFA/Drivers/USB/Class/Device/../../HighLevel/../LowLevel/Endpoint.h **** 				return UEINT;
 381:../lufa-LUFA/LUFA/Drivers/USB/Class/Device/../../HighLevel/../LowLevel/Endpoint.h **** 			}
 382:../lufa-LUFA/LUFA/Drivers/USB/Class/Device/../../HighLevel/../LowLevel/Endpoint.h **** 			
 383:../lufa-LUFA/LUFA/Drivers/USB/Class/Device/../../HighLevel/../LowLevel/Endpoint.h **** 			/** Determines if the specified endpoint number has interrupted (valid only for INTERRUPT type
 384:../lufa-LUFA/LUFA/Drivers/USB/Class/Device/../../HighLevel/../LowLevel/Endpoint.h **** 			 *  endpoints).
 385:../lufa-LUFA/LUFA/Drivers/USB/Class/Device/../../HighLevel/../LowLevel/Endpoint.h **** 			 *
 386:../lufa-LUFA/LUFA/Drivers/USB/Class/Device/../../HighLevel/../LowLevel/Endpoint.h **** 			 *  \param[in] EndpointNumber  Index of the endpoint whose interrupt flag should be tested.
 387:../lufa-LUFA/LUFA/Drivers/USB/Class/Device/../../HighLevel/../LowLevel/Endpoint.h **** 			 *
 388:../lufa-LUFA/LUFA/Drivers/USB/Class/Device/../../HighLevel/../LowLevel/Endpoint.h **** 			 *  \return Boolean true if the specified endpoint has interrupted, false otherwise.
 389:../lufa-LUFA/LUFA/Drivers/USB/Class/Device/../../HighLevel/../LowLevel/Endpoint.h **** 			 */
 390:../lufa-LUFA/LUFA/Drivers/USB/Class/Device/../../HighLevel/../LowLevel/Endpoint.h **** 			static inline bool Endpoint_HasEndpointInterrupted(const uint8_t EndpointNumber) ATTR_WARN_UNUSE
 391:../lufa-LUFA/LUFA/Drivers/USB/Class/Device/../../HighLevel/../LowLevel/Endpoint.h **** 			static inline bool Endpoint_HasEndpointInterrupted(const uint8_t EndpointNumber)
 392:../lufa-LUFA/LUFA/Drivers/USB/Class/Device/../../HighLevel/../LowLevel/Endpoint.h **** 			{
 393:../lufa-LUFA/LUFA/Drivers/USB/Class/Device/../../HighLevel/../LowLevel/Endpoint.h **** 				return ((UEINT & (1 << EndpointNumber)) ? true : false);
 394:../lufa-LUFA/LUFA/Drivers/USB/Class/Device/../../HighLevel/../LowLevel/Endpoint.h **** 			}
 395:../lufa-LUFA/LUFA/Drivers/USB/Class/Device/../../HighLevel/../LowLevel/Endpoint.h **** 			
 396:../lufa-LUFA/LUFA/Drivers/USB/Class/Device/../../HighLevel/../LowLevel/Endpoint.h **** 			/** Determines if the selected IN endpoint is ready for a new packet.
 397:../lufa-LUFA/LUFA/Drivers/USB/Class/Device/../../HighLevel/../LowLevel/Endpoint.h **** 			 *
 398:../lufa-LUFA/LUFA/Drivers/USB/Class/Device/../../HighLevel/../LowLevel/Endpoint.h **** 			 *  \ingroup Group_EndpointPacketManagement
 399:../lufa-LUFA/LUFA/Drivers/USB/Class/Device/../../HighLevel/../LowLevel/Endpoint.h **** 			 *
 400:../lufa-LUFA/LUFA/Drivers/USB/Class/Device/../../HighLevel/../LowLevel/Endpoint.h **** 			 *  \return Boolean true if the current endpoint is ready for an IN packet, false otherwise.
 401:../lufa-LUFA/LUFA/Drivers/USB/Class/Device/../../HighLevel/../LowLevel/Endpoint.h **** 			 */
 402:../lufa-LUFA/LUFA/Drivers/USB/Class/Device/../../HighLevel/../LowLevel/Endpoint.h **** 			static inline bool Endpoint_IsINReady(void) ATTR_WARN_UNUSED_RESULT ATTR_ALWAYS_INLINE;
 403:../lufa-LUFA/LUFA/Drivers/USB/Class/Device/../../HighLevel/../LowLevel/Endpoint.h **** 			static inline bool Endpoint_IsINReady(void)
 404:../lufa-LUFA/LUFA/Drivers/USB/Class/Device/../../HighLevel/../LowLevel/Endpoint.h **** 			{
 405:../lufa-LUFA/LUFA/Drivers/USB/Class/Device/../../HighLevel/../LowLevel/Endpoint.h **** 				return ((UEINTX & (1 << TXINI))  ? true : false);
 406:../lufa-LUFA/LUFA/Drivers/USB/Class/Device/../../HighLevel/../LowLevel/Endpoint.h **** 			}
 407:../lufa-LUFA/LUFA/Drivers/USB/Class/Device/../../HighLevel/../LowLevel/Endpoint.h **** 			
 408:../lufa-LUFA/LUFA/Drivers/USB/Class/Device/../../HighLevel/../LowLevel/Endpoint.h **** 			/** Determines if the selected OUT endpoint has received new packet.
 409:../lufa-LUFA/LUFA/Drivers/USB/Class/Device/../../HighLevel/../LowLevel/Endpoint.h **** 			 *
 410:../lufa-LUFA/LUFA/Drivers/USB/Class/Device/../../HighLevel/../LowLevel/Endpoint.h **** 			 *  \ingroup Group_EndpointPacketManagement
 411:../lufa-LUFA/LUFA/Drivers/USB/Class/Device/../../HighLevel/../LowLevel/Endpoint.h **** 			 *
 412:../lufa-LUFA/LUFA/Drivers/USB/Class/Device/../../HighLevel/../LowLevel/Endpoint.h **** 			 *  \return Boolean true if current endpoint is has received an OUT packet, false otherwise.
 413:../lufa-LUFA/LUFA/Drivers/USB/Class/Device/../../HighLevel/../LowLevel/Endpoint.h **** 			 */
 414:../lufa-LUFA/LUFA/Drivers/USB/Class/Device/../../HighLevel/../LowLevel/Endpoint.h **** 			static inline bool Endpoint_IsOUTReceived(void) ATTR_WARN_UNUSED_RESULT ATTR_ALWAYS_INLINE;
 415:../lufa-LUFA/LUFA/Drivers/USB/Class/Device/../../HighLevel/../LowLevel/Endpoint.h **** 			static inline bool Endpoint_IsOUTReceived(void)
 416:../lufa-LUFA/LUFA/Drivers/USB/Class/Device/../../HighLevel/../LowLevel/Endpoint.h **** 			{
 417:../lufa-LUFA/LUFA/Drivers/USB/Class/Device/../../HighLevel/../LowLevel/Endpoint.h **** 				return ((UEINTX & (1 << RXOUTI)) ? true : false);
 418:../lufa-LUFA/LUFA/Drivers/USB/Class/Device/../../HighLevel/../LowLevel/Endpoint.h **** 			}
 419:../lufa-LUFA/LUFA/Drivers/USB/Class/Device/../../HighLevel/../LowLevel/Endpoint.h **** 			
 420:../lufa-LUFA/LUFA/Drivers/USB/Class/Device/../../HighLevel/../LowLevel/Endpoint.h **** 			/** Determines if the current CONTROL type endpoint has received a SETUP packet.
 421:../lufa-LUFA/LUFA/Drivers/USB/Class/Device/../../HighLevel/../LowLevel/Endpoint.h **** 			 *
 422:../lufa-LUFA/LUFA/Drivers/USB/Class/Device/../../HighLevel/../LowLevel/Endpoint.h **** 			 *  \ingroup Group_EndpointPacketManagement
 423:../lufa-LUFA/LUFA/Drivers/USB/Class/Device/../../HighLevel/../LowLevel/Endpoint.h **** 			 *
 424:../lufa-LUFA/LUFA/Drivers/USB/Class/Device/../../HighLevel/../LowLevel/Endpoint.h **** 			 *  \return Boolean true if the selected endpoint has received a SETUP packet, false otherwise.
 425:../lufa-LUFA/LUFA/Drivers/USB/Class/Device/../../HighLevel/../LowLevel/Endpoint.h **** 			 */
 426:../lufa-LUFA/LUFA/Drivers/USB/Class/Device/../../HighLevel/../LowLevel/Endpoint.h **** 			static inline bool Endpoint_IsSETUPReceived(void) ATTR_WARN_UNUSED_RESULT ATTR_ALWAYS_INLINE;
 427:../lufa-LUFA/LUFA/Drivers/USB/Class/Device/../../HighLevel/../LowLevel/Endpoint.h **** 			static inline bool Endpoint_IsSETUPReceived(void)
 428:../lufa-LUFA/LUFA/Drivers/USB/Class/Device/../../HighLevel/../LowLevel/Endpoint.h **** 			{
 429:../lufa-LUFA/LUFA/Drivers/USB/Class/Device/../../HighLevel/../LowLevel/Endpoint.h **** 				return ((UEINTX & (1 << RXSTPI)) ? true : false);
  86               		.loc 2 429 0
  87 0026 8091 E800 		lds r24,232
  88               	.LVL1:
  89               	.LBE48:
  90               	.LBE47:
  40:../lufa-LUFA/LUFA/Drivers/USB/Class/Device/HID.c **** 	if (!(Endpoint_IsSETUPReceived()))
  91               		.loc 1 40 0
  92 002a 83FF      		sbrs r24,3
  93 002c 00C0      		rjmp .L1
  43:../lufa-LUFA/LUFA/Drivers/USB/Class/Device/HID.c **** 	if (USB_ControlRequest.wIndex != HIDInterfaceInfo->Config.InterfaceNumber)
  94               		.loc 1 43 0
  95 002e F701      		movw r30,r14
  96 0030 8081      		ld r24,Z
  97 0032 90E0      		ldi r25,0
  98 0034 2091 0000 		lds r18,USB_ControlRequest+4
  99 0038 3091 0000 		lds r19,USB_ControlRequest+4+1
 100 003c 2817      		cp r18,r24
 101 003e 3907      		cpc r19,r25
 102 0040 01F0      		breq .+2
 103 0042 00C0      		rjmp .L1
  46:../lufa-LUFA/LUFA/Drivers/USB/Class/Device/HID.c **** 	switch (USB_ControlRequest.bRequest)
 104               		.loc 1 46 0
 105 0044 8091 0000 		lds r24,USB_ControlRequest+1
 106 0048 8330      		cpi r24,lo8(3)
 107 004a 01F4      		brne .+2
 108 004c 00C0      		rjmp .L3
 109 004e 00F4      		brsh .L4
 110 0050 8130      		cpi r24,lo8(1)
 111 0052 01F0      		breq .L5
 112 0054 8230      		cpi r24,lo8(2)
 113 0056 01F4      		brne .+2
 114 0058 00C0      		rjmp .L6
 115 005a 00C0      		rjmp .L1
 116               	.L4:
 117 005c 8A30      		cpi r24,lo8(10)
 118 005e 01F4      		brne .+2
 119 0060 00C0      		rjmp .L7
 120 0062 8B30      		cpi r24,lo8(11)
 121 0064 01F4      		brne .+2
 122 0066 00C0      		rjmp .L8
 123 0068 8930      		cpi r24,lo8(9)
 124 006a 01F0      		breq .+2
 125 006c 00C0      		rjmp .L1
 126 006e 00C0      		rjmp .L21
 127               	.L5:
  49:../lufa-LUFA/LUFA/Drivers/USB/Class/Device/HID.c **** 			if (USB_ControlRequest.bmRequestType == (REQDIR_DEVICETOHOST | REQTYPE_CLASS | REQREC_INTERFACE)
 128               		.loc 1 49 0
 129 0070 8091 0000 		lds r24,USB_ControlRequest
 130 0074 813A      		cpi r24,lo8(-95)
 131 0076 01F0      		breq .+2
 132 0078 00C0      		rjmp .L1
 133               	.LBB49:
 134 007a 8DB6      		in r8,__SP_L__
 135 007c 9EB6      		in r9,__SP_H__
 136               	.LBB50:
 137               	.LBB51:
 430:../lufa-LUFA/LUFA/Drivers/USB/Class/Device/../../HighLevel/../LowLevel/Endpoint.h **** 			}
 431:../lufa-LUFA/LUFA/Drivers/USB/Class/Device/../../HighLevel/../LowLevel/Endpoint.h **** 			
 432:../lufa-LUFA/LUFA/Drivers/USB/Class/Device/../../HighLevel/../LowLevel/Endpoint.h **** 			/** Clears a received SETUP packet on the currently selected CONTROL type endpoint, freeing up t
 433:../lufa-LUFA/LUFA/Drivers/USB/Class/Device/../../HighLevel/../LowLevel/Endpoint.h **** 			 *  endpoint for the next packet.
 434:../lufa-LUFA/LUFA/Drivers/USB/Class/Device/../../HighLevel/../LowLevel/Endpoint.h **** 			 *
 435:../lufa-LUFA/LUFA/Drivers/USB/Class/Device/../../HighLevel/../LowLevel/Endpoint.h **** 			 *  \ingroup Group_EndpointPacketManagement
 436:../lufa-LUFA/LUFA/Drivers/USB/Class/Device/../../HighLevel/../LowLevel/Endpoint.h **** 			 *
 437:../lufa-LUFA/LUFA/Drivers/USB/Class/Device/../../HighLevel/../LowLevel/Endpoint.h **** 			 *  \note This is not applicable for non CONTROL type endpoints. 
 438:../lufa-LUFA/LUFA/Drivers/USB/Class/Device/../../HighLevel/../LowLevel/Endpoint.h **** 			 */
 439:../lufa-LUFA/LUFA/Drivers/USB/Class/Device/../../HighLevel/../LowLevel/Endpoint.h **** 			static inline void Endpoint_ClearSETUP(void) ATTR_ALWAYS_INLINE;
 440:../lufa-LUFA/LUFA/Drivers/USB/Class/Device/../../HighLevel/../LowLevel/Endpoint.h **** 			static inline void Endpoint_ClearSETUP(void)
 441:../lufa-LUFA/LUFA/Drivers/USB/Class/Device/../../HighLevel/../LowLevel/Endpoint.h **** 			{
 442:../lufa-LUFA/LUFA/Drivers/USB/Class/Device/../../HighLevel/../LowLevel/Endpoint.h **** 				UEINTX &= ~(1 << RXSTPI);
 138               		.loc 2 442 0
 139 007e 8091 E800 		lds r24,232
 140 0082 877F      		andi r24,lo8(-9)
 141 0084 8093 E800 		sts 232,r24
 142               	.LBE51:
 143               	.LBE50:
  53:../lufa-LUFA/LUFA/Drivers/USB/Class/Device/HID.c **** 				uint16_t ReportSize = 0;
 144               		.loc 1 53 0
 145 0088 1A82      		std Y+2,__zero_reg__
 146 008a 1982      		std Y+1,__zero_reg__
  54:../lufa-LUFA/LUFA/Drivers/USB/Class/Device/HID.c **** 				uint8_t  ReportID   = (USB_ControlRequest.wValue & 0xFF);
 147               		.loc 1 54 0
 148 008c 8091 0000 		lds r24,USB_ControlRequest+2
 149 0090 1091 0000 		lds r17,USB_ControlRequest+3
 150 0094 8B83      		std Y+3,r24
 151               	.LVL2:
  56:../lufa-LUFA/LUFA/Drivers/USB/Class/Device/HID.c **** 				uint8_t  ReportData[HIDInterfaceInfo->Config.PrevReportINBufferSize];
 152               		.loc 1 56 0
 153 0096 F701      		movw r30,r14
 154 0098 4781      		ldd r20,Z+7
 155 009a 50E0      		ldi r21,0
 156 009c 8DB7      		in r24,__SP_L__
 157 009e 9EB7      		in r25,__SP_H__
 158 00a0 841B      		sub r24,r20
 159 00a2 950B      		sbc r25,r21
 160 00a4 0FB6      		in __tmp_reg__,__SREG__
 161 00a6 F894      		cli
 162 00a8 9EBF      		out __SP_H__,r25
 163 00aa 0FBE      		out __SREG__,__tmp_reg__
 164 00ac 8DBF      		out __SP_L__,r24
 165 00ae EDB7      		in r30,__SP_L__
 166 00b0 FEB7      		in r31,__SP_H__
 167 00b2 3196      		adiw r30,1
 168 00b4 6F01      		movw r12,r30
 169               	.LVL3:
  58:../lufa-LUFA/LUFA/Drivers/USB/Class/Device/HID.c **** 				memset(ReportData, 0, sizeof(ReportData));
 170               		.loc 1 58 0
 171 00b6 60E0      		ldi r22,0
 172 00b8 70E0      		ldi r23,0
 173 00ba CF01      		movw r24,r30
 174 00bc 0E94 0000 		call memset
 175               	.LVL4:
  55:../lufa-LUFA/LUFA/Drivers/USB/Class/Device/HID.c **** 				uint8_t  ReportType = (USB_ControlRequest.wValue >> 8) - 1;
 176               		.loc 1 55 0
 177 00c0 4FEF      		ldi r20,lo8(-1)
 178 00c2 410F      		add r20,r17
 179               	.LVL5:
  60:../lufa-LUFA/LUFA/Drivers/USB/Class/Device/HID.c **** 				CALLBACK_HID_Device_CreateHIDReport(HIDInterfaceInfo, &ReportID, ReportType, ReportData, &Repor
 180               		.loc 1 60 0
 181 00c4 8E01      		movw r16,r28
 182 00c6 0F5F      		subi r16,-1
 183 00c8 1F4F      		sbci r17,-1
 184 00ca 9601      		movw r18,r12
 185 00cc BE01      		movw r22,r28
 186 00ce 6D5F      		subi r22,-3
 187 00d0 7F4F      		sbci r23,-1
 188 00d2 C701      		movw r24,r14
 189 00d4 0E94 0000 		call CALLBACK_HID_Device_CreateHIDReport
 190               	.LVL6:
  62:../lufa-LUFA/LUFA/Drivers/USB/Class/Device/HID.c **** 				if (HIDInterfaceInfo->Config.PrevReportINBuffer != NULL)
 191               		.loc 1 62 0
 192 00d8 F701      		movw r30,r14
 193 00da 8581      		ldd r24,Z+5
 194 00dc 9681      		ldd r25,Z+6
 195 00de 0097      		sbiw r24,0
 196 00e0 01F0      		breq .L10
  63:../lufa-LUFA/LUFA/Drivers/USB/Class/Device/HID.c **** 				  memcpy(HIDInterfaceInfo->Config.PrevReportINBuffer, ReportData, HIDInterfaceInfo->Config.Prev
 197               		.loc 1 63 0
 198 00e2 4781      		ldd r20,Z+7
 199 00e4 50E0      		ldi r21,0
 200 00e6 B601      		movw r22,r12
 201 00e8 0E94 0000 		call memcpy
 202               	.LVL7:
 203               	.L10:
 204               	.LBB52:
 205               	.LBB53:
 299:../lufa-LUFA/LUFA/Drivers/USB/Class/Device/../../HighLevel/../LowLevel/Endpoint.h **** 					UENUM = EndpointNumber;
 206               		.loc 2 299 0
 207 00ec 1092 E900 		sts 233,__zero_reg__
 208               	.LBE53:
 209               	.LBE52:
  66:../lufa-LUFA/LUFA/Drivers/USB/Class/Device/HID.c **** 				Endpoint_Write_Control_Stream_LE(ReportData, ReportSize);
 210               		.loc 1 66 0
 211 00f0 6981      		ldd r22,Y+1
 212 00f2 7A81      		ldd r23,Y+2
 213 00f4 C601      		movw r24,r12
 214 00f6 0E94 0000 		call Endpoint_Write_Control_Stream_LE
 215               	.LVL8:
 216               	.LBB54:
 217               	.LBB55:
 443:../lufa-LUFA/LUFA/Drivers/USB/Class/Device/../../HighLevel/../LowLevel/Endpoint.h **** 			}
 444:../lufa-LUFA/LUFA/Drivers/USB/Class/Device/../../HighLevel/../LowLevel/Endpoint.h **** 			
 445:../lufa-LUFA/LUFA/Drivers/USB/Class/Device/../../HighLevel/../LowLevel/Endpoint.h **** 			/** Sends an IN packet to the host on the currently selected endpoint, freeing up the endpoint f
 446:../lufa-LUFA/LUFA/Drivers/USB/Class/Device/../../HighLevel/../LowLevel/Endpoint.h **** 			 *  next packet and switching to the alternative endpoint bank if double banked.
 447:../lufa-LUFA/LUFA/Drivers/USB/Class/Device/../../HighLevel/../LowLevel/Endpoint.h **** 			 *
 448:../lufa-LUFA/LUFA/Drivers/USB/Class/Device/../../HighLevel/../LowLevel/Endpoint.h **** 			 *  \ingroup Group_EndpointPacketManagement
 449:../lufa-LUFA/LUFA/Drivers/USB/Class/Device/../../HighLevel/../LowLevel/Endpoint.h **** 			 */
 450:../lufa-LUFA/LUFA/Drivers/USB/Class/Device/../../HighLevel/../LowLevel/Endpoint.h **** 			static inline void Endpoint_ClearIN(void) ATTR_ALWAYS_INLINE;
 451:../lufa-LUFA/LUFA/Drivers/USB/Class/Device/../../HighLevel/../LowLevel/Endpoint.h **** 			static inline void Endpoint_ClearIN(void)
 452:../lufa-LUFA/LUFA/Drivers/USB/Class/Device/../../HighLevel/../LowLevel/Endpoint.h **** 			{
 453:../lufa-LUFA/LUFA/Drivers/USB/Class/Device/../../HighLevel/../LowLevel/Endpoint.h **** 				#if !defined(CONTROL_ONLY_DEVICE)
 454:../lufa-LUFA/LUFA/Drivers/USB/Class/Device/../../HighLevel/../LowLevel/Endpoint.h **** 					UEINTX &= ~((1 << TXINI) | (1 << FIFOCON));
 455:../lufa-LUFA/LUFA/Drivers/USB/Class/Device/../../HighLevel/../LowLevel/Endpoint.h **** 				#else
 456:../lufa-LUFA/LUFA/Drivers/USB/Class/Device/../../HighLevel/../LowLevel/Endpoint.h **** 					UEINTX &= ~(1 << TXINI);
 457:../lufa-LUFA/LUFA/Drivers/USB/Class/Device/../../HighLevel/../LowLevel/Endpoint.h **** 				#endif
 458:../lufa-LUFA/LUFA/Drivers/USB/Class/Device/../../HighLevel/../LowLevel/Endpoint.h **** 			}
 459:../lufa-LUFA/LUFA/Drivers/USB/Class/Device/../../HighLevel/../LowLevel/Endpoint.h **** 			
 460:../lufa-LUFA/LUFA/Drivers/USB/Class/Device/../../HighLevel/../LowLevel/Endpoint.h **** 			/** Acknowledges an OUT packet to the host on the currently selected endpoint, freeing up the en
 461:../lufa-LUFA/LUFA/Drivers/USB/Class/Device/../../HighLevel/../LowLevel/Endpoint.h **** 			 *  for the next packet and switching to the alternative endpoint bank if double banked.
 462:../lufa-LUFA/LUFA/Drivers/USB/Class/Device/../../HighLevel/../LowLevel/Endpoint.h **** 			 *
 463:../lufa-LUFA/LUFA/Drivers/USB/Class/Device/../../HighLevel/../LowLevel/Endpoint.h **** 			 *  \ingroup Group_EndpointPacketManagement
 464:../lufa-LUFA/LUFA/Drivers/USB/Class/Device/../../HighLevel/../LowLevel/Endpoint.h **** 			 */
 465:../lufa-LUFA/LUFA/Drivers/USB/Class/Device/../../HighLevel/../LowLevel/Endpoint.h **** 			static inline void Endpoint_ClearOUT(void) ATTR_ALWAYS_INLINE;
 466:../lufa-LUFA/LUFA/Drivers/USB/Class/Device/../../HighLevel/../LowLevel/Endpoint.h **** 			static inline void Endpoint_ClearOUT(void)
 467:../lufa-LUFA/LUFA/Drivers/USB/Class/Device/../../HighLevel/../LowLevel/Endpoint.h **** 			{
 468:../lufa-LUFA/LUFA/Drivers/USB/Class/Device/../../HighLevel/../LowLevel/Endpoint.h **** 				#if !defined(CONTROL_ONLY_DEVICE)
 469:../lufa-LUFA/LUFA/Drivers/USB/Class/Device/../../HighLevel/../LowLevel/Endpoint.h **** 					UEINTX &= ~((1 << RXOUTI) | (1 << FIFOCON));
 218               		.loc 2 469 0
 219 00fa 8091 E800 		lds r24,232
 220 00fe 8B77      		andi r24,lo8(123)
 221 0100 8093 E800 		sts 232,r24
 222               	.LBE55:
 223               	.LBE54:
 224 0104 0FB6      		in __tmp_reg__,__SREG__
 225 0106 F894      		cli
 226 0108 9EBE      		out __SP_H__,r9
 227 010a 0FBE      		out __SREG__,__tmp_reg__
 228 010c 8DBE      		out __SP_L__,r8
 229 010e 00C0      		rjmp .L1
 230               	.LVL9:
 231               	.L21:
 232               	.LBE49:
  72:../lufa-LUFA/LUFA/Drivers/USB/Class/Device/HID.c **** 			if (USB_ControlRequest.bmRequestType == (REQDIR_HOSTTODEVICE | REQTYPE_CLASS | REQREC_INTERFACE)
 233               		.loc 1 72 0
 234 0110 8091 0000 		lds r24,USB_ControlRequest
 235 0114 8132      		cpi r24,lo8(33)
 236 0116 01F0      		breq .+2
 237 0118 00C0      		rjmp .L1
 238               	.LBB56:
 239               	.LBB57:
 240               	.LBB58:
 442:../lufa-LUFA/LUFA/Drivers/USB/Class/Device/../../HighLevel/../LowLevel/Endpoint.h **** 				UEINTX &= ~(1 << RXSTPI);
 241               		.loc 2 442 0
 242 011a 8091 E800 		lds r24,232
 243 011e 877F      		andi r24,lo8(-9)
 244 0120 8093 E800 		sts 232,r24
 245               	.LBE58:
 246               	.LBE57:
  76:../lufa-LUFA/LUFA/Drivers/USB/Class/Device/HID.c **** 				uint16_t ReportSize = USB_ControlRequest.wLength;
 247               		.loc 1 76 0
 248 0124 0091 0000 		lds r16,USB_ControlRequest+6
 249 0128 1091 0000 		lds r17,USB_ControlRequest+6+1
 250               	.LVL10:
  77:../lufa-LUFA/LUFA/Drivers/USB/Class/Device/HID.c **** 				uint8_t  ReportID   = (USB_ControlRequest.wValue & 0xFF);
 251               		.loc 1 77 0
 252 012c 9090 0000 		lds r9,USB_ControlRequest+2
 253 0130 8090 0000 		lds r8,USB_ControlRequest+3
 254               	.LVL11:
  79:../lufa-LUFA/LUFA/Drivers/USB/Class/Device/HID.c **** 				uint8_t  ReportData[ReportSize];
 255               		.loc 1 79 0
 256 0134 8DB7      		in r24,__SP_L__
 257 0136 9EB7      		in r25,__SP_H__
 258 0138 801B      		sub r24,r16
 259 013a 910B      		sbc r25,r17
 260 013c 0FB6      		in __tmp_reg__,__SREG__
 261 013e F894      		cli
 262 0140 9EBF      		out __SP_H__,r25
 263 0142 0FBE      		out __SREG__,__tmp_reg__
 264 0144 8DBF      		out __SP_L__,r24
 265 0146 EDB7      		in r30,__SP_L__
 266 0148 FEB7      		in r31,__SP_H__
 267 014a 3196      		adiw r30,1
 268 014c 6F01      		movw r12,r30
 269               	.LVL12:
  81:../lufa-LUFA/LUFA/Drivers/USB/Class/Device/HID.c **** 				Endpoint_Read_Control_Stream_LE(ReportData, ReportSize);
 270               		.loc 1 81 0
 271 014e B801      		movw r22,r16
 272 0150 CF01      		movw r24,r30
 273 0152 0E94 0000 		call Endpoint_Read_Control_Stream_LE
 274               	.LVL13:
  78:../lufa-LUFA/LUFA/Drivers/USB/Class/Device/HID.c **** 				uint8_t  ReportType = (USB_ControlRequest.wValue >> 8) - 1;
 275               		.loc 1 78 0
 276 0156 4FEF      		ldi r20,lo8(-1)
 277 0158 480D      		add r20,r8
 278               	.LVL14:
  82:../lufa-LUFA/LUFA/Drivers/USB/Class/Device/HID.c **** 				CALLBACK_HID_Device_ProcessHIDReport(HIDInterfaceInfo, ReportID, ReportType, ReportData, Report
 279               		.loc 1 82 0
 280 015a 9601      		movw r18,r12
 281 015c 692D      		mov r22,r9
 282 015e C701      		movw r24,r14
 283 0160 0E94 0000 		call CALLBACK_HID_Device_ProcessHIDReport
 284               	.LVL15:
 285               	.LBB59:
 286               	.LBB60:
 454:../lufa-LUFA/LUFA/Drivers/USB/Class/Device/../../HighLevel/../LowLevel/Endpoint.h **** 					UEINTX &= ~((1 << TXINI) | (1 << FIFOCON));
 287               		.loc 2 454 0
 288 0164 8091 E800 		lds r24,232
 289 0168 8E77      		andi r24,lo8(126)
 290 016a 8093 E800 		sts 232,r24
 291               	.LBE60:
 292               	.LBE59:
 293 016e 0FB6      		in __tmp_reg__,__SREG__
 294 0170 F894      		cli
 295 0172 BEBE      		out __SP_H__,r11
 296 0174 0FBE      		out __SREG__,__tmp_reg__
 297 0176 ADBE      		out __SP_L__,r10
 298 0178 00C0      		rjmp .L1
 299               	.LVL16:
 300               	.L3:
 301               	.LBE56:
  88:../lufa-LUFA/LUFA/Drivers/USB/Class/Device/HID.c **** 			if (USB_ControlRequest.bmRequestType == (REQDIR_DEVICETOHOST | REQTYPE_CLASS | REQREC_INTERFACE)
 302               		.loc 1 88 0
 303 017a 8091 0000 		lds r24,USB_ControlRequest
 304 017e 813A      		cpi r24,lo8(-95)
 305 0180 01F0      		breq .+2
 306 0182 00C0      		rjmp .L1
 307               	.LBB61:
 308               	.LBB62:
 442:../lufa-LUFA/LUFA/Drivers/USB/Class/Device/../../HighLevel/../LowLevel/Endpoint.h **** 				UEINTX &= ~(1 << RXSTPI);
 309               		.loc 2 442 0
 310 0184 8091 E800 		lds r24,232
 311 0188 877F      		andi r24,lo8(-9)
 312 018a 8093 E800 		sts 232,r24
 313               	.LBE62:
 314               	.LBE61:
  92:../lufa-LUFA/LUFA/Drivers/USB/Class/Device/HID.c **** 				Endpoint_Write_Byte(HIDInterfaceInfo->State.UsingReportProtocol);
 315               		.loc 1 92 0
 316 018e F701      		movw r30,r14
 317 0190 8085      		ldd r24,Z+8
 318               	.LVL17:
 319 0192 00C0      		rjmp .L18
 320               	.LVL18:
 321               	.L8:
 100:../lufa-LUFA/LUFA/Drivers/USB/Class/Device/HID.c **** 			if (USB_ControlRequest.bmRequestType == (REQDIR_HOSTTODEVICE | REQTYPE_CLASS | REQREC_INTERFACE)
 322               		.loc 1 100 0
 323 0194 8091 0000 		lds r24,USB_ControlRequest
 324 0198 8132      		cpi r24,lo8(33)
 325 019a 01F4      		brne .L1
 326               	.LBB63:
 327               	.LBB64:
 442:../lufa-LUFA/LUFA/Drivers/USB/Class/Device/../../HighLevel/../LowLevel/Endpoint.h **** 				UEINTX &= ~(1 << RXSTPI);
 328               		.loc 2 442 0
 329 019c 8091 E800 		lds r24,232
 330 01a0 877F      		andi r24,lo8(-9)
 331 01a2 8093 E800 		sts 232,r24
 332               	.LBE64:
 333               	.LBE63:
 104:../lufa-LUFA/LUFA/Drivers/USB/Class/Device/HID.c **** 				HIDInterfaceInfo->State.UsingReportProtocol = ((USB_ControlRequest.wValue & 0xFF) != 0x00);
 334               		.loc 1 104 0
 335 01a6 9091 0000 		lds r25,USB_ControlRequest+2
 336 01aa 81E0      		ldi r24,lo8(1)
 337 01ac 9111      		cpse r25,__zero_reg__
 338 01ae 00C0      		rjmp .L11
 339 01b0 80E0      		ldi r24,0
 340               	.L11:
 341 01b2 F701      		movw r30,r14
 342 01b4 8087      		std Z+8,r24
 343 01b6 00C0      		rjmp .L19
 344               	.L7:
 111:../lufa-LUFA/LUFA/Drivers/USB/Class/Device/HID.c **** 			if (USB_ControlRequest.bmRequestType == (REQDIR_HOSTTODEVICE | REQTYPE_CLASS | REQREC_INTERFACE)
 345               		.loc 1 111 0
 346 01b8 8091 0000 		lds r24,USB_ControlRequest
 347 01bc 8132      		cpi r24,lo8(33)
 348 01be 01F4      		brne .L1
 349               	.LBB65:
 350               	.LBB66:
 442:../lufa-LUFA/LUFA/Drivers/USB/Class/Device/../../HighLevel/../LowLevel/Endpoint.h **** 				UEINTX &= ~(1 << RXSTPI);
 351               		.loc 2 442 0
 352 01c0 8091 E800 		lds r24,232
 353 01c4 877F      		andi r24,lo8(-9)
 354 01c6 8093 E800 		sts 232,r24
 355               	.LBE66:
 356               	.LBE65:
 115:../lufa-LUFA/LUFA/Drivers/USB/Class/Device/HID.c **** 				HIDInterfaceInfo->State.IdleCount = ((USB_ControlRequest.wValue & 0xFF00) >> 6);
 357               		.loc 1 115 0
 358 01ca 8091 0000 		lds r24,USB_ControlRequest+2
 359 01ce 9091 0000 		lds r25,USB_ControlRequest+2+1
 360 01d2 8827      		clr r24
 361 01d4 36E0      		ldi r19,6
 362               		1:
 363 01d6 9695      		lsr r25
 364 01d8 8795      		ror r24
 365 01da 3A95      		dec r19
 366 01dc 01F4      		brne 1b
 367 01de F701      		movw r30,r14
 368 01e0 9287      		std Z+10,r25
 369 01e2 8187      		std Z+9,r24
 370 01e4 00C0      		rjmp .L19
 371               	.L6:
 122:../lufa-LUFA/LUFA/Drivers/USB/Class/Device/HID.c **** 			if (USB_ControlRequest.bmRequestType == (REQDIR_DEVICETOHOST | REQTYPE_CLASS | REQREC_INTERFACE)
 372               		.loc 1 122 0
 373 01e6 8091 0000 		lds r24,USB_ControlRequest
 374 01ea 813A      		cpi r24,lo8(-95)
 375 01ec 01F4      		brne .L1
 376               	.LBB67:
 377               	.LBB68:
 442:../lufa-LUFA/LUFA/Drivers/USB/Class/Device/../../HighLevel/../LowLevel/Endpoint.h **** 				UEINTX &= ~(1 << RXSTPI);
 378               		.loc 2 442 0
 379 01ee 8091 E800 		lds r24,232
 380 01f2 877F      		andi r24,lo8(-9)
 381 01f4 8093 E800 		sts 232,r24
 382               	.LBE68:
 383               	.LBE67:
 126:../lufa-LUFA/LUFA/Drivers/USB/Class/Device/HID.c **** 				Endpoint_Write_Byte(HIDInterfaceInfo->State.IdleCount >> 2);
 384               		.loc 1 126 0
 385 01f8 F701      		movw r30,r14
 386 01fa 8185      		ldd r24,Z+9
 387 01fc 9285      		ldd r25,Z+10
 388 01fe 9695      		lsr r25
 389 0200 8795      		ror r24
 390 0202 9695      		lsr r25
 391 0204 8795      		ror r24
 392               	.L18:
 393               	.LVL19:
 394               	.LBB69:
 395               	.LBB70:
 470:../lufa-LUFA/LUFA/Drivers/USB/Class/Device/../../HighLevel/../LowLevel/Endpoint.h **** 				#else
 471:../lufa-LUFA/LUFA/Drivers/USB/Class/Device/../../HighLevel/../LowLevel/Endpoint.h **** 					UEINTX &= ~(1 << RXOUTI);	
 472:../lufa-LUFA/LUFA/Drivers/USB/Class/Device/../../HighLevel/../LowLevel/Endpoint.h **** 				#endif
 473:../lufa-LUFA/LUFA/Drivers/USB/Class/Device/../../HighLevel/../LowLevel/Endpoint.h **** 			}
 474:../lufa-LUFA/LUFA/Drivers/USB/Class/Device/../../HighLevel/../LowLevel/Endpoint.h **** 			
 475:../lufa-LUFA/LUFA/Drivers/USB/Class/Device/../../HighLevel/../LowLevel/Endpoint.h **** 			/** Stalls the current endpoint, indicating to the host that a logical problem occurred with the
 476:../lufa-LUFA/LUFA/Drivers/USB/Class/Device/../../HighLevel/../LowLevel/Endpoint.h **** 			 *  indicated endpoint and that the current transfer sequence should be aborted. This provides a
 477:../lufa-LUFA/LUFA/Drivers/USB/Class/Device/../../HighLevel/../LowLevel/Endpoint.h **** 			 *  way for devices to indicate invalid commands to the host so that the current transfer can be
 478:../lufa-LUFA/LUFA/Drivers/USB/Class/Device/../../HighLevel/../LowLevel/Endpoint.h **** 			 *  aborted and the host can begin its own recovery sequence.
 479:../lufa-LUFA/LUFA/Drivers/USB/Class/Device/../../HighLevel/../LowLevel/Endpoint.h **** 			 *
 480:../lufa-LUFA/LUFA/Drivers/USB/Class/Device/../../HighLevel/../LowLevel/Endpoint.h **** 			 *  The currently selected endpoint remains stalled until either the \ref Endpoint_ClearStall() 
 481:../lufa-LUFA/LUFA/Drivers/USB/Class/Device/../../HighLevel/../LowLevel/Endpoint.h **** 			 *  is called, or the host issues a CLEAR FEATURE request to the device for the currently select
 482:../lufa-LUFA/LUFA/Drivers/USB/Class/Device/../../HighLevel/../LowLevel/Endpoint.h **** 			 *  endpoint.
 483:../lufa-LUFA/LUFA/Drivers/USB/Class/Device/../../HighLevel/../LowLevel/Endpoint.h **** 			 *
 484:../lufa-LUFA/LUFA/Drivers/USB/Class/Device/../../HighLevel/../LowLevel/Endpoint.h **** 			 *  \ingroup Group_EndpointPacketManagement
 485:../lufa-LUFA/LUFA/Drivers/USB/Class/Device/../../HighLevel/../LowLevel/Endpoint.h **** 			 */
 486:../lufa-LUFA/LUFA/Drivers/USB/Class/Device/../../HighLevel/../LowLevel/Endpoint.h **** 			static inline void Endpoint_StallTransaction(void) ATTR_ALWAYS_INLINE;
 487:../lufa-LUFA/LUFA/Drivers/USB/Class/Device/../../HighLevel/../LowLevel/Endpoint.h **** 			static inline void Endpoint_StallTransaction(void)
 488:../lufa-LUFA/LUFA/Drivers/USB/Class/Device/../../HighLevel/../LowLevel/Endpoint.h **** 			{
 489:../lufa-LUFA/LUFA/Drivers/USB/Class/Device/../../HighLevel/../LowLevel/Endpoint.h **** 				UECONX |= (1 << STALLRQ);
 490:../lufa-LUFA/LUFA/Drivers/USB/Class/Device/../../HighLevel/../LowLevel/Endpoint.h **** 			}
 491:../lufa-LUFA/LUFA/Drivers/USB/Class/Device/../../HighLevel/../LowLevel/Endpoint.h **** 			
 492:../lufa-LUFA/LUFA/Drivers/USB/Class/Device/../../HighLevel/../LowLevel/Endpoint.h **** 			/** Clears the STALL condition on the currently selected endpoint.
 493:../lufa-LUFA/LUFA/Drivers/USB/Class/Device/../../HighLevel/../LowLevel/Endpoint.h **** 			 *
 494:../lufa-LUFA/LUFA/Drivers/USB/Class/Device/../../HighLevel/../LowLevel/Endpoint.h **** 			 *  \ingroup Group_EndpointPacketManagement
 495:../lufa-LUFA/LUFA/Drivers/USB/Class/Device/../../HighLevel/../LowLevel/Endpoint.h **** 			 */
 496:../lufa-LUFA/LUFA/Drivers/USB/Class/Device/../../HighLevel/../LowLevel/Endpoint.h **** 			static inline void Endpoint_ClearStall(void) ATTR_ALWAYS_INLINE;
 497:../lufa-LUFA/LUFA/Drivers/USB/Class/Device/../../HighLevel/../LowLevel/Endpoint.h **** 			static inline void Endpoint_ClearStall(void)
 498:../lufa-LUFA/LUFA/Drivers/USB/Class/Device/../../HighLevel/../LowLevel/Endpoint.h **** 			{
 499:../lufa-LUFA/LUFA/Drivers/USB/Class/Device/../../HighLevel/../LowLevel/Endpoint.h **** 				UECONX |= (1 << STALLRQC);
 500:../lufa-LUFA/LUFA/Drivers/USB/Class/Device/../../HighLevel/../LowLevel/Endpoint.h **** 			}
 501:../lufa-LUFA/LUFA/Drivers/USB/Class/Device/../../HighLevel/../LowLevel/Endpoint.h **** 			
 502:../lufa-LUFA/LUFA/Drivers/USB/Class/Device/../../HighLevel/../LowLevel/Endpoint.h **** 			/** Determines if the currently selected endpoint is stalled, false otherwise.
 503:../lufa-LUFA/LUFA/Drivers/USB/Class/Device/../../HighLevel/../LowLevel/Endpoint.h **** 			 *
 504:../lufa-LUFA/LUFA/Drivers/USB/Class/Device/../../HighLevel/../LowLevel/Endpoint.h **** 			 *  \ingroup Group_EndpointPacketManagement
 505:../lufa-LUFA/LUFA/Drivers/USB/Class/Device/../../HighLevel/../LowLevel/Endpoint.h **** 			 *
 506:../lufa-LUFA/LUFA/Drivers/USB/Class/Device/../../HighLevel/../LowLevel/Endpoint.h **** 			 *  \return Boolean true if the currently selected endpoint is stalled, false otherwise.
 507:../lufa-LUFA/LUFA/Drivers/USB/Class/Device/../../HighLevel/../LowLevel/Endpoint.h **** 			 */
 508:../lufa-LUFA/LUFA/Drivers/USB/Class/Device/../../HighLevel/../LowLevel/Endpoint.h **** 			static inline bool Endpoint_IsStalled(void) ATTR_WARN_UNUSED_RESULT ATTR_ALWAYS_INLINE;
 509:../lufa-LUFA/LUFA/Drivers/USB/Class/Device/../../HighLevel/../LowLevel/Endpoint.h **** 			static inline bool Endpoint_IsStalled(void)
 510:../lufa-LUFA/LUFA/Drivers/USB/Class/Device/../../HighLevel/../LowLevel/Endpoint.h **** 			{
 511:../lufa-LUFA/LUFA/Drivers/USB/Class/Device/../../HighLevel/../LowLevel/Endpoint.h **** 				return ((UECONX & (1 << STALLRQ)) ? true : false);
 512:../lufa-LUFA/LUFA/Drivers/USB/Class/Device/../../HighLevel/../LowLevel/Endpoint.h **** 			}
 513:../lufa-LUFA/LUFA/Drivers/USB/Class/Device/../../HighLevel/../LowLevel/Endpoint.h **** 			
 514:../lufa-LUFA/LUFA/Drivers/USB/Class/Device/../../HighLevel/../LowLevel/Endpoint.h **** 			/** Resets the data toggle of the currently selected endpoint. */
 515:../lufa-LUFA/LUFA/Drivers/USB/Class/Device/../../HighLevel/../LowLevel/Endpoint.h **** 			static inline void Endpoint_ResetDataToggle(void) ATTR_ALWAYS_INLINE;
 516:../lufa-LUFA/LUFA/Drivers/USB/Class/Device/../../HighLevel/../LowLevel/Endpoint.h **** 			static inline void Endpoint_ResetDataToggle(void)
 517:../lufa-LUFA/LUFA/Drivers/USB/Class/Device/../../HighLevel/../LowLevel/Endpoint.h **** 			{
 518:../lufa-LUFA/LUFA/Drivers/USB/Class/Device/../../HighLevel/../LowLevel/Endpoint.h **** 				UECONX |= (1 << RSTDT);
 519:../lufa-LUFA/LUFA/Drivers/USB/Class/Device/../../HighLevel/../LowLevel/Endpoint.h **** 			}
 520:../lufa-LUFA/LUFA/Drivers/USB/Class/Device/../../HighLevel/../LowLevel/Endpoint.h **** 			
 521:../lufa-LUFA/LUFA/Drivers/USB/Class/Device/../../HighLevel/../LowLevel/Endpoint.h **** 			/** Determines the currently selected endpoint's direction.
 522:../lufa-LUFA/LUFA/Drivers/USB/Class/Device/../../HighLevel/../LowLevel/Endpoint.h **** 			 *
 523:../lufa-LUFA/LUFA/Drivers/USB/Class/Device/../../HighLevel/../LowLevel/Endpoint.h **** 			 *  \return The currently selected endpoint's direction, as a ENDPOINT_DIR_* mask.
 524:../lufa-LUFA/LUFA/Drivers/USB/Class/Device/../../HighLevel/../LowLevel/Endpoint.h **** 			 */
 525:../lufa-LUFA/LUFA/Drivers/USB/Class/Device/../../HighLevel/../LowLevel/Endpoint.h **** 			static inline uint8_t Endpoint_GetEndpointDirection(void) ATTR_WARN_UNUSED_RESULT ATTR_ALWAYS_IN
 526:../lufa-LUFA/LUFA/Drivers/USB/Class/Device/../../HighLevel/../LowLevel/Endpoint.h **** 			static inline uint8_t Endpoint_GetEndpointDirection(void)
 527:../lufa-LUFA/LUFA/Drivers/USB/Class/Device/../../HighLevel/../LowLevel/Endpoint.h **** 			{
 528:../lufa-LUFA/LUFA/Drivers/USB/Class/Device/../../HighLevel/../LowLevel/Endpoint.h **** 				return (UECFG0X & ENDPOINT_DIR_IN);
 529:../lufa-LUFA/LUFA/Drivers/USB/Class/Device/../../HighLevel/../LowLevel/Endpoint.h **** 			}
 530:../lufa-LUFA/LUFA/Drivers/USB/Class/Device/../../HighLevel/../LowLevel/Endpoint.h **** 
 531:../lufa-LUFA/LUFA/Drivers/USB/Class/Device/../../HighLevel/../LowLevel/Endpoint.h **** 			/** Sets the direction of the currently selected endpoint.
 532:../lufa-LUFA/LUFA/Drivers/USB/Class/Device/../../HighLevel/../LowLevel/Endpoint.h **** 			 *
 533:../lufa-LUFA/LUFA/Drivers/USB/Class/Device/../../HighLevel/../LowLevel/Endpoint.h **** 			 *  \param[in] DirectionMask  New endpoint direction, as a ENDPOINT_DIR_* mask.
 534:../lufa-LUFA/LUFA/Drivers/USB/Class/Device/../../HighLevel/../LowLevel/Endpoint.h **** 			 */
 535:../lufa-LUFA/LUFA/Drivers/USB/Class/Device/../../HighLevel/../LowLevel/Endpoint.h **** 			static inline void Endpoint_SetEndpointDirection(const uint8_t DirectionMask) ATTR_ALWAYS_INLINE
 536:../lufa-LUFA/LUFA/Drivers/USB/Class/Device/../../HighLevel/../LowLevel/Endpoint.h **** 			static inline void Endpoint_SetEndpointDirection(const uint8_t DirectionMask)
 537:../lufa-LUFA/LUFA/Drivers/USB/Class/Device/../../HighLevel/../LowLevel/Endpoint.h **** 			{
 538:../lufa-LUFA/LUFA/Drivers/USB/Class/Device/../../HighLevel/../LowLevel/Endpoint.h **** 				UECFG0X = ((UECFG0X & ~ENDPOINT_DIR_IN) | DirectionMask);
 539:../lufa-LUFA/LUFA/Drivers/USB/Class/Device/../../HighLevel/../LowLevel/Endpoint.h **** 			}
 540:../lufa-LUFA/LUFA/Drivers/USB/Class/Device/../../HighLevel/../LowLevel/Endpoint.h **** 
 541:../lufa-LUFA/LUFA/Drivers/USB/Class/Device/../../HighLevel/../LowLevel/Endpoint.h **** 			/** Reads one byte from the currently selected endpoint's bank, for OUT direction endpoints.
 542:../lufa-LUFA/LUFA/Drivers/USB/Class/Device/../../HighLevel/../LowLevel/Endpoint.h **** 			 *
 543:../lufa-LUFA/LUFA/Drivers/USB/Class/Device/../../HighLevel/../LowLevel/Endpoint.h **** 			 *  \ingroup Group_EndpointPrimitiveRW
 544:../lufa-LUFA/LUFA/Drivers/USB/Class/Device/../../HighLevel/../LowLevel/Endpoint.h **** 			 *
 545:../lufa-LUFA/LUFA/Drivers/USB/Class/Device/../../HighLevel/../LowLevel/Endpoint.h **** 			 *  \return Next byte in the currently selected endpoint's FIFO buffer.
 546:../lufa-LUFA/LUFA/Drivers/USB/Class/Device/../../HighLevel/../LowLevel/Endpoint.h **** 			 */
 547:../lufa-LUFA/LUFA/Drivers/USB/Class/Device/../../HighLevel/../LowLevel/Endpoint.h **** 			static inline uint8_t Endpoint_Read_Byte(void) ATTR_WARN_UNUSED_RESULT ATTR_ALWAYS_INLINE;
 548:../lufa-LUFA/LUFA/Drivers/USB/Class/Device/../../HighLevel/../LowLevel/Endpoint.h **** 			static inline uint8_t Endpoint_Read_Byte(void)
 549:../lufa-LUFA/LUFA/Drivers/USB/Class/Device/../../HighLevel/../LowLevel/Endpoint.h **** 			{
 550:../lufa-LUFA/LUFA/Drivers/USB/Class/Device/../../HighLevel/../LowLevel/Endpoint.h **** 				return UEDATX;
 551:../lufa-LUFA/LUFA/Drivers/USB/Class/Device/../../HighLevel/../LowLevel/Endpoint.h **** 			}
 552:../lufa-LUFA/LUFA/Drivers/USB/Class/Device/../../HighLevel/../LowLevel/Endpoint.h **** 
 553:../lufa-LUFA/LUFA/Drivers/USB/Class/Device/../../HighLevel/../LowLevel/Endpoint.h **** 			/** Writes one byte from the currently selected endpoint's bank, for IN direction endpoints.
 554:../lufa-LUFA/LUFA/Drivers/USB/Class/Device/../../HighLevel/../LowLevel/Endpoint.h **** 			 *
 555:../lufa-LUFA/LUFA/Drivers/USB/Class/Device/../../HighLevel/../LowLevel/Endpoint.h **** 			 *  \ingroup Group_EndpointPrimitiveRW
 556:../lufa-LUFA/LUFA/Drivers/USB/Class/Device/../../HighLevel/../LowLevel/Endpoint.h **** 			 *
 557:../lufa-LUFA/LUFA/Drivers/USB/Class/Device/../../HighLevel/../LowLevel/Endpoint.h **** 			 *  \param[in] Byte  Next byte to write into the the currently selected endpoint's FIFO buffer.
 558:../lufa-LUFA/LUFA/Drivers/USB/Class/Device/../../HighLevel/../LowLevel/Endpoint.h **** 			 */
 559:../lufa-LUFA/LUFA/Drivers/USB/Class/Device/../../HighLevel/../LowLevel/Endpoint.h **** 			static inline void Endpoint_Write_Byte(const uint8_t Byte) ATTR_ALWAYS_INLINE;
 560:../lufa-LUFA/LUFA/Drivers/USB/Class/Device/../../HighLevel/../LowLevel/Endpoint.h **** 			static inline void Endpoint_Write_Byte(const uint8_t Byte)
 561:../lufa-LUFA/LUFA/Drivers/USB/Class/Device/../../HighLevel/../LowLevel/Endpoint.h **** 			{
 562:../lufa-LUFA/LUFA/Drivers/USB/Class/Device/../../HighLevel/../LowLevel/Endpoint.h **** 				UEDATX = Byte;
 396               		.loc 2 562 0
 397 0206 8093 F100 		sts 241,r24
 398               	.LBE70:
 399               	.LBE69:
 400               	.LBB71:
 401               	.LBB72:
 454:../lufa-LUFA/LUFA/Drivers/USB/Class/Device/../../HighLevel/../LowLevel/Endpoint.h **** 					UEINTX &= ~((1 << TXINI) | (1 << FIFOCON));
 402               		.loc 2 454 0
 403 020a 8091 E800 		lds r24,232
 404               	.LVL20:
 405 020e 8E77      		andi r24,lo8(126)
 406 0210 8093 E800 		sts 232,r24
 407               	.L19:
 408               	.LBE72:
 409               	.LBE71:
 129:../lufa-LUFA/LUFA/Drivers/USB/Class/Device/HID.c **** 				Endpoint_ClearStatusStage();
 410               		.loc 1 129 0
 411 0214 0E94 0000 		call Endpoint_ClearStatusStage
 412               	.LVL21:
 413               	.L1:
 414               		.loc 1 134 0
 415 0218 0FB6      		in __tmp_reg__,__SREG__
 416 021a F894      		cli
 417 021c BEBE      		out __SP_H__,r11
 418 021e 0FBE      		out __SREG__,__tmp_reg__
 419 0220 ADBE      		out __SP_L__,r10
 420               	/* epilogue start */
 421 0222 0F90      		pop __tmp_reg__
 422 0224 0F90      		pop __tmp_reg__
 423 0226 0F90      		pop __tmp_reg__
 424 0228 DF91      		pop r29
 425 022a CF91      		pop r28
 426 022c 1F91      		pop r17
 427 022e 0F91      		pop r16
 428 0230 FF90      		pop r15
 429 0232 EF90      		pop r14
 430               	.LVL22:
 431 0234 DF90      		pop r13
 432 0236 CF90      		pop r12
 433 0238 BF90      		pop r11
 434 023a AF90      		pop r10
 435 023c 9F90      		pop r9
 436 023e 8F90      		pop r8
 437 0240 0895      		ret
 438               		.cfi_endproc
 439               	.LFE66:
 441               		.section	.text.HID_Device_ConfigureEndpoints,"ax",@progbits
 442               	.global	HID_Device_ConfigureEndpoints
 444               	HID_Device_ConfigureEndpoints:
 445               	.LFB67:
 135:../lufa-LUFA/LUFA/Drivers/USB/Class/Device/HID.c **** 
 136:../lufa-LUFA/LUFA/Drivers/USB/Class/Device/HID.c **** bool HID_Device_ConfigureEndpoints(USB_ClassInfo_HID_Device_t* const HIDInterfaceInfo)
 137:../lufa-LUFA/LUFA/Drivers/USB/Class/Device/HID.c **** {
 446               		.loc 1 137 0
 447               		.cfi_startproc
 448               	.LVL23:
 449 0000 CF93      		push r28
 450               	.LCFI14:
 451               		.cfi_def_cfa_offset 3
 452               		.cfi_offset 28, -2
 453 0002 DF93      		push r29
 454               	.LCFI15:
 455               		.cfi_def_cfa_offset 4
 456               		.cfi_offset 29, -3
 457               	/* prologue: function */
 458               	/* frame size = 0 */
 459               	/* stack size = 2 */
 460               	.L__stack_usage = 2
 461 0004 FC01      		movw r30,r24
 138:../lufa-LUFA/LUFA/Drivers/USB/Class/Device/HID.c **** 	memset(&HIDInterfaceInfo->State, 0x00, sizeof(HIDInterfaceInfo->State));
 462               		.loc 1 138 0
 463 0006 DC01      		movw r26,r24
 464 0008 1896      		adiw r26,8
 465 000a 85E0      		ldi r24,lo8(5)
 466               	.LVL24:
 467 000c ED01      		movw r28,r26
 468               		0:
 469 000e 1992      		st Y+,__zero_reg__
 470 0010 8A95      		dec r24
 471 0012 01F4      		brne 0b
 139:../lufa-LUFA/LUFA/Drivers/USB/Class/Device/HID.c **** 	HIDInterfaceInfo->State.UsingReportProtocol = true;
 472               		.loc 1 139 0
 473 0014 81E0      		ldi r24,lo8(1)
 474 0016 8087      		std Z+8,r24
 140:../lufa-LUFA/LUFA/Drivers/USB/Class/Device/HID.c **** 	HIDInterfaceInfo->State.IdleCount = 500;
 475               		.loc 1 140 0
 476 0018 84EF      		ldi r24,lo8(-12)
 477 001a 91E0      		ldi r25,lo8(1)
 478 001c 9287      		std Z+10,r25
 479 001e 8187      		std Z+9,r24
 141:../lufa-LUFA/LUFA/Drivers/USB/Class/Device/HID.c **** 
 142:../lufa-LUFA/LUFA/Drivers/USB/Class/Device/HID.c **** 	if (!(Endpoint_ConfigureEndpoint(HIDInterfaceInfo->Config.ReportINEndpointNumber, EP_TYPE_INTERRUP
 480               		.loc 1 142 0
 481 0020 2281      		ldd r18,Z+2
 482 0022 3381      		ldd r19,Z+3
 483 0024 8481      		ldd r24,Z+4
 484 0026 8823      		tst r24
 485 0028 01F0      		breq .L24
 486 002a C4E0      		ldi r28,lo8(4)
 487 002c 00C0      		rjmp .L23
 488               	.L24:
 489 002e C0E0      		ldi r28,0
 490               	.L23:
 491               		.loc 1 142 0 is_stmt 0 discriminator 3
 492 0030 D181      		ldd r29,Z+1
 493               	.LVL25:
 494               	.LBB79:
 495               	.LBB80:
 563:../lufa-LUFA/LUFA/Drivers/USB/Class/Device/../../HighLevel/../LowLevel/Endpoint.h **** 			}
 564:../lufa-LUFA/LUFA/Drivers/USB/Class/Device/../../HighLevel/../LowLevel/Endpoint.h **** 
 565:../lufa-LUFA/LUFA/Drivers/USB/Class/Device/../../HighLevel/../LowLevel/Endpoint.h **** 			/** Discards one byte from the currently selected endpoint's bank, for OUT direction endpoints.
 566:../lufa-LUFA/LUFA/Drivers/USB/Class/Device/../../HighLevel/../LowLevel/Endpoint.h **** 			 *
 567:../lufa-LUFA/LUFA/Drivers/USB/Class/Device/../../HighLevel/../LowLevel/Endpoint.h **** 			 *  \ingroup Group_EndpointPrimitiveRW
 568:../lufa-LUFA/LUFA/Drivers/USB/Class/Device/../../HighLevel/../LowLevel/Endpoint.h **** 			 */
 569:../lufa-LUFA/LUFA/Drivers/USB/Class/Device/../../HighLevel/../LowLevel/Endpoint.h **** 			static inline void Endpoint_Discard_Byte(void) ATTR_ALWAYS_INLINE;
 570:../lufa-LUFA/LUFA/Drivers/USB/Class/Device/../../HighLevel/../LowLevel/Endpoint.h **** 			static inline void Endpoint_Discard_Byte(void)
 571:../lufa-LUFA/LUFA/Drivers/USB/Class/Device/../../HighLevel/../LowLevel/Endpoint.h **** 			{
 572:../lufa-LUFA/LUFA/Drivers/USB/Class/Device/../../HighLevel/../LowLevel/Endpoint.h **** 				uint8_t Dummy;
 573:../lufa-LUFA/LUFA/Drivers/USB/Class/Device/../../HighLevel/../LowLevel/Endpoint.h **** 				
 574:../lufa-LUFA/LUFA/Drivers/USB/Class/Device/../../HighLevel/../LowLevel/Endpoint.h **** 				Dummy = UEDATX;
 575:../lufa-LUFA/LUFA/Drivers/USB/Class/Device/../../HighLevel/../LowLevel/Endpoint.h **** 			}
 576:../lufa-LUFA/LUFA/Drivers/USB/Class/Device/../../HighLevel/../LowLevel/Endpoint.h **** 			
 577:../lufa-LUFA/LUFA/Drivers/USB/Class/Device/../../HighLevel/../LowLevel/Endpoint.h **** 			/** Reads two bytes from the currently selected endpoint's bank in little endian format, for OUT
 578:../lufa-LUFA/LUFA/Drivers/USB/Class/Device/../../HighLevel/../LowLevel/Endpoint.h **** 			 *  direction endpoints.
 579:../lufa-LUFA/LUFA/Drivers/USB/Class/Device/../../HighLevel/../LowLevel/Endpoint.h **** 			 *
 580:../lufa-LUFA/LUFA/Drivers/USB/Class/Device/../../HighLevel/../LowLevel/Endpoint.h **** 			 *  \ingroup Group_EndpointPrimitiveRW
 581:../lufa-LUFA/LUFA/Drivers/USB/Class/Device/../../HighLevel/../LowLevel/Endpoint.h **** 			 *
 582:../lufa-LUFA/LUFA/Drivers/USB/Class/Device/../../HighLevel/../LowLevel/Endpoint.h **** 			 *  \return Next word in the currently selected endpoint's FIFO buffer.
 583:../lufa-LUFA/LUFA/Drivers/USB/Class/Device/../../HighLevel/../LowLevel/Endpoint.h **** 			 */
 584:../lufa-LUFA/LUFA/Drivers/USB/Class/Device/../../HighLevel/../LowLevel/Endpoint.h **** 			static inline uint16_t Endpoint_Read_Word_LE(void) ATTR_WARN_UNUSED_RESULT ATTR_ALWAYS_INLINE;
 585:../lufa-LUFA/LUFA/Drivers/USB/Class/Device/../../HighLevel/../LowLevel/Endpoint.h **** 			static inline uint16_t Endpoint_Read_Word_LE(void)
 586:../lufa-LUFA/LUFA/Drivers/USB/Class/Device/../../HighLevel/../LowLevel/Endpoint.h **** 			{
 587:../lufa-LUFA/LUFA/Drivers/USB/Class/Device/../../HighLevel/../LowLevel/Endpoint.h **** 				union
 588:../lufa-LUFA/LUFA/Drivers/USB/Class/Device/../../HighLevel/../LowLevel/Endpoint.h **** 				{
 589:../lufa-LUFA/LUFA/Drivers/USB/Class/Device/../../HighLevel/../LowLevel/Endpoint.h **** 					uint16_t Word;
 590:../lufa-LUFA/LUFA/Drivers/USB/Class/Device/../../HighLevel/../LowLevel/Endpoint.h **** 					uint8_t  Bytes[2];
 591:../lufa-LUFA/LUFA/Drivers/USB/Class/Device/../../HighLevel/../LowLevel/Endpoint.h **** 				} Data;
 592:../lufa-LUFA/LUFA/Drivers/USB/Class/Device/../../HighLevel/../LowLevel/Endpoint.h **** 				
 593:../lufa-LUFA/LUFA/Drivers/USB/Class/Device/../../HighLevel/../LowLevel/Endpoint.h **** 				Data.Bytes[0] = UEDATX;
 594:../lufa-LUFA/LUFA/Drivers/USB/Class/Device/../../HighLevel/../LowLevel/Endpoint.h **** 				Data.Bytes[1] = UEDATX;
 595:../lufa-LUFA/LUFA/Drivers/USB/Class/Device/../../HighLevel/../LowLevel/Endpoint.h **** 			
 596:../lufa-LUFA/LUFA/Drivers/USB/Class/Device/../../HighLevel/../LowLevel/Endpoint.h **** 				return Data.Word;
 597:../lufa-LUFA/LUFA/Drivers/USB/Class/Device/../../HighLevel/../LowLevel/Endpoint.h **** 			}
 598:../lufa-LUFA/LUFA/Drivers/USB/Class/Device/../../HighLevel/../LowLevel/Endpoint.h **** 
 599:../lufa-LUFA/LUFA/Drivers/USB/Class/Device/../../HighLevel/../LowLevel/Endpoint.h **** 			/** Reads two bytes from the currently selected endpoint's bank in big endian format, for OUT
 600:../lufa-LUFA/LUFA/Drivers/USB/Class/Device/../../HighLevel/../LowLevel/Endpoint.h **** 			 *  direction endpoints.
 601:../lufa-LUFA/LUFA/Drivers/USB/Class/Device/../../HighLevel/../LowLevel/Endpoint.h **** 			 *
 602:../lufa-LUFA/LUFA/Drivers/USB/Class/Device/../../HighLevel/../LowLevel/Endpoint.h **** 			 *  \ingroup Group_EndpointPrimitiveRW
 603:../lufa-LUFA/LUFA/Drivers/USB/Class/Device/../../HighLevel/../LowLevel/Endpoint.h **** 			 *
 604:../lufa-LUFA/LUFA/Drivers/USB/Class/Device/../../HighLevel/../LowLevel/Endpoint.h **** 			 *  \return Next word in the currently selected endpoint's FIFO buffer.
 605:../lufa-LUFA/LUFA/Drivers/USB/Class/Device/../../HighLevel/../LowLevel/Endpoint.h **** 			 */
 606:../lufa-LUFA/LUFA/Drivers/USB/Class/Device/../../HighLevel/../LowLevel/Endpoint.h **** 			static inline uint16_t Endpoint_Read_Word_BE(void) ATTR_WARN_UNUSED_RESULT ATTR_ALWAYS_INLINE;
 607:../lufa-LUFA/LUFA/Drivers/USB/Class/Device/../../HighLevel/../LowLevel/Endpoint.h **** 			static inline uint16_t Endpoint_Read_Word_BE(void)
 608:../lufa-LUFA/LUFA/Drivers/USB/Class/Device/../../HighLevel/../LowLevel/Endpoint.h **** 			{
 609:../lufa-LUFA/LUFA/Drivers/USB/Class/Device/../../HighLevel/../LowLevel/Endpoint.h **** 				union
 610:../lufa-LUFA/LUFA/Drivers/USB/Class/Device/../../HighLevel/../LowLevel/Endpoint.h **** 				{
 611:../lufa-LUFA/LUFA/Drivers/USB/Class/Device/../../HighLevel/../LowLevel/Endpoint.h **** 					uint16_t Word;
 612:../lufa-LUFA/LUFA/Drivers/USB/Class/Device/../../HighLevel/../LowLevel/Endpoint.h **** 					uint8_t  Bytes[2];
 613:../lufa-LUFA/LUFA/Drivers/USB/Class/Device/../../HighLevel/../LowLevel/Endpoint.h **** 				} Data;
 614:../lufa-LUFA/LUFA/Drivers/USB/Class/Device/../../HighLevel/../LowLevel/Endpoint.h **** 				
 615:../lufa-LUFA/LUFA/Drivers/USB/Class/Device/../../HighLevel/../LowLevel/Endpoint.h **** 				Data.Bytes[1] = UEDATX;
 616:../lufa-LUFA/LUFA/Drivers/USB/Class/Device/../../HighLevel/../LowLevel/Endpoint.h **** 				Data.Bytes[0] = UEDATX;
 617:../lufa-LUFA/LUFA/Drivers/USB/Class/Device/../../HighLevel/../LowLevel/Endpoint.h **** 			
 618:../lufa-LUFA/LUFA/Drivers/USB/Class/Device/../../HighLevel/../LowLevel/Endpoint.h **** 				return Data.Word;
 619:../lufa-LUFA/LUFA/Drivers/USB/Class/Device/../../HighLevel/../LowLevel/Endpoint.h **** 			}
 620:../lufa-LUFA/LUFA/Drivers/USB/Class/Device/../../HighLevel/../LowLevel/Endpoint.h **** 
 621:../lufa-LUFA/LUFA/Drivers/USB/Class/Device/../../HighLevel/../LowLevel/Endpoint.h **** 			/** Writes two bytes to the currently selected endpoint's bank in little endian format, for IN
 622:../lufa-LUFA/LUFA/Drivers/USB/Class/Device/../../HighLevel/../LowLevel/Endpoint.h **** 			 *  direction endpoints.
 623:../lufa-LUFA/LUFA/Drivers/USB/Class/Device/../../HighLevel/../LowLevel/Endpoint.h **** 			 *
 624:../lufa-LUFA/LUFA/Drivers/USB/Class/Device/../../HighLevel/../LowLevel/Endpoint.h **** 			 *  \ingroup Group_EndpointPrimitiveRW
 625:../lufa-LUFA/LUFA/Drivers/USB/Class/Device/../../HighLevel/../LowLevel/Endpoint.h **** 			 *
 626:../lufa-LUFA/LUFA/Drivers/USB/Class/Device/../../HighLevel/../LowLevel/Endpoint.h **** 			 *  \param[in] Word  Next word to write to the currently selected endpoint's FIFO buffer.
 627:../lufa-LUFA/LUFA/Drivers/USB/Class/Device/../../HighLevel/../LowLevel/Endpoint.h **** 			 */
 628:../lufa-LUFA/LUFA/Drivers/USB/Class/Device/../../HighLevel/../LowLevel/Endpoint.h **** 			static inline void Endpoint_Write_Word_LE(const uint16_t Word) ATTR_ALWAYS_INLINE;
 629:../lufa-LUFA/LUFA/Drivers/USB/Class/Device/../../HighLevel/../LowLevel/Endpoint.h **** 			static inline void Endpoint_Write_Word_LE(const uint16_t Word)
 630:../lufa-LUFA/LUFA/Drivers/USB/Class/Device/../../HighLevel/../LowLevel/Endpoint.h **** 			{
 631:../lufa-LUFA/LUFA/Drivers/USB/Class/Device/../../HighLevel/../LowLevel/Endpoint.h **** 				UEDATX = (Word & 0xFF);
 632:../lufa-LUFA/LUFA/Drivers/USB/Class/Device/../../HighLevel/../LowLevel/Endpoint.h **** 				UEDATX = (Word >> 8);
 633:../lufa-LUFA/LUFA/Drivers/USB/Class/Device/../../HighLevel/../LowLevel/Endpoint.h **** 			}
 634:../lufa-LUFA/LUFA/Drivers/USB/Class/Device/../../HighLevel/../LowLevel/Endpoint.h **** 			
 635:../lufa-LUFA/LUFA/Drivers/USB/Class/Device/../../HighLevel/../LowLevel/Endpoint.h **** 			/** Writes two bytes to the currently selected endpoint's bank in big endian format, for IN
 636:../lufa-LUFA/LUFA/Drivers/USB/Class/Device/../../HighLevel/../LowLevel/Endpoint.h **** 			 *  direction endpoints.
 637:../lufa-LUFA/LUFA/Drivers/USB/Class/Device/../../HighLevel/../LowLevel/Endpoint.h **** 			 *
 638:../lufa-LUFA/LUFA/Drivers/USB/Class/Device/../../HighLevel/../LowLevel/Endpoint.h **** 			 *  \ingroup Group_EndpointPrimitiveRW
 639:../lufa-LUFA/LUFA/Drivers/USB/Class/Device/../../HighLevel/../LowLevel/Endpoint.h **** 			 *
 640:../lufa-LUFA/LUFA/Drivers/USB/Class/Device/../../HighLevel/../LowLevel/Endpoint.h **** 			 *  \param[in] Word  Next word to write to the currently selected endpoint's FIFO buffer.
 641:../lufa-LUFA/LUFA/Drivers/USB/Class/Device/../../HighLevel/../LowLevel/Endpoint.h **** 			 */
 642:../lufa-LUFA/LUFA/Drivers/USB/Class/Device/../../HighLevel/../LowLevel/Endpoint.h **** 			static inline void Endpoint_Write_Word_BE(const uint16_t Word) ATTR_ALWAYS_INLINE;
 643:../lufa-LUFA/LUFA/Drivers/USB/Class/Device/../../HighLevel/../LowLevel/Endpoint.h **** 			static inline void Endpoint_Write_Word_BE(const uint16_t Word)
 644:../lufa-LUFA/LUFA/Drivers/USB/Class/Device/../../HighLevel/../LowLevel/Endpoint.h **** 			{
 645:../lufa-LUFA/LUFA/Drivers/USB/Class/Device/../../HighLevel/../LowLevel/Endpoint.h **** 				UEDATX = (Word >> 8);
 646:../lufa-LUFA/LUFA/Drivers/USB/Class/Device/../../HighLevel/../LowLevel/Endpoint.h **** 				UEDATX = (Word & 0xFF);
 647:../lufa-LUFA/LUFA/Drivers/USB/Class/Device/../../HighLevel/../LowLevel/Endpoint.h **** 			}
 648:../lufa-LUFA/LUFA/Drivers/USB/Class/Device/../../HighLevel/../LowLevel/Endpoint.h **** 
 649:../lufa-LUFA/LUFA/Drivers/USB/Class/Device/../../HighLevel/../LowLevel/Endpoint.h **** 			/** Discards two bytes from the currently selected endpoint's bank, for OUT direction endpoints.
 650:../lufa-LUFA/LUFA/Drivers/USB/Class/Device/../../HighLevel/../LowLevel/Endpoint.h **** 			 *
 651:../lufa-LUFA/LUFA/Drivers/USB/Class/Device/../../HighLevel/../LowLevel/Endpoint.h **** 			 *  \ingroup Group_EndpointPrimitiveRW
 652:../lufa-LUFA/LUFA/Drivers/USB/Class/Device/../../HighLevel/../LowLevel/Endpoint.h **** 			 */
 653:../lufa-LUFA/LUFA/Drivers/USB/Class/Device/../../HighLevel/../LowLevel/Endpoint.h **** 			static inline void Endpoint_Discard_Word(void) ATTR_ALWAYS_INLINE;
 654:../lufa-LUFA/LUFA/Drivers/USB/Class/Device/../../HighLevel/../LowLevel/Endpoint.h **** 			static inline void Endpoint_Discard_Word(void)
 655:../lufa-LUFA/LUFA/Drivers/USB/Class/Device/../../HighLevel/../LowLevel/Endpoint.h **** 			{
 656:../lufa-LUFA/LUFA/Drivers/USB/Class/Device/../../HighLevel/../LowLevel/Endpoint.h **** 				uint8_t Dummy;
 657:../lufa-LUFA/LUFA/Drivers/USB/Class/Device/../../HighLevel/../LowLevel/Endpoint.h **** 				
 658:../lufa-LUFA/LUFA/Drivers/USB/Class/Device/../../HighLevel/../LowLevel/Endpoint.h **** 				Dummy = UEDATX;
 659:../lufa-LUFA/LUFA/Drivers/USB/Class/Device/../../HighLevel/../LowLevel/Endpoint.h **** 				Dummy = UEDATX;
 660:../lufa-LUFA/LUFA/Drivers/USB/Class/Device/../../HighLevel/../LowLevel/Endpoint.h **** 			}
 661:../lufa-LUFA/LUFA/Drivers/USB/Class/Device/../../HighLevel/../LowLevel/Endpoint.h **** 
 662:../lufa-LUFA/LUFA/Drivers/USB/Class/Device/../../HighLevel/../LowLevel/Endpoint.h **** 			/** Reads four bytes from the currently selected endpoint's bank in little endian format, for OU
 663:../lufa-LUFA/LUFA/Drivers/USB/Class/Device/../../HighLevel/../LowLevel/Endpoint.h **** 			 *  direction endpoints.
 664:../lufa-LUFA/LUFA/Drivers/USB/Class/Device/../../HighLevel/../LowLevel/Endpoint.h **** 			 *
 665:../lufa-LUFA/LUFA/Drivers/USB/Class/Device/../../HighLevel/../LowLevel/Endpoint.h **** 			 *  \ingroup Group_EndpointPrimitiveRW
 666:../lufa-LUFA/LUFA/Drivers/USB/Class/Device/../../HighLevel/../LowLevel/Endpoint.h **** 			 *
 667:../lufa-LUFA/LUFA/Drivers/USB/Class/Device/../../HighLevel/../LowLevel/Endpoint.h **** 			 *  \return Next double word in the currently selected endpoint's FIFO buffer.
 668:../lufa-LUFA/LUFA/Drivers/USB/Class/Device/../../HighLevel/../LowLevel/Endpoint.h **** 			 */
 669:../lufa-LUFA/LUFA/Drivers/USB/Class/Device/../../HighLevel/../LowLevel/Endpoint.h **** 			static inline uint32_t Endpoint_Read_DWord_LE(void) ATTR_WARN_UNUSED_RESULT ATTR_ALWAYS_INLINE;
 670:../lufa-LUFA/LUFA/Drivers/USB/Class/Device/../../HighLevel/../LowLevel/Endpoint.h **** 			static inline uint32_t Endpoint_Read_DWord_LE(void)
 671:../lufa-LUFA/LUFA/Drivers/USB/Class/Device/../../HighLevel/../LowLevel/Endpoint.h **** 			{
 672:../lufa-LUFA/LUFA/Drivers/USB/Class/Device/../../HighLevel/../LowLevel/Endpoint.h **** 				union
 673:../lufa-LUFA/LUFA/Drivers/USB/Class/Device/../../HighLevel/../LowLevel/Endpoint.h **** 				{
 674:../lufa-LUFA/LUFA/Drivers/USB/Class/Device/../../HighLevel/../LowLevel/Endpoint.h **** 					uint32_t DWord;
 675:../lufa-LUFA/LUFA/Drivers/USB/Class/Device/../../HighLevel/../LowLevel/Endpoint.h **** 					uint8_t  Bytes[4];
 676:../lufa-LUFA/LUFA/Drivers/USB/Class/Device/../../HighLevel/../LowLevel/Endpoint.h **** 				} Data;
 677:../lufa-LUFA/LUFA/Drivers/USB/Class/Device/../../HighLevel/../LowLevel/Endpoint.h **** 				
 678:../lufa-LUFA/LUFA/Drivers/USB/Class/Device/../../HighLevel/../LowLevel/Endpoint.h **** 				Data.Bytes[0] = UEDATX;
 679:../lufa-LUFA/LUFA/Drivers/USB/Class/Device/../../HighLevel/../LowLevel/Endpoint.h **** 				Data.Bytes[1] = UEDATX;
 680:../lufa-LUFA/LUFA/Drivers/USB/Class/Device/../../HighLevel/../LowLevel/Endpoint.h **** 				Data.Bytes[2] = UEDATX;
 681:../lufa-LUFA/LUFA/Drivers/USB/Class/Device/../../HighLevel/../LowLevel/Endpoint.h **** 				Data.Bytes[3] = UEDATX;
 682:../lufa-LUFA/LUFA/Drivers/USB/Class/Device/../../HighLevel/../LowLevel/Endpoint.h **** 			
 683:../lufa-LUFA/LUFA/Drivers/USB/Class/Device/../../HighLevel/../LowLevel/Endpoint.h **** 				return Data.DWord;
 684:../lufa-LUFA/LUFA/Drivers/USB/Class/Device/../../HighLevel/../LowLevel/Endpoint.h **** 			}
 685:../lufa-LUFA/LUFA/Drivers/USB/Class/Device/../../HighLevel/../LowLevel/Endpoint.h **** 
 686:../lufa-LUFA/LUFA/Drivers/USB/Class/Device/../../HighLevel/../LowLevel/Endpoint.h **** 			/** Reads four bytes from the currently selected endpoint's bank in big endian format, for OUT
 687:../lufa-LUFA/LUFA/Drivers/USB/Class/Device/../../HighLevel/../LowLevel/Endpoint.h **** 			 *  direction endpoints.
 688:../lufa-LUFA/LUFA/Drivers/USB/Class/Device/../../HighLevel/../LowLevel/Endpoint.h **** 			 *
 689:../lufa-LUFA/LUFA/Drivers/USB/Class/Device/../../HighLevel/../LowLevel/Endpoint.h **** 			 *  \ingroup Group_EndpointPrimitiveRW
 690:../lufa-LUFA/LUFA/Drivers/USB/Class/Device/../../HighLevel/../LowLevel/Endpoint.h **** 			 *
 691:../lufa-LUFA/LUFA/Drivers/USB/Class/Device/../../HighLevel/../LowLevel/Endpoint.h **** 			 *  \return Next double word in the currently selected endpoint's FIFO buffer.
 692:../lufa-LUFA/LUFA/Drivers/USB/Class/Device/../../HighLevel/../LowLevel/Endpoint.h **** 			 */
 693:../lufa-LUFA/LUFA/Drivers/USB/Class/Device/../../HighLevel/../LowLevel/Endpoint.h **** 			static inline uint32_t Endpoint_Read_DWord_BE(void) ATTR_WARN_UNUSED_RESULT ATTR_ALWAYS_INLINE;
 694:../lufa-LUFA/LUFA/Drivers/USB/Class/Device/../../HighLevel/../LowLevel/Endpoint.h **** 			static inline uint32_t Endpoint_Read_DWord_BE(void)
 695:../lufa-LUFA/LUFA/Drivers/USB/Class/Device/../../HighLevel/../LowLevel/Endpoint.h **** 			{
 696:../lufa-LUFA/LUFA/Drivers/USB/Class/Device/../../HighLevel/../LowLevel/Endpoint.h **** 				union
 697:../lufa-LUFA/LUFA/Drivers/USB/Class/Device/../../HighLevel/../LowLevel/Endpoint.h **** 				{
 698:../lufa-LUFA/LUFA/Drivers/USB/Class/Device/../../HighLevel/../LowLevel/Endpoint.h **** 					uint32_t DWord;
 699:../lufa-LUFA/LUFA/Drivers/USB/Class/Device/../../HighLevel/../LowLevel/Endpoint.h **** 					uint8_t  Bytes[4];
 700:../lufa-LUFA/LUFA/Drivers/USB/Class/Device/../../HighLevel/../LowLevel/Endpoint.h **** 				} Data;
 701:../lufa-LUFA/LUFA/Drivers/USB/Class/Device/../../HighLevel/../LowLevel/Endpoint.h **** 				
 702:../lufa-LUFA/LUFA/Drivers/USB/Class/Device/../../HighLevel/../LowLevel/Endpoint.h **** 				Data.Bytes[3] = UEDATX;
 703:../lufa-LUFA/LUFA/Drivers/USB/Class/Device/../../HighLevel/../LowLevel/Endpoint.h **** 				Data.Bytes[2] = UEDATX;
 704:../lufa-LUFA/LUFA/Drivers/USB/Class/Device/../../HighLevel/../LowLevel/Endpoint.h **** 				Data.Bytes[1] = UEDATX;
 705:../lufa-LUFA/LUFA/Drivers/USB/Class/Device/../../HighLevel/../LowLevel/Endpoint.h **** 				Data.Bytes[0] = UEDATX;
 706:../lufa-LUFA/LUFA/Drivers/USB/Class/Device/../../HighLevel/../LowLevel/Endpoint.h **** 			
 707:../lufa-LUFA/LUFA/Drivers/USB/Class/Device/../../HighLevel/../LowLevel/Endpoint.h **** 				return Data.DWord;
 708:../lufa-LUFA/LUFA/Drivers/USB/Class/Device/../../HighLevel/../LowLevel/Endpoint.h **** 			}
 709:../lufa-LUFA/LUFA/Drivers/USB/Class/Device/../../HighLevel/../LowLevel/Endpoint.h **** 
 710:../lufa-LUFA/LUFA/Drivers/USB/Class/Device/../../HighLevel/../LowLevel/Endpoint.h **** 			/** Writes four bytes to the currently selected endpoint's bank in little endian format, for IN
 711:../lufa-LUFA/LUFA/Drivers/USB/Class/Device/../../HighLevel/../LowLevel/Endpoint.h **** 			 *  direction endpoints.
 712:../lufa-LUFA/LUFA/Drivers/USB/Class/Device/../../HighLevel/../LowLevel/Endpoint.h **** 			 *
 713:../lufa-LUFA/LUFA/Drivers/USB/Class/Device/../../HighLevel/../LowLevel/Endpoint.h **** 			 *  \ingroup Group_EndpointPrimitiveRW
 714:../lufa-LUFA/LUFA/Drivers/USB/Class/Device/../../HighLevel/../LowLevel/Endpoint.h **** 			 *
 715:../lufa-LUFA/LUFA/Drivers/USB/Class/Device/../../HighLevel/../LowLevel/Endpoint.h **** 			 *  \param[in] DWord  Next double word to write to the currently selected endpoint's FIFO buffer
 716:../lufa-LUFA/LUFA/Drivers/USB/Class/Device/../../HighLevel/../LowLevel/Endpoint.h **** 			 */
 717:../lufa-LUFA/LUFA/Drivers/USB/Class/Device/../../HighLevel/../LowLevel/Endpoint.h **** 			static inline void Endpoint_Write_DWord_LE(const uint32_t DWord) ATTR_ALWAYS_INLINE;
 718:../lufa-LUFA/LUFA/Drivers/USB/Class/Device/../../HighLevel/../LowLevel/Endpoint.h **** 			static inline void Endpoint_Write_DWord_LE(const uint32_t DWord)
 719:../lufa-LUFA/LUFA/Drivers/USB/Class/Device/../../HighLevel/../LowLevel/Endpoint.h **** 			{
 720:../lufa-LUFA/LUFA/Drivers/USB/Class/Device/../../HighLevel/../LowLevel/Endpoint.h **** 				UEDATX = (DWord &  0xFF);
 721:../lufa-LUFA/LUFA/Drivers/USB/Class/Device/../../HighLevel/../LowLevel/Endpoint.h **** 				UEDATX = (DWord >> 8);
 722:../lufa-LUFA/LUFA/Drivers/USB/Class/Device/../../HighLevel/../LowLevel/Endpoint.h **** 				UEDATX = (DWord >> 16);
 723:../lufa-LUFA/LUFA/Drivers/USB/Class/Device/../../HighLevel/../LowLevel/Endpoint.h **** 				UEDATX = (DWord >> 24);
 724:../lufa-LUFA/LUFA/Drivers/USB/Class/Device/../../HighLevel/../LowLevel/Endpoint.h **** 			}
 725:../lufa-LUFA/LUFA/Drivers/USB/Class/Device/../../HighLevel/../LowLevel/Endpoint.h **** 			
 726:../lufa-LUFA/LUFA/Drivers/USB/Class/Device/../../HighLevel/../LowLevel/Endpoint.h **** 			/** Writes four bytes to the currently selected endpoint's bank in big endian format, for IN
 727:../lufa-LUFA/LUFA/Drivers/USB/Class/Device/../../HighLevel/../LowLevel/Endpoint.h **** 			 *  direction endpoints.
 728:../lufa-LUFA/LUFA/Drivers/USB/Class/Device/../../HighLevel/../LowLevel/Endpoint.h **** 			 *
 729:../lufa-LUFA/LUFA/Drivers/USB/Class/Device/../../HighLevel/../LowLevel/Endpoint.h **** 			 *  \ingroup Group_EndpointPrimitiveRW
 730:../lufa-LUFA/LUFA/Drivers/USB/Class/Device/../../HighLevel/../LowLevel/Endpoint.h **** 			 *
 731:../lufa-LUFA/LUFA/Drivers/USB/Class/Device/../../HighLevel/../LowLevel/Endpoint.h **** 			 *  \param[in] DWord  Next double word to write to the currently selected endpoint's FIFO buffer
 732:../lufa-LUFA/LUFA/Drivers/USB/Class/Device/../../HighLevel/../LowLevel/Endpoint.h **** 			 */
 733:../lufa-LUFA/LUFA/Drivers/USB/Class/Device/../../HighLevel/../LowLevel/Endpoint.h **** 			static inline void Endpoint_Write_DWord_BE(const uint32_t DWord) ATTR_ALWAYS_INLINE;
 734:../lufa-LUFA/LUFA/Drivers/USB/Class/Device/../../HighLevel/../LowLevel/Endpoint.h **** 			static inline void Endpoint_Write_DWord_BE(const uint32_t DWord)
 735:../lufa-LUFA/LUFA/Drivers/USB/Class/Device/../../HighLevel/../LowLevel/Endpoint.h **** 			{
 736:../lufa-LUFA/LUFA/Drivers/USB/Class/Device/../../HighLevel/../LowLevel/Endpoint.h **** 				UEDATX = (DWord >> 24);
 737:../lufa-LUFA/LUFA/Drivers/USB/Class/Device/../../HighLevel/../LowLevel/Endpoint.h **** 				UEDATX = (DWord >> 16);
 738:../lufa-LUFA/LUFA/Drivers/USB/Class/Device/../../HighLevel/../LowLevel/Endpoint.h **** 				UEDATX = (DWord >> 8);
 739:../lufa-LUFA/LUFA/Drivers/USB/Class/Device/../../HighLevel/../LowLevel/Endpoint.h **** 				UEDATX = (DWord &  0xFF);
 740:../lufa-LUFA/LUFA/Drivers/USB/Class/Device/../../HighLevel/../LowLevel/Endpoint.h **** 			}
 741:../lufa-LUFA/LUFA/Drivers/USB/Class/Device/../../HighLevel/../LowLevel/Endpoint.h **** 
 742:../lufa-LUFA/LUFA/Drivers/USB/Class/Device/../../HighLevel/../LowLevel/Endpoint.h **** 			/** Discards four bytes from the currently selected endpoint's bank, for OUT direction endpoints
 743:../lufa-LUFA/LUFA/Drivers/USB/Class/Device/../../HighLevel/../LowLevel/Endpoint.h **** 			 *
 744:../lufa-LUFA/LUFA/Drivers/USB/Class/Device/../../HighLevel/../LowLevel/Endpoint.h **** 			 *  \ingroup Group_EndpointPrimitiveRW
 745:../lufa-LUFA/LUFA/Drivers/USB/Class/Device/../../HighLevel/../LowLevel/Endpoint.h **** 			 */
 746:../lufa-LUFA/LUFA/Drivers/USB/Class/Device/../../HighLevel/../LowLevel/Endpoint.h **** 			static inline void Endpoint_Discard_DWord(void) ATTR_ALWAYS_INLINE;
 747:../lufa-LUFA/LUFA/Drivers/USB/Class/Device/../../HighLevel/../LowLevel/Endpoint.h **** 			static inline void Endpoint_Discard_DWord(void)
 748:../lufa-LUFA/LUFA/Drivers/USB/Class/Device/../../HighLevel/../LowLevel/Endpoint.h **** 			{
 749:../lufa-LUFA/LUFA/Drivers/USB/Class/Device/../../HighLevel/../LowLevel/Endpoint.h **** 				uint8_t Dummy;
 750:../lufa-LUFA/LUFA/Drivers/USB/Class/Device/../../HighLevel/../LowLevel/Endpoint.h **** 				
 751:../lufa-LUFA/LUFA/Drivers/USB/Class/Device/../../HighLevel/../LowLevel/Endpoint.h **** 				Dummy = UEDATX;
 752:../lufa-LUFA/LUFA/Drivers/USB/Class/Device/../../HighLevel/../LowLevel/Endpoint.h **** 				Dummy = UEDATX;
 753:../lufa-LUFA/LUFA/Drivers/USB/Class/Device/../../HighLevel/../LowLevel/Endpoint.h **** 				Dummy = UEDATX;
 754:../lufa-LUFA/LUFA/Drivers/USB/Class/Device/../../HighLevel/../LowLevel/Endpoint.h **** 				Dummy = UEDATX;
 755:../lufa-LUFA/LUFA/Drivers/USB/Class/Device/../../HighLevel/../LowLevel/Endpoint.h **** 			}
 756:../lufa-LUFA/LUFA/Drivers/USB/Class/Device/../../HighLevel/../LowLevel/Endpoint.h **** 
 757:../lufa-LUFA/LUFA/Drivers/USB/Class/Device/../../HighLevel/../LowLevel/Endpoint.h **** 		/* External Variables: */
 758:../lufa-LUFA/LUFA/Drivers/USB/Class/Device/../../HighLevel/../LowLevel/Endpoint.h **** 			/** Global indicating the maximum packet size of the default control endpoint located at address
 759:../lufa-LUFA/LUFA/Drivers/USB/Class/Device/../../HighLevel/../LowLevel/Endpoint.h **** 			 *  0 in the device. This value is set to the value indicated in the device descriptor in the us
 760:../lufa-LUFA/LUFA/Drivers/USB/Class/Device/../../HighLevel/../LowLevel/Endpoint.h **** 			 *  project once the USB interface is initialized into device mode.
 761:../lufa-LUFA/LUFA/Drivers/USB/Class/Device/../../HighLevel/../LowLevel/Endpoint.h **** 			 *
 762:../lufa-LUFA/LUFA/Drivers/USB/Class/Device/../../HighLevel/../LowLevel/Endpoint.h **** 			 *  If space is an issue, it is possible to fix this to a static value by defining the control
 763:../lufa-LUFA/LUFA/Drivers/USB/Class/Device/../../HighLevel/../LowLevel/Endpoint.h **** 			 *  endpoint size in the FIXED_CONTROL_ENDPOINT_SIZE token passed to the compiler in the makefil
 764:../lufa-LUFA/LUFA/Drivers/USB/Class/Device/../../HighLevel/../LowLevel/Endpoint.h **** 			 *  via the -D switch. When a fixed control endpoint size is used, the size is no longer dynamic
 765:../lufa-LUFA/LUFA/Drivers/USB/Class/Device/../../HighLevel/../LowLevel/Endpoint.h **** 			 *  read from the descriptors at runtime and instead fixed to the given value. When used, it is
 766:../lufa-LUFA/LUFA/Drivers/USB/Class/Device/../../HighLevel/../LowLevel/Endpoint.h **** 			 *  important that the descriptor control endpoint size value matches the size given as the
 767:../lufa-LUFA/LUFA/Drivers/USB/Class/Device/../../HighLevel/../LowLevel/Endpoint.h **** 			 *  FIXED_CONTROL_ENDPOINT_SIZE token - it is recommended that the FIXED_CONTROL_ENDPOINT_SIZE t
 768:../lufa-LUFA/LUFA/Drivers/USB/Class/Device/../../HighLevel/../LowLevel/Endpoint.h **** 			 *  be used in the descriptors to ensure this.
 769:../lufa-LUFA/LUFA/Drivers/USB/Class/Device/../../HighLevel/../LowLevel/Endpoint.h **** 			 *
 770:../lufa-LUFA/LUFA/Drivers/USB/Class/Device/../../HighLevel/../LowLevel/Endpoint.h **** 			 *  \note This variable should be treated as read-only in the user application, and never manual
 771:../lufa-LUFA/LUFA/Drivers/USB/Class/Device/../../HighLevel/../LowLevel/Endpoint.h **** 			 *        changed in value.
 772:../lufa-LUFA/LUFA/Drivers/USB/Class/Device/../../HighLevel/../LowLevel/Endpoint.h **** 			 */
 773:../lufa-LUFA/LUFA/Drivers/USB/Class/Device/../../HighLevel/../LowLevel/Endpoint.h **** 			#if (!defined(FIXED_CONTROL_ENDPOINT_SIZE) || defined(__DOXYGEN__))
 774:../lufa-LUFA/LUFA/Drivers/USB/Class/Device/../../HighLevel/../LowLevel/Endpoint.h **** 				extern uint8_t USB_ControlEndpointSize;
 775:../lufa-LUFA/LUFA/Drivers/USB/Class/Device/../../HighLevel/../LowLevel/Endpoint.h **** 			#else
 776:../lufa-LUFA/LUFA/Drivers/USB/Class/Device/../../HighLevel/../LowLevel/Endpoint.h **** 				#define USB_ControlEndpointSize FIXED_CONTROL_ENDPOINT_SIZE
 777:../lufa-LUFA/LUFA/Drivers/USB/Class/Device/../../HighLevel/../LowLevel/Endpoint.h **** 			#endif
 778:../lufa-LUFA/LUFA/Drivers/USB/Class/Device/../../HighLevel/../LowLevel/Endpoint.h **** 
 779:../lufa-LUFA/LUFA/Drivers/USB/Class/Device/../../HighLevel/../LowLevel/Endpoint.h **** 		/* Function Prototypes: */
 780:../lufa-LUFA/LUFA/Drivers/USB/Class/Device/../../HighLevel/../LowLevel/Endpoint.h **** 			#if !defined(NO_STREAM_CALLBACKS) || defined(__DOXYGEN__)
 781:../lufa-LUFA/LUFA/Drivers/USB/Class/Device/../../HighLevel/../LowLevel/Endpoint.h **** 				#define __CALLBACK_PARAM     , StreamCallbackPtr_t Callback
 782:../lufa-LUFA/LUFA/Drivers/USB/Class/Device/../../HighLevel/../LowLevel/Endpoint.h **** 			#else
 783:../lufa-LUFA/LUFA/Drivers/USB/Class/Device/../../HighLevel/../LowLevel/Endpoint.h **** 				#define __CALLBACK_PARAM
 784:../lufa-LUFA/LUFA/Drivers/USB/Class/Device/../../HighLevel/../LowLevel/Endpoint.h **** 			#endif
 785:../lufa-LUFA/LUFA/Drivers/USB/Class/Device/../../HighLevel/../LowLevel/Endpoint.h **** 		
 786:../lufa-LUFA/LUFA/Drivers/USB/Class/Device/../../HighLevel/../LowLevel/Endpoint.h **** 			/** Configures the specified endpoint number with the given endpoint type, direction, bank size
 787:../lufa-LUFA/LUFA/Drivers/USB/Class/Device/../../HighLevel/../LowLevel/Endpoint.h **** 			 *  and banking mode. Endpoints should be allocated in ascending order by their address in the
 788:../lufa-LUFA/LUFA/Drivers/USB/Class/Device/../../HighLevel/../LowLevel/Endpoint.h **** 			 *  device (i.e. endpoint 1 should be configured before endpoint 2 and so on) to prevent fragmen
 789:../lufa-LUFA/LUFA/Drivers/USB/Class/Device/../../HighLevel/../LowLevel/Endpoint.h **** 			 *  of the USB FIFO memory.
 790:../lufa-LUFA/LUFA/Drivers/USB/Class/Device/../../HighLevel/../LowLevel/Endpoint.h **** 			 *
 791:../lufa-LUFA/LUFA/Drivers/USB/Class/Device/../../HighLevel/../LowLevel/Endpoint.h **** 			 *  The endpoint type may be one of the EP_TYPE_* macros listed in LowLevel.h and the direction
 792:../lufa-LUFA/LUFA/Drivers/USB/Class/Device/../../HighLevel/../LowLevel/Endpoint.h **** 			 *  may be either \ref ENDPOINT_DIR_OUT or \ref ENDPOINT_DIR_IN.
 793:../lufa-LUFA/LUFA/Drivers/USB/Class/Device/../../HighLevel/../LowLevel/Endpoint.h **** 			 *
 794:../lufa-LUFA/LUFA/Drivers/USB/Class/Device/../../HighLevel/../LowLevel/Endpoint.h **** 			 *  The bank size must indicate the maximum packet size that the endpoint can handle. Different
 795:../lufa-LUFA/LUFA/Drivers/USB/Class/Device/../../HighLevel/../LowLevel/Endpoint.h **** 			 *  endpoint numbers can handle different maximum packet sizes - refer to the chosen USB AVR's
 796:../lufa-LUFA/LUFA/Drivers/USB/Class/Device/../../HighLevel/../LowLevel/Endpoint.h **** 			 *  datasheet to determine the maximum bank size for each endpoint.
 797:../lufa-LUFA/LUFA/Drivers/USB/Class/Device/../../HighLevel/../LowLevel/Endpoint.h **** 			 *
 798:../lufa-LUFA/LUFA/Drivers/USB/Class/Device/../../HighLevel/../LowLevel/Endpoint.h **** 			 *  The banking mode may be either \ref ENDPOINT_BANK_SINGLE or \ref ENDPOINT_BANK_DOUBLE.
 799:../lufa-LUFA/LUFA/Drivers/USB/Class/Device/../../HighLevel/../LowLevel/Endpoint.h **** 			 *
 800:../lufa-LUFA/LUFA/Drivers/USB/Class/Device/../../HighLevel/../LowLevel/Endpoint.h **** 			 *  \note The default control endpoint should not be manually configured by the user application
 801:../lufa-LUFA/LUFA/Drivers/USB/Class/Device/../../HighLevel/../LowLevel/Endpoint.h **** 			 *        it is automatically configured by the library internally.
 802:../lufa-LUFA/LUFA/Drivers/USB/Class/Device/../../HighLevel/../LowLevel/Endpoint.h **** 			 *        \n\n
 803:../lufa-LUFA/LUFA/Drivers/USB/Class/Device/../../HighLevel/../LowLevel/Endpoint.h **** 			 *
 804:../lufa-LUFA/LUFA/Drivers/USB/Class/Device/../../HighLevel/../LowLevel/Endpoint.h **** 			 *  \note This routine will select the specified endpoint, and the endpoint will remain selected
 805:../lufa-LUFA/LUFA/Drivers/USB/Class/Device/../../HighLevel/../LowLevel/Endpoint.h **** 			 *        once the routine completes regardless of if the endpoint configuration succeeds.
 806:../lufa-LUFA/LUFA/Drivers/USB/Class/Device/../../HighLevel/../LowLevel/Endpoint.h **** 			 *
 807:../lufa-LUFA/LUFA/Drivers/USB/Class/Device/../../HighLevel/../LowLevel/Endpoint.h **** 			 *  \return Boolean true if the configuration succeeded, false otherwise.
 808:../lufa-LUFA/LUFA/Drivers/USB/Class/Device/../../HighLevel/../LowLevel/Endpoint.h **** 			 */
 809:../lufa-LUFA/LUFA/Drivers/USB/Class/Device/../../HighLevel/../LowLevel/Endpoint.h **** 			bool Endpoint_ConfigureEndpoint(const uint8_t  Number,
 810:../lufa-LUFA/LUFA/Drivers/USB/Class/Device/../../HighLevel/../LowLevel/Endpoint.h **** 			                                const uint8_t Type,
 811:../lufa-LUFA/LUFA/Drivers/USB/Class/Device/../../HighLevel/../LowLevel/Endpoint.h **** 			                                const uint8_t Direction,
 812:../lufa-LUFA/LUFA/Drivers/USB/Class/Device/../../HighLevel/../LowLevel/Endpoint.h **** 			                                const uint16_t Size,
 813:../lufa-LUFA/LUFA/Drivers/USB/Class/Device/../../HighLevel/../LowLevel/Endpoint.h **** 			                                const uint8_t Banks);
 814:../lufa-LUFA/LUFA/Drivers/USB/Class/Device/../../HighLevel/../LowLevel/Endpoint.h **** 
 815:../lufa-LUFA/LUFA/Drivers/USB/Class/Device/../../HighLevel/../LowLevel/Endpoint.h **** 			/** Spin-loops until the currently selected non-control endpoint is ready for the next packet of
 816:../lufa-LUFA/LUFA/Drivers/USB/Class/Device/../../HighLevel/../LowLevel/Endpoint.h **** 			 *  to be read or written to it.
 817:../lufa-LUFA/LUFA/Drivers/USB/Class/Device/../../HighLevel/../LowLevel/Endpoint.h **** 			 *
 818:../lufa-LUFA/LUFA/Drivers/USB/Class/Device/../../HighLevel/../LowLevel/Endpoint.h **** 			 *  \note This routine should not be called on CONTROL type endpoints.
 819:../lufa-LUFA/LUFA/Drivers/USB/Class/Device/../../HighLevel/../LowLevel/Endpoint.h **** 			 *
 820:../lufa-LUFA/LUFA/Drivers/USB/Class/Device/../../HighLevel/../LowLevel/Endpoint.h **** 			 *  \ingroup Group_EndpointRW
 821:../lufa-LUFA/LUFA/Drivers/USB/Class/Device/../../HighLevel/../LowLevel/Endpoint.h **** 			 *
 822:../lufa-LUFA/LUFA/Drivers/USB/Class/Device/../../HighLevel/../LowLevel/Endpoint.h **** 			 *  \return A value from the \ref Endpoint_WaitUntilReady_ErrorCodes_t enum.
 823:../lufa-LUFA/LUFA/Drivers/USB/Class/Device/../../HighLevel/../LowLevel/Endpoint.h **** 			 */
 824:../lufa-LUFA/LUFA/Drivers/USB/Class/Device/../../HighLevel/../LowLevel/Endpoint.h **** 			uint8_t Endpoint_WaitUntilReady(void);
 825:../lufa-LUFA/LUFA/Drivers/USB/Class/Device/../../HighLevel/../LowLevel/Endpoint.h **** 			
 826:../lufa-LUFA/LUFA/Drivers/USB/Class/Device/../../HighLevel/../LowLevel/Endpoint.h **** 			/** Completes the status stage of a control transfer on a CONTROL type endpoint automatically,
 827:../lufa-LUFA/LUFA/Drivers/USB/Class/Device/../../HighLevel/../LowLevel/Endpoint.h **** 			 *  with respect to the data direction. This is a convenience function which can be used to
 828:../lufa-LUFA/LUFA/Drivers/USB/Class/Device/../../HighLevel/../LowLevel/Endpoint.h **** 			 *  simplify user control request handling.
 829:../lufa-LUFA/LUFA/Drivers/USB/Class/Device/../../HighLevel/../LowLevel/Endpoint.h **** 			 */
 830:../lufa-LUFA/LUFA/Drivers/USB/Class/Device/../../HighLevel/../LowLevel/Endpoint.h **** 			void Endpoint_ClearStatusStage(void);
 831:../lufa-LUFA/LUFA/Drivers/USB/Class/Device/../../HighLevel/../LowLevel/Endpoint.h **** 
 832:../lufa-LUFA/LUFA/Drivers/USB/Class/Device/../../HighLevel/../LowLevel/Endpoint.h **** 			/** Reads and discards the given number of bytes from the endpoint from the given buffer,
 833:../lufa-LUFA/LUFA/Drivers/USB/Class/Device/../../HighLevel/../LowLevel/Endpoint.h **** 			 *  discarding fully read packets from the host as needed. The last packet is not automatically
 834:../lufa-LUFA/LUFA/Drivers/USB/Class/Device/../../HighLevel/../LowLevel/Endpoint.h **** 			 *  discarded once the remaining bytes has been read; the user is responsible for manually
 835:../lufa-LUFA/LUFA/Drivers/USB/Class/Device/../../HighLevel/../LowLevel/Endpoint.h **** 			 *  discarding the last packet from the host via the \ref Endpoint_ClearOUT() macro. Between
 836:../lufa-LUFA/LUFA/Drivers/USB/Class/Device/../../HighLevel/../LowLevel/Endpoint.h **** 			 *  each USB packet, the given stream callback function is executed repeatedly until the next
 837:../lufa-LUFA/LUFA/Drivers/USB/Class/Device/../../HighLevel/../LowLevel/Endpoint.h **** 			 *  packet is ready, allowing for early aborts of stream transfers.
 838:../lufa-LUFA/LUFA/Drivers/USB/Class/Device/../../HighLevel/../LowLevel/Endpoint.h **** 			 *
 839:../lufa-LUFA/LUFA/Drivers/USB/Class/Device/../../HighLevel/../LowLevel/Endpoint.h **** 			 *	The callback routine should be created according to the information in \ref Group_StreamCallb
 840:../lufa-LUFA/LUFA/Drivers/USB/Class/Device/../../HighLevel/../LowLevel/Endpoint.h **** 			 *  If the token NO_STREAM_CALLBACKS is passed via the -D option to the compiler, stream callbac
 841:../lufa-LUFA/LUFA/Drivers/USB/Class/Device/../../HighLevel/../LowLevel/Endpoint.h **** 			 *  disabled and this function has the Callback parameter omitted.
 842:../lufa-LUFA/LUFA/Drivers/USB/Class/Device/../../HighLevel/../LowLevel/Endpoint.h **** 			 *
 843:../lufa-LUFA/LUFA/Drivers/USB/Class/Device/../../HighLevel/../LowLevel/Endpoint.h **** 			 *  \note This routine should not be used on CONTROL type endpoints.
 844:../lufa-LUFA/LUFA/Drivers/USB/Class/Device/../../HighLevel/../LowLevel/Endpoint.h **** 			 *
 845:../lufa-LUFA/LUFA/Drivers/USB/Class/Device/../../HighLevel/../LowLevel/Endpoint.h **** 			 *  \ingroup Group_EndpointStreamRW
 846:../lufa-LUFA/LUFA/Drivers/USB/Class/Device/../../HighLevel/../LowLevel/Endpoint.h **** 			 *
 847:../lufa-LUFA/LUFA/Drivers/USB/Class/Device/../../HighLevel/../LowLevel/Endpoint.h **** 			 *  \param[in] Length    Number of bytes to send via the currently selected endpoint.
 848:../lufa-LUFA/LUFA/Drivers/USB/Class/Device/../../HighLevel/../LowLevel/Endpoint.h **** 			 *  \param[in] Callback  Name of a callback routine to call between successive USB packet transf
 849:../lufa-LUFA/LUFA/Drivers/USB/Class/Device/../../HighLevel/../LowLevel/Endpoint.h **** 			 *
 850:../lufa-LUFA/LUFA/Drivers/USB/Class/Device/../../HighLevel/../LowLevel/Endpoint.h **** 			 *  \return A value from the \ref Endpoint_Stream_RW_ErrorCodes_t enum.
 851:../lufa-LUFA/LUFA/Drivers/USB/Class/Device/../../HighLevel/../LowLevel/Endpoint.h **** 			 */
 852:../lufa-LUFA/LUFA/Drivers/USB/Class/Device/../../HighLevel/../LowLevel/Endpoint.h **** 			uint8_t Endpoint_Discard_Stream(uint16_t Length
 853:../lufa-LUFA/LUFA/Drivers/USB/Class/Device/../../HighLevel/../LowLevel/Endpoint.h **** 			                                __CALLBACK_PARAM);
 854:../lufa-LUFA/LUFA/Drivers/USB/Class/Device/../../HighLevel/../LowLevel/Endpoint.h **** 
 855:../lufa-LUFA/LUFA/Drivers/USB/Class/Device/../../HighLevel/../LowLevel/Endpoint.h **** 			/** Writes the given number of bytes to the endpoint from the given buffer in little endian,
 856:../lufa-LUFA/LUFA/Drivers/USB/Class/Device/../../HighLevel/../LowLevel/Endpoint.h **** 			 *  sending full packets to the host as needed. The last packet filled is not automatically sent
 857:../lufa-LUFA/LUFA/Drivers/USB/Class/Device/../../HighLevel/../LowLevel/Endpoint.h **** 			 *  the user is responsible for manually sending the last written packet to the host via the
 858:../lufa-LUFA/LUFA/Drivers/USB/Class/Device/../../HighLevel/../LowLevel/Endpoint.h **** 			 *  \ref Endpoint_ClearIN() macro. Between each USB packet, the given stream callback function
 859:../lufa-LUFA/LUFA/Drivers/USB/Class/Device/../../HighLevel/../LowLevel/Endpoint.h **** 			 *  is executed repeatedly until the endpoint is ready to accept the next packet, allowing for e
 860:../lufa-LUFA/LUFA/Drivers/USB/Class/Device/../../HighLevel/../LowLevel/Endpoint.h **** 			 *  aborts of stream transfers.
 861:../lufa-LUFA/LUFA/Drivers/USB/Class/Device/../../HighLevel/../LowLevel/Endpoint.h **** 			 *
 862:../lufa-LUFA/LUFA/Drivers/USB/Class/Device/../../HighLevel/../LowLevel/Endpoint.h **** 			 *	The callback routine should be created according to the information in \ref Group_StreamCallb
 863:../lufa-LUFA/LUFA/Drivers/USB/Class/Device/../../HighLevel/../LowLevel/Endpoint.h **** 			 *  If the token NO_STREAM_CALLBACKS is passed via the -D option to the compiler, stream callbac
 864:../lufa-LUFA/LUFA/Drivers/USB/Class/Device/../../HighLevel/../LowLevel/Endpoint.h **** 			 *  disabled and this function has the Callback parameter omitted.
 865:../lufa-LUFA/LUFA/Drivers/USB/Class/Device/../../HighLevel/../LowLevel/Endpoint.h **** 			 *
 866:../lufa-LUFA/LUFA/Drivers/USB/Class/Device/../../HighLevel/../LowLevel/Endpoint.h **** 			 *  \note This routine should not be used on CONTROL type endpoints.
 867:../lufa-LUFA/LUFA/Drivers/USB/Class/Device/../../HighLevel/../LowLevel/Endpoint.h **** 			 *
 868:../lufa-LUFA/LUFA/Drivers/USB/Class/Device/../../HighLevel/../LowLevel/Endpoint.h **** 			 *  \ingroup Group_EndpointStreamRW
 869:../lufa-LUFA/LUFA/Drivers/USB/Class/Device/../../HighLevel/../LowLevel/Endpoint.h **** 			 *
 870:../lufa-LUFA/LUFA/Drivers/USB/Class/Device/../../HighLevel/../LowLevel/Endpoint.h **** 			 *  \param[in] Buffer    Pointer to the source data buffer to read from.
 871:../lufa-LUFA/LUFA/Drivers/USB/Class/Device/../../HighLevel/../LowLevel/Endpoint.h **** 			 *  \param[in] Length    Number of bytes to read for the currently selected endpoint into the bu
 872:../lufa-LUFA/LUFA/Drivers/USB/Class/Device/../../HighLevel/../LowLevel/Endpoint.h **** 			 *  \param[in] Callback  Name of a callback routine to call between successive USB packet transf
 873:../lufa-LUFA/LUFA/Drivers/USB/Class/Device/../../HighLevel/../LowLevel/Endpoint.h **** 			 *
 874:../lufa-LUFA/LUFA/Drivers/USB/Class/Device/../../HighLevel/../LowLevel/Endpoint.h **** 			 *  \return A value from the \ref Endpoint_Stream_RW_ErrorCodes_t enum.
 875:../lufa-LUFA/LUFA/Drivers/USB/Class/Device/../../HighLevel/../LowLevel/Endpoint.h **** 			 */
 876:../lufa-LUFA/LUFA/Drivers/USB/Class/Device/../../HighLevel/../LowLevel/Endpoint.h **** 			uint8_t Endpoint_Write_Stream_LE(const void* Buffer,
 877:../lufa-LUFA/LUFA/Drivers/USB/Class/Device/../../HighLevel/../LowLevel/Endpoint.h **** 			                                 uint16_t Length
 878:../lufa-LUFA/LUFA/Drivers/USB/Class/Device/../../HighLevel/../LowLevel/Endpoint.h **** 			                                 __CALLBACK_PARAM) ATTR_NON_NULL_PTR_ARG(1);
 879:../lufa-LUFA/LUFA/Drivers/USB/Class/Device/../../HighLevel/../LowLevel/Endpoint.h **** 
 880:../lufa-LUFA/LUFA/Drivers/USB/Class/Device/../../HighLevel/../LowLevel/Endpoint.h **** 			/** EEPROM buffer source version of \ref Endpoint_Write_Stream_LE().
 881:../lufa-LUFA/LUFA/Drivers/USB/Class/Device/../../HighLevel/../LowLevel/Endpoint.h **** 			 *
 882:../lufa-LUFA/LUFA/Drivers/USB/Class/Device/../../HighLevel/../LowLevel/Endpoint.h **** 			 *  \ingroup Group_EndpointStreamRW
 883:../lufa-LUFA/LUFA/Drivers/USB/Class/Device/../../HighLevel/../LowLevel/Endpoint.h **** 			 *
 884:../lufa-LUFA/LUFA/Drivers/USB/Class/Device/../../HighLevel/../LowLevel/Endpoint.h **** 			 *  \param[in] Buffer    Pointer to the source data buffer to read from.
 885:../lufa-LUFA/LUFA/Drivers/USB/Class/Device/../../HighLevel/../LowLevel/Endpoint.h **** 			 *  \param[in] Length    Number of bytes to read for the currently selected endpoint into the bu
 886:../lufa-LUFA/LUFA/Drivers/USB/Class/Device/../../HighLevel/../LowLevel/Endpoint.h **** 			 *  \param[in] Callback  Name of a callback routine to call between successive USB packet transf
 887:../lufa-LUFA/LUFA/Drivers/USB/Class/Device/../../HighLevel/../LowLevel/Endpoint.h **** 			 *
 888:../lufa-LUFA/LUFA/Drivers/USB/Class/Device/../../HighLevel/../LowLevel/Endpoint.h **** 			 *  \return A value from the \ref Endpoint_Stream_RW_ErrorCodes_t enum.
 889:../lufa-LUFA/LUFA/Drivers/USB/Class/Device/../../HighLevel/../LowLevel/Endpoint.h **** 			 */
 890:../lufa-LUFA/LUFA/Drivers/USB/Class/Device/../../HighLevel/../LowLevel/Endpoint.h **** 			uint8_t Endpoint_Write_EStream_LE(const void* Buffer,
 891:../lufa-LUFA/LUFA/Drivers/USB/Class/Device/../../HighLevel/../LowLevel/Endpoint.h **** 			                                  uint16_t Length
 892:../lufa-LUFA/LUFA/Drivers/USB/Class/Device/../../HighLevel/../LowLevel/Endpoint.h **** 			                                  __CALLBACK_PARAM) ATTR_NON_NULL_PTR_ARG(1);
 893:../lufa-LUFA/LUFA/Drivers/USB/Class/Device/../../HighLevel/../LowLevel/Endpoint.h **** 
 894:../lufa-LUFA/LUFA/Drivers/USB/Class/Device/../../HighLevel/../LowLevel/Endpoint.h **** 			/** FLASH buffer source version of \ref Endpoint_Write_Stream_LE().
 895:../lufa-LUFA/LUFA/Drivers/USB/Class/Device/../../HighLevel/../LowLevel/Endpoint.h **** 			 *
 896:../lufa-LUFA/LUFA/Drivers/USB/Class/Device/../../HighLevel/../LowLevel/Endpoint.h **** 			 *  \pre The FLASH data must be located in the first 64KB of FLASH for this function to work cor
 897:../lufa-LUFA/LUFA/Drivers/USB/Class/Device/../../HighLevel/../LowLevel/Endpoint.h **** 			 *
 898:../lufa-LUFA/LUFA/Drivers/USB/Class/Device/../../HighLevel/../LowLevel/Endpoint.h **** 			 *  \ingroup Group_EndpointStreamRW
 899:../lufa-LUFA/LUFA/Drivers/USB/Class/Device/../../HighLevel/../LowLevel/Endpoint.h **** 			 *
 900:../lufa-LUFA/LUFA/Drivers/USB/Class/Device/../../HighLevel/../LowLevel/Endpoint.h **** 			 *  \param[in] Buffer    Pointer to the source data buffer to read from.
 901:../lufa-LUFA/LUFA/Drivers/USB/Class/Device/../../HighLevel/../LowLevel/Endpoint.h **** 			 *  \param[in] Length    Number of bytes to read for the currently selected endpoint into the bu
 902:../lufa-LUFA/LUFA/Drivers/USB/Class/Device/../../HighLevel/../LowLevel/Endpoint.h **** 			 *  \param[in] Callback  Name of a callback routine to call between successive USB packet transf
 903:../lufa-LUFA/LUFA/Drivers/USB/Class/Device/../../HighLevel/../LowLevel/Endpoint.h **** 			 *
 904:../lufa-LUFA/LUFA/Drivers/USB/Class/Device/../../HighLevel/../LowLevel/Endpoint.h **** 			 *  \return A value from the \ref Endpoint_Stream_RW_ErrorCodes_t enum.
 905:../lufa-LUFA/LUFA/Drivers/USB/Class/Device/../../HighLevel/../LowLevel/Endpoint.h **** 			 */
 906:../lufa-LUFA/LUFA/Drivers/USB/Class/Device/../../HighLevel/../LowLevel/Endpoint.h **** 			uint8_t Endpoint_Write_PStream_LE(const void* Buffer,
 907:../lufa-LUFA/LUFA/Drivers/USB/Class/Device/../../HighLevel/../LowLevel/Endpoint.h **** 			                                  uint16_t Length
 908:../lufa-LUFA/LUFA/Drivers/USB/Class/Device/../../HighLevel/../LowLevel/Endpoint.h **** 			                                  __CALLBACK_PARAM) ATTR_NON_NULL_PTR_ARG(1);
 909:../lufa-LUFA/LUFA/Drivers/USB/Class/Device/../../HighLevel/../LowLevel/Endpoint.h **** 
 910:../lufa-LUFA/LUFA/Drivers/USB/Class/Device/../../HighLevel/../LowLevel/Endpoint.h **** 			/** Writes the given number of bytes to the endpoint from the given buffer in big endian,
 911:../lufa-LUFA/LUFA/Drivers/USB/Class/Device/../../HighLevel/../LowLevel/Endpoint.h **** 			 *  sending full packets to the host as needed. The last packet filled is not automatically sent
 912:../lufa-LUFA/LUFA/Drivers/USB/Class/Device/../../HighLevel/../LowLevel/Endpoint.h **** 			 *  the user is responsible for manually sending the last written packet to the host via the
 913:../lufa-LUFA/LUFA/Drivers/USB/Class/Device/../../HighLevel/../LowLevel/Endpoint.h **** 			 *  \ref Endpoint_ClearIN() macro. Between each USB packet, the given stream callback function
 914:../lufa-LUFA/LUFA/Drivers/USB/Class/Device/../../HighLevel/../LowLevel/Endpoint.h **** 			 *  is executed repeatedly until the endpoint is ready to accept the next packet, allowing for e
 915:../lufa-LUFA/LUFA/Drivers/USB/Class/Device/../../HighLevel/../LowLevel/Endpoint.h **** 			 *  aborts of stream transfers.
 916:../lufa-LUFA/LUFA/Drivers/USB/Class/Device/../../HighLevel/../LowLevel/Endpoint.h **** 			 *
 917:../lufa-LUFA/LUFA/Drivers/USB/Class/Device/../../HighLevel/../LowLevel/Endpoint.h **** 			 *	The callback routine should be created according to the information in \ref Group_StreamCallb
 918:../lufa-LUFA/LUFA/Drivers/USB/Class/Device/../../HighLevel/../LowLevel/Endpoint.h **** 			 *  If the token NO_STREAM_CALLBACKS is passed via the -D option to the compiler, stream callbac
 919:../lufa-LUFA/LUFA/Drivers/USB/Class/Device/../../HighLevel/../LowLevel/Endpoint.h **** 			 *  disabled and this function has the Callback parameter omitted.
 920:../lufa-LUFA/LUFA/Drivers/USB/Class/Device/../../HighLevel/../LowLevel/Endpoint.h **** 			 *
 921:../lufa-LUFA/LUFA/Drivers/USB/Class/Device/../../HighLevel/../LowLevel/Endpoint.h **** 			 *  \note This routine should not be used on CONTROL type endpoints.
 922:../lufa-LUFA/LUFA/Drivers/USB/Class/Device/../../HighLevel/../LowLevel/Endpoint.h **** 			 *
 923:../lufa-LUFA/LUFA/Drivers/USB/Class/Device/../../HighLevel/../LowLevel/Endpoint.h **** 			 *  \ingroup Group_EndpointStreamRW
 924:../lufa-LUFA/LUFA/Drivers/USB/Class/Device/../../HighLevel/../LowLevel/Endpoint.h **** 			 *
 925:../lufa-LUFA/LUFA/Drivers/USB/Class/Device/../../HighLevel/../LowLevel/Endpoint.h **** 			 *  \param[in] Buffer    Pointer to the source data buffer to read from.
 926:../lufa-LUFA/LUFA/Drivers/USB/Class/Device/../../HighLevel/../LowLevel/Endpoint.h **** 			 *  \param[in] Length    Number of bytes to read for the currently selected endpoint into the bu
 927:../lufa-LUFA/LUFA/Drivers/USB/Class/Device/../../HighLevel/../LowLevel/Endpoint.h **** 			 *  \param[in] Callback  Name of a callback routine to call between successive USB packet transf
 928:../lufa-LUFA/LUFA/Drivers/USB/Class/Device/../../HighLevel/../LowLevel/Endpoint.h **** 			 *
 929:../lufa-LUFA/LUFA/Drivers/USB/Class/Device/../../HighLevel/../LowLevel/Endpoint.h **** 			 *  \return A value from the \ref Endpoint_Stream_RW_ErrorCodes_t enum.
 930:../lufa-LUFA/LUFA/Drivers/USB/Class/Device/../../HighLevel/../LowLevel/Endpoint.h **** 			 */
 931:../lufa-LUFA/LUFA/Drivers/USB/Class/Device/../../HighLevel/../LowLevel/Endpoint.h **** 			uint8_t Endpoint_Write_Stream_BE(const void* Buffer,
 932:../lufa-LUFA/LUFA/Drivers/USB/Class/Device/../../HighLevel/../LowLevel/Endpoint.h **** 			                                 uint16_t Length
 933:../lufa-LUFA/LUFA/Drivers/USB/Class/Device/../../HighLevel/../LowLevel/Endpoint.h **** 			                                 __CALLBACK_PARAM) ATTR_NON_NULL_PTR_ARG(1);
 934:../lufa-LUFA/LUFA/Drivers/USB/Class/Device/../../HighLevel/../LowLevel/Endpoint.h **** 
 935:../lufa-LUFA/LUFA/Drivers/USB/Class/Device/../../HighLevel/../LowLevel/Endpoint.h **** 			/** EEPROM buffer source version of \ref Endpoint_Write_Stream_BE().
 936:../lufa-LUFA/LUFA/Drivers/USB/Class/Device/../../HighLevel/../LowLevel/Endpoint.h **** 			 *
 937:../lufa-LUFA/LUFA/Drivers/USB/Class/Device/../../HighLevel/../LowLevel/Endpoint.h **** 			 *  \ingroup Group_EndpointStreamRW
 938:../lufa-LUFA/LUFA/Drivers/USB/Class/Device/../../HighLevel/../LowLevel/Endpoint.h **** 			 *
 939:../lufa-LUFA/LUFA/Drivers/USB/Class/Device/../../HighLevel/../LowLevel/Endpoint.h **** 			 *  \param[in] Buffer    Pointer to the source data buffer to read from.
 940:../lufa-LUFA/LUFA/Drivers/USB/Class/Device/../../HighLevel/../LowLevel/Endpoint.h **** 			 *  \param[in] Length    Number of bytes to read for the currently selected endpoint into the bu
 941:../lufa-LUFA/LUFA/Drivers/USB/Class/Device/../../HighLevel/../LowLevel/Endpoint.h **** 			 *  \param[in] Callback  Name of a callback routine to call between successive USB packet transf
 942:../lufa-LUFA/LUFA/Drivers/USB/Class/Device/../../HighLevel/../LowLevel/Endpoint.h **** 			 *
 943:../lufa-LUFA/LUFA/Drivers/USB/Class/Device/../../HighLevel/../LowLevel/Endpoint.h **** 			 *  \return A value from the \ref Endpoint_Stream_RW_ErrorCodes_t enum.
 944:../lufa-LUFA/LUFA/Drivers/USB/Class/Device/../../HighLevel/../LowLevel/Endpoint.h **** 			 */
 945:../lufa-LUFA/LUFA/Drivers/USB/Class/Device/../../HighLevel/../LowLevel/Endpoint.h **** 			uint8_t Endpoint_Write_EStream_BE(const void* Buffer,
 946:../lufa-LUFA/LUFA/Drivers/USB/Class/Device/../../HighLevel/../LowLevel/Endpoint.h **** 			                                  uint16_t Length
 947:../lufa-LUFA/LUFA/Drivers/USB/Class/Device/../../HighLevel/../LowLevel/Endpoint.h **** 			                                  __CALLBACK_PARAM) ATTR_NON_NULL_PTR_ARG(1);
 948:../lufa-LUFA/LUFA/Drivers/USB/Class/Device/../../HighLevel/../LowLevel/Endpoint.h **** 
 949:../lufa-LUFA/LUFA/Drivers/USB/Class/Device/../../HighLevel/../LowLevel/Endpoint.h **** 			/** FLASH buffer source version of \ref Endpoint_Write_Stream_BE().
 950:../lufa-LUFA/LUFA/Drivers/USB/Class/Device/../../HighLevel/../LowLevel/Endpoint.h **** 			 *
 951:../lufa-LUFA/LUFA/Drivers/USB/Class/Device/../../HighLevel/../LowLevel/Endpoint.h **** 			 *  \pre The FLASH data must be located in the first 64KB of FLASH for this function to work cor
 952:../lufa-LUFA/LUFA/Drivers/USB/Class/Device/../../HighLevel/../LowLevel/Endpoint.h **** 			 *
 953:../lufa-LUFA/LUFA/Drivers/USB/Class/Device/../../HighLevel/../LowLevel/Endpoint.h **** 			 *  \ingroup Group_EndpointStreamRW
 954:../lufa-LUFA/LUFA/Drivers/USB/Class/Device/../../HighLevel/../LowLevel/Endpoint.h **** 			 *
 955:../lufa-LUFA/LUFA/Drivers/USB/Class/Device/../../HighLevel/../LowLevel/Endpoint.h **** 			 *  \param[in] Buffer    Pointer to the source data buffer to read from.
 956:../lufa-LUFA/LUFA/Drivers/USB/Class/Device/../../HighLevel/../LowLevel/Endpoint.h **** 			 *  \param[in] Length    Number of bytes to read for the currently selected endpoint into the bu
 957:../lufa-LUFA/LUFA/Drivers/USB/Class/Device/../../HighLevel/../LowLevel/Endpoint.h **** 			 *  \param[in] Callback  Name of a callback routine to call between successive USB packet transf
 958:../lufa-LUFA/LUFA/Drivers/USB/Class/Device/../../HighLevel/../LowLevel/Endpoint.h **** 			 *
 959:../lufa-LUFA/LUFA/Drivers/USB/Class/Device/../../HighLevel/../LowLevel/Endpoint.h **** 			 *  \return A value from the \ref Endpoint_Stream_RW_ErrorCodes_t enum.
 960:../lufa-LUFA/LUFA/Drivers/USB/Class/Device/../../HighLevel/../LowLevel/Endpoint.h **** 			 */
 961:../lufa-LUFA/LUFA/Drivers/USB/Class/Device/../../HighLevel/../LowLevel/Endpoint.h **** 			uint8_t Endpoint_Write_PStream_BE(const void* Buffer,
 962:../lufa-LUFA/LUFA/Drivers/USB/Class/Device/../../HighLevel/../LowLevel/Endpoint.h **** 			                                  uint16_t Length
 963:../lufa-LUFA/LUFA/Drivers/USB/Class/Device/../../HighLevel/../LowLevel/Endpoint.h **** 			                                  __CALLBACK_PARAM) ATTR_NON_NULL_PTR_ARG(1);
 964:../lufa-LUFA/LUFA/Drivers/USB/Class/Device/../../HighLevel/../LowLevel/Endpoint.h **** 
 965:../lufa-LUFA/LUFA/Drivers/USB/Class/Device/../../HighLevel/../LowLevel/Endpoint.h **** 			/** Reads the given number of bytes from the endpoint from the given buffer in little endian,
 966:../lufa-LUFA/LUFA/Drivers/USB/Class/Device/../../HighLevel/../LowLevel/Endpoint.h **** 			 *  discarding fully read packets from the host as needed. The last packet is not automatically
 967:../lufa-LUFA/LUFA/Drivers/USB/Class/Device/../../HighLevel/../LowLevel/Endpoint.h **** 			 *  discarded once the remaining bytes has been read; the user is responsible for manually
 968:../lufa-LUFA/LUFA/Drivers/USB/Class/Device/../../HighLevel/../LowLevel/Endpoint.h **** 			 *  discarding the last packet from the host via the \ref Endpoint_ClearOUT() macro. Between
 969:../lufa-LUFA/LUFA/Drivers/USB/Class/Device/../../HighLevel/../LowLevel/Endpoint.h **** 			 *  each USB packet, the given stream callback function is executed repeatedly until the endpoin
 970:../lufa-LUFA/LUFA/Drivers/USB/Class/Device/../../HighLevel/../LowLevel/Endpoint.h **** 			 *  is ready to accept the next packet, allowing for early aborts of stream transfers.
 971:../lufa-LUFA/LUFA/Drivers/USB/Class/Device/../../HighLevel/../LowLevel/Endpoint.h **** 			 *
 972:../lufa-LUFA/LUFA/Drivers/USB/Class/Device/../../HighLevel/../LowLevel/Endpoint.h **** 			 *	The callback routine should be created according to the information in \ref Group_StreamCallb
 973:../lufa-LUFA/LUFA/Drivers/USB/Class/Device/../../HighLevel/../LowLevel/Endpoint.h **** 			 *  If the token NO_STREAM_CALLBACKS is passed via the -D option to the compiler, stream callbac
 974:../lufa-LUFA/LUFA/Drivers/USB/Class/Device/../../HighLevel/../LowLevel/Endpoint.h **** 			 *  disabled and this function has the Callback parameter omitted.
 975:../lufa-LUFA/LUFA/Drivers/USB/Class/Device/../../HighLevel/../LowLevel/Endpoint.h **** 			 *
 976:../lufa-LUFA/LUFA/Drivers/USB/Class/Device/../../HighLevel/../LowLevel/Endpoint.h **** 			 *  \note This routine should not be used on CONTROL type endpoints.
 977:../lufa-LUFA/LUFA/Drivers/USB/Class/Device/../../HighLevel/../LowLevel/Endpoint.h **** 			 *
 978:../lufa-LUFA/LUFA/Drivers/USB/Class/Device/../../HighLevel/../LowLevel/Endpoint.h **** 			 *  \ingroup Group_EndpointStreamRW
 979:../lufa-LUFA/LUFA/Drivers/USB/Class/Device/../../HighLevel/../LowLevel/Endpoint.h **** 			 *
 980:../lufa-LUFA/LUFA/Drivers/USB/Class/Device/../../HighLevel/../LowLevel/Endpoint.h **** 			 *  \param[out] Buffer    Pointer to the destination data buffer to write to.
 981:../lufa-LUFA/LUFA/Drivers/USB/Class/Device/../../HighLevel/../LowLevel/Endpoint.h **** 			 *  \param[in]  Length    Number of bytes to send via the currently selected endpoint.
 982:../lufa-LUFA/LUFA/Drivers/USB/Class/Device/../../HighLevel/../LowLevel/Endpoint.h **** 			 *  \param[in]  Callback  Name of a callback routine to call between successive USB packet trans
 983:../lufa-LUFA/LUFA/Drivers/USB/Class/Device/../../HighLevel/../LowLevel/Endpoint.h **** 			 *
 984:../lufa-LUFA/LUFA/Drivers/USB/Class/Device/../../HighLevel/../LowLevel/Endpoint.h **** 			 *  \return A value from the \ref Endpoint_Stream_RW_ErrorCodes_t enum.
 985:../lufa-LUFA/LUFA/Drivers/USB/Class/Device/../../HighLevel/../LowLevel/Endpoint.h **** 			 */
 986:../lufa-LUFA/LUFA/Drivers/USB/Class/Device/../../HighLevel/../LowLevel/Endpoint.h **** 			uint8_t Endpoint_Read_Stream_LE(void* Buffer,
 987:../lufa-LUFA/LUFA/Drivers/USB/Class/Device/../../HighLevel/../LowLevel/Endpoint.h **** 			                                uint16_t Length
 988:../lufa-LUFA/LUFA/Drivers/USB/Class/Device/../../HighLevel/../LowLevel/Endpoint.h **** 			                                __CALLBACK_PARAM) ATTR_NON_NULL_PTR_ARG(1);
 989:../lufa-LUFA/LUFA/Drivers/USB/Class/Device/../../HighLevel/../LowLevel/Endpoint.h **** 
 990:../lufa-LUFA/LUFA/Drivers/USB/Class/Device/../../HighLevel/../LowLevel/Endpoint.h **** 			/** EEPROM buffer source version of \ref Endpoint_Read_Stream_LE().
 991:../lufa-LUFA/LUFA/Drivers/USB/Class/Device/../../HighLevel/../LowLevel/Endpoint.h **** 			 *
 992:../lufa-LUFA/LUFA/Drivers/USB/Class/Device/../../HighLevel/../LowLevel/Endpoint.h **** 			 *  \ingroup Group_EndpointStreamRW
 993:../lufa-LUFA/LUFA/Drivers/USB/Class/Device/../../HighLevel/../LowLevel/Endpoint.h **** 			 *
 994:../lufa-LUFA/LUFA/Drivers/USB/Class/Device/../../HighLevel/../LowLevel/Endpoint.h **** 			 *  \param[out] Buffer    Pointer to the destination data buffer to write to, located in EEPROM 
 995:../lufa-LUFA/LUFA/Drivers/USB/Class/Device/../../HighLevel/../LowLevel/Endpoint.h **** 			 *  \param[in]  Length    Number of bytes to send via the currently selected endpoint.
 996:../lufa-LUFA/LUFA/Drivers/USB/Class/Device/../../HighLevel/../LowLevel/Endpoint.h **** 			 *  \param[in]  Callback  Name of a callback routine to call between successive USB packet trans
 997:../lufa-LUFA/LUFA/Drivers/USB/Class/Device/../../HighLevel/../LowLevel/Endpoint.h **** 			 *
 998:../lufa-LUFA/LUFA/Drivers/USB/Class/Device/../../HighLevel/../LowLevel/Endpoint.h **** 			 *  \return A value from the \ref Endpoint_Stream_RW_ErrorCodes_t enum.
 999:../lufa-LUFA/LUFA/Drivers/USB/Class/Device/../../HighLevel/../LowLevel/Endpoint.h **** 			 */
1000:../lufa-LUFA/LUFA/Drivers/USB/Class/Device/../../HighLevel/../LowLevel/Endpoint.h **** 			uint8_t Endpoint_Read_EStream_LE(void* Buffer,
1001:../lufa-LUFA/LUFA/Drivers/USB/Class/Device/../../HighLevel/../LowLevel/Endpoint.h **** 			                                 uint16_t Length
1002:../lufa-LUFA/LUFA/Drivers/USB/Class/Device/../../HighLevel/../LowLevel/Endpoint.h **** 			                                 __CALLBACK_PARAM) ATTR_NON_NULL_PTR_ARG(1);
1003:../lufa-LUFA/LUFA/Drivers/USB/Class/Device/../../HighLevel/../LowLevel/Endpoint.h **** 			
1004:../lufa-LUFA/LUFA/Drivers/USB/Class/Device/../../HighLevel/../LowLevel/Endpoint.h **** 			/** Reads the given number of bytes from the endpoint from the given buffer in big endian,
1005:../lufa-LUFA/LUFA/Drivers/USB/Class/Device/../../HighLevel/../LowLevel/Endpoint.h **** 			 *  discarding fully read packets from the host as needed. The last packet is not automatically
1006:../lufa-LUFA/LUFA/Drivers/USB/Class/Device/../../HighLevel/../LowLevel/Endpoint.h **** 			 *  discarded once the remaining bytes has been read; the user is responsible for manually
1007:../lufa-LUFA/LUFA/Drivers/USB/Class/Device/../../HighLevel/../LowLevel/Endpoint.h **** 			 *  discarding the last packet from the host via the \ref Endpoint_ClearOUT() macro. Between
1008:../lufa-LUFA/LUFA/Drivers/USB/Class/Device/../../HighLevel/../LowLevel/Endpoint.h **** 			 *  each USB packet, the given stream callback function is executed repeatedly until the endpoin
1009:../lufa-LUFA/LUFA/Drivers/USB/Class/Device/../../HighLevel/../LowLevel/Endpoint.h **** 			 *  is ready to accept the next packet, allowing for early aborts of stream transfers.
1010:../lufa-LUFA/LUFA/Drivers/USB/Class/Device/../../HighLevel/../LowLevel/Endpoint.h **** 			 *
1011:../lufa-LUFA/LUFA/Drivers/USB/Class/Device/../../HighLevel/../LowLevel/Endpoint.h **** 			 *	The callback routine should be created according to the information in \ref Group_StreamCallb
1012:../lufa-LUFA/LUFA/Drivers/USB/Class/Device/../../HighLevel/../LowLevel/Endpoint.h **** 			 *  If the token NO_STREAM_CALLBACKS is passed via the -D option to the compiler, stream callbac
1013:../lufa-LUFA/LUFA/Drivers/USB/Class/Device/../../HighLevel/../LowLevel/Endpoint.h **** 			 *  disabled and this function has the Callback parameter omitted.
1014:../lufa-LUFA/LUFA/Drivers/USB/Class/Device/../../HighLevel/../LowLevel/Endpoint.h **** 			 *
1015:../lufa-LUFA/LUFA/Drivers/USB/Class/Device/../../HighLevel/../LowLevel/Endpoint.h **** 			 *  \note This routine should not be used on CONTROL type endpoints.
1016:../lufa-LUFA/LUFA/Drivers/USB/Class/Device/../../HighLevel/../LowLevel/Endpoint.h **** 			 *
1017:../lufa-LUFA/LUFA/Drivers/USB/Class/Device/../../HighLevel/../LowLevel/Endpoint.h **** 			 *  \ingroup Group_EndpointStreamRW
1018:../lufa-LUFA/LUFA/Drivers/USB/Class/Device/../../HighLevel/../LowLevel/Endpoint.h **** 			 *
1019:../lufa-LUFA/LUFA/Drivers/USB/Class/Device/../../HighLevel/../LowLevel/Endpoint.h **** 			 *  \param[out] Buffer    Pointer to the destination data buffer to write to.
1020:../lufa-LUFA/LUFA/Drivers/USB/Class/Device/../../HighLevel/../LowLevel/Endpoint.h **** 			 *  \param[in]  Length    Number of bytes to send via the currently selected endpoint.
1021:../lufa-LUFA/LUFA/Drivers/USB/Class/Device/../../HighLevel/../LowLevel/Endpoint.h **** 			 *  \param[in]  Callback  Name of a callback routine to call between successive USB packet trans
1022:../lufa-LUFA/LUFA/Drivers/USB/Class/Device/../../HighLevel/../LowLevel/Endpoint.h **** 			 *
1023:../lufa-LUFA/LUFA/Drivers/USB/Class/Device/../../HighLevel/../LowLevel/Endpoint.h **** 			 *  \return A value from the \ref Endpoint_Stream_RW_ErrorCodes_t enum.
1024:../lufa-LUFA/LUFA/Drivers/USB/Class/Device/../../HighLevel/../LowLevel/Endpoint.h **** 			 */
1025:../lufa-LUFA/LUFA/Drivers/USB/Class/Device/../../HighLevel/../LowLevel/Endpoint.h **** 			uint8_t Endpoint_Read_Stream_BE(void* Buffer,
1026:../lufa-LUFA/LUFA/Drivers/USB/Class/Device/../../HighLevel/../LowLevel/Endpoint.h **** 			                                uint16_t Length
1027:../lufa-LUFA/LUFA/Drivers/USB/Class/Device/../../HighLevel/../LowLevel/Endpoint.h **** 			                                __CALLBACK_PARAM) ATTR_NON_NULL_PTR_ARG(1);
1028:../lufa-LUFA/LUFA/Drivers/USB/Class/Device/../../HighLevel/../LowLevel/Endpoint.h **** 
1029:../lufa-LUFA/LUFA/Drivers/USB/Class/Device/../../HighLevel/../LowLevel/Endpoint.h **** 			/** EEPROM buffer source version of \ref Endpoint_Read_Stream_BE().
1030:../lufa-LUFA/LUFA/Drivers/USB/Class/Device/../../HighLevel/../LowLevel/Endpoint.h **** 			 *
1031:../lufa-LUFA/LUFA/Drivers/USB/Class/Device/../../HighLevel/../LowLevel/Endpoint.h **** 			 *  \ingroup Group_EndpointStreamRW
1032:../lufa-LUFA/LUFA/Drivers/USB/Class/Device/../../HighLevel/../LowLevel/Endpoint.h **** 			 *
1033:../lufa-LUFA/LUFA/Drivers/USB/Class/Device/../../HighLevel/../LowLevel/Endpoint.h **** 			 *  \param[out] Buffer    Pointer to the destination data buffer to write to, located in EEPROM 
1034:../lufa-LUFA/LUFA/Drivers/USB/Class/Device/../../HighLevel/../LowLevel/Endpoint.h **** 			 *  \param[in]  Length    Number of bytes to send via the currently selected endpoint.
1035:../lufa-LUFA/LUFA/Drivers/USB/Class/Device/../../HighLevel/../LowLevel/Endpoint.h **** 			 *  \param[in]  Callback  Name of a callback routine to call between successive USB packet trans
1036:../lufa-LUFA/LUFA/Drivers/USB/Class/Device/../../HighLevel/../LowLevel/Endpoint.h **** 			 *
1037:../lufa-LUFA/LUFA/Drivers/USB/Class/Device/../../HighLevel/../LowLevel/Endpoint.h **** 			 *  \return A value from the \ref Endpoint_Stream_RW_ErrorCodes_t enum.
1038:../lufa-LUFA/LUFA/Drivers/USB/Class/Device/../../HighLevel/../LowLevel/Endpoint.h **** 			 */
1039:../lufa-LUFA/LUFA/Drivers/USB/Class/Device/../../HighLevel/../LowLevel/Endpoint.h **** 			uint8_t Endpoint_Read_EStream_BE(void* Buffer,
1040:../lufa-LUFA/LUFA/Drivers/USB/Class/Device/../../HighLevel/../LowLevel/Endpoint.h **** 			                                 uint16_t Length
1041:../lufa-LUFA/LUFA/Drivers/USB/Class/Device/../../HighLevel/../LowLevel/Endpoint.h **** 			                                 __CALLBACK_PARAM) ATTR_NON_NULL_PTR_ARG(1);
1042:../lufa-LUFA/LUFA/Drivers/USB/Class/Device/../../HighLevel/../LowLevel/Endpoint.h **** 
1043:../lufa-LUFA/LUFA/Drivers/USB/Class/Device/../../HighLevel/../LowLevel/Endpoint.h **** 			/** Writes the given number of bytes to the CONTROL type endpoint from the given buffer in littl
1044:../lufa-LUFA/LUFA/Drivers/USB/Class/Device/../../HighLevel/../LowLevel/Endpoint.h **** 			 *  sending full packets to the host as needed. The host OUT acknowledgement is not automaticall
1045:../lufa-LUFA/LUFA/Drivers/USB/Class/Device/../../HighLevel/../LowLevel/Endpoint.h **** 			 *  in both failure and success states; the user is responsible for manually clearing the setup 
1046:../lufa-LUFA/LUFA/Drivers/USB/Class/Device/../../HighLevel/../LowLevel/Endpoint.h **** 			 *  finalize the transfer via the \ref Endpoint_ClearOUT() macro.
1047:../lufa-LUFA/LUFA/Drivers/USB/Class/Device/../../HighLevel/../LowLevel/Endpoint.h **** 			 *
1048:../lufa-LUFA/LUFA/Drivers/USB/Class/Device/../../HighLevel/../LowLevel/Endpoint.h **** 			 *  \note This function automatically clears the control transfer's status stage. Do not manuall
1049:../lufa-LUFA/LUFA/Drivers/USB/Class/Device/../../HighLevel/../LowLevel/Endpoint.h **** 			 *        to clear the status stage when using this routine in a control transaction.
1050:../lufa-LUFA/LUFA/Drivers/USB/Class/Device/../../HighLevel/../LowLevel/Endpoint.h **** 			 *        \n\n
1051:../lufa-LUFA/LUFA/Drivers/USB/Class/Device/../../HighLevel/../LowLevel/Endpoint.h **** 			 *
1052:../lufa-LUFA/LUFA/Drivers/USB/Class/Device/../../HighLevel/../LowLevel/Endpoint.h **** 			 *  \note This routine should only be used on CONTROL type endpoints.
1053:../lufa-LUFA/LUFA/Drivers/USB/Class/Device/../../HighLevel/../LowLevel/Endpoint.h **** 			 *
1054:../lufa-LUFA/LUFA/Drivers/USB/Class/Device/../../HighLevel/../LowLevel/Endpoint.h **** 			 *  \warning Unlike the standard stream read/write commands, the control stream commands cannot 
1055:../lufa-LUFA/LUFA/Drivers/USB/Class/Device/../../HighLevel/../LowLevel/Endpoint.h **** 			 *           together; i.e. the entire stream data must be read or written at the one time.
1056:../lufa-LUFA/LUFA/Drivers/USB/Class/Device/../../HighLevel/../LowLevel/Endpoint.h **** 			 *
1057:../lufa-LUFA/LUFA/Drivers/USB/Class/Device/../../HighLevel/../LowLevel/Endpoint.h **** 			 *  \ingroup Group_EndpointStreamRW
1058:../lufa-LUFA/LUFA/Drivers/USB/Class/Device/../../HighLevel/../LowLevel/Endpoint.h **** 			 *
1059:../lufa-LUFA/LUFA/Drivers/USB/Class/Device/../../HighLevel/../LowLevel/Endpoint.h **** 			 *  \param[in] Buffer  Pointer to the source data buffer to read from.
1060:../lufa-LUFA/LUFA/Drivers/USB/Class/Device/../../HighLevel/../LowLevel/Endpoint.h **** 			 *  \param[in] Length  Number of bytes to read for the currently selected endpoint into the buff
1061:../lufa-LUFA/LUFA/Drivers/USB/Class/Device/../../HighLevel/../LowLevel/Endpoint.h **** 			 *
1062:../lufa-LUFA/LUFA/Drivers/USB/Class/Device/../../HighLevel/../LowLevel/Endpoint.h **** 			 *  \return A value from the \ref Endpoint_ControlStream_RW_ErrorCodes_t enum.
1063:../lufa-LUFA/LUFA/Drivers/USB/Class/Device/../../HighLevel/../LowLevel/Endpoint.h **** 			 */
1064:../lufa-LUFA/LUFA/Drivers/USB/Class/Device/../../HighLevel/../LowLevel/Endpoint.h **** 			uint8_t Endpoint_Write_Control_Stream_LE(const void* Buffer,
1065:../lufa-LUFA/LUFA/Drivers/USB/Class/Device/../../HighLevel/../LowLevel/Endpoint.h **** 			                                         uint16_t Length) ATTR_NON_NULL_PTR_ARG(1);
1066:../lufa-LUFA/LUFA/Drivers/USB/Class/Device/../../HighLevel/../LowLevel/Endpoint.h **** 
1067:../lufa-LUFA/LUFA/Drivers/USB/Class/Device/../../HighLevel/../LowLevel/Endpoint.h **** 			/** EEPROM buffer source version of Endpoint_Write_Control_Stream_LE.
1068:../lufa-LUFA/LUFA/Drivers/USB/Class/Device/../../HighLevel/../LowLevel/Endpoint.h **** 			 *
1069:../lufa-LUFA/LUFA/Drivers/USB/Class/Device/../../HighLevel/../LowLevel/Endpoint.h **** 			 *  \note This function automatically clears the control transfer's status stage. Do not manuall
1070:../lufa-LUFA/LUFA/Drivers/USB/Class/Device/../../HighLevel/../LowLevel/Endpoint.h **** 			 *        to clear the status stage when using this routine in a control transaction.
1071:../lufa-LUFA/LUFA/Drivers/USB/Class/Device/../../HighLevel/../LowLevel/Endpoint.h **** 			 *        \n\n
1072:../lufa-LUFA/LUFA/Drivers/USB/Class/Device/../../HighLevel/../LowLevel/Endpoint.h **** 			 *
1073:../lufa-LUFA/LUFA/Drivers/USB/Class/Device/../../HighLevel/../LowLevel/Endpoint.h **** 			 *  \note This routine should only be used on CONTROL type endpoints.
1074:../lufa-LUFA/LUFA/Drivers/USB/Class/Device/../../HighLevel/../LowLevel/Endpoint.h **** 			 *
1075:../lufa-LUFA/LUFA/Drivers/USB/Class/Device/../../HighLevel/../LowLevel/Endpoint.h **** 			 *  \warning Unlike the standard stream read/write commands, the control stream commands cannot 
1076:../lufa-LUFA/LUFA/Drivers/USB/Class/Device/../../HighLevel/../LowLevel/Endpoint.h **** 			 *           together; i.e. the entire stream data must be read or written at the one time.
1077:../lufa-LUFA/LUFA/Drivers/USB/Class/Device/../../HighLevel/../LowLevel/Endpoint.h **** 			 *
1078:../lufa-LUFA/LUFA/Drivers/USB/Class/Device/../../HighLevel/../LowLevel/Endpoint.h **** 			 *  \ingroup Group_EndpointStreamRW
1079:../lufa-LUFA/LUFA/Drivers/USB/Class/Device/../../HighLevel/../LowLevel/Endpoint.h **** 			 *
1080:../lufa-LUFA/LUFA/Drivers/USB/Class/Device/../../HighLevel/../LowLevel/Endpoint.h **** 			 *  \param[in] Buffer  Pointer to the source data buffer to read from.
1081:../lufa-LUFA/LUFA/Drivers/USB/Class/Device/../../HighLevel/../LowLevel/Endpoint.h **** 			 *  \param[in] Length  Number of bytes to read for the currently selected endpoint into the buff
1082:../lufa-LUFA/LUFA/Drivers/USB/Class/Device/../../HighLevel/../LowLevel/Endpoint.h **** 			 *
1083:../lufa-LUFA/LUFA/Drivers/USB/Class/Device/../../HighLevel/../LowLevel/Endpoint.h **** 			 *  \return A value from the \ref Endpoint_ControlStream_RW_ErrorCodes_t enum.
1084:../lufa-LUFA/LUFA/Drivers/USB/Class/Device/../../HighLevel/../LowLevel/Endpoint.h **** 			 */
1085:../lufa-LUFA/LUFA/Drivers/USB/Class/Device/../../HighLevel/../LowLevel/Endpoint.h **** 			uint8_t Endpoint_Write_Control_EStream_LE(const void* Buffer,
1086:../lufa-LUFA/LUFA/Drivers/USB/Class/Device/../../HighLevel/../LowLevel/Endpoint.h **** 			                                          uint16_t Length) ATTR_NON_NULL_PTR_ARG(1);
1087:../lufa-LUFA/LUFA/Drivers/USB/Class/Device/../../HighLevel/../LowLevel/Endpoint.h **** 
1088:../lufa-LUFA/LUFA/Drivers/USB/Class/Device/../../HighLevel/../LowLevel/Endpoint.h **** 			/** FLASH buffer source version of \ref Endpoint_Write_Control_Stream_LE().
1089:../lufa-LUFA/LUFA/Drivers/USB/Class/Device/../../HighLevel/../LowLevel/Endpoint.h **** 			 *
1090:../lufa-LUFA/LUFA/Drivers/USB/Class/Device/../../HighLevel/../LowLevel/Endpoint.h **** 			 *  \pre The FLASH data must be located in the first 64KB of FLASH for this function to work cor
1091:../lufa-LUFA/LUFA/Drivers/USB/Class/Device/../../HighLevel/../LowLevel/Endpoint.h **** 			 *
1092:../lufa-LUFA/LUFA/Drivers/USB/Class/Device/../../HighLevel/../LowLevel/Endpoint.h **** 			 *  \note This function automatically clears the control transfer's status stage. Do not manuall
1093:../lufa-LUFA/LUFA/Drivers/USB/Class/Device/../../HighLevel/../LowLevel/Endpoint.h **** 			 *        to clear the status stage when using this routine in a control transaction.
1094:../lufa-LUFA/LUFA/Drivers/USB/Class/Device/../../HighLevel/../LowLevel/Endpoint.h **** 			 *        \n\n
1095:../lufa-LUFA/LUFA/Drivers/USB/Class/Device/../../HighLevel/../LowLevel/Endpoint.h **** 			 *
1096:../lufa-LUFA/LUFA/Drivers/USB/Class/Device/../../HighLevel/../LowLevel/Endpoint.h **** 			 *  \note This routine should only be used on CONTROL type endpoints.
1097:../lufa-LUFA/LUFA/Drivers/USB/Class/Device/../../HighLevel/../LowLevel/Endpoint.h **** 			 *
1098:../lufa-LUFA/LUFA/Drivers/USB/Class/Device/../../HighLevel/../LowLevel/Endpoint.h **** 			 *  \warning Unlike the standard stream read/write commands, the control stream commands cannot 
1099:../lufa-LUFA/LUFA/Drivers/USB/Class/Device/../../HighLevel/../LowLevel/Endpoint.h **** 			 *           together; i.e. the entire stream data must be read or written at the one time.
1100:../lufa-LUFA/LUFA/Drivers/USB/Class/Device/../../HighLevel/../LowLevel/Endpoint.h **** 			 *
1101:../lufa-LUFA/LUFA/Drivers/USB/Class/Device/../../HighLevel/../LowLevel/Endpoint.h **** 			 *  \ingroup Group_EndpointStreamRW
1102:../lufa-LUFA/LUFA/Drivers/USB/Class/Device/../../HighLevel/../LowLevel/Endpoint.h **** 			 *
1103:../lufa-LUFA/LUFA/Drivers/USB/Class/Device/../../HighLevel/../LowLevel/Endpoint.h **** 			 *  \param[in] Buffer  Pointer to the source data buffer to read from.
1104:../lufa-LUFA/LUFA/Drivers/USB/Class/Device/../../HighLevel/../LowLevel/Endpoint.h **** 			 *  \param[in] Length  Number of bytes to read for the currently selected endpoint into the buff
1105:../lufa-LUFA/LUFA/Drivers/USB/Class/Device/../../HighLevel/../LowLevel/Endpoint.h **** 			 *
1106:../lufa-LUFA/LUFA/Drivers/USB/Class/Device/../../HighLevel/../LowLevel/Endpoint.h **** 			 *  \return A value from the \ref Endpoint_ControlStream_RW_ErrorCodes_t enum.
1107:../lufa-LUFA/LUFA/Drivers/USB/Class/Device/../../HighLevel/../LowLevel/Endpoint.h **** 			 */
1108:../lufa-LUFA/LUFA/Drivers/USB/Class/Device/../../HighLevel/../LowLevel/Endpoint.h **** 			uint8_t Endpoint_Write_Control_PStream_LE(const void* Buffer,
1109:../lufa-LUFA/LUFA/Drivers/USB/Class/Device/../../HighLevel/../LowLevel/Endpoint.h **** 			                                          uint16_t Length) ATTR_NON_NULL_PTR_ARG(1);
1110:../lufa-LUFA/LUFA/Drivers/USB/Class/Device/../../HighLevel/../LowLevel/Endpoint.h **** 
1111:../lufa-LUFA/LUFA/Drivers/USB/Class/Device/../../HighLevel/../LowLevel/Endpoint.h **** 			/** Writes the given number of bytes to the CONTROL type endpoint from the given buffer in big e
1112:../lufa-LUFA/LUFA/Drivers/USB/Class/Device/../../HighLevel/../LowLevel/Endpoint.h **** 			 *  sending full packets to the host as needed. The host OUT acknowledgement is not automaticall
1113:../lufa-LUFA/LUFA/Drivers/USB/Class/Device/../../HighLevel/../LowLevel/Endpoint.h **** 			 *  in both failure and success states; the user is responsible for manually clearing the setup 
1114:../lufa-LUFA/LUFA/Drivers/USB/Class/Device/../../HighLevel/../LowLevel/Endpoint.h **** 			 *  finalize the transfer via the \ref Endpoint_ClearOUT() macro.
1115:../lufa-LUFA/LUFA/Drivers/USB/Class/Device/../../HighLevel/../LowLevel/Endpoint.h **** 			 *
1116:../lufa-LUFA/LUFA/Drivers/USB/Class/Device/../../HighLevel/../LowLevel/Endpoint.h **** 			 *  \note This function automatically clears the control transfer's status stage. Do not manuall
1117:../lufa-LUFA/LUFA/Drivers/USB/Class/Device/../../HighLevel/../LowLevel/Endpoint.h **** 			 *        to clear the status stage when using this routine in a control transaction.
1118:../lufa-LUFA/LUFA/Drivers/USB/Class/Device/../../HighLevel/../LowLevel/Endpoint.h **** 			 *        \n\n
1119:../lufa-LUFA/LUFA/Drivers/USB/Class/Device/../../HighLevel/../LowLevel/Endpoint.h **** 			 *
1120:../lufa-LUFA/LUFA/Drivers/USB/Class/Device/../../HighLevel/../LowLevel/Endpoint.h **** 			 *  \note This routine should only be used on CONTROL type endpoints.
1121:../lufa-LUFA/LUFA/Drivers/USB/Class/Device/../../HighLevel/../LowLevel/Endpoint.h **** 			 *
1122:../lufa-LUFA/LUFA/Drivers/USB/Class/Device/../../HighLevel/../LowLevel/Endpoint.h **** 			 *  \warning Unlike the standard stream read/write commands, the control stream commands cannot 
1123:../lufa-LUFA/LUFA/Drivers/USB/Class/Device/../../HighLevel/../LowLevel/Endpoint.h **** 			 *           together; i.e. the entire stream data must be read or written at the one time.
1124:../lufa-LUFA/LUFA/Drivers/USB/Class/Device/../../HighLevel/../LowLevel/Endpoint.h **** 			 *
1125:../lufa-LUFA/LUFA/Drivers/USB/Class/Device/../../HighLevel/../LowLevel/Endpoint.h **** 			 *  \ingroup Group_EndpointStreamRW
1126:../lufa-LUFA/LUFA/Drivers/USB/Class/Device/../../HighLevel/../LowLevel/Endpoint.h **** 			 *
1127:../lufa-LUFA/LUFA/Drivers/USB/Class/Device/../../HighLevel/../LowLevel/Endpoint.h **** 			 *  \param[in] Buffer  Pointer to the source data buffer to read from.
1128:../lufa-LUFA/LUFA/Drivers/USB/Class/Device/../../HighLevel/../LowLevel/Endpoint.h **** 			 *  \param[in] Length  Number of bytes to read for the currently selected endpoint into the buff
1129:../lufa-LUFA/LUFA/Drivers/USB/Class/Device/../../HighLevel/../LowLevel/Endpoint.h **** 			 *
1130:../lufa-LUFA/LUFA/Drivers/USB/Class/Device/../../HighLevel/../LowLevel/Endpoint.h **** 			 *  \return A value from the \ref Endpoint_ControlStream_RW_ErrorCodes_t enum.
1131:../lufa-LUFA/LUFA/Drivers/USB/Class/Device/../../HighLevel/../LowLevel/Endpoint.h **** 			 */
1132:../lufa-LUFA/LUFA/Drivers/USB/Class/Device/../../HighLevel/../LowLevel/Endpoint.h **** 			uint8_t Endpoint_Write_Control_Stream_BE(const void* Buffer,
1133:../lufa-LUFA/LUFA/Drivers/USB/Class/Device/../../HighLevel/../LowLevel/Endpoint.h **** 			                                         uint16_t Length) ATTR_NON_NULL_PTR_ARG(1);
1134:../lufa-LUFA/LUFA/Drivers/USB/Class/Device/../../HighLevel/../LowLevel/Endpoint.h **** 
1135:../lufa-LUFA/LUFA/Drivers/USB/Class/Device/../../HighLevel/../LowLevel/Endpoint.h **** 			/** EEPROM buffer source version of \ref Endpoint_Write_Control_Stream_BE().
1136:../lufa-LUFA/LUFA/Drivers/USB/Class/Device/../../HighLevel/../LowLevel/Endpoint.h **** 			 *
1137:../lufa-LUFA/LUFA/Drivers/USB/Class/Device/../../HighLevel/../LowLevel/Endpoint.h **** 			 *  \note This function automatically clears the control transfer's status stage. Do not manuall
1138:../lufa-LUFA/LUFA/Drivers/USB/Class/Device/../../HighLevel/../LowLevel/Endpoint.h **** 			 *        to clear the status stage when using this routine in a control transaction.
1139:../lufa-LUFA/LUFA/Drivers/USB/Class/Device/../../HighLevel/../LowLevel/Endpoint.h **** 			 *        \n\n
1140:../lufa-LUFA/LUFA/Drivers/USB/Class/Device/../../HighLevel/../LowLevel/Endpoint.h **** 			 *
1141:../lufa-LUFA/LUFA/Drivers/USB/Class/Device/../../HighLevel/../LowLevel/Endpoint.h **** 			 *  \note This routine should only be used on CONTROL type endpoints.
1142:../lufa-LUFA/LUFA/Drivers/USB/Class/Device/../../HighLevel/../LowLevel/Endpoint.h **** 			 *
1143:../lufa-LUFA/LUFA/Drivers/USB/Class/Device/../../HighLevel/../LowLevel/Endpoint.h **** 			 *  \warning Unlike the standard stream read/write commands, the control stream commands cannot 
1144:../lufa-LUFA/LUFA/Drivers/USB/Class/Device/../../HighLevel/../LowLevel/Endpoint.h **** 			 *           together; i.e. the entire stream data must be read or written at the one time.
1145:../lufa-LUFA/LUFA/Drivers/USB/Class/Device/../../HighLevel/../LowLevel/Endpoint.h **** 			 *
1146:../lufa-LUFA/LUFA/Drivers/USB/Class/Device/../../HighLevel/../LowLevel/Endpoint.h **** 			 *  \ingroup Group_EndpointStreamRW
1147:../lufa-LUFA/LUFA/Drivers/USB/Class/Device/../../HighLevel/../LowLevel/Endpoint.h **** 			 *
1148:../lufa-LUFA/LUFA/Drivers/USB/Class/Device/../../HighLevel/../LowLevel/Endpoint.h **** 			 *  \param[in] Buffer  Pointer to the source data buffer to read from.
1149:../lufa-LUFA/LUFA/Drivers/USB/Class/Device/../../HighLevel/../LowLevel/Endpoint.h **** 			 *  \param[in] Length  Number of bytes to read for the currently selected endpoint into the buff
1150:../lufa-LUFA/LUFA/Drivers/USB/Class/Device/../../HighLevel/../LowLevel/Endpoint.h **** 			 *
1151:../lufa-LUFA/LUFA/Drivers/USB/Class/Device/../../HighLevel/../LowLevel/Endpoint.h **** 			 *  \return A value from the \ref Endpoint_ControlStream_RW_ErrorCodes_t enum.
1152:../lufa-LUFA/LUFA/Drivers/USB/Class/Device/../../HighLevel/../LowLevel/Endpoint.h **** 			 */
1153:../lufa-LUFA/LUFA/Drivers/USB/Class/Device/../../HighLevel/../LowLevel/Endpoint.h **** 			uint8_t Endpoint_Write_Control_EStream_BE(const void* Buffer,
1154:../lufa-LUFA/LUFA/Drivers/USB/Class/Device/../../HighLevel/../LowLevel/Endpoint.h **** 			                                          uint16_t Length) ATTR_NON_NULL_PTR_ARG(1);
1155:../lufa-LUFA/LUFA/Drivers/USB/Class/Device/../../HighLevel/../LowLevel/Endpoint.h **** 
1156:../lufa-LUFA/LUFA/Drivers/USB/Class/Device/../../HighLevel/../LowLevel/Endpoint.h **** 			/** FLASH buffer source version of \ref Endpoint_Write_Control_Stream_BE().
1157:../lufa-LUFA/LUFA/Drivers/USB/Class/Device/../../HighLevel/../LowLevel/Endpoint.h **** 			 *
1158:../lufa-LUFA/LUFA/Drivers/USB/Class/Device/../../HighLevel/../LowLevel/Endpoint.h **** 			 *  \pre The FLASH data must be located in the first 64KB of FLASH for this function to work cor
1159:../lufa-LUFA/LUFA/Drivers/USB/Class/Device/../../HighLevel/../LowLevel/Endpoint.h **** 			 *
1160:../lufa-LUFA/LUFA/Drivers/USB/Class/Device/../../HighLevel/../LowLevel/Endpoint.h **** 			 *  \note This function automatically clears the control transfer's status stage. Do not manuall
1161:../lufa-LUFA/LUFA/Drivers/USB/Class/Device/../../HighLevel/../LowLevel/Endpoint.h **** 			 *        to clear the status stage when using this routine in a control transaction.
1162:../lufa-LUFA/LUFA/Drivers/USB/Class/Device/../../HighLevel/../LowLevel/Endpoint.h **** 			 *        \n\n
1163:../lufa-LUFA/LUFA/Drivers/USB/Class/Device/../../HighLevel/../LowLevel/Endpoint.h **** 			 *
1164:../lufa-LUFA/LUFA/Drivers/USB/Class/Device/../../HighLevel/../LowLevel/Endpoint.h **** 			 *  \note This routine should only be used on CONTROL type endpoints.
1165:../lufa-LUFA/LUFA/Drivers/USB/Class/Device/../../HighLevel/../LowLevel/Endpoint.h **** 			 *
1166:../lufa-LUFA/LUFA/Drivers/USB/Class/Device/../../HighLevel/../LowLevel/Endpoint.h **** 			 *  \warning Unlike the standard stream read/write commands, the control stream commands cannot 
1167:../lufa-LUFA/LUFA/Drivers/USB/Class/Device/../../HighLevel/../LowLevel/Endpoint.h **** 			 *           together; i.e. the entire stream data must be read or written at the one time.
1168:../lufa-LUFA/LUFA/Drivers/USB/Class/Device/../../HighLevel/../LowLevel/Endpoint.h **** 			 *
1169:../lufa-LUFA/LUFA/Drivers/USB/Class/Device/../../HighLevel/../LowLevel/Endpoint.h **** 			 *  \ingroup Group_EndpointStreamRW
1170:../lufa-LUFA/LUFA/Drivers/USB/Class/Device/../../HighLevel/../LowLevel/Endpoint.h **** 			 *
1171:../lufa-LUFA/LUFA/Drivers/USB/Class/Device/../../HighLevel/../LowLevel/Endpoint.h **** 			 *  \param[in] Buffer  Pointer to the source data buffer to read from.
1172:../lufa-LUFA/LUFA/Drivers/USB/Class/Device/../../HighLevel/../LowLevel/Endpoint.h **** 			 *  \param[in] Length  Number of bytes to read for the currently selected endpoint into the buff
1173:../lufa-LUFA/LUFA/Drivers/USB/Class/Device/../../HighLevel/../LowLevel/Endpoint.h **** 			 *
1174:../lufa-LUFA/LUFA/Drivers/USB/Class/Device/../../HighLevel/../LowLevel/Endpoint.h **** 			 *  \return A value from the \ref Endpoint_ControlStream_RW_ErrorCodes_t enum.
1175:../lufa-LUFA/LUFA/Drivers/USB/Class/Device/../../HighLevel/../LowLevel/Endpoint.h **** 			 */
1176:../lufa-LUFA/LUFA/Drivers/USB/Class/Device/../../HighLevel/../LowLevel/Endpoint.h **** 			uint8_t Endpoint_Write_Control_PStream_BE(const void* Buffer,
1177:../lufa-LUFA/LUFA/Drivers/USB/Class/Device/../../HighLevel/../LowLevel/Endpoint.h **** 			                                          uint16_t Length) ATTR_NON_NULL_PTR_ARG(1);
1178:../lufa-LUFA/LUFA/Drivers/USB/Class/Device/../../HighLevel/../LowLevel/Endpoint.h **** 
1179:../lufa-LUFA/LUFA/Drivers/USB/Class/Device/../../HighLevel/../LowLevel/Endpoint.h **** 			/** Reads the given number of bytes from the CONTROL endpoint from the given buffer in little en
1180:../lufa-LUFA/LUFA/Drivers/USB/Class/Device/../../HighLevel/../LowLevel/Endpoint.h **** 			 *  discarding fully read packets from the host as needed. The device IN acknowledgement is not
1181:../lufa-LUFA/LUFA/Drivers/USB/Class/Device/../../HighLevel/../LowLevel/Endpoint.h **** 			 *  automatically sent after success or failure states; the user is responsible for manually sen
1182:../lufa-LUFA/LUFA/Drivers/USB/Class/Device/../../HighLevel/../LowLevel/Endpoint.h **** 			 *  setup IN to finalize the transfer via the \ref Endpoint_ClearIN() macro.
1183:../lufa-LUFA/LUFA/Drivers/USB/Class/Device/../../HighLevel/../LowLevel/Endpoint.h **** 			 *
1184:../lufa-LUFA/LUFA/Drivers/USB/Class/Device/../../HighLevel/../LowLevel/Endpoint.h **** 			 *  \note This function automatically clears the control transfer's status stage. Do not manuall
1185:../lufa-LUFA/LUFA/Drivers/USB/Class/Device/../../HighLevel/../LowLevel/Endpoint.h **** 			 *        to clear the status stage when using this routine in a control transaction.
1186:../lufa-LUFA/LUFA/Drivers/USB/Class/Device/../../HighLevel/../LowLevel/Endpoint.h **** 			 *        \n\n
1187:../lufa-LUFA/LUFA/Drivers/USB/Class/Device/../../HighLevel/../LowLevel/Endpoint.h **** 			 *
1188:../lufa-LUFA/LUFA/Drivers/USB/Class/Device/../../HighLevel/../LowLevel/Endpoint.h **** 			 *  \note This routine should only be used on CONTROL type endpoints.
1189:../lufa-LUFA/LUFA/Drivers/USB/Class/Device/../../HighLevel/../LowLevel/Endpoint.h **** 			 *
1190:../lufa-LUFA/LUFA/Drivers/USB/Class/Device/../../HighLevel/../LowLevel/Endpoint.h **** 			 *  \warning Unlike the standard stream read/write commands, the control stream commands cannot 
1191:../lufa-LUFA/LUFA/Drivers/USB/Class/Device/../../HighLevel/../LowLevel/Endpoint.h **** 			 *           together; i.e. the entire stream data must be read or written at the one time.
1192:../lufa-LUFA/LUFA/Drivers/USB/Class/Device/../../HighLevel/../LowLevel/Endpoint.h **** 			 *
1193:../lufa-LUFA/LUFA/Drivers/USB/Class/Device/../../HighLevel/../LowLevel/Endpoint.h **** 			 *  \ingroup Group_EndpointStreamRW
1194:../lufa-LUFA/LUFA/Drivers/USB/Class/Device/../../HighLevel/../LowLevel/Endpoint.h **** 			 *
1195:../lufa-LUFA/LUFA/Drivers/USB/Class/Device/../../HighLevel/../LowLevel/Endpoint.h **** 			 *  \param[out] Buffer  Pointer to the destination data buffer to write to.
1196:../lufa-LUFA/LUFA/Drivers/USB/Class/Device/../../HighLevel/../LowLevel/Endpoint.h **** 			 *  \param[in]  Length  Number of bytes to send via the currently selected endpoint.
1197:../lufa-LUFA/LUFA/Drivers/USB/Class/Device/../../HighLevel/../LowLevel/Endpoint.h **** 			 *
1198:../lufa-LUFA/LUFA/Drivers/USB/Class/Device/../../HighLevel/../LowLevel/Endpoint.h **** 			 *  \return A value from the \ref Endpoint_ControlStream_RW_ErrorCodes_t enum.
1199:../lufa-LUFA/LUFA/Drivers/USB/Class/Device/../../HighLevel/../LowLevel/Endpoint.h **** 			 */
1200:../lufa-LUFA/LUFA/Drivers/USB/Class/Device/../../HighLevel/../LowLevel/Endpoint.h **** 			uint8_t Endpoint_Read_Control_Stream_LE(void* Buffer,
1201:../lufa-LUFA/LUFA/Drivers/USB/Class/Device/../../HighLevel/../LowLevel/Endpoint.h **** 			                                        uint16_t Length) ATTR_NON_NULL_PTR_ARG(1);
1202:../lufa-LUFA/LUFA/Drivers/USB/Class/Device/../../HighLevel/../LowLevel/Endpoint.h **** 
1203:../lufa-LUFA/LUFA/Drivers/USB/Class/Device/../../HighLevel/../LowLevel/Endpoint.h **** 			/** EEPROM buffer source version of \ref Endpoint_Read_Control_Stream_LE().
1204:../lufa-LUFA/LUFA/Drivers/USB/Class/Device/../../HighLevel/../LowLevel/Endpoint.h **** 			 *
1205:../lufa-LUFA/LUFA/Drivers/USB/Class/Device/../../HighLevel/../LowLevel/Endpoint.h **** 			 *  \note This function automatically clears the control transfer's status stage. Do not manuall
1206:../lufa-LUFA/LUFA/Drivers/USB/Class/Device/../../HighLevel/../LowLevel/Endpoint.h **** 			 *        to clear the status stage when using this routine in a control transaction.
1207:../lufa-LUFA/LUFA/Drivers/USB/Class/Device/../../HighLevel/../LowLevel/Endpoint.h **** 			 *        \n\n
1208:../lufa-LUFA/LUFA/Drivers/USB/Class/Device/../../HighLevel/../LowLevel/Endpoint.h **** 			 *
1209:../lufa-LUFA/LUFA/Drivers/USB/Class/Device/../../HighLevel/../LowLevel/Endpoint.h **** 			 *  \note This routine should only be used on CONTROL type endpoints.
1210:../lufa-LUFA/LUFA/Drivers/USB/Class/Device/../../HighLevel/../LowLevel/Endpoint.h **** 			 *
1211:../lufa-LUFA/LUFA/Drivers/USB/Class/Device/../../HighLevel/../LowLevel/Endpoint.h **** 			 *  \warning Unlike the standard stream read/write commands, the control stream commands cannot 
1212:../lufa-LUFA/LUFA/Drivers/USB/Class/Device/../../HighLevel/../LowLevel/Endpoint.h **** 			 *           together; i.e. the entire stream data must be read or written at the one time.
1213:../lufa-LUFA/LUFA/Drivers/USB/Class/Device/../../HighLevel/../LowLevel/Endpoint.h **** 			 *
1214:../lufa-LUFA/LUFA/Drivers/USB/Class/Device/../../HighLevel/../LowLevel/Endpoint.h **** 			 *  \ingroup Group_EndpointStreamRW
1215:../lufa-LUFA/LUFA/Drivers/USB/Class/Device/../../HighLevel/../LowLevel/Endpoint.h **** 			 *
1216:../lufa-LUFA/LUFA/Drivers/USB/Class/Device/../../HighLevel/../LowLevel/Endpoint.h **** 			 *  \param[out] Buffer  Pointer to the destination data buffer to write to.
1217:../lufa-LUFA/LUFA/Drivers/USB/Class/Device/../../HighLevel/../LowLevel/Endpoint.h **** 			 *  \param[in]  Length  Number of bytes to send via the currently selected endpoint.
1218:../lufa-LUFA/LUFA/Drivers/USB/Class/Device/../../HighLevel/../LowLevel/Endpoint.h **** 			 *
1219:../lufa-LUFA/LUFA/Drivers/USB/Class/Device/../../HighLevel/../LowLevel/Endpoint.h **** 			 *  \return A value from the \ref Endpoint_ControlStream_RW_ErrorCodes_t enum.
1220:../lufa-LUFA/LUFA/Drivers/USB/Class/Device/../../HighLevel/../LowLevel/Endpoint.h **** 			 */
1221:../lufa-LUFA/LUFA/Drivers/USB/Class/Device/../../HighLevel/../LowLevel/Endpoint.h **** 			uint8_t Endpoint_Read_Control_EStream_LE(void* Buffer,
1222:../lufa-LUFA/LUFA/Drivers/USB/Class/Device/../../HighLevel/../LowLevel/Endpoint.h **** 			                                         uint16_t Length) ATTR_NON_NULL_PTR_ARG(1);
1223:../lufa-LUFA/LUFA/Drivers/USB/Class/Device/../../HighLevel/../LowLevel/Endpoint.h **** 
1224:../lufa-LUFA/LUFA/Drivers/USB/Class/Device/../../HighLevel/../LowLevel/Endpoint.h **** 			/** Reads the given number of bytes from the CONTROL endpoint from the given buffer in big endia
1225:../lufa-LUFA/LUFA/Drivers/USB/Class/Device/../../HighLevel/../LowLevel/Endpoint.h **** 			 *  discarding fully read packets from the host as needed. The device IN acknowledgement is not
1226:../lufa-LUFA/LUFA/Drivers/USB/Class/Device/../../HighLevel/../LowLevel/Endpoint.h **** 			 *  automatically sent after success or failure states; the user is responsible for manually sen
1227:../lufa-LUFA/LUFA/Drivers/USB/Class/Device/../../HighLevel/../LowLevel/Endpoint.h **** 			 *  setup IN to finalize the transfer via the \ref Endpoint_ClearIN() macro.
1228:../lufa-LUFA/LUFA/Drivers/USB/Class/Device/../../HighLevel/../LowLevel/Endpoint.h **** 			 *
1229:../lufa-LUFA/LUFA/Drivers/USB/Class/Device/../../HighLevel/../LowLevel/Endpoint.h **** 			 *  \note This function automatically clears the control transfer's status stage. Do not manuall
1230:../lufa-LUFA/LUFA/Drivers/USB/Class/Device/../../HighLevel/../LowLevel/Endpoint.h **** 			 *        to clear the status stage when using this routine in a control transaction.
1231:../lufa-LUFA/LUFA/Drivers/USB/Class/Device/../../HighLevel/../LowLevel/Endpoint.h **** 			 *        \n\n
1232:../lufa-LUFA/LUFA/Drivers/USB/Class/Device/../../HighLevel/../LowLevel/Endpoint.h **** 			 *
1233:../lufa-LUFA/LUFA/Drivers/USB/Class/Device/../../HighLevel/../LowLevel/Endpoint.h **** 			 *  \note This routine should only be used on CONTROL type endpoints.
1234:../lufa-LUFA/LUFA/Drivers/USB/Class/Device/../../HighLevel/../LowLevel/Endpoint.h **** 			 *
1235:../lufa-LUFA/LUFA/Drivers/USB/Class/Device/../../HighLevel/../LowLevel/Endpoint.h **** 			 *  \warning Unlike the standard stream read/write commands, the control stream commands cannot 
1236:../lufa-LUFA/LUFA/Drivers/USB/Class/Device/../../HighLevel/../LowLevel/Endpoint.h **** 			 *           together; i.e. the entire stream data must be read or written at the one time.
1237:../lufa-LUFA/LUFA/Drivers/USB/Class/Device/../../HighLevel/../LowLevel/Endpoint.h **** 			 *
1238:../lufa-LUFA/LUFA/Drivers/USB/Class/Device/../../HighLevel/../LowLevel/Endpoint.h **** 			 *  \ingroup Group_EndpointStreamRW
1239:../lufa-LUFA/LUFA/Drivers/USB/Class/Device/../../HighLevel/../LowLevel/Endpoint.h **** 			 *
1240:../lufa-LUFA/LUFA/Drivers/USB/Class/Device/../../HighLevel/../LowLevel/Endpoint.h **** 			 *  \param[out] Buffer  Pointer to the destination data buffer to write to.
1241:../lufa-LUFA/LUFA/Drivers/USB/Class/Device/../../HighLevel/../LowLevel/Endpoint.h **** 			 *  \param[in]  Length  Number of bytes to send via the currently selected endpoint.
1242:../lufa-LUFA/LUFA/Drivers/USB/Class/Device/../../HighLevel/../LowLevel/Endpoint.h **** 			 *
1243:../lufa-LUFA/LUFA/Drivers/USB/Class/Device/../../HighLevel/../LowLevel/Endpoint.h **** 			 *  \return A value from the \ref Endpoint_ControlStream_RW_ErrorCodes_t enum.
1244:../lufa-LUFA/LUFA/Drivers/USB/Class/Device/../../HighLevel/../LowLevel/Endpoint.h **** 			 */
1245:../lufa-LUFA/LUFA/Drivers/USB/Class/Device/../../HighLevel/../LowLevel/Endpoint.h **** 			uint8_t Endpoint_Read_Control_Stream_BE(void* Buffer,
1246:../lufa-LUFA/LUFA/Drivers/USB/Class/Device/../../HighLevel/../LowLevel/Endpoint.h **** 			                                        uint16_t Length) ATTR_NON_NULL_PTR_ARG(1);
1247:../lufa-LUFA/LUFA/Drivers/USB/Class/Device/../../HighLevel/../LowLevel/Endpoint.h **** 			
1248:../lufa-LUFA/LUFA/Drivers/USB/Class/Device/../../HighLevel/../LowLevel/Endpoint.h **** 			/** EEPROM buffer source version of \ref Endpoint_Read_Control_Stream_BE().
1249:../lufa-LUFA/LUFA/Drivers/USB/Class/Device/../../HighLevel/../LowLevel/Endpoint.h **** 			 *
1250:../lufa-LUFA/LUFA/Drivers/USB/Class/Device/../../HighLevel/../LowLevel/Endpoint.h **** 			 *  \note This function automatically clears the control transfer's status stage. Do not manuall
1251:../lufa-LUFA/LUFA/Drivers/USB/Class/Device/../../HighLevel/../LowLevel/Endpoint.h **** 			 *        to clear the status stage when using this routine in a control transaction.
1252:../lufa-LUFA/LUFA/Drivers/USB/Class/Device/../../HighLevel/../LowLevel/Endpoint.h **** 			 *        \n\n
1253:../lufa-LUFA/LUFA/Drivers/USB/Class/Device/../../HighLevel/../LowLevel/Endpoint.h **** 			 *
1254:../lufa-LUFA/LUFA/Drivers/USB/Class/Device/../../HighLevel/../LowLevel/Endpoint.h **** 			 *  \note This routine should only be used on CONTROL type endpoints.
1255:../lufa-LUFA/LUFA/Drivers/USB/Class/Device/../../HighLevel/../LowLevel/Endpoint.h **** 			 *
1256:../lufa-LUFA/LUFA/Drivers/USB/Class/Device/../../HighLevel/../LowLevel/Endpoint.h **** 			 *  \warning Unlike the standard stream read/write commands, the control stream commands cannot 
1257:../lufa-LUFA/LUFA/Drivers/USB/Class/Device/../../HighLevel/../LowLevel/Endpoint.h **** 			 *           together; i.e. the entire stream data must be read or written at the one time.
1258:../lufa-LUFA/LUFA/Drivers/USB/Class/Device/../../HighLevel/../LowLevel/Endpoint.h **** 			 *
1259:../lufa-LUFA/LUFA/Drivers/USB/Class/Device/../../HighLevel/../LowLevel/Endpoint.h **** 			 *  \ingroup Group_EndpointStreamRW
1260:../lufa-LUFA/LUFA/Drivers/USB/Class/Device/../../HighLevel/../LowLevel/Endpoint.h **** 			 *
1261:../lufa-LUFA/LUFA/Drivers/USB/Class/Device/../../HighLevel/../LowLevel/Endpoint.h **** 			 *  \param[out] Buffer  Pointer to the destination data buffer to write to.
1262:../lufa-LUFA/LUFA/Drivers/USB/Class/Device/../../HighLevel/../LowLevel/Endpoint.h **** 			 *  \param[in]  Length  Number of bytes to send via the currently selected endpoint.
1263:../lufa-LUFA/LUFA/Drivers/USB/Class/Device/../../HighLevel/../LowLevel/Endpoint.h **** 			 *
1264:../lufa-LUFA/LUFA/Drivers/USB/Class/Device/../../HighLevel/../LowLevel/Endpoint.h **** 			 *  \return A value from the \ref Endpoint_ControlStream_RW_ErrorCodes_t enum.
1265:../lufa-LUFA/LUFA/Drivers/USB/Class/Device/../../HighLevel/../LowLevel/Endpoint.h **** 			 */
1266:../lufa-LUFA/LUFA/Drivers/USB/Class/Device/../../HighLevel/../LowLevel/Endpoint.h **** 			uint8_t Endpoint_Read_Control_EStream_BE(void* Buffer,
1267:../lufa-LUFA/LUFA/Drivers/USB/Class/Device/../../HighLevel/../LowLevel/Endpoint.h **** 			                                         uint16_t Length) ATTR_NON_NULL_PTR_ARG(1);
1268:../lufa-LUFA/LUFA/Drivers/USB/Class/Device/../../HighLevel/../LowLevel/Endpoint.h **** 
1269:../lufa-LUFA/LUFA/Drivers/USB/Class/Device/../../HighLevel/../LowLevel/Endpoint.h **** 	/* Private Interface - For use in library only: */
1270:../lufa-LUFA/LUFA/Drivers/USB/Class/Device/../../HighLevel/../LowLevel/Endpoint.h **** 	#if !defined(__DOXYGEN__)
1271:../lufa-LUFA/LUFA/Drivers/USB/Class/Device/../../HighLevel/../LowLevel/Endpoint.h **** 		/* Macros: */
1272:../lufa-LUFA/LUFA/Drivers/USB/Class/Device/../../HighLevel/../LowLevel/Endpoint.h **** 			#define _ENDPOINT_GET_MAXSIZE(n)               _ENDPOINT_GET_MAXSIZE2(ENDPOINT_DETAILS_EP ## n)
1273:../lufa-LUFA/LUFA/Drivers/USB/Class/Device/../../HighLevel/../LowLevel/Endpoint.h **** 			#define _ENDPOINT_GET_MAXSIZE2(details)        _ENDPOINT_GET_MAXSIZE3(details)
1274:../lufa-LUFA/LUFA/Drivers/USB/Class/Device/../../HighLevel/../LowLevel/Endpoint.h **** 			#define _ENDPOINT_GET_MAXSIZE3(maxsize, db)    maxsize
1275:../lufa-LUFA/LUFA/Drivers/USB/Class/Device/../../HighLevel/../LowLevel/Endpoint.h **** 
1276:../lufa-LUFA/LUFA/Drivers/USB/Class/Device/../../HighLevel/../LowLevel/Endpoint.h **** 			#define _ENDPOINT_GET_DOUBLEBANK(n)            _ENDPOINT_GET_DOUBLEBANK2(ENDPOINT_DETAILS_EP ## 
1277:../lufa-LUFA/LUFA/Drivers/USB/Class/Device/../../HighLevel/../LowLevel/Endpoint.h **** 			#define _ENDPOINT_GET_DOUBLEBANK2(details)     _ENDPOINT_GET_DOUBLEBANK3(details)
1278:../lufa-LUFA/LUFA/Drivers/USB/Class/Device/../../HighLevel/../LowLevel/Endpoint.h **** 			#define _ENDPOINT_GET_DOUBLEBANK3(maxsize, db) db
1279:../lufa-LUFA/LUFA/Drivers/USB/Class/Device/../../HighLevel/../LowLevel/Endpoint.h **** 			
1280:../lufa-LUFA/LUFA/Drivers/USB/Class/Device/../../HighLevel/../LowLevel/Endpoint.h **** 			#if defined(USB_SERIES_4_AVR) || defined(USB_SERIES_6_AVR) || defined(USB_SERIES_7_AVR)
1281:../lufa-LUFA/LUFA/Drivers/USB/Class/Device/../../HighLevel/../LowLevel/Endpoint.h **** 				#define ENDPOINT_DETAILS_EP0               64,  true
1282:../lufa-LUFA/LUFA/Drivers/USB/Class/Device/../../HighLevel/../LowLevel/Endpoint.h **** 				#define ENDPOINT_DETAILS_EP1               256, true
1283:../lufa-LUFA/LUFA/Drivers/USB/Class/Device/../../HighLevel/../LowLevel/Endpoint.h **** 				#define ENDPOINT_DETAILS_EP2               64,  true
1284:../lufa-LUFA/LUFA/Drivers/USB/Class/Device/../../HighLevel/../LowLevel/Endpoint.h **** 				#define ENDPOINT_DETAILS_EP3               64,  true
1285:../lufa-LUFA/LUFA/Drivers/USB/Class/Device/../../HighLevel/../LowLevel/Endpoint.h **** 				#define ENDPOINT_DETAILS_EP4               64,  true
1286:../lufa-LUFA/LUFA/Drivers/USB/Class/Device/../../HighLevel/../LowLevel/Endpoint.h **** 				#define ENDPOINT_DETAILS_EP5               64,  true
1287:../lufa-LUFA/LUFA/Drivers/USB/Class/Device/../../HighLevel/../LowLevel/Endpoint.h **** 				#define ENDPOINT_DETAILS_EP6               64,  true
1288:../lufa-LUFA/LUFA/Drivers/USB/Class/Device/../../HighLevel/../LowLevel/Endpoint.h **** 			#else
1289:../lufa-LUFA/LUFA/Drivers/USB/Class/Device/../../HighLevel/../LowLevel/Endpoint.h **** 				#define ENDPOINT_DETAILS_EP0               64,  true
1290:../lufa-LUFA/LUFA/Drivers/USB/Class/Device/../../HighLevel/../LowLevel/Endpoint.h **** 				#define ENDPOINT_DETAILS_EP1               64,  false
1291:../lufa-LUFA/LUFA/Drivers/USB/Class/Device/../../HighLevel/../LowLevel/Endpoint.h **** 				#define ENDPOINT_DETAILS_EP2               64,  false
1292:../lufa-LUFA/LUFA/Drivers/USB/Class/Device/../../HighLevel/../LowLevel/Endpoint.h **** 				#define ENDPOINT_DETAILS_EP3               64,  true
1293:../lufa-LUFA/LUFA/Drivers/USB/Class/Device/../../HighLevel/../LowLevel/Endpoint.h **** 				#define ENDPOINT_DETAILS_EP4               64,  true			
1294:../lufa-LUFA/LUFA/Drivers/USB/Class/Device/../../HighLevel/../LowLevel/Endpoint.h **** 			#endif
1295:../lufa-LUFA/LUFA/Drivers/USB/Class/Device/../../HighLevel/../LowLevel/Endpoint.h **** 
1296:../lufa-LUFA/LUFA/Drivers/USB/Class/Device/../../HighLevel/../LowLevel/Endpoint.h **** 			#define Endpoint_ConfigureEndpoint(Number, Type, Direction, Size, Banks)                        
1297:../lufa-LUFA/LUFA/Drivers/USB/Class/Device/../../HighLevel/../LowLevel/Endpoint.h **** 			                     (__builtin_constant_p(Size) ? Endpoint_ConfigureEndpointStatic((Number),   
1298:../lufa-LUFA/LUFA/Drivers/USB/Class/Device/../../HighLevel/../LowLevel/Endpoint.h **** 			                                                                                    (Type),     
1299:../lufa-LUFA/LUFA/Drivers/USB/Class/Device/../../HighLevel/../LowLevel/Endpoint.h **** 			                                                                                    (Direction),
1300:../lufa-LUFA/LUFA/Drivers/USB/Class/Device/../../HighLevel/../LowLevel/Endpoint.h **** 			                                                                                    Size, Banks)
1301:../lufa-LUFA/LUFA/Drivers/USB/Class/Device/../../HighLevel/../LowLevel/Endpoint.h **** 			                                                   Endpoint_ConfigureEndpointDynamic((Number),  
1302:../lufa-LUFA/LUFA/Drivers/USB/Class/Device/../../HighLevel/../LowLevel/Endpoint.h **** 			                                                                                     (Type),    
1303:../lufa-LUFA/LUFA/Drivers/USB/Class/Device/../../HighLevel/../LowLevel/Endpoint.h **** 			                                                                                     (Direction)
1304:../lufa-LUFA/LUFA/Drivers/USB/Class/Device/../../HighLevel/../LowLevel/Endpoint.h **** 			                                                                                     Size, Banks
1305:../lufa-LUFA/LUFA/Drivers/USB/Class/Device/../../HighLevel/../LowLevel/Endpoint.h **** 
1306:../lufa-LUFA/LUFA/Drivers/USB/Class/Device/../../HighLevel/../LowLevel/Endpoint.h **** 		/* Function Prototypes: */
1307:../lufa-LUFA/LUFA/Drivers/USB/Class/Device/../../HighLevel/../LowLevel/Endpoint.h **** 			void    Endpoint_ClearEndpoints(void);
1308:../lufa-LUFA/LUFA/Drivers/USB/Class/Device/../../HighLevel/../LowLevel/Endpoint.h **** 			uint8_t Endpoint_BytesToEPSizeMaskDynamic(const uint16_t Size);
1309:../lufa-LUFA/LUFA/Drivers/USB/Class/Device/../../HighLevel/../LowLevel/Endpoint.h **** 			bool    Endpoint_ConfigureEndpoint_Prv(const uint8_t Number,
1310:../lufa-LUFA/LUFA/Drivers/USB/Class/Device/../../HighLevel/../LowLevel/Endpoint.h **** 			                                       const uint8_t UECFG0XData,
1311:../lufa-LUFA/LUFA/Drivers/USB/Class/Device/../../HighLevel/../LowLevel/Endpoint.h **** 			                                       const uint8_t UECFG1XData);			
1312:../lufa-LUFA/LUFA/Drivers/USB/Class/Device/../../HighLevel/../LowLevel/Endpoint.h **** 
1313:../lufa-LUFA/LUFA/Drivers/USB/Class/Device/../../HighLevel/../LowLevel/Endpoint.h **** 		/* Inline Functions: */
1314:../lufa-LUFA/LUFA/Drivers/USB/Class/Device/../../HighLevel/../LowLevel/Endpoint.h **** 			static inline uint8_t Endpoint_BytesToEPSizeMask(const uint16_t Bytes) ATTR_WARN_UNUSED_RESULT A
1315:../lufa-LUFA/LUFA/Drivers/USB/Class/Device/../../HighLevel/../LowLevel/Endpoint.h **** 			static inline uint8_t Endpoint_BytesToEPSizeMask(const uint16_t Bytes)
1316:../lufa-LUFA/LUFA/Drivers/USB/Class/Device/../../HighLevel/../LowLevel/Endpoint.h **** 			{
1317:../lufa-LUFA/LUFA/Drivers/USB/Class/Device/../../HighLevel/../LowLevel/Endpoint.h **** 				uint8_t  MaskVal    = 0;
1318:../lufa-LUFA/LUFA/Drivers/USB/Class/Device/../../HighLevel/../LowLevel/Endpoint.h **** 				uint16_t CheckBytes = 8;
1319:../lufa-LUFA/LUFA/Drivers/USB/Class/Device/../../HighLevel/../LowLevel/Endpoint.h **** 				
1320:../lufa-LUFA/LUFA/Drivers/USB/Class/Device/../../HighLevel/../LowLevel/Endpoint.h **** 				while (CheckBytes < Bytes)
1321:../lufa-LUFA/LUFA/Drivers/USB/Class/Device/../../HighLevel/../LowLevel/Endpoint.h **** 				{
1322:../lufa-LUFA/LUFA/Drivers/USB/Class/Device/../../HighLevel/../LowLevel/Endpoint.h **** 					MaskVal++;
1323:../lufa-LUFA/LUFA/Drivers/USB/Class/Device/../../HighLevel/../LowLevel/Endpoint.h **** 					CheckBytes <<= 1;
1324:../lufa-LUFA/LUFA/Drivers/USB/Class/Device/../../HighLevel/../LowLevel/Endpoint.h **** 				}
1325:../lufa-LUFA/LUFA/Drivers/USB/Class/Device/../../HighLevel/../LowLevel/Endpoint.h **** 				
1326:../lufa-LUFA/LUFA/Drivers/USB/Class/Device/../../HighLevel/../LowLevel/Endpoint.h **** 				return (MaskVal << EPSIZE0);
1327:../lufa-LUFA/LUFA/Drivers/USB/Class/Device/../../HighLevel/../LowLevel/Endpoint.h **** 			}
1328:../lufa-LUFA/LUFA/Drivers/USB/Class/Device/../../HighLevel/../LowLevel/Endpoint.h **** 			
1329:../lufa-LUFA/LUFA/Drivers/USB/Class/Device/../../HighLevel/../LowLevel/Endpoint.h **** 			static inline bool Endpoint_ConfigureEndpointStatic(const uint8_t Number,
1330:../lufa-LUFA/LUFA/Drivers/USB/Class/Device/../../HighLevel/../LowLevel/Endpoint.h **** 			                                                    const uint8_t Type,
1331:../lufa-LUFA/LUFA/Drivers/USB/Class/Device/../../HighLevel/../LowLevel/Endpoint.h **** 			                                                    const uint8_t Direction,
1332:../lufa-LUFA/LUFA/Drivers/USB/Class/Device/../../HighLevel/../LowLevel/Endpoint.h **** 			                                                    const uint16_t Size,
1333:../lufa-LUFA/LUFA/Drivers/USB/Class/Device/../../HighLevel/../LowLevel/Endpoint.h **** 			                                                    const uint8_t Banks)
1334:../lufa-LUFA/LUFA/Drivers/USB/Class/Device/../../HighLevel/../LowLevel/Endpoint.h **** 			{
1335:../lufa-LUFA/LUFA/Drivers/USB/Class/Device/../../HighLevel/../LowLevel/Endpoint.h **** 				return Endpoint_ConfigureEndpoint_Prv(Number, (((Type) << EPTYPE0) | (Direction)),
1336:../lufa-LUFA/LUFA/Drivers/USB/Class/Device/../../HighLevel/../LowLevel/Endpoint.h **** 				                                      ((1 << ALLOC) | Banks | Endpoint_BytesToEPSizeMask(Size))
1337:../lufa-LUFA/LUFA/Drivers/USB/Class/Device/../../HighLevel/../LowLevel/Endpoint.h **** 			}
1338:../lufa-LUFA/LUFA/Drivers/USB/Class/Device/../../HighLevel/../LowLevel/Endpoint.h **** 
1339:../lufa-LUFA/LUFA/Drivers/USB/Class/Device/../../HighLevel/../LowLevel/Endpoint.h **** 			static inline bool Endpoint_ConfigureEndpointDynamic(const uint8_t Number,
1340:../lufa-LUFA/LUFA/Drivers/USB/Class/Device/../../HighLevel/../LowLevel/Endpoint.h **** 			                                                     const uint8_t Type,
1341:../lufa-LUFA/LUFA/Drivers/USB/Class/Device/../../HighLevel/../LowLevel/Endpoint.h **** 			                                                     const uint8_t Direction,
1342:../lufa-LUFA/LUFA/Drivers/USB/Class/Device/../../HighLevel/../LowLevel/Endpoint.h **** 			                                                     const uint16_t Size,
1343:../lufa-LUFA/LUFA/Drivers/USB/Class/Device/../../HighLevel/../LowLevel/Endpoint.h **** 			                                                     const uint8_t Banks)
1344:../lufa-LUFA/LUFA/Drivers/USB/Class/Device/../../HighLevel/../LowLevel/Endpoint.h **** 			{
1345:../lufa-LUFA/LUFA/Drivers/USB/Class/Device/../../HighLevel/../LowLevel/Endpoint.h **** 				return Endpoint_ConfigureEndpoint_Prv(Number, (((Type) << EPTYPE0) | (Direction)),
1346:../lufa-LUFA/LUFA/Drivers/USB/Class/Device/../../HighLevel/../LowLevel/Endpoint.h **** 				                                      ((1 << ALLOC) | Banks | Endpoint_BytesToEPSizeMaskDynamic
 496               		.loc 2 1346 0 is_stmt 1 discriminator 3
 497 0032 C901      		movw r24,r18
 498 0034 0E94 0000 		call Endpoint_BytesToEPSizeMaskDynamic
 499               	.LVL26:
1345:../lufa-LUFA/LUFA/Drivers/USB/Class/Device/../../HighLevel/../LowLevel/Endpoint.h **** 				return Endpoint_ConfigureEndpoint_Prv(Number, (((Type) << EPTYPE0) | (Direction)),
 500               		.loc 2 1345 0 discriminator 3
 501 0038 4C2F      		mov r20,r28
 502 003a 482B      		or r20,r24
 503 003c 4260      		ori r20,lo8(2)
 504 003e 61EC      		ldi r22,lo8(-63)
 505 0040 8D2F      		mov r24,r29
 506               	/* epilogue start */
 507               	.LBE80:
 508               	.LBE79:
 143:../lufa-LUFA/LUFA/Drivers/USB/Class/Device/HID.c **** 									 ENDPOINT_DIR_IN, HIDInterfaceInfo->Config.ReportINEndpointSize,
 144:../lufa-LUFA/LUFA/Drivers/USB/Class/Device/HID.c **** 									 HIDInterfaceInfo->Config.ReportINEndpointDoubleBank ? ENDPOINT_BANK_DOUBLE : ENDPOINT_BAN
 145:../lufa-LUFA/LUFA/Drivers/USB/Class/Device/HID.c **** 	{
 146:../lufa-LUFA/LUFA/Drivers/USB/Class/Device/HID.c **** 		return false;
 147:../lufa-LUFA/LUFA/Drivers/USB/Class/Device/HID.c **** 	}
 148:../lufa-LUFA/LUFA/Drivers/USB/Class/Device/HID.c **** 	
 149:../lufa-LUFA/LUFA/Drivers/USB/Class/Device/HID.c **** 	return true;
 150:../lufa-LUFA/LUFA/Drivers/USB/Class/Device/HID.c **** }
 509               		.loc 1 150 0 discriminator 3
 510 0042 DF91      		pop r29
 511               	.LVL27:
 512 0044 CF91      		pop r28
 513               	.LVL28:
 514               	.LBB82:
 515               	.LBB81:
1345:../lufa-LUFA/LUFA/Drivers/USB/Class/Device/../../HighLevel/../LowLevel/Endpoint.h **** 				return Endpoint_ConfigureEndpoint_Prv(Number, (((Type) << EPTYPE0) | (Direction)),
 516               		.loc 2 1345 0 discriminator 3
 517 0046 0C94 0000 		jmp Endpoint_ConfigureEndpoint_Prv
 518               	.LVL29:
 519               	.LBE81:
 520               	.LBE82:
 521               		.cfi_endproc
 522               	.LFE67:
 524               		.section	.text.HID_Device_USBTask,"ax",@progbits
 525               	.global	HID_Device_USBTask
 527               	HID_Device_USBTask:
 528               	.LFB68:
 151:../lufa-LUFA/LUFA/Drivers/USB/Class/Device/HID.c **** 		
 152:../lufa-LUFA/LUFA/Drivers/USB/Class/Device/HID.c **** void HID_Device_USBTask(USB_ClassInfo_HID_Device_t* const HIDInterfaceInfo)
 153:../lufa-LUFA/LUFA/Drivers/USB/Class/Device/HID.c **** {
 529               		.loc 1 153 0
 530               		.cfi_startproc
 531               	.LVL30:
 532 0000 5F92      		push r5
 533               	.LCFI16:
 534               		.cfi_def_cfa_offset 3
 535               		.cfi_offset 5, -2
 536 0002 6F92      		push r6
 537               	.LCFI17:
 538               		.cfi_def_cfa_offset 4
 539               		.cfi_offset 6, -3
 540 0004 7F92      		push r7
 541               	.LCFI18:
 542               		.cfi_def_cfa_offset 5
 543               		.cfi_offset 7, -4
 544 0006 8F92      		push r8
 545               	.LCFI19:
 546               		.cfi_def_cfa_offset 6
 547               		.cfi_offset 8, -5
 548 0008 9F92      		push r9
 549               	.LCFI20:
 550               		.cfi_def_cfa_offset 7
 551               		.cfi_offset 9, -6
 552 000a AF92      		push r10
 553               	.LCFI21:
 554               		.cfi_def_cfa_offset 8
 555               		.cfi_offset 10, -7
 556 000c BF92      		push r11
 557               	.LCFI22:
 558               		.cfi_def_cfa_offset 9
 559               		.cfi_offset 11, -8
 560 000e CF92      		push r12
 561               	.LCFI23:
 562               		.cfi_def_cfa_offset 10
 563               		.cfi_offset 12, -9
 564 0010 DF92      		push r13
 565               	.LCFI24:
 566               		.cfi_def_cfa_offset 11
 567               		.cfi_offset 13, -10
 568 0012 EF92      		push r14
 569               	.LCFI25:
 570               		.cfi_def_cfa_offset 12
 571               		.cfi_offset 14, -11
 572 0014 FF92      		push r15
 573               	.LCFI26:
 574               		.cfi_def_cfa_offset 13
 575               		.cfi_offset 15, -12
 576 0016 0F93      		push r16
 577               	.LCFI27:
 578               		.cfi_def_cfa_offset 14
 579               		.cfi_offset 16, -13
 580 0018 1F93      		push r17
 581               	.LCFI28:
 582               		.cfi_def_cfa_offset 15
 583               		.cfi_offset 17, -14
 584 001a CF93      		push r28
 585               	.LCFI29:
 586               		.cfi_def_cfa_offset 16
 587               		.cfi_offset 28, -15
 588 001c DF93      		push r29
 589               	.LCFI30:
 590               		.cfi_def_cfa_offset 17
 591               		.cfi_offset 29, -16
 592 001e 00D0      		rcall .
 593 0020 1F92      		push __zero_reg__
 594               	.LCFI31:
 595               		.cfi_def_cfa_offset 20
 596 0022 CDB7      		in r28,__SP_L__
 597 0024 DEB7      		in r29,__SP_H__
 598               	.LCFI32:
 599               		.cfi_def_cfa_register 28
 600               	/* prologue: function */
 601               	/* frame size = 3 */
 602               	/* stack size = 18 */
 603               	.L__stack_usage = 18
 604 0026 7C01      		movw r14,r24
 154:../lufa-LUFA/LUFA/Drivers/USB/Class/Device/HID.c **** 	if (USB_DeviceState != DEVICE_STATE_Configured)
 155:../lufa-LUFA/LUFA/Drivers/USB/Class/Device/HID.c **** 	  return;
 156:../lufa-LUFA/LUFA/Drivers/USB/Class/Device/HID.c **** 
 157:../lufa-LUFA/LUFA/Drivers/USB/Class/Device/HID.c **** 	Endpoint_SelectEndpoint(HIDInterfaceInfo->Config.ReportINEndpointNumber);
 158:../lufa-LUFA/LUFA/Drivers/USB/Class/Device/HID.c **** 	
 159:../lufa-LUFA/LUFA/Drivers/USB/Class/Device/HID.c **** 	if (Endpoint_IsReadWriteAllowed())
 160:../lufa-LUFA/LUFA/Drivers/USB/Class/Device/HID.c **** 	{
 161:../lufa-LUFA/LUFA/Drivers/USB/Class/Device/HID.c **** 		uint8_t  ReportINData[HIDInterfaceInfo->Config.PrevReportINBufferSize];
 162:../lufa-LUFA/LUFA/Drivers/USB/Class/Device/HID.c **** 		uint8_t  ReportID     = 0;
 163:../lufa-LUFA/LUFA/Drivers/USB/Class/Device/HID.c **** 		uint16_t ReportINSize = 0;
 164:../lufa-LUFA/LUFA/Drivers/USB/Class/Device/HID.c **** 
 165:../lufa-LUFA/LUFA/Drivers/USB/Class/Device/HID.c **** 		memset(ReportINData, 0, sizeof(ReportINData));
 166:../lufa-LUFA/LUFA/Drivers/USB/Class/Device/HID.c **** 
 167:../lufa-LUFA/LUFA/Drivers/USB/Class/Device/HID.c **** 		bool ForceSend         = CALLBACK_HID_Device_CreateHIDReport(HIDInterfaceInfo, &ReportID, REPORT_
 168:../lufa-LUFA/LUFA/Drivers/USB/Class/Device/HID.c **** 		                                                             ReportINData, &ReportINSize);
 169:../lufa-LUFA/LUFA/Drivers/USB/Class/Device/HID.c **** 		bool StatesChanged     = false;
 170:../lufa-LUFA/LUFA/Drivers/USB/Class/Device/HID.c **** 		bool IdlePeriodElapsed = (HIDInterfaceInfo->State.IdleCount && !(HIDInterfaceInfo->State.IdleMSRe
 171:../lufa-LUFA/LUFA/Drivers/USB/Class/Device/HID.c **** 		
 172:../lufa-LUFA/LUFA/Drivers/USB/Class/Device/HID.c **** 		if (HIDInterfaceInfo->Config.PrevReportINBuffer != NULL)
 173:../lufa-LUFA/LUFA/Drivers/USB/Class/Device/HID.c **** 		{
 174:../lufa-LUFA/LUFA/Drivers/USB/Class/Device/HID.c **** 			StatesChanged = (memcmp(ReportINData, HIDInterfaceInfo->Config.PrevReportINBuffer, ReportINSize)
 175:../lufa-LUFA/LUFA/Drivers/USB/Class/Device/HID.c **** 			memcpy(HIDInterfaceInfo->Config.PrevReportINBuffer, ReportINData, HIDInterfaceInfo->Config.PrevR
 176:../lufa-LUFA/LUFA/Drivers/USB/Class/Device/HID.c **** 		}
 177:../lufa-LUFA/LUFA/Drivers/USB/Class/Device/HID.c **** 
 178:../lufa-LUFA/LUFA/Drivers/USB/Class/Device/HID.c **** 		if (ReportINSize && (ForceSend || StatesChanged || IdlePeriodElapsed))
 179:../lufa-LUFA/LUFA/Drivers/USB/Class/Device/HID.c **** 		{
 180:../lufa-LUFA/LUFA/Drivers/USB/Class/Device/HID.c **** 			HIDInterfaceInfo->State.IdleMSRemaining = HIDInterfaceInfo->State.IdleCount;
 181:../lufa-LUFA/LUFA/Drivers/USB/Class/Device/HID.c **** 
 182:../lufa-LUFA/LUFA/Drivers/USB/Class/Device/HID.c **** 			Endpoint_SelectEndpoint(HIDInterfaceInfo->Config.ReportINEndpointNumber);
 183:../lufa-LUFA/LUFA/Drivers/USB/Class/Device/HID.c **** 
 184:../lufa-LUFA/LUFA/Drivers/USB/Class/Device/HID.c **** 			if (ReportID)
 185:../lufa-LUFA/LUFA/Drivers/USB/Class/Device/HID.c **** 			  Endpoint_Write_Byte(ReportID);
 186:../lufa-LUFA/LUFA/Drivers/USB/Class/Device/HID.c **** 
 187:../lufa-LUFA/LUFA/Drivers/USB/Class/Device/HID.c **** 			Endpoint_Write_Stream_LE(ReportINData, ReportINSize, NO_STREAM_CALLBACK);
 188:../lufa-LUFA/LUFA/Drivers/USB/Class/Device/HID.c **** 			
 189:../lufa-LUFA/LUFA/Drivers/USB/Class/Device/HID.c **** 			Endpoint_ClearIN();
 190:../lufa-LUFA/LUFA/Drivers/USB/Class/Device/HID.c **** 		}
 191:../lufa-LUFA/LUFA/Drivers/USB/Class/Device/HID.c **** 	}
 192:../lufa-LUFA/LUFA/Drivers/USB/Class/Device/HID.c **** }
 605               		.loc 1 192 0
 606 0028 ADB6      		in r10,__SP_L__
 607 002a BEB6      		in r11,__SP_H__
 154:../lufa-LUFA/LUFA/Drivers/USB/Class/Device/HID.c **** 	if (USB_DeviceState != DEVICE_STATE_Configured)
 608               		.loc 1 154 0
 609 002c 8EB3      		in r24,0x1e
 610               	.LVL31:
 611 002e 8430      		cpi r24,lo8(4)
 612 0030 01F0      		breq .+2
 613 0032 00C0      		rjmp .L25
 157:../lufa-LUFA/LUFA/Drivers/USB/Class/Device/HID.c **** 	Endpoint_SelectEndpoint(HIDInterfaceInfo->Config.ReportINEndpointNumber);
 614               		.loc 1 157 0
 615 0034 F701      		movw r30,r14
 616 0036 8181      		ldd r24,Z+1
 617               	.LVL32:
 618               	.LBB83:
 619               	.LBB84:
 299:../lufa-LUFA/LUFA/Drivers/USB/Class/Device/../../HighLevel/../LowLevel/Endpoint.h **** 					UENUM = EndpointNumber;
 620               		.loc 2 299 0
 621 0038 8093 E900 		sts 233,r24
 622               	.LBE84:
 623               	.LBE83:
 624               	.LBB85:
 625               	.LBB86:
 358:../lufa-LUFA/LUFA/Drivers/USB/Class/Device/../../HighLevel/../LowLevel/Endpoint.h **** 				return ((UEINTX & (1 << RWAL)) ? true : false);
 626               		.loc 2 358 0
 627 003c 8091 E800 		lds r24,232
 628               	.LVL33:
 629               	.LBE86:
 630               	.LBE85:
 159:../lufa-LUFA/LUFA/Drivers/USB/Class/Device/HID.c **** 	if (Endpoint_IsReadWriteAllowed())
 631               		.loc 1 159 0
 632 0040 85FF      		sbrs r24,5
 633 0042 00C0      		rjmp .L25
 634               	.LBB87:
 635 0044 8DB6      		in r8,__SP_L__
 636 0046 9EB6      		in r9,__SP_H__
 637               	.LVL34:
 161:../lufa-LUFA/LUFA/Drivers/USB/Class/Device/HID.c **** 		uint8_t  ReportINData[HIDInterfaceInfo->Config.PrevReportINBufferSize];
 638               		.loc 1 161 0
 639 0048 4781      		ldd r20,Z+7
 640 004a 50E0      		ldi r21,0
 641 004c 8DB7      		in r24,__SP_L__
 642 004e 9EB7      		in r25,__SP_H__
 643 0050 841B      		sub r24,r20
 644 0052 950B      		sbc r25,r21
 645 0054 0FB6      		in __tmp_reg__,__SREG__
 646 0056 F894      		cli
 647 0058 9EBF      		out __SP_H__,r25
 648 005a 0FBE      		out __SREG__,__tmp_reg__
 649 005c 8DBF      		out __SP_L__,r24
 650 005e EDB7      		in r30,__SP_L__
 651 0060 FEB7      		in r31,__SP_H__
 652 0062 3196      		adiw r30,1
 653 0064 6F01      		movw r12,r30
 654               	.LVL35:
 162:../lufa-LUFA/LUFA/Drivers/USB/Class/Device/HID.c **** 		uint8_t  ReportID     = 0;
 655               		.loc 1 162 0
 656 0066 1B82      		std Y+3,__zero_reg__
 657               	.LVL36:
 163:../lufa-LUFA/LUFA/Drivers/USB/Class/Device/HID.c **** 		uint16_t ReportINSize = 0;
 658               		.loc 1 163 0
 659 0068 1A82      		std Y+2,__zero_reg__
 660 006a 1982      		std Y+1,__zero_reg__
 165:../lufa-LUFA/LUFA/Drivers/USB/Class/Device/HID.c **** 		memset(ReportINData, 0, sizeof(ReportINData));
 661               		.loc 1 165 0
 662 006c 60E0      		ldi r22,0
 663 006e 70E0      		ldi r23,0
 664 0070 CF01      		movw r24,r30
 665 0072 0E94 0000 		call memset
 666               	.LVL37:
 167:../lufa-LUFA/LUFA/Drivers/USB/Class/Device/HID.c **** 		bool ForceSend         = CALLBACK_HID_Device_CreateHIDReport(HIDInterfaceInfo, &ReportID, REPORT_
 667               		.loc 1 167 0
 668 0076 8E01      		movw r16,r28
 669 0078 0F5F      		subi r16,-1
 670 007a 1F4F      		sbci r17,-1
 671 007c 9601      		movw r18,r12
 672 007e 40E0      		ldi r20,0
 673 0080 BE01      		movw r22,r28
 674 0082 6D5F      		subi r22,-3
 675 0084 7F4F      		sbci r23,-1
 676 0086 C701      		movw r24,r14
 677 0088 0E94 0000 		call CALLBACK_HID_Device_CreateHIDReport
 678               	.LVL38:
 679 008c 682E      		mov r6,r24
 680               	.LVL39:
 170:../lufa-LUFA/LUFA/Drivers/USB/Class/Device/HID.c **** 		bool IdlePeriodElapsed = (HIDInterfaceInfo->State.IdleCount && !(HIDInterfaceInfo->State.IdleMSRe
 681               		.loc 1 170 0
 682 008e F701      		movw r30,r14
 683 0090 8185      		ldd r24,Z+9
 684 0092 9285      		ldd r25,Z+10
 685 0094 892B      		or r24,r25
 686 0096 01F0      		breq .L36
 170:../lufa-LUFA/LUFA/Drivers/USB/Class/Device/HID.c **** 		bool IdlePeriodElapsed = (HIDInterfaceInfo->State.IdleCount && !(HIDInterfaceInfo->State.IdleMSRe
 687               		.loc 1 170 0 is_stmt 0 discriminator 1
 688 0098 21E0      		ldi r18,lo8(1)
 689 009a 8385      		ldd r24,Z+11
 690 009c 9485      		ldd r25,Z+12
 691 009e 892B      		or r24,r25
 692 00a0 01F0      		breq .L30
 693 00a2 20E0      		ldi r18,0
 694               	.L30:
 695 00a4 722E      		mov r7,r18
 696 00a6 00C0      		rjmp .L29
 697               	.L36:
 170:../lufa-LUFA/LUFA/Drivers/USB/Class/Device/HID.c **** 		bool IdlePeriodElapsed = (HIDInterfaceInfo->State.IdleCount && !(HIDInterfaceInfo->State.IdleMSRe
 698               		.loc 1 170 0
 699 00a8 712C      		mov r7,__zero_reg__
 700               	.L29:
 701               	.LVL40:
 172:../lufa-LUFA/LUFA/Drivers/USB/Class/Device/HID.c **** 		if (HIDInterfaceInfo->Config.PrevReportINBuffer != NULL)
 702               		.loc 1 172 0 is_stmt 1 discriminator 4
 703 00aa F701      		movw r30,r14
 704 00ac 0581      		ldd r16,Z+5
 705 00ae 1681      		ldd r17,Z+6
 706 00b0 0115      		cp r16,__zero_reg__
 707 00b2 1105      		cpc r17,__zero_reg__
 708 00b4 01F0      		breq .L37
 174:../lufa-LUFA/LUFA/Drivers/USB/Class/Device/HID.c **** 			StatesChanged = (memcmp(ReportINData, HIDInterfaceInfo->Config.PrevReportINBuffer, ReportINSize)
 709               		.loc 1 174 0
 710 00b6 4981      		ldd r20,Y+1
 711 00b8 5A81      		ldd r21,Y+2
 712 00ba B801      		movw r22,r16
 713 00bc C601      		movw r24,r12
 714 00be 0E94 0000 		call memcmp
 715               	.LVL41:
 716 00c2 5524      		clr r5
 717 00c4 5394      		inc r5
 718 00c6 892B      		or r24,r25
 719 00c8 01F4      		brne .L32
 720 00ca 512C      		mov r5,__zero_reg__
 721               	.L32:
 722               	.LVL42:
 175:../lufa-LUFA/LUFA/Drivers/USB/Class/Device/HID.c **** 			memcpy(HIDInterfaceInfo->Config.PrevReportINBuffer, ReportINData, HIDInterfaceInfo->Config.PrevR
 723               		.loc 1 175 0
 724 00cc F701      		movw r30,r14
 725 00ce 4781      		ldd r20,Z+7
 726 00d0 50E0      		ldi r21,0
 727 00d2 B601      		movw r22,r12
 728 00d4 C801      		movw r24,r16
 729 00d6 0E94 0000 		call memcpy
 730               	.LVL43:
 731 00da 00C0      		rjmp .L31
 732               	.LVL44:
 733               	.L37:
 169:../lufa-LUFA/LUFA/Drivers/USB/Class/Device/HID.c **** 		bool StatesChanged     = false;
 734               		.loc 1 169 0
 735 00dc 512C      		mov r5,__zero_reg__
 736               	.LVL45:
 737               	.L31:
 178:../lufa-LUFA/LUFA/Drivers/USB/Class/Device/HID.c **** 		if (ReportINSize && (ForceSend || StatesChanged || IdlePeriodElapsed))
 738               		.loc 1 178 0
 739 00de 2981      		ldd r18,Y+1
 740 00e0 3A81      		ldd r19,Y+2
 741 00e2 232B      		or r18,r19
 742 00e4 01F0      		breq .L33
 178:../lufa-LUFA/LUFA/Drivers/USB/Class/Device/HID.c **** 		if (ReportINSize && (ForceSend || StatesChanged || IdlePeriodElapsed))
 743               		.loc 1 178 0 is_stmt 0 discriminator 1
 744 00e6 6110      		cpse r6,__zero_reg__
 745 00e8 00C0      		rjmp .L34
 746 00ea 5110      		cpse r5,__zero_reg__
 747 00ec 00C0      		rjmp .L34
 748 00ee 70FE      		sbrs r7,0
 749 00f0 00C0      		rjmp .L33
 750               	.L34:
 180:../lufa-LUFA/LUFA/Drivers/USB/Class/Device/HID.c **** 			HIDInterfaceInfo->State.IdleMSRemaining = HIDInterfaceInfo->State.IdleCount;
 751               		.loc 1 180 0 is_stmt 1
 752 00f2 F701      		movw r30,r14
 753 00f4 8185      		ldd r24,Z+9
 754 00f6 9285      		ldd r25,Z+10
 755 00f8 9487      		std Z+12,r25
 756 00fa 8387      		std Z+11,r24
 182:../lufa-LUFA/LUFA/Drivers/USB/Class/Device/HID.c **** 			Endpoint_SelectEndpoint(HIDInterfaceInfo->Config.ReportINEndpointNumber);
 757               		.loc 1 182 0
 758 00fc 8181      		ldd r24,Z+1
 759               	.LVL46:
 760               	.LBB88:
 761               	.LBB89:
 299:../lufa-LUFA/LUFA/Drivers/USB/Class/Device/../../HighLevel/../LowLevel/Endpoint.h **** 					UENUM = EndpointNumber;
 762               		.loc 2 299 0
 763 00fe 8093 E900 		sts 233,r24
 764               	.LBE89:
 765               	.LBE88:
 184:../lufa-LUFA/LUFA/Drivers/USB/Class/Device/HID.c **** 			if (ReportID)
 766               		.loc 1 184 0
 767 0102 8B81      		ldd r24,Y+3
 768               	.LVL47:
 769 0104 8111      		cpse r24,__zero_reg__
 770               	.LVL48:
 771               	.LBB90:
 772               	.LBB91:
 562:../lufa-LUFA/LUFA/Drivers/USB/Class/Device/../../HighLevel/../LowLevel/Endpoint.h **** 				UEDATX = Byte;
 773               		.loc 2 562 0
 774 0106 8093 F100 		sts 241,r24
 775               	.LVL49:
 776               	.L35:
 777               	.LBE91:
 778               	.LBE90:
 187:../lufa-LUFA/LUFA/Drivers/USB/Class/Device/HID.c **** 			Endpoint_Write_Stream_LE(ReportINData, ReportINSize, NO_STREAM_CALLBACK);
 779               		.loc 1 187 0
 780 010a 6981      		ldd r22,Y+1
 781 010c 7A81      		ldd r23,Y+2
 782 010e 40E0      		ldi r20,0
 783 0110 50E0      		ldi r21,0
 784 0112 C601      		movw r24,r12
 785 0114 0E94 0000 		call Endpoint_Write_Stream_LE
 786               	.LVL50:
 787               	.LBB92:
 788               	.LBB93:
 454:../lufa-LUFA/LUFA/Drivers/USB/Class/Device/../../HighLevel/../LowLevel/Endpoint.h **** 					UEINTX &= ~((1 << TXINI) | (1 << FIFOCON));
 789               		.loc 2 454 0
 790 0118 8091 E800 		lds r24,232
 791 011c 8E77      		andi r24,lo8(126)
 792 011e 8093 E800 		sts 232,r24
 793               	.L33:
 794               	.LBE93:
 795               	.LBE92:
 796 0122 0FB6      		in __tmp_reg__,__SREG__
 797 0124 F894      		cli
 798 0126 9EBE      		out __SP_H__,r9
 799 0128 0FBE      		out __SREG__,__tmp_reg__
 800 012a 8DBE      		out __SP_L__,r8
 801               	.LVL51:
 802               	.L25:
 803               	.LBE87:
 804               		.loc 1 192 0
 805 012c 0FB6      		in __tmp_reg__,__SREG__
 806 012e F894      		cli
 807 0130 BEBE      		out __SP_H__,r11
 808 0132 0FBE      		out __SREG__,__tmp_reg__
 809 0134 ADBE      		out __SP_L__,r10
 810               	/* epilogue start */
 811 0136 0F90      		pop __tmp_reg__
 812 0138 0F90      		pop __tmp_reg__
 813 013a 0F90      		pop __tmp_reg__
 814 013c DF91      		pop r29
 815 013e CF91      		pop r28
 816 0140 1F91      		pop r17
 817 0142 0F91      		pop r16
 818 0144 FF90      		pop r15
 819 0146 EF90      		pop r14
 820               	.LVL52:
 821 0148 DF90      		pop r13
 822 014a CF90      		pop r12
 823 014c BF90      		pop r11
 824 014e AF90      		pop r10
 825 0150 9F90      		pop r9
 826 0152 8F90      		pop r8
 827 0154 7F90      		pop r7
 828 0156 6F90      		pop r6
 829 0158 5F90      		pop r5
 830 015a 0895      		ret
 831               		.cfi_endproc
 832               	.LFE68:
 834               		.text
 835               	.Letext0:
 836               		.file 3 "/usr/lib/avr/include/stdint.h"
 837               		.file 4 "/usr/lib/gcc/avr/4.8.2/include/stddef.h"
 838               		.file 5 "../lufa-LUFA/LUFA/Drivers/USB/Class/Device/../../HighLevel/../LowLevel/../HighLevel/Strea
 839               		.file 6 "../lufa-LUFA/LUFA/Drivers/USB/Class/Device/../../HighLevel/../LowLevel/../HighLevel/StdRe
 840               		.file 7 "../lufa-LUFA/LUFA/Drivers/USB/Class/Device/../../HighLevel/../LowLevel/Device.h"
 841               		.file 8 "../lufa-LUFA/LUFA/Drivers/USB/Class/Device/../Common/HID.h"
 842               		.file 9 "../lufa-LUFA/LUFA/Drivers/USB/Class/Device/HID.h"
 843               		.file 10 "/usr/lib/avr/include/string.h"
 844               		.file 11 "../lufa-LUFA/LUFA/Drivers/USB/Class/Device/../../HighLevel/USBTask.h"