
Joystick.elf:     file format elf32-avr

Sections:
Idx Name          Size      VMA       LMA       File off  Algn
  0 .data         00000010  00800100  0000109e  00001132  2**0
                  CONTENTS, ALLOC, LOAD, DATA
  1 .text         0000109e  00000000  00000000  00000094  2**1
                  CONTENTS, ALLOC, LOAD, READONLY, CODE
  2 .bss          00000011  00800110  00800110  00001142  2**0
                  ALLOC
  3 .stab         00000a98  00000000  00000000  00001144  2**2
                  CONTENTS, READONLY, DEBUGGING
  4 .stabstr      0000016f  00000000  00000000  00001bdc  2**0
                  CONTENTS, READONLY, DEBUGGING
  5 .comment      00000011  00000000  00000000  00001d4b  2**0
                  CONTENTS, READONLY
  6 .debug_aranges 00000660  00000000  00000000  00001d5c  2**0
                  CONTENTS, READONLY, DEBUGGING
  7 .debug_info   0000a47b  00000000  00000000  000023bc  2**0
                  CONTENTS, READONLY, DEBUGGING
  8 .debug_abbrev 00002ae0  00000000  00000000  0000c837  2**0
                  CONTENTS, READONLY, DEBUGGING
  9 .debug_line   00003fce  00000000  00000000  0000f317  2**0
                  CONTENTS, READONLY, DEBUGGING
 10 .debug_frame  00000ef8  00000000  00000000  000132e8  2**2
                  CONTENTS, READONLY, DEBUGGING
 11 .debug_str    00003ce6  00000000  00000000  000141e0  2**0
                  CONTENTS, READONLY, DEBUGGING
 12 .debug_loc    000066ee  00000000  00000000  00017ec6  2**0
                  CONTENTS, READONLY, DEBUGGING
 13 .debug_ranges 00000700  00000000  00000000  0001e5b4  2**0
                  CONTENTS, READONLY, DEBUGGING

Disassembly of section .text:

00000000 <__vectors>:
#include "HIDParser.h"

uint8_t USB_ProcessHIDReport(const uint8_t* ReportData,
                             uint16_t ReportSize,
                             HID_ReportInfo_t* const ParserData)
{
       0:	a5 c0       	rjmp	.+330    	; 0x14c <__ctors_end>
       2:	00 00       	nop
       4:	c0 c0       	rjmp	.+384    	; 0x186 <__bad_interrupt>
       6:	00 00       	nop
       8:	be c0       	rjmp	.+380    	; 0x186 <__bad_interrupt>
       a:	00 00       	nop
       c:	bc c0       	rjmp	.+376    	; 0x186 <__bad_interrupt>
       e:	00 00       	nop
      10:	ba c0       	rjmp	.+372    	; 0x186 <__bad_interrupt>
      12:	00 00       	nop
      14:	b8 c0       	rjmp	.+368    	; 0x186 <__bad_interrupt>
      16:	00 00       	nop
      18:	b6 c0       	rjmp	.+364    	; 0x186 <__bad_interrupt>
      1a:	00 00       	nop
      1c:	b4 c0       	rjmp	.+360    	; 0x186 <__bad_interrupt>
      1e:	00 00       	nop
      20:	b2 c0       	rjmp	.+356    	; 0x186 <__bad_interrupt>
      22:	00 00       	nop
      24:	b0 c0       	rjmp	.+352    	; 0x186 <__bad_interrupt>
      26:	00 00       	nop
      28:	e1 c3       	rjmp	.+1986   	; 0x7ec <__vector_10>
      2a:	00 00       	nop
      2c:	ac c0       	rjmp	.+344    	; 0x186 <__bad_interrupt>
      2e:	00 00       	nop
      30:	aa c0       	rjmp	.+340    	; 0x186 <__bad_interrupt>
      32:	00 00       	nop
      34:	a8 c0       	rjmp	.+336    	; 0x186 <__bad_interrupt>
      36:	00 00       	nop
	HID_StateTable_t      StateTable[HID_STATETABLE_STACK_DEPTH];
	HID_StateTable_t*     CurrStateTable     = &StateTable[0];
	HID_CollectionPath_t* CurrCollectionPath = NULL;
	HID_ReportSizeInfo_t* CurrReportIDInfo   = &ParserData->ReportIDSizes[0];
      38:	a6 c0       	rjmp	.+332    	; 0x186 <__bad_interrupt>
      3a:	00 00       	nop
      3c:	a4 c0       	rjmp	.+328    	; 0x186 <__bad_interrupt>
      3e:	00 00       	nop
      40:	a2 c0       	rjmp	.+324    	; 0x186 <__bad_interrupt>
      42:	00 00       	nop
      44:	a0 c0       	rjmp	.+320    	; 0x186 <__bad_interrupt>
	uint16_t              UsageList[HID_USAGE_STACK_DEPTH];
	uint8_t               UsageListSize      = 0;
	HID_MinMax_t          UsageMinMax        = {0, 0};

	memset(ParserData,       0x00, sizeof(HID_ReportInfo_t));
      46:	00 00       	nop
      48:	9e c0       	rjmp	.+316    	; 0x186 <__bad_interrupt>
      4a:	00 00       	nop
      4c:	9c c0       	rjmp	.+312    	; 0x186 <__bad_interrupt>
      4e:	00 00       	nop
      50:	9a c0       	rjmp	.+308    	; 0x186 <__bad_interrupt>
      52:	00 00       	nop
	memset(CurrStateTable,   0x00, sizeof(HID_StateTable_t));
      54:	98 c0       	rjmp	.+304    	; 0x186 <__bad_interrupt>
      56:	00 00       	nop
      58:	96 c0       	rjmp	.+300    	; 0x186 <__bad_interrupt>
      5a:	00 00       	nop
      5c:	94 c0       	rjmp	.+296    	; 0x186 <__bad_interrupt>
      5e:	00 00       	nop
      60:	92 c0       	rjmp	.+292    	; 0x186 <__bad_interrupt>
	memset(CurrReportIDInfo, 0x00, sizeof(HID_ReportSizeInfo_t));
      62:	00 00       	nop
      64:	90 c0       	rjmp	.+288    	; 0x186 <__bad_interrupt>
      66:	00 00       	nop
      68:	8e c0       	rjmp	.+284    	; 0x186 <__bad_interrupt>
      6a:	00 00       	nop

	ParserData->TotalDeviceReports = 1;
      6c:	8c c0       	rjmp	.+280    	; 0x186 <__bad_interrupt>
      6e:	00 00       	nop
      70:	8a c0       	rjmp	.+276    	; 0x186 <__bad_interrupt>
      72:	00 00       	nop
      74:	88 c0       	rjmp	.+272    	; 0x186 <__bad_interrupt>
      76:	00 00       	nop
      78:	86 c0       	rjmp	.+268    	; 0x186 <__bad_interrupt>
      7a:	00 00       	nop
      7c:	84 c0       	rjmp	.+264    	; 0x186 <__bad_interrupt>
      7e:	00 00       	nop
	HID_StateTable_t*     CurrStateTable     = &StateTable[0];
	HID_CollectionPath_t* CurrCollectionPath = NULL;
	HID_ReportSizeInfo_t* CurrReportIDInfo   = &ParserData->ReportIDSizes[0];
	uint16_t              UsageList[HID_USAGE_STACK_DEPTH];
	uint8_t               UsageListSize      = 0;
	HID_MinMax_t          UsageMinMax        = {0, 0};
      80:	82 c0       	rjmp	.+260    	; 0x186 <__bad_interrupt>
      82:	00 00       	nop
      84:	80 c0       	rjmp	.+256    	; 0x186 <__bad_interrupt>
      86:	00 00       	nop
      88:	7e c0       	rjmp	.+252    	; 0x186 <__bad_interrupt>
      8a:	00 00       	nop
	HID_StateTable_t      StateTable[HID_STATETABLE_STACK_DEPTH];
	HID_StateTable_t*     CurrStateTable     = &StateTable[0];
	HID_CollectionPath_t* CurrCollectionPath = NULL;
	HID_ReportSizeInfo_t* CurrReportIDInfo   = &ParserData->ReportIDSizes[0];
	uint16_t              UsageList[HID_USAGE_STACK_DEPTH];
	uint8_t               UsageListSize      = 0;
      8c:	7c c0       	rjmp	.+248    	; 0x186 <__bad_interrupt>
      8e:	00 00       	nop
      90:	7a c0       	rjmp	.+244    	; 0x186 <__bad_interrupt>
                             uint16_t ReportSize,
                             HID_ReportInfo_t* const ParserData)
{
	HID_StateTable_t      StateTable[HID_STATETABLE_STACK_DEPTH];
	HID_StateTable_t*     CurrStateTable     = &StateTable[0];
	HID_CollectionPath_t* CurrCollectionPath = NULL;
      92:	00 00       	nop
      94:	78 c0       	rjmp	.+240    	; 0x186 <__bad_interrupt>
      96:	00 00       	nop

00000098 <ProductString>:
      98:	26 03 4c 00 55 00 46 00 41 00 20 00 4a 00 6f 00     &.L.U.F.A. .J.o.

					NewReportItem.BitOffset = CurrReportIDInfo->ReportSizeBits[NewReportItem.ItemType];

					CurrReportIDInfo->ReportSizeBits[NewReportItem.ItemType] += CurrStateTable->Attributes.BitSize;

					ParserData->LargestReportSizeBits = MAX(ParserData->LargestReportSizeBits, CurrReportIDInfo->ReportSizeBits[NewReportItem.ItemType]);
      a8:	79 00 73 00 74 00 69 00 63 00 6b 00 20 00 44 00     y.s.t.i.c.k. .D.

					CurrCollectionPath = &ParserData->CollectionPaths[1];

					while (CurrCollectionPath->Parent != NULL)
					{
						if (CurrCollectionPath == &ParserData->CollectionPaths[HID_MAX_COLLECTIONS - 1])
      b8:	65 00 6d 00 6f 00 00 00                             e.m.o...

000000c0 <ManufacturerString>:
				break;

			case HID_RI_REPORT_ID(0):
				CurrStateTable->ReportID                    = ReportItemData;

				if (ParserData->UsingReportIDs)
      c0:	18 03 44 00 65 00 61 00 6e 00 20 00 43 00 61 00     ..D.e.a.n. .C.a.
				{
					CurrReportIDInfo = NULL;

					for (uint8_t i = 0; i < ParserData->TotalDeviceReports; i++)
      d0:	6d 00 65 00 72 00 61 00 00 00                       m.e.r.a...

000000da <LanguageString>:
	memset(CurrStateTable,   0x00, sizeof(HID_StateTable_t));
	memset(CurrReportIDInfo, 0x00, sizeof(HID_ReportSizeInfo_t));

	ParserData->TotalDeviceReports = 1;

	while (ReportSize)
      da:	04 03 09 04                                         ....

000000de <ConfigurationDescriptor>:
	{
		uint8_t  HIDReportItem  = *ReportData;
      de:	09 02 22 00 01 01 00 c0 32 09 04 00 00 01 03 00     ..".....2.......
		uint32_t ReportItemData;

		ReportData++;
		ReportSize--;

		switch (HIDReportItem & HID_RI_DATA_SIZE_MASK)
      ee:	00 00 09 21 11 01 00 01 22 3a 00 07 05 81 03 08     ...!....":......
	{
		uint8_t  HIDReportItem  = *ReportData;
		uint32_t ReportItemData;

		ReportData++;
		ReportSize--;
      fe:	00 05                                               ..

00000100 <DeviceDescriptor>:
     100:	12 01 10 01 00 00 00 08 eb 03 43 20 01 00 01 02     ..........C ....

		switch (HIDReportItem & HID_RI_DATA_SIZE_MASK)
		{
			case HID_RI_DATA_BITS_32:
				ReportItemData  = (((uint32_t)ReportData[3] << 24) | ((uint32_t)ReportData[2] << 16) |
     110:	00 01                                               ..

00000112 <JoystickReport>:
     112:	05 01 09 04 a1 01 09 01 a1 00 09 30 09 31 09 32     ...........0.1.2
     122:	16 9c ff 26 64 00 36 ff ff 46 01 00 95 03 75 08     ...&d.6..F....u.
			                       ((uint16_t)ReportData[1] << 8)  | ReportData[0]);
     132:	81 02 c0 05 09 19 01 29 02 15 00 25 01 75 01 95     .......)...%.u..
		ReportSize--;

		switch (HIDReportItem & HID_RI_DATA_SIZE_MASK)
		{
			case HID_RI_DATA_BITS_32:
				ReportItemData  = (((uint32_t)ReportData[3] << 24) | ((uint32_t)ReportData[2] << 16) |
     142:	02 81 02 75 06 95 01 81 01 c0                       ...u......

0000014c <__ctors_end>:
			                       ((uint16_t)ReportData[1] << 8)  | ReportData[0]);
				ReportSize     -= 4;
				ReportData     += 4;
     14c:	11 24       	eor	r1, r1
				break;
     14e:	1f be       	out	0x3f, r1	; 63

			case HID_RI_DATA_BITS_16:
				ReportItemData  = (((uint16_t)ReportData[1] << 8) | (ReportData[0]));
     150:	cf ef       	ldi	r28, 0xFF	; 255
     152:	d0 e2       	ldi	r29, 0x20	; 32
     154:	de bf       	out	0x3e, r29	; 62
     156:	cd bf       	out	0x3d, r28	; 61

00000158 <__do_copy_data>:
     158:	11 e0       	ldi	r17, 0x01	; 1
     15a:	a0 e0       	ldi	r26, 0x00	; 0
     15c:	b1 e0       	ldi	r27, 0x01	; 1
     15e:	ee e9       	ldi	r30, 0x9E	; 158
     160:	f0 e1       	ldi	r31, 0x10	; 16
				ReportSize     -= 2;
     162:	00 e0       	ldi	r16, 0x00	; 0
     164:	0b bf       	out	0x3b, r16	; 59
				ReportData     += 2;
     166:	02 c0       	rjmp	.+4      	; 0x16c <__do_copy_data+0x14>
     168:	07 90       	elpm	r0, Z+
     16a:	0d 92       	st	X+, r0
				break;
     16c:	a0 31       	cpi	r26, 0x10	; 16

			case HID_RI_DATA_BITS_8:
				ReportItemData  = ReportData[0];
     16e:	b1 07       	cpc	r27, r17
     170:	d9 f7       	brne	.-10     	; 0x168 <__do_copy_data+0x10>

00000172 <__do_clear_bss>:
     172:	11 e0       	ldi	r17, 0x01	; 1
     174:	a0 e1       	ldi	r26, 0x10	; 16
     176:	b1 e0       	ldi	r27, 0x01	; 1
     178:	01 c0       	rjmp	.+2      	; 0x17c <.do_clear_bss_start>

0000017a <.do_clear_bss_loop>:
				ReportSize     -= 1;
     17a:	1d 92       	st	X+, r1

0000017c <.do_clear_bss_start>:
     17c:	a1 32       	cpi	r26, 0x21	; 33
				ReportData     += 1;
     17e:	b1 07       	cpc	r27, r17
     180:	e1 f7       	brne	.-8      	; 0x17a <.do_clear_bss_loop>
     182:	30 d0       	rcall	.+96     	; 0x1e4 <main>
			default:
				ReportItemData  = 0;
				break;
		}

		switch (HIDReportItem & (HID_RI_TYPE_MASK | HID_RI_TAG_MASK))
     184:	8a c7       	rjmp	.+3860   	; 0x109a <_exit>

00000186 <__bad_interrupt>:
     186:	3c cf       	rjmp	.-392    	; 0x0 <__vectors>

00000188 <LEDs_SetAllLEDs>:
     188:	9b b1       	in	r25, 0x0b	; 11
     18a:	9f 70       	andi	r25, 0x0F	; 15
     18c:	98 2b       	or	r25, r24
     18e:	9b b9       	out	0x0b, r25	; 11
     190:	08 95       	ret

00000192 <SetupHardware>:
     192:	84 b7       	in	r24, 0x34	; 52
     194:	87 7f       	andi	r24, 0xF7	; 247
     196:	84 bf       	out	0x34, r24	; 52
     198:	88 e1       	ldi	r24, 0x18	; 24
     19a:	0f b6       	in	r0, 0x3f	; 63
     19c:	f8 94       	cli
     19e:	80 93 60 00 	sts	0x0060, r24
     1a2:	10 92 60 00 	sts	0x0060, r1
     1a6:	0f be       	out	0x3f, r0	; 63
     1a8:	90 e0       	ldi	r25, 0x00	; 0

			case HID_RI_USAGE_PAGE(0):
				if ((HIDReportItem & HID_RI_DATA_SIZE_MASK) == HID_RI_DATA_BITS_32)
				  CurrStateTable->Attributes.Usage.Page = (ReportItemData >> 16);

				CurrStateTable->Attributes.Usage.Page       = ReportItemData;
     1aa:	80 e8       	ldi	r24, 0x80	; 128
     1ac:	0f b6       	in	r0, 0x3f	; 63
     1ae:	f8 94       	cli
     1b0:	80 93 61 00 	sts	0x0061, r24
				break;
     1b4:	90 93 61 00 	sts	0x0061, r25
			default:
				ReportItemData  = 0;
				break;
		}

		switch (HIDReportItem & (HID_RI_TYPE_MASK | HID_RI_TAG_MASK))
     1b8:	0f be       	out	0x3f, r0	; 63
     1ba:	84 b1       	in	r24, 0x04	; 4
     1bc:	8f 71       	andi	r24, 0x1F	; 31
     1be:	84 b9       	out	0x04, r24	; 4
     1c0:	8d b1       	in	r24, 0x0d	; 13
     1c2:	8f 7c       	andi	r24, 0xCF	; 207
     1c4:	8d b9       	out	0x0d, r24	; 13
     1c6:	85 b1       	in	r24, 0x05	; 5
     1c8:	80 6e       	ori	r24, 0xE0	; 224
     1ca:	85 b9       	out	0x05, r24	; 5
     1cc:	8e b1       	in	r24, 0x0e	; 14
     1ce:	80 63       	ori	r24, 0x30	; 48
     1d0:	8e b9       	out	0x0e, r24	; 14
     1d2:	8a b1       	in	r24, 0x0a	; 10
     1d4:	80 6f       	ori	r24, 0xF0	; 240
				UsageMinMax.Minimum = ReportItemData;
				break;

			case HID_RI_USAGE_MAXIMUM(0):
				UsageMinMax.Maximum = ReportItemData;
				break;
     1d6:	8a b9       	out	0x0a, r24	; 10
     1d8:	8b b1       	in	r24, 0x0b	; 11
     1da:	8f 70       	andi	r24, 0x0F	; 15
			default:
				ReportItemData  = 0;
				break;
		}

		switch (HIDReportItem & (HID_RI_TYPE_MASK | HID_RI_TAG_MASK))
     1dc:	8b b9       	out	0x0b, r24	; 11
     1de:	6a 98       	cbi	0x0d, 2	; 13
     1e0:	72 9a       	sbi	0x0e, 2	; 14
     1e2:	e9 c2       	rjmp	.+1490   	; 0x7b6 <USB_Init>

000001e4 <main>:
     1e4:	d6 df       	rcall	.-84     	; 0x192 <SetupHardware>
     1e6:	80 e1       	ldi	r24, 0x10	; 16
			case HID_RI_PHYSICAL_MAXIMUM(0):
				CurrStateTable->Attributes.Physical.Maximum = ReportItemData;
				break;

			case HID_RI_UNIT_EXPONENT(0):
				CurrStateTable->Attributes.Unit.Exponent    = ReportItemData;
     1e8:	cf df       	rcall	.-98     	; 0x188 <LEDs_SetAllLEDs>
     1ea:	78 94       	sei
				break;
     1ec:	80 e0       	ldi	r24, 0x00	; 0
			default:
				ReportItemData  = 0;
				break;
		}

		switch (HIDReportItem & (HID_RI_TYPE_MASK | HID_RI_TAG_MASK))
     1ee:	91 e0       	ldi	r25, 0x01	; 1
     1f0:	7a d6       	rcall	.+3316   	; 0xee6 <HID_Device_USBTask>
     1f2:	18 d5       	rcall	.+2608   	; 0xc24 <USB_USBTask>
     1f4:	fb cf       	rjmp	.-10     	; 0x1ec <main+0x8>

000001f6 <EVENT_USB_Device_Connect>:
     1f6:	80 ea       	ldi	r24, 0xA0	; 160
     1f8:	c7 cf       	rjmp	.-114    	; 0x188 <LEDs_SetAllLEDs>

000001fa <EVENT_USB_Device_Disconnect>:
     1fa:	80 e1       	ldi	r24, 0x10	; 16
     1fc:	c5 cf       	rjmp	.-118    	; 0x188 <LEDs_SetAllLEDs>

000001fe <EVENT_USB_Device_ConfigurationChanged>:
     1fe:	80 e0       	ldi	r24, 0x00	; 0
     200:	91 e0       	ldi	r25, 0x01	; 1
			case HID_RI_UNIT(0):
				CurrStateTable->Attributes.Unit.Type        = ReportItemData;
				break;

			case HID_RI_REPORT_SIZE(0):
				CurrStateTable->Attributes.BitSize          = ReportItemData;
     202:	5e d6       	rcall	.+3260   	; 0xec0 <HID_Device_ConfigureEndpoints>
     204:	90 91 e2 00 	lds	r25, 0x00E2
			default:
				ReportItemData  = 0;
				break;
		}

		switch (HIDReportItem & (HID_RI_TYPE_MASK | HID_RI_TAG_MASK))
     208:	94 60       	ori	r25, 0x04	; 4
     20a:	90 93 e2 00 	sts	0x00E2, r25
     20e:	88 23       	and	r24, r24
     210:	11 f0       	breq	.+4      	; 0x216 <EVENT_USB_Device_ConfigurationChanged+0x18>
     212:	80 e6       	ldi	r24, 0x60	; 96
     214:	01 c0       	rjmp	.+2      	; 0x218 <EVENT_USB_Device_ConfigurationChanged+0x1a>
     216:	80 e9       	ldi	r24, 0x90	; 144
     218:	b7 cf       	rjmp	.-146    	; 0x188 <LEDs_SetAllLEDs>

0000021a <EVENT_USB_Device_ControlRequest>:
     21a:	80 e0       	ldi	r24, 0x00	; 0
     21c:	91 e0       	ldi	r25, 0x01	; 1
     21e:	1e c5       	rjmp	.+2620   	; 0xc5c <HID_Device_ProcessControlRequest>

00000220 <EVENT_USB_Device_StartOfFrame>:
     220:	80 91 0e 01 	lds	r24, 0x010E
     224:	90 91 0f 01 	lds	r25, 0x010F
     228:	00 97       	sbiw	r24, 0x00	; 0
     22a:	29 f0       	breq	.+10     	; 0x236 <EVENT_USB_Device_StartOfFrame+0x16>
     22c:	01 97       	sbiw	r24, 0x01	; 1
     22e:	90 93 0f 01 	sts	0x010F, r25
     232:	80 93 0e 01 	sts	0x010E, r24
					  return HID_PARSE_InsufficientReportItems;

					memcpy(&ParserData->ReportItems[ParserData->TotalReportItems],
					       &NewReportItem, sizeof(HID_ReportItem_t));

					if (!(ReportItemData & HID_IOF_CONSTANT) && CALLBACK_HIDParser_FilterHIDReportItem(&NewReportItem))
     236:	08 95       	ret

00000238 <CALLBACK_HID_Device_CreateHIDReport>:
     238:	0f 93       	push	r16
     23a:	1f 93       	push	r17
     23c:	f9 01       	movw	r30, r18
     23e:	93 b1       	in	r25, 0x03	; 3
     240:	8c b1       	in	r24, 0x0c	; 12
     242:	80 95       	com	r24
     244:	80 73       	andi	r24, 0x30	; 48
     246:	86 95       	lsr	r24
     248:	90 95       	com	r25
     24a:	90 7e       	andi	r25, 0xE0	; 224
     24c:	89 2b       	or	r24, r25
     24e:	9c b1       	in	r25, 0x0c	; 12
     250:	90 95       	com	r25
		}

		switch (HIDReportItem & (HID_RI_TYPE_MASK | HID_RI_TAG_MASK))
		{
			case HID_RI_PUSH(0):
				if (CurrStateTable == &StateTable[HID_STATETABLE_STACK_DEPTH - 1])
     252:	87 ff       	sbrs	r24, 7
     254:	02 c0       	rjmp	.+4      	; 0x25a <CALLBACK_HID_Device_CreateHIDReport+0x22>
     256:	2c e9       	ldi	r18, 0x9C	; 156
     258:	03 c0       	rjmp	.+6      	; 0x260 <CALLBACK_HID_Device_CreateHIDReport+0x28>
     25a:	84 ff       	sbrs	r24, 4
     25c:	02 c0       	rjmp	.+4      	; 0x262 <CALLBACK_HID_Device_CreateHIDReport+0x2a>
				  return HID_PARSE_HIDStackOverflow;

				memcpy((CurrStateTable + 1),
     25e:	24 e6       	ldi	r18, 0x64	; 100
     260:	21 83       	std	Z+1, r18	; 0x01
     262:	86 ff       	sbrs	r24, 6
     264:	02 c0       	rjmp	.+4      	; 0x26a <CALLBACK_HID_Device_CreateHIDReport+0x32>
     266:	2c e9       	ldi	r18, 0x9C	; 156
     268:	03 c0       	rjmp	.+6      	; 0x270 <CALLBACK_HID_Device_CreateHIDReport+0x38>
     26a:	83 ff       	sbrs	r24, 3
     26c:	02 c0       	rjmp	.+4      	; 0x272 <CALLBACK_HID_Device_CreateHIDReport+0x3a>
     26e:	24 e6       	ldi	r18, 0x64	; 100
				       CurrStateTable,
				       sizeof(HID_ReportItem_t));

				CurrStateTable++;
     270:	20 83       	st	Z, r18
				break;
     272:	85 ff       	sbrs	r24, 5

			case HID_RI_POP(0):
				if (CurrStateTable == &StateTable[0])
     274:	03 c0       	rjmp	.+6      	; 0x27c <CALLBACK_HID_Device_CreateHIDReport+0x44>
     276:	83 81       	ldd	r24, Z+3	; 0x03
     278:	82 60       	ori	r24, 0x02	; 2
     27a:	83 83       	std	Z+3, r24	; 0x03
     27c:	92 ff       	sbrs	r25, 2
     27e:	03 c0       	rjmp	.+6      	; 0x286 <CALLBACK_HID_Device_CreateHIDReport+0x4e>
				  return HID_PARSE_HIDStackUnderflow;

				CurrStateTable--;
     280:	83 81       	ldd	r24, Z+3	; 0x03
     282:	81 60       	ori	r24, 0x01	; 1
				break;
     284:	83 83       	std	Z+3, r24	; 0x03

				CurrStateTable->Attributes.Usage.Page       = ReportItemData;
				break;

			case HID_RI_LOGICAL_MINIMUM(0):
				CurrStateTable->Attributes.Logical.Minimum  = ReportItemData;
     286:	84 e0       	ldi	r24, 0x04	; 4
     288:	90 e0       	ldi	r25, 0x00	; 0
     28a:	f8 01       	movw	r30, r16
     28c:	91 83       	std	Z+1, r25	; 0x01
     28e:	80 83       	st	Z, r24
				break;
     290:	80 e0       	ldi	r24, 0x00	; 0

			case HID_RI_LOGICAL_MAXIMUM(0):
				CurrStateTable->Attributes.Logical.Maximum  = ReportItemData;
     292:	1f 91       	pop	r17
     294:	0f 91       	pop	r16
     296:	08 95       	ret

00000298 <CALLBACK_HID_Device_ProcessHIDReport>:
     298:	08 95       	ret

0000029a <CALLBACK_USB_GetDescriptor>:
     29a:	29 2f       	mov	r18, r25
     29c:	33 27       	eor	r19, r19
     29e:	23 30       	cpi	r18, 0x03	; 3
				break;
     2a0:	31 05       	cpc	r19, r1

			case HID_RI_PHYSICAL_MINIMUM(0):
				CurrStateTable->Attributes.Physical.Minimum = ReportItemData;
     2a2:	b9 f0       	breq	.+46     	; 0x2d2 <CALLBACK_USB_GetDescriptor+0x38>
     2a4:	5c f4       	brge	.+22     	; 0x2bc <CALLBACK_USB_GetDescriptor+0x22>
     2a6:	21 30       	cpi	r18, 0x01	; 1
     2a8:	31 05       	cpc	r19, r1
     2aa:	69 f1       	breq	.+90     	; 0x306 <CALLBACK_USB_GetDescriptor+0x6c>
				break;
     2ac:	22 30       	cpi	r18, 0x02	; 2

			case HID_RI_PHYSICAL_MAXIMUM(0):
				CurrStateTable->Attributes.Physical.Maximum = ReportItemData;
     2ae:	31 05       	cpc	r19, r1
     2b0:	79 f5       	brne	.+94     	; 0x310 <CALLBACK_USB_GetDescriptor+0x76>
     2b2:	82 e2       	ldi	r24, 0x22	; 34
     2b4:	90 e0       	ldi	r25, 0x00	; 0
     2b6:	2e ed       	ldi	r18, 0xDE	; 222
     2b8:	30 e0       	ldi	r19, 0x00	; 0
     2ba:	2e c0       	rjmp	.+92     	; 0x318 <CALLBACK_USB_GetDescriptor+0x7e>
				break;
     2bc:	21 32       	cpi	r18, 0x21	; 33
			case HID_RI_UNIT_EXPONENT(0):
				CurrStateTable->Attributes.Unit.Exponent    = ReportItemData;
				break;

			case HID_RI_UNIT(0):
				CurrStateTable->Attributes.Unit.Type        = ReportItemData;
     2be:	31 05       	cpc	r19, r1
     2c0:	e9 f0       	breq	.+58     	; 0x2fc <CALLBACK_USB_GetDescriptor+0x62>
     2c2:	22 32       	cpi	r18, 0x22	; 34
     2c4:	31 05       	cpc	r19, r1
     2c6:	21 f5       	brne	.+72     	; 0x310 <CALLBACK_USB_GetDescriptor+0x76>
     2c8:	8a e3       	ldi	r24, 0x3A	; 58
     2ca:	90 e0       	ldi	r25, 0x00	; 0
				break;
     2cc:	22 e1       	ldi	r18, 0x12	; 18
			case HID_RI_REPORT_SIZE(0):
				CurrStateTable->Attributes.BitSize          = ReportItemData;
				break;

			case HID_RI_REPORT_COUNT(0):
				CurrStateTable->ReportCount                 = ReportItemData;
     2ce:	31 e0       	ldi	r19, 0x01	; 1
     2d0:	23 c0       	rjmp	.+70     	; 0x318 <CALLBACK_USB_GetDescriptor+0x7e>
     2d2:	99 27       	eor	r25, r25
				break;
     2d4:	81 30       	cpi	r24, 0x01	; 1

			case HID_RI_REPORT_ID(0):
				CurrStateTable->ReportID                    = ReportItemData;
     2d6:	91 05       	cpc	r25, r1
     2d8:	41 f0       	breq	.+16     	; 0x2ea <CALLBACK_USB_GetDescriptor+0x50>
     2da:	82 30       	cpi	r24, 0x02	; 2

				if (ParserData->UsingReportIDs)
     2dc:	91 05       	cpc	r25, r1
     2de:	41 f0       	breq	.+16     	; 0x2f0 <CALLBACK_USB_GetDescriptor+0x56>
     2e0:	89 2b       	or	r24, r25
     2e2:	b1 f4       	brne	.+44     	; 0x310 <CALLBACK_USB_GetDescriptor+0x76>
     2e4:	ea ed       	ldi	r30, 0xDA	; 218
     2e6:	f0 e0       	ldi	r31, 0x00	; 0
     2e8:	05 c0       	rjmp	.+10     	; 0x2f4 <CALLBACK_USB_GetDescriptor+0x5a>
     2ea:	e0 ec       	ldi	r30, 0xC0	; 192
				{
					CurrReportIDInfo = NULL;

					for (uint8_t i = 0; i < ParserData->TotalDeviceReports; i++)
     2ec:	f0 e0       	ldi	r31, 0x00	; 0
     2ee:	02 c0       	rjmp	.+4      	; 0x2f4 <CALLBACK_USB_GetDescriptor+0x5a>
     2f0:	e8 e9       	ldi	r30, 0x98	; 152
     2f2:	f0 e0       	ldi	r31, 0x00	; 0
     2f4:	84 91       	lpm	r24, Z
     2f6:	90 e0       	ldi	r25, 0x00	; 0
     2f8:	9f 01       	movw	r18, r30
     2fa:	0e c0       	rjmp	.+28     	; 0x318 <CALLBACK_USB_GetDescriptor+0x7e>
     2fc:	89 e0       	ldi	r24, 0x09	; 9
     2fe:	90 e0       	ldi	r25, 0x00	; 0
     300:	20 ef       	ldi	r18, 0xF0	; 240
     302:	30 e0       	ldi	r19, 0x00	; 0
					{
						if (ParserData->ReportIDSizes[i].ReportID == CurrStateTable->ReportID)
     304:	09 c0       	rjmp	.+18     	; 0x318 <CALLBACK_USB_GetDescriptor+0x7e>
     306:	82 e1       	ldi	r24, 0x12	; 18
     308:	90 e0       	ldi	r25, 0x00	; 0
     30a:	20 e0       	ldi	r18, 0x00	; 0
     30c:	31 e0       	ldi	r19, 0x01	; 1
     30e:	04 c0       	rjmp	.+8      	; 0x318 <CALLBACK_USB_GetDescriptor+0x7e>
     310:	80 e0       	ldi	r24, 0x00	; 0
     312:	90 e0       	ldi	r25, 0x00	; 0
     314:	20 e0       	ldi	r18, 0x00	; 0
     316:	30 e0       	ldi	r19, 0x00	; 0
						{
							CurrReportIDInfo = &ParserData->ReportIDSizes[i];
     318:	fa 01       	movw	r30, r20
     31a:	31 83       	std	Z+1, r19	; 0x01
     31c:	20 83       	st	Z, r18
     31e:	08 95       	ret

00000320 <Endpoint_Write_Stream_LE>:
     320:	cf 92       	push	r12
     322:	df 92       	push	r13
     324:	ef 92       	push	r14
     326:	ff 92       	push	r15
     328:	0f 93       	push	r16
     32a:	1f 93       	push	r17
     32c:	cf 93       	push	r28
     32e:	df 93       	push	r29
     330:	7c 01       	movw	r14, r24
     332:	8b 01       	movw	r16, r22
     334:	ea 01       	movw	r28, r20
     336:	ca d1       	rcall	.+916    	; 0x6cc <Endpoint_WaitUntilReady>
						}
					}

					if (CurrReportIDInfo == NULL)
					{
						if (ParserData->TotalDeviceReports == HID_MAX_REPORT_IDS)
     338:	81 11       	cpse	r24, r1
     33a:	31 c0       	rjmp	.+98     	; 0x39e <Endpoint_Write_Stream_LE+0x7e>
     33c:	20 97       	sbiw	r28, 0x00	; 0
						  return HID_PARSE_InsufficientReportIDItems;

						CurrReportIDInfo = &ParserData->ReportIDSizes[ParserData->TotalDeviceReports++];
     33e:	31 f0       	breq	.+12     	; 0x34c <Endpoint_Write_Stream_LE+0x2c>
     340:	88 81       	ld	r24, Y
     342:	99 81       	ldd	r25, Y+1	; 0x01
     344:	08 1b       	sub	r16, r24
     346:	19 0b       	sbc	r17, r25
     348:	e8 0e       	add	r14, r24
     34a:	f9 1e       	adc	r15, r25
     34c:	c1 2c       	mov	r12, r1
     34e:	d1 2c       	mov	r13, r1
     350:	01 15       	cp	r16, r1
     352:	11 05       	cpc	r17, r1
     354:	19 f1       	breq	.+70     	; 0x39c <Endpoint_Write_Stream_LE+0x7c>
     356:	80 91 e8 00 	lds	r24, 0x00E8
     35a:	85 fd       	sbrc	r24, 5
     35c:	14 c0       	rjmp	.+40     	; 0x386 <Endpoint_Write_Stream_LE+0x66>
     35e:	80 91 e8 00 	lds	r24, 0x00E8
     362:	8e 77       	andi	r24, 0x7E	; 126
						memset(CurrReportIDInfo, 0x00, sizeof(HID_ReportSizeInfo_t));
     364:	80 93 e8 00 	sts	0x00E8, r24
     368:	5d d4       	rcall	.+2234   	; 0xc24 <USB_USBTask>
     36a:	20 97       	sbiw	r28, 0x00	; 0
					}
				}

				ParserData->UsingReportIDs = true;
     36c:	41 f0       	breq	.+16     	; 0x37e <Endpoint_Write_Stream_LE+0x5e>
     36e:	88 81       	ld	r24, Y
     370:	99 81       	ldd	r25, Y+1	; 0x01
     372:	8c 0d       	add	r24, r12
     374:	9d 1d       	adc	r25, r13
     376:	99 83       	std	Y+1, r25	; 0x01

				CurrReportIDInfo->ReportID = CurrStateTable->ReportID;
     378:	88 83       	st	Y, r24
     37a:	85 e0       	ldi	r24, 0x05	; 5
     37c:	10 c0       	rjmp	.+32     	; 0x39e <Endpoint_Write_Stream_LE+0x7e>
     37e:	a6 d1       	rcall	.+844    	; 0x6cc <Endpoint_WaitUntilReady>
     380:	88 23       	and	r24, r24
     382:	31 f3       	breq	.-52     	; 0x350 <Endpoint_Write_Stream_LE+0x30>
     384:	0c c0       	rjmp	.+24     	; 0x39e <Endpoint_Write_Stream_LE+0x7e>
     386:	f7 01       	movw	r30, r14
				break;
     388:	81 91       	ld	r24, Z+

			case HID_RI_USAGE(0):
				if (UsageListSize == HID_USAGE_STACK_DEPTH)
     38a:	7f 01       	movw	r14, r30
     38c:	80 93 f1 00 	sts	0x00F1, r24
     390:	01 50       	subi	r16, 0x01	; 1
     392:	11 09       	sbc	r17, r1
     394:	ff ef       	ldi	r31, 0xFF	; 255
				  return HID_PARSE_UsageListOverflow;

				UsageList[UsageListSize++] = ReportItemData;
     396:	cf 1a       	sub	r12, r31
     398:	df 0a       	sbc	r13, r31
     39a:	da cf       	rjmp	.-76     	; 0x350 <Endpoint_Write_Stream_LE+0x30>
     39c:	80 e0       	ldi	r24, 0x00	; 0
     39e:	df 91       	pop	r29
     3a0:	cf 91       	pop	r28
     3a2:	1f 91       	pop	r17
     3a4:	0f 91       	pop	r16
     3a6:	ff 90       	pop	r15
     3a8:	ef 90       	pop	r14
     3aa:	df 90       	pop	r13
     3ac:	cf 90       	pop	r12
     3ae:	08 95       	ret

000003b0 <Endpoint_Write_Control_Stream_LE>:
				break;
     3b0:	20 91 1f 01 	lds	r18, 0x011F
			case HID_RI_USAGE_MAXIMUM(0):
				UsageMinMax.Maximum = ReportItemData;
				break;

			case HID_RI_COLLECTION(0):
				if (CurrCollectionPath == NULL)
     3b4:	30 91 20 01 	lds	r19, 0x0120
     3b8:	26 17       	cp	r18, r22
     3ba:	37 07       	cpc	r19, r23
     3bc:	48 f0       	brcs	.+18     	; 0x3d0 <Endpoint_Write_Control_Stream_LE+0x20>
				{
					CurrCollectionPath = &ParserData->CollectionPaths[0];
     3be:	61 15       	cp	r22, r1
     3c0:	71 05       	cpc	r23, r1
     3c2:	39 f4       	brne	.+14     	; 0x3d2 <Endpoint_Write_Control_Stream_LE+0x22>
     3c4:	20 91 e8 00 	lds	r18, 0x00E8
     3c8:	2e 77       	andi	r18, 0x7E	; 126
     3ca:	20 93 e8 00 	sts	0x00E8, r18
				}
				else
				{
					HID_CollectionPath_t* ParentCollectionPath = CurrCollectionPath;

					CurrCollectionPath = &ParserData->CollectionPaths[1];
     3ce:	01 c0       	rjmp	.+2      	; 0x3d2 <Endpoint_Write_Control_Stream_LE+0x22>
     3d0:	b9 01       	movw	r22, r18
     3d2:	fc 01       	movw	r30, r24

					while (CurrCollectionPath->Parent != NULL)
     3d4:	20 e0       	ldi	r18, 0x00	; 0
     3d6:	61 15       	cp	r22, r1
     3d8:	71 05       	cpc	r23, r1
     3da:	99 f1       	breq	.+102    	; 0x442 <Endpoint_Write_Control_Stream_LE+0x92>
					{
						if (CurrCollectionPath == &ParserData->CollectionPaths[HID_MAX_COLLECTIONS - 1])
     3dc:	80 91 18 01 	lds	r24, 0x0118
     3e0:	88 23       	and	r24, r24
     3e2:	e9 f1       	breq	.+122    	; 0x45e <Endpoint_Write_Control_Stream_LE+0xae>
     3e4:	85 30       	cpi	r24, 0x05	; 5
     3e6:	e9 f1       	breq	.+122    	; 0x462 <Endpoint_Write_Control_Stream_LE+0xb2>
     3e8:	80 91 e8 00 	lds	r24, 0x00E8
     3ec:	83 fd       	sbrc	r24, 3
     3ee:	3b c0       	rjmp	.+118    	; 0x466 <Endpoint_Write_Control_Stream_LE+0xb6>
						  return HID_PARSE_InsufficientCollectionPaths;

						CurrCollectionPath++;
     3f0:	80 91 e8 00 	lds	r24, 0x00E8
					}

					CurrCollectionPath->Parent = ParentCollectionPath;
     3f4:	82 ff       	sbrs	r24, 2
     3f6:	06 c0       	rjmp	.+12     	; 0x404 <Endpoint_Write_Control_Stream_LE+0x54>
     3f8:	80 91 e8 00 	lds	r24, 0x00E8
     3fc:	82 ff       	sbrs	r24, 2
     3fe:	24 c0       	rjmp	.+72     	; 0x448 <Endpoint_Write_Control_Stream_LE+0x98>
     400:	80 e0       	ldi	r24, 0x00	; 0
     402:	08 95       	ret
     404:	80 91 e8 00 	lds	r24, 0x00E8
				}

				CurrCollectionPath->Type       = ReportItemData;
     408:	80 ff       	sbrs	r24, 0
     40a:	e5 cf       	rjmp	.-54     	; 0x3d6 <Endpoint_Write_Control_Stream_LE+0x26>
     40c:	80 91 f2 00 	lds	r24, 0x00F2
     410:	90 91 f3 00 	lds	r25, 0x00F3
				CurrCollectionPath->Usage.Page = CurrStateTable->Attributes.Usage.Page;
     414:	61 15       	cp	r22, r1
     416:	71 05       	cpc	r23, r1
     418:	51 f0       	breq	.+20     	; 0x42e <Endpoint_Write_Control_Stream_LE+0x7e>
     41a:	88 30       	cpi	r24, 0x08	; 8
     41c:	91 05       	cpc	r25, r1
     41e:	38 f4       	brcc	.+14     	; 0x42e <Endpoint_Write_Control_Stream_LE+0x7e>

				if (UsageListSize)
     420:	21 91       	ld	r18, Z+
     422:	20 93 f1 00 	sts	0x00F1, r18
     426:	61 50       	subi	r22, 0x01	; 1
     428:	71 09       	sbc	r23, r1
				{
					CurrCollectionPath->Usage.Usage = UsageList[0];
     42a:	01 96       	adiw	r24, 0x01	; 1
     42c:	f3 cf       	rjmp	.-26     	; 0x414 <Endpoint_Write_Control_Stream_LE+0x64>
     42e:	21 e0       	ldi	r18, 0x01	; 1
     430:	08 97       	sbiw	r24, 0x08	; 8
     432:	09 f0       	breq	.+2      	; 0x436 <Endpoint_Write_Control_Stream_LE+0x86>
     434:	20 e0       	ldi	r18, 0x00	; 0
     436:	80 91 e8 00 	lds	r24, 0x00E8
     43a:	8e 77       	andi	r24, 0x7E	; 126
     43c:	80 93 e8 00 	sts	0x00E8, r24

					for (uint8_t i = 1; i < UsageListSize; i++)
     440:	ca cf       	rjmp	.-108    	; 0x3d6 <Endpoint_Write_Control_Stream_LE+0x26>
     442:	21 11       	cpse	r18, r1
     444:	cb cf       	rjmp	.-106    	; 0x3dc <Endpoint_Write_Control_Stream_LE+0x2c>
     446:	d8 cf       	rjmp	.-80     	; 0x3f8 <Endpoint_Write_Control_Stream_LE+0x48>
     448:	80 91 18 01 	lds	r24, 0x0118
					  UsageList[i - 1] = UsageList[i];
     44c:	88 23       	and	r24, r24
     44e:	39 f0       	breq	.+14     	; 0x45e <Endpoint_Write_Control_Stream_LE+0xae>
     450:	85 30       	cpi	r24, 0x05	; 5
     452:	39 f0       	breq	.+14     	; 0x462 <Endpoint_Write_Control_Stream_LE+0xb2>

				if (UsageListSize)
				{
					CurrCollectionPath->Usage.Usage = UsageList[0];

					for (uint8_t i = 1; i < UsageListSize; i++)
     454:	80 91 e8 00 	lds	r24, 0x00E8
					  UsageList[i - 1] = UsageList[i];

					UsageListSize--;
     458:	83 ff       	sbrs	r24, 3
     45a:	ce cf       	rjmp	.-100    	; 0x3f8 <Endpoint_Write_Control_Stream_LE+0x48>
     45c:	04 c0       	rjmp	.+8      	; 0x466 <Endpoint_Write_Control_Stream_LE+0xb6>
     45e:	82 e0       	ldi	r24, 0x02	; 2
     460:	08 95       	ret
				}
				else if (UsageMinMax.Minimum <= UsageMinMax.Maximum)
     462:	83 e0       	ldi	r24, 0x03	; 3
     464:	08 95       	ret
     466:	81 e0       	ldi	r24, 0x01	; 1
     468:	08 95       	ret

0000046a <Endpoint_Read_Control_Stream_LE>:
     46a:	61 15       	cp	r22, r1
     46c:	71 05       	cpc	r23, r1
				{
					CurrCollectionPath->Usage.Usage = UsageMinMax.Minimum++;
     46e:	29 f4       	brne	.+10     	; 0x47a <Endpoint_Read_Control_Stream_LE+0x10>
     470:	20 91 e8 00 	lds	r18, 0x00E8
     474:	2b 77       	andi	r18, 0x7B	; 123
     476:	20 93 e8 00 	sts	0x00E8, r18
     47a:	61 15       	cp	r22, r1
     47c:	71 05       	cpc	r23, r1
     47e:	31 f1       	breq	.+76     	; 0x4cc <Endpoint_Read_Control_Stream_LE+0x62>
     480:	20 91 18 01 	lds	r18, 0x0118
     484:	22 23       	and	r18, r18
     486:	59 f1       	breq	.+86     	; 0x4de <Endpoint_Read_Control_Stream_LE+0x74>
     488:	25 30       	cpi	r18, 0x05	; 5
				}

				break;

			case HID_RI_END_COLLECTION(0):
				if (CurrCollectionPath == NULL)
     48a:	59 f1       	breq	.+86     	; 0x4e2 <Endpoint_Read_Control_Stream_LE+0x78>
     48c:	20 91 e8 00 	lds	r18, 0x00E8
     490:	23 fd       	sbrc	r18, 3
     492:	21 c0       	rjmp	.+66     	; 0x4d6 <Endpoint_Read_Control_Stream_LE+0x6c>
     494:	20 91 e8 00 	lds	r18, 0x00E8
     498:	22 ff       	sbrs	r18, 2
				  return HID_PARSE_UnexpectedEndCollection;

				CurrCollectionPath = CurrCollectionPath->Parent;
     49a:	f2 cf       	rjmp	.-28     	; 0x480 <Endpoint_Read_Control_Stream_LE+0x16>
     49c:	fc 01       	movw	r30, r24
     49e:	cf 01       	movw	r24, r30
     4a0:	20 91 f2 00 	lds	r18, 0x00F2
     4a4:	30 91 f3 00 	lds	r19, 0x00F3
     4a8:	23 2b       	or	r18, r19
     4aa:	11 f3       	breq	.-60     	; 0x470 <Endpoint_Read_Control_Stream_LE+0x6>
				break;
     4ac:	80 91 f1 00 	lds	r24, 0x00F1
					ParserData->LargestReportSizeBits = MAX(ParserData->LargestReportSizeBits, CurrReportIDInfo->ReportSizeBits[NewReportItem.ItemType]);

					if (ParserData->TotalReportItems == HID_MAX_REPORTITEMS)
					  return HID_PARSE_InsufficientReportItems;

					memcpy(&ParserData->ReportItems[ParserData->TotalReportItems],
     4b0:	81 93       	st	Z+, r24
     4b2:	cf 01       	movw	r24, r30
     4b4:	61 50       	subi	r22, 0x01	; 1
     4b6:	71 09       	sbc	r23, r1
     4b8:	61 15       	cp	r22, r1
     4ba:	71 05       	cpc	r23, r1
     4bc:	81 f7       	brne	.-32     	; 0x49e <Endpoint_Read_Control_Stream_LE+0x34>
     4be:	d8 cf       	rjmp	.-80     	; 0x470 <Endpoint_Read_Control_Stream_LE+0x6>
     4c0:	80 91 18 01 	lds	r24, 0x0118
     4c4:	88 23       	and	r24, r24
     4c6:	59 f0       	breq	.+22     	; 0x4de <Endpoint_Read_Control_Stream_LE+0x74>
     4c8:	85 30       	cpi	r24, 0x05	; 5
					       &NewReportItem, sizeof(HID_ReportItem_t));

					if (!(ReportItemData & HID_IOF_CONSTANT) && CALLBACK_HIDParser_FilterHIDReportItem(&NewReportItem))
     4ca:	59 f0       	breq	.+22     	; 0x4e2 <Endpoint_Read_Control_Stream_LE+0x78>
     4cc:	80 91 e8 00 	lds	r24, 0x00E8
     4d0:	80 ff       	sbrs	r24, 0
     4d2:	f6 cf       	rjmp	.-20     	; 0x4c0 <Endpoint_Read_Control_Stream_LE+0x56>
     4d4:	02 c0       	rjmp	.+4      	; 0x4da <Endpoint_Read_Control_Stream_LE+0x70>
     4d6:	81 e0       	ldi	r24, 0x01	; 1
     4d8:	08 95       	ret
     4da:	80 e0       	ldi	r24, 0x00	; 0
     4dc:	08 95       	ret
     4de:	82 e0       	ldi	r24, 0x02	; 2
     4e0:	08 95       	ret
     4e2:	83 e0       	ldi	r24, 0x03	; 3
				break;

			case HID_RI_INPUT(0):
			case HID_RI_OUTPUT(0):
			case HID_RI_FEATURE(0):
				for (uint8_t ReportItemNum = 0; ReportItemNum < CurrStateTable->ReportCount; ReportItemNum++)
     4e4:	08 95       	ret

000004e6 <Endpoint_Write_Control_PStream_LE>:
     4e6:	20 91 1f 01 	lds	r18, 0x011F
     4ea:	30 91 20 01 	lds	r19, 0x0120
     4ee:	26 17       	cp	r18, r22
				{
					HID_ReportItem_t NewReportItem;

					memcpy(&NewReportItem.Attributes,
     4f0:	37 07       	cpc	r19, r23
     4f2:	48 f0       	brcs	.+18     	; 0x506 <Endpoint_Write_Control_PStream_LE+0x20>
     4f4:	61 15       	cp	r22, r1
     4f6:	71 05       	cpc	r23, r1
     4f8:	39 f4       	brne	.+14     	; 0x508 <Endpoint_Write_Control_PStream_LE+0x22>
     4fa:	20 91 e8 00 	lds	r18, 0x00E8
     4fe:	2e 77       	andi	r18, 0x7E	; 126
     500:	20 93 e8 00 	sts	0x00E8, r18
					       &CurrStateTable->Attributes,
					       sizeof(HID_ReportItem_Attributes_t));

					NewReportItem.ItemFlags      = ReportItemData;
     504:	01 c0       	rjmp	.+2      	; 0x508 <Endpoint_Write_Control_PStream_LE+0x22>
					NewReportItem.CollectionPath = CurrCollectionPath;
     506:	b9 01       	movw	r22, r18
     508:	fc 01       	movw	r30, r24
     50a:	20 e0       	ldi	r18, 0x00	; 0
     50c:	61 15       	cp	r22, r1
     50e:	71 05       	cpc	r23, r1
     510:	b1 f1       	breq	.+108    	; 0x57e <Endpoint_Write_Control_PStream_LE+0x98>
     512:	80 91 18 01 	lds	r24, 0x0118
					NewReportItem.ReportID       = CurrStateTable->ReportID;
     516:	88 23       	and	r24, r24
     518:	09 f4       	brne	.+2      	; 0x51c <Endpoint_Write_Control_PStream_LE+0x36>
     51a:	3f c0       	rjmp	.+126    	; 0x59a <Endpoint_Write_Control_PStream_LE+0xb4>
     51c:	85 30       	cpi	r24, 0x05	; 5

					if (UsageListSize)
     51e:	09 f4       	brne	.+2      	; 0x522 <Endpoint_Write_Control_PStream_LE+0x3c>
     520:	3e c0       	rjmp	.+124    	; 0x59e <Endpoint_Write_Control_PStream_LE+0xb8>
     522:	80 91 e8 00 	lds	r24, 0x00E8
     526:	83 fd       	sbrc	r24, 3
					{
						NewReportItem.Attributes.Usage.Usage = UsageList[0];
     528:	3c c0       	rjmp	.+120    	; 0x5a2 <Endpoint_Write_Control_PStream_LE+0xbc>
     52a:	80 91 e8 00 	lds	r24, 0x00E8
     52e:	82 ff       	sbrs	r24, 2
     530:	06 c0       	rjmp	.+12     	; 0x53e <Endpoint_Write_Control_PStream_LE+0x58>
     532:	80 91 e8 00 	lds	r24, 0x00E8
     536:	82 ff       	sbrs	r24, 2
     538:	25 c0       	rjmp	.+74     	; 0x584 <Endpoint_Write_Control_PStream_LE+0x9e>
     53a:	80 e0       	ldi	r24, 0x00	; 0
     53c:	08 95       	ret

						for (uint8_t i = 1; i < UsageListSize; i++)
     53e:	80 91 e8 00 	lds	r24, 0x00E8
     542:	80 ff       	sbrs	r24, 0
     544:	e3 cf       	rjmp	.-58     	; 0x50c <Endpoint_Write_Control_PStream_LE+0x26>
     546:	80 91 f2 00 	lds	r24, 0x00F2
						  UsageList[i - 1] = UsageList[i];
     54a:	90 91 f3 00 	lds	r25, 0x00F3
     54e:	61 15       	cp	r22, r1
     550:	71 05       	cpc	r23, r1

					if (UsageListSize)
					{
						NewReportItem.Attributes.Usage.Usage = UsageList[0];

						for (uint8_t i = 1; i < UsageListSize; i++)
     552:	59 f0       	breq	.+22     	; 0x56a <Endpoint_Write_Control_PStream_LE+0x84>
     554:	88 30       	cpi	r24, 0x08	; 8
						  UsageList[i - 1] = UsageList[i];

						UsageListSize--;
     556:	91 05       	cpc	r25, r1
     558:	40 f4       	brcc	.+16     	; 0x56a <Endpoint_Write_Control_PStream_LE+0x84>
     55a:	24 91       	lpm	r18, Z
     55c:	20 93 f1 00 	sts	0x00F1, r18
					}
					else if (UsageMinMax.Minimum <= UsageMinMax.Maximum)
     560:	31 96       	adiw	r30, 0x01	; 1
     562:	61 50       	subi	r22, 0x01	; 1
     564:	71 09       	sbc	r23, r1
     566:	01 96       	adiw	r24, 0x01	; 1
     568:	f2 cf       	rjmp	.-28     	; 0x54e <Endpoint_Write_Control_PStream_LE+0x68>
					{
						NewReportItem.Attributes.Usage.Usage = UsageMinMax.Minimum++;
     56a:	21 e0       	ldi	r18, 0x01	; 1
     56c:	08 97       	sbiw	r24, 0x08	; 8
     56e:	09 f0       	breq	.+2      	; 0x572 <Endpoint_Write_Control_PStream_LE+0x8c>
     570:	20 e0       	ldi	r18, 0x00	; 0
     572:	80 91 e8 00 	lds	r24, 0x00E8
     576:	8e 77       	andi	r24, 0x7E	; 126
     578:	80 93 e8 00 	sts	0x00E8, r24
					}

					uint8_t ItemTypeTag = (HIDReportItem & (HID_RI_TYPE_MASK | HID_RI_TAG_MASK));

					if (ItemTypeTag == HID_RI_INPUT(0))
     57c:	c7 cf       	rjmp	.-114    	; 0x50c <Endpoint_Write_Control_PStream_LE+0x26>
     57e:	21 11       	cpse	r18, r1
					  NewReportItem.ItemType = HID_REPORT_ITEM_In;
     580:	c8 cf       	rjmp	.-112    	; 0x512 <Endpoint_Write_Control_PStream_LE+0x2c>
     582:	d7 cf       	rjmp	.-82     	; 0x532 <Endpoint_Write_Control_PStream_LE+0x4c>
					else if (ItemTypeTag == HID_RI_OUTPUT(0))
     584:	80 91 18 01 	lds	r24, 0x0118
					  NewReportItem.ItemType = HID_REPORT_ITEM_Out;
     588:	88 23       	and	r24, r24
     58a:	39 f0       	breq	.+14     	; 0x59a <Endpoint_Write_Control_PStream_LE+0xb4>
     58c:	85 30       	cpi	r24, 0x05	; 5
					else
					  NewReportItem.ItemType = HID_REPORT_ITEM_Feature;
     58e:	39 f0       	breq	.+14     	; 0x59e <Endpoint_Write_Control_PStream_LE+0xb8>
     590:	80 91 e8 00 	lds	r24, 0x00E8

					NewReportItem.BitOffset = CurrReportIDInfo->ReportSizeBits[NewReportItem.ItemType];
     594:	83 ff       	sbrs	r24, 3
     596:	cd cf       	rjmp	.-102    	; 0x532 <Endpoint_Write_Control_PStream_LE+0x4c>
     598:	04 c0       	rjmp	.+8      	; 0x5a2 <Endpoint_Write_Control_PStream_LE+0xbc>
     59a:	82 e0       	ldi	r24, 0x02	; 2
     59c:	08 95       	ret
     59e:	83 e0       	ldi	r24, 0x03	; 3
     5a0:	08 95       	ret
     5a2:	81 e0       	ldi	r24, 0x01	; 1
     5a4:	08 95       	ret

000005a6 <Endpoint_ConfigureEndpoint_Prv>:
     5a6:	98 2f       	mov	r25, r24
     5a8:	97 30       	cpi	r25, 0x07	; 7
     5aa:	58 f5       	brcc	.+86     	; 0x602 <Endpoint_ConfigureEndpoint_Prv+0x5c>

					CurrReportIDInfo->ReportSizeBits[NewReportItem.ItemType] += CurrStateTable->Attributes.BitSize;
     5ac:	90 93 e9 00 	sts	0x00E9, r25
     5b0:	98 17       	cp	r25, r24
     5b2:	39 f0       	breq	.+14     	; 0x5c2 <Endpoint_ConfigureEndpoint_Prv+0x1c>
     5b4:	70 91 ec 00 	lds	r23, 0x00EC
     5b8:	20 91 ed 00 	lds	r18, 0x00ED

					ParserData->LargestReportSizeBits = MAX(ParserData->LargestReportSizeBits, CurrReportIDInfo->ReportSizeBits[NewReportItem.ItemType]);
     5bc:	50 91 f0 00 	lds	r21, 0x00F0
     5c0:	03 c0       	rjmp	.+6      	; 0x5c8 <Endpoint_ConfigureEndpoint_Prv+0x22>
     5c2:	24 2f       	mov	r18, r20
     5c4:	76 2f       	mov	r23, r22
     5c6:	50 e0       	ldi	r21, 0x00	; 0
     5c8:	21 ff       	sbrs	r18, 1
     5ca:	19 c0       	rjmp	.+50     	; 0x5fe <Endpoint_ConfigureEndpoint_Prv+0x58>
     5cc:	30 91 eb 00 	lds	r19, 0x00EB
     5d0:	3e 7f       	andi	r19, 0xFE	; 254
     5d2:	30 93 eb 00 	sts	0x00EB, r19
     5d6:	30 91 ed 00 	lds	r19, 0x00ED
     5da:	3d 7f       	andi	r19, 0xFD	; 253
     5dc:	30 93 ed 00 	sts	0x00ED, r19
     5e0:	30 91 eb 00 	lds	r19, 0x00EB
     5e4:	31 60       	ori	r19, 0x01	; 1
     5e6:	30 93 eb 00 	sts	0x00EB, r19
     5ea:	70 93 ec 00 	sts	0x00EC, r23
     5ee:	20 93 ed 00 	sts	0x00ED, r18
     5f2:	50 93 f0 00 	sts	0x00F0, r21

					if (ParserData->TotalReportItems == HID_MAX_REPORTITEMS)
     5f6:	20 91 ee 00 	lds	r18, 0x00EE
     5fa:	27 ff       	sbrs	r18, 7
     5fc:	07 c0       	rjmp	.+14     	; 0x60c <Endpoint_ConfigureEndpoint_Prv+0x66>
					  return HID_PARSE_InsufficientReportItems;
     5fe:	9f 5f       	subi	r25, 0xFF	; 255
     600:	d3 cf       	rjmp	.-90     	; 0x5a8 <Endpoint_ConfigureEndpoint_Prv+0x2>

					memcpy(&ParserData->ReportItems[ParserData->TotalReportItems],
					       &NewReportItem, sizeof(HID_ReportItem_t));

					if (!(ReportItemData & HID_IOF_CONSTANT) && CALLBACK_HIDParser_FilterHIDReportItem(&NewReportItem))
     602:	8f 70       	andi	r24, 0x0F	; 15
     604:	80 93 e9 00 	sts	0x00E9, r24
     608:	81 e0       	ldi	r24, 0x01	; 1
     60a:	08 95       	ret
     60c:	80 e0       	ldi	r24, 0x00	; 0
     60e:	08 95       	ret

00000610 <Endpoint_ConfigureEndpointTable>:
     610:	0f 93       	push	r16
     612:	1f 93       	push	r17
     614:	cf 93       	push	r28
     616:	df 93       	push	r29
     618:	06 2f       	mov	r16, r22
     61a:	ec 01       	movw	r28, r24
     61c:	10 e0       	ldi	r17, 0x00	; 0
     61e:	10 17       	cp	r17, r16
     620:	71 f1       	breq	.+92     	; 0x67e <Endpoint_ConfigureEndpointTable+0x6e>
     622:	98 81       	ld	r25, Y
     624:	99 23       	and	r25, r25
     626:	41 f1       	breq	.+80     	; 0x678 <Endpoint_ConfigureEndpointTable+0x68>
     628:	2c 81       	ldd	r18, Y+4	; 0x04
     62a:	e9 81       	ldd	r30, Y+1	; 0x01
     62c:	fa 81       	ldd	r31, Y+2	; 0x02
     62e:	7b 81       	ldd	r23, Y+3	; 0x03
     630:	89 2f       	mov	r24, r25
     632:	8f 70       	andi	r24, 0x0F	; 15
     634:	87 30       	cpi	r24, 0x07	; 7
     636:	10 f0       	brcs	.+4      	; 0x63c <Endpoint_ConfigureEndpointTable+0x2c>
     638:	80 e0       	ldi	r24, 0x00	; 0
     63a:	22 c0       	rjmp	.+68     	; 0x680 <Endpoint_ConfigureEndpointTable+0x70>
     63c:	22 30       	cpi	r18, 0x02	; 2
     63e:	10 f0       	brcs	.+4      	; 0x644 <Endpoint_ConfigureEndpointTable+0x34>
     640:	56 e0       	ldi	r21, 0x06	; 6
     642:	01 c0       	rjmp	.+2      	; 0x646 <Endpoint_ConfigureEndpointTable+0x36>
     644:	52 e0       	ldi	r21, 0x02	; 2
     646:	28 e0       	ldi	r18, 0x08	; 8
     648:	30 e0       	ldi	r19, 0x00	; 0
     64a:	40 e0       	ldi	r20, 0x00	; 0
     64c:	2e 17       	cp	r18, r30
     64e:	3f 07       	cpc	r19, r31
     650:	20 f4       	brcc	.+8      	; 0x65a <Endpoint_ConfigureEndpointTable+0x4a>
     652:	4f 5f       	subi	r20, 0xFF	; 255
     654:	22 0f       	add	r18, r18
     656:	33 1f       	adc	r19, r19
     658:	f9 cf       	rjmp	.-14     	; 0x64c <Endpoint_ConfigureEndpointTable+0x3c>
     65a:	42 95       	swap	r20
     65c:	40 7f       	andi	r20, 0xF0	; 240
     65e:	45 2b       	or	r20, r21
     660:	69 2f       	mov	r22, r25
     662:	66 1f       	adc	r22, r22
     664:	66 27       	eor	r22, r22
     666:	66 1f       	adc	r22, r22
     668:	90 e4       	ldi	r25, 0x40	; 64
     66a:	79 9f       	mul	r23, r25
     66c:	90 01       	movw	r18, r0
     66e:	11 24       	eor	r1, r1
     670:	62 2b       	or	r22, r18
     672:	99 df       	rcall	.-206    	; 0x5a6 <Endpoint_ConfigureEndpoint_Prv>
     674:	88 23       	and	r24, r24
     676:	01 f3       	breq	.-64     	; 0x638 <Endpoint_ConfigureEndpointTable+0x28>
     678:	1f 5f       	subi	r17, 0xFF	; 255
     67a:	25 96       	adiw	r28, 0x05	; 5
     67c:	d0 cf       	rjmp	.-96     	; 0x61e <Endpoint_ConfigureEndpointTable+0xe>
     67e:	81 e0       	ldi	r24, 0x01	; 1
     680:	df 91       	pop	r29
     682:	cf 91       	pop	r28
     684:	1f 91       	pop	r17
     686:	0f 91       	pop	r16
					  ParserData->TotalReportItems++;
     688:	08 95       	ret

0000068a <Endpoint_ClearStatusStage>:
     68a:	80 91 19 01 	lds	r24, 0x0119
     68e:	87 fd       	sbrc	r24, 7
     690:	05 c0       	rjmp	.+10     	; 0x69c <Endpoint_ClearStatusStage+0x12>

			default:
				break;
		}

		if ((HIDReportItem & HID_RI_TYPE_MASK) == HID_RI_TYPE_MAIN)
     692:	80 91 e8 00 	lds	r24, 0x00E8
     696:	80 ff       	sbrs	r24, 0
     698:	0e c0       	rjmp	.+28     	; 0x6b6 <Endpoint_ClearStatusStage+0x2c>
     69a:	12 c0       	rjmp	.+36     	; 0x6c0 <Endpoint_ClearStatusStage+0x36>
     69c:	80 91 e8 00 	lds	r24, 0x00E8
		{
			UsageMinMax.Minimum = 0;
			UsageMinMax.Maximum = 0;
     6a0:	82 fd       	sbrc	r24, 2
     6a2:	05 c0       	rjmp	.+10     	; 0x6ae <Endpoint_ClearStatusStage+0x24>
				break;
		}

		if ((HIDReportItem & HID_RI_TYPE_MASK) == HID_RI_TYPE_MAIN)
		{
			UsageMinMax.Minimum = 0;
     6a4:	80 91 18 01 	lds	r24, 0x0118
     6a8:	81 11       	cpse	r24, r1
			UsageMinMax.Maximum = 0;
			UsageListSize       = 0;
     6aa:	f8 cf       	rjmp	.-16     	; 0x69c <Endpoint_ClearStatusStage+0x12>
     6ac:	08 95       	ret
     6ae:	80 91 e8 00 	lds	r24, 0x00E8
		}
	}

	if (!(ParserData->TotalReportItems))
     6b2:	8b 77       	andi	r24, 0x7B	; 123
     6b4:	08 c0       	rjmp	.+16     	; 0x6c6 <Endpoint_ClearStatusStage+0x3c>
     6b6:	80 91 18 01 	lds	r24, 0x0118
	  return HID_PARSE_NoUnfilteredReportItems;
     6ba:	81 11       	cpse	r24, r1
     6bc:	ea cf       	rjmp	.-44     	; 0x692 <Endpoint_ClearStatusStage+0x8>

		switch (HIDReportItem & (HID_RI_TYPE_MASK | HID_RI_TAG_MASK))
		{
			case HID_RI_PUSH(0):
				if (CurrStateTable == &StateTable[HID_STATETABLE_STACK_DEPTH - 1])
				  return HID_PARSE_HIDStackOverflow;
     6be:	08 95       	ret
     6c0:	80 91 e8 00 	lds	r24, 0x00E8
				CurrStateTable++;
				break;

			case HID_RI_POP(0):
				if (CurrStateTable == &StateTable[0])
				  return HID_PARSE_HIDStackUnderflow;
     6c4:	8e 77       	andi	r24, 0x7E	; 126
				CurrReportIDInfo->ReportID = CurrStateTable->ReportID;
				break;

			case HID_RI_USAGE(0):
				if (UsageListSize == HID_USAGE_STACK_DEPTH)
				  return HID_PARSE_UsageListOverflow;
     6c6:	80 93 e8 00 	sts	0x00E8, r24
					CurrCollectionPath = &ParserData->CollectionPaths[1];

					while (CurrCollectionPath->Parent != NULL)
					{
						if (CurrCollectionPath == &ParserData->CollectionPaths[HID_MAX_COLLECTIONS - 1])
						  return HID_PARSE_InsufficientCollectionPaths;
     6ca:	08 95       	ret

000006cc <Endpoint_WaitUntilReady>:
     6cc:	80 91 e4 00 	lds	r24, 0x00E4

				break;

			case HID_RI_END_COLLECTION(0):
				if (CurrCollectionPath == NULL)
				  return HID_PARSE_UnexpectedEndCollection;
     6d0:	90 91 e5 00 	lds	r25, 0x00E5
	}

	if (!(ParserData->TotalReportItems))
	  return HID_PARSE_NoUnfilteredReportItems;

	return HID_PARSE_Successful;
     6d4:	45 e6       	ldi	r20, 0x65	; 101
					}

					if (CurrReportIDInfo == NULL)
					{
						if (ParserData->TotalDeviceReports == HID_MAX_REPORT_IDS)
						  return HID_PARSE_InsufficientReportIDItems;
     6d6:	20 91 ec 00 	lds	r18, 0x00EC

	if (!(ParserData->TotalReportItems))
	  return HID_PARSE_NoUnfilteredReportItems;

	return HID_PARSE_Successful;
}
     6da:	20 ff       	sbrs	r18, 0
     6dc:	21 c0       	rjmp	.+66     	; 0x720 <Endpoint_WaitUntilReady+0x54>
     6de:	20 91 e8 00 	lds	r18, 0x00E8
     6e2:	20 fd       	sbrc	r18, 0
     6e4:	21 c0       	rjmp	.+66     	; 0x728 <Endpoint_WaitUntilReady+0x5c>
     6e6:	20 91 18 01 	lds	r18, 0x0118
     6ea:	22 23       	and	r18, r18
     6ec:	89 f0       	breq	.+34     	; 0x710 <Endpoint_WaitUntilReady+0x44>
     6ee:	25 30       	cpi	r18, 0x05	; 5
     6f0:	89 f0       	breq	.+34     	; 0x714 <Endpoint_WaitUntilReady+0x48>
     6f2:	20 91 eb 00 	lds	r18, 0x00EB
     6f6:	25 fd       	sbrc	r18, 5
     6f8:	0f c0       	rjmp	.+30     	; 0x718 <Endpoint_WaitUntilReady+0x4c>
     6fa:	20 91 e4 00 	lds	r18, 0x00E4
     6fe:	30 91 e5 00 	lds	r19, 0x00E5
     702:	28 17       	cp	r18, r24
     704:	39 07       	cpc	r19, r25
     706:	39 f3       	breq	.-50     	; 0x6d6 <Endpoint_WaitUntilReady+0xa>
     708:	41 50       	subi	r20, 0x01	; 1
     70a:	41 f0       	breq	.+16     	; 0x71c <Endpoint_WaitUntilReady+0x50>
			 *  \return Current USB frame number from the USB controller.
			 */
			static inline uint16_t USB_Device_GetFrameNumber(void) ATTR_ALWAYS_INLINE ATTR_WARN_UNUSED_RESULT;
			static inline uint16_t USB_Device_GetFrameNumber(void)
			{
				return UDFNUM;
     70c:	c9 01       	movw	r24, r18
     70e:	e3 cf       	rjmp	.-58     	; 0x6d6 <Endpoint_WaitUntilReady+0xa>
		}

		uint8_t USB_DeviceState_LCL = USB_DeviceState;

		if (USB_DeviceState_LCL == DEVICE_STATE_Unattached)
		  return ENDPOINT_READYWAIT_DeviceDisconnected;
     710:	82 e0       	ldi	r24, 0x02	; 2
     712:	08 95       	ret
		else if (USB_DeviceState_LCL == DEVICE_STATE_Suspended)
		  return ENDPOINT_READYWAIT_BusSuspended;
     714:	83 e0       	ldi	r24, 0x03	; 3
     716:	08 95       	ret
		else if (Endpoint_IsStalled())
		  return ENDPOINT_READYWAIT_EndpointStalled;
     718:	81 e0       	ldi	r24, 0x01	; 1
     71a:	08 95       	ret
		if (CurrentFrameNumber != PreviousFrameNumber)
		{
			PreviousFrameNumber = CurrentFrameNumber;

			if (!(TimeoutMSRem--))
			  return ENDPOINT_READYWAIT_Timeout;
     71c:	84 e0       	ldi	r24, 0x04	; 4
     71e:	08 95       	ret
			 *  \return Boolean \c true if current endpoint is has received an OUT packet, \c false otherwise.
			 */
			static inline bool Endpoint_IsOUTReceived(void) ATTR_WARN_UNUSED_RESULT ATTR_ALWAYS_INLINE;
			static inline bool Endpoint_IsOUTReceived(void)
			{
				return ((UEINTX & (1 << RXOUTI)) ? true : false);
     720:	20 91 e8 00 	lds	r18, 0x00E8
			if (Endpoint_IsINReady())
			  return ENDPOINT_READYWAIT_NoError;
		}
		else
		{
			if (Endpoint_IsOUTReceived())
     724:	22 ff       	sbrs	r18, 2
     726:	df cf       	rjmp	.-66     	; 0x6e6 <Endpoint_WaitUntilReady+0x1a>
	for (;;)
	{
		if (Endpoint_GetEndpointDirection() == ENDPOINT_DIR_IN)
		{
			if (Endpoint_IsINReady())
			  return ENDPOINT_READYWAIT_NoError;
     728:	80 e0       	ldi	r24, 0x00	; 0
     72a:	08 95       	ret

0000072c <USB_ResetInterface>:

	USB_IsInitialized = false;
}

void USB_ResetInterface(void)
{
     72c:	0f 93       	push	r16
     72e:	1f 93       	push	r17
     730:	cf 93       	push	r28
     732:	df 93       	push	r29
	#if defined(USB_CAN_BE_BOTH)
	bool UIDModeSelectEnabled = ((UHWCON & (1 << UIDE)) != 0);
	#endif

	USB_INT_DisableAllInterrupts();
     734:	4e d0       	rcall	.+156    	; 0x7d2 <USB_INT_DisableAllInterrupts>
     736:	55 d0       	rcall	.+170    	; 0x7e2 <USB_INT_ClearAllInterrupts>
	USB_INT_ClearAllInterrupts();
     738:	c8 ed       	ldi	r28, 0xD8	; 216
     73a:	d0 e0       	ldi	r29, 0x00	; 0
			}

			static inline void USB_Controller_Reset(void) ATTR_ALWAYS_INLINE;
			static inline void USB_Controller_Reset(void)
			{
				USBCON &= ~(1 << USBE);
     73c:	88 81       	ld	r24, Y
     73e:	8f 77       	andi	r24, 0x7F	; 127
     740:	88 83       	st	Y, r24
     742:	88 81       	ld	r24, Y
     744:	80 68       	ori	r24, 0x80	; 128
				USBCON |=  (1 << USBE);
     746:	88 83       	st	Y, r24
     748:	88 81       	ld	r24, Y
     74a:	8f 7d       	andi	r24, 0xDF	; 223
			}

			static inline void USB_CLK_Unfreeze(void) ATTR_ALWAYS_INLINE;
			static inline void USB_CLK_Unfreeze(void)
			{
				USBCON &= ~(1 << FRZCLK);
     74c:	88 83       	st	Y, r24
     74e:	e7 ed       	ldi	r30, 0xD7	; 215
     750:	f0 e0       	ldi	r31, 0x00	; 0

	if (USB_CurrentMode == USB_MODE_Device)
	{
		#if defined(USB_CAN_BE_DEVICE)
		#if (defined(USB_SERIES_6_AVR) || defined(USB_SERIES_7_AVR))
		UHWCON |=  (1 << UIMOD);
     752:	80 81       	ld	r24, Z
     754:	80 68       	ori	r24, 0x80	; 128
     756:	80 83       	st	Z, r24
     758:	19 bc       	out	0x29, r1	; 41
     75a:	10 92 18 01 	sts	0x0118, r1
}

#if defined(USB_CAN_BE_DEVICE)
static void USB_Init_Device(void)
{
	USB_DeviceState                 = DEVICE_STATE_Unattached;
     75e:	10 92 14 01 	sts	0x0114, r1
	USB_Device_ConfigurationNumber  = 0;
     762:	10 92 16 01 	sts	0x0116, r1

	#if !defined(NO_DEVICE_REMOTE_WAKEUP)
	USB_Device_RemoteWakeupEnabled  = false;
     766:	10 92 15 01 	sts	0x0115, r1
	#endif

	#if !defined(NO_DEVICE_SELF_POWER)
	USB_Device_CurrentlySelfPowered = false;
     76a:	00 ee       	ldi	r16, 0xE0	; 224
     76c:	10 e0       	ldi	r17, 0x00	; 0
			}

			static inline void USB_Device_SetFullSpeed(void) ATTR_ALWAYS_INLINE;
			static inline void USB_Device_SetFullSpeed(void)
			{
				UDCON &= ~(1 << LSM);
     76e:	f8 01       	movw	r30, r16
     770:	80 81       	ld	r24, Z
     772:	8b 7f       	andi	r24, 0xFB	; 251
     774:	80 83       	st	Z, r24
     776:	88 81       	ld	r24, Y
     778:	81 60       	ori	r24, 0x01	; 1
			{
				switch (Interrupt)
				{
					#if (defined(USB_SERIES_4_AVR) || defined(USB_SERIES_6_AVR) || defined(USB_SERIES_7_AVR))
					case USB_INT_VBUSTI:
						USBCON |= (1 << VBUSTE);
     77a:	88 83       	st	Y, r24
     77c:	42 e0       	ldi	r20, 0x02	; 2
     77e:	60 e0       	ldi	r22, 0x00	; 0
				uint8_t Number = (Address & ENDPOINT_EPNUM_MASK);

				if (Number >= ENDPOINT_TOTAL_ENDPOINTS)
				  return false;

				return Endpoint_ConfigureEndpoint_Prv(Number,
     780:	80 e0       	ldi	r24, 0x00	; 0
     782:	11 df       	rcall	.-478    	; 0x5a6 <Endpoint_ConfigureEndpoint_Prv>
     784:	e1 ee       	ldi	r30, 0xE1	; 225
     786:	f0 e0       	ldi	r31, 0x00	; 0
     788:	80 81       	ld	r24, Z
					#if defined(USB_CAN_BE_DEVICE)
					case USB_INT_WAKEUPI:
						UDINT  &= ~(1 << WAKEUPI);
						break;
					case USB_INT_SUSPI:
						UDINT  &= ~(1 << SUSPI);
     78a:	8e 7f       	andi	r24, 0xFE	; 254
     78c:	80 83       	st	Z, r24
     78e:	e2 ee       	ldi	r30, 0xE2	; 226
     790:	f0 e0       	ldi	r31, 0x00	; 0
     792:	80 81       	ld	r24, Z
					#if defined(USB_CAN_BE_DEVICE)
					case USB_INT_WAKEUPI:
						UDIEN  |= (1 << WAKEUPE);
						break;
					case USB_INT_SUSPI:
						UDIEN  |= (1 << SUSPE);
     794:	81 60       	ori	r24, 0x01	; 1
     796:	80 83       	st	Z, r24
     798:	80 81       	ld	r24, Z
     79a:	88 60       	ori	r24, 0x08	; 8
     79c:	80 83       	st	Z, r24
						break;
					case USB_INT_EORSTI:
						UDIEN  |= (1 << EORSTE);
     79e:	f8 01       	movw	r30, r16
     7a0:	80 81       	ld	r24, Z
     7a2:	8e 7f       	andi	r24, 0xFE	; 254
			 *  register and despite the datasheet making no mention of its requirement in host mode.
			 */
			static inline void USB_Attach(void) ATTR_ALWAYS_INLINE;
			static inline void USB_Attach(void)
			{
				UDCON  &= ~(1 << DETACH);
     7a4:	80 83       	st	Z, r24
     7a6:	88 81       	ld	r24, Y
     7a8:	80 61       	ori	r24, 0x10	; 16
     7aa:	88 83       	st	Y, r24

			#if defined(USB_SERIES_4_AVR) || defined(USB_SERIES_6_AVR) || defined(USB_SERIES_7_AVR)
			static inline void USB_OTGPAD_On(void) ATTR_ALWAYS_INLINE;
			static inline void USB_OTGPAD_On(void)
			{
				USBCON |=  (1 << OTGPADE);
     7ac:	df 91       	pop	r29
     7ae:	cf 91       	pop	r28
     7b0:	1f 91       	pop	r17
	}

	#if (defined(USB_SERIES_4_AVR) || defined(USB_SERIES_6_AVR) || defined(USB_SERIES_7_AVR))
	USB_OTGPAD_On();
	#endif
}
     7b2:	0f 91       	pop	r16
     7b4:	08 95       	ret

000007b6 <USB_Init>:
     7b6:	e8 ed       	ldi	r30, 0xD8	; 216
     7b8:	f0 e0       	ldi	r31, 0x00	; 0
     7ba:	80 81       	ld	r24, Z
			}

			static inline void USB_OTGPAD_Off(void) ATTR_ALWAYS_INLINE;
			static inline void USB_OTGPAD_Off(void)
			{
				USBCON &= ~(1 << OTGPADE);
     7bc:	8f 7e       	andi	r24, 0xEF	; 239
     7be:	80 83       	st	Z, r24

			static inline void USB_REG_On(void) ATTR_ALWAYS_INLINE;
			static inline void USB_REG_On(void)
			{
			#if defined(USB_SERIES_4_AVR) || defined(USB_SERIES_6_AVR) || defined(USB_SERIES_7_AVR)
				UHWCON |=  (1 << UVREGE);
     7c0:	e7 ed       	ldi	r30, 0xD7	; 215
     7c2:	f0 e0       	ldi	r31, 0x00	; 0
     7c4:	80 81       	ld	r24, Z
     7c6:	81 60       	ori	r24, 0x01	; 1
     7c8:	80 83       	st	Z, r24
		UHWCON &= ~(1 << UIDE);
		USB_CurrentMode = Mode;
	}
	#endif

	USB_IsInitialized = true;
     7ca:	81 e0       	ldi	r24, 0x01	; 1
     7cc:	80 93 17 01 	sts	0x0117, r24

	USB_ResetInterface();
     7d0:	ad cf       	rjmp	.-166    	; 0x72c <USB_ResetInterface>

000007d2 <USB_INT_DisableAllInterrupts>:
     7d2:	e8 ed       	ldi	r30, 0xD8	; 216
#include "../USBInterrupt.h"

void USB_INT_DisableAllInterrupts(void)
{
	#if defined(USB_SERIES_6_AVR) || defined(USB_SERIES_7_AVR)
	USBCON &= ~((1 << VBUSTE) | (1 << IDTE));
     7d4:	f0 e0       	ldi	r31, 0x00	; 0
     7d6:	80 81       	ld	r24, Z
     7d8:	8c 7f       	andi	r24, 0xFC	; 252
     7da:	80 83       	st	Z, r24
	#if defined(USB_CAN_BE_HOST)
	UHIEN   = 0;
	#endif

	#if defined(USB_CAN_BE_DEVICE)
	UDIEN   = 0;
     7dc:	10 92 e2 00 	sts	0x00E2, r1
     7e0:	08 95       	ret

000007e2 <USB_INT_ClearAllInterrupts>:
}

void USB_INT_ClearAllInterrupts(void)
{
	#if defined(USB_SERIES_4_AVR) || defined(USB_SERIES_6_AVR) || defined(USB_SERIES_7_AVR)
	USBINT = 0;
     7e2:	10 92 da 00 	sts	0x00DA, r1
	#if defined(USB_CAN_BE_HOST)
	UHINT  = 0;
	#endif

	#if defined(USB_CAN_BE_DEVICE)
	UDINT  = 0;
     7e6:	10 92 e1 00 	sts	0x00E1, r1
     7ea:	08 95       	ret

000007ec <__vector_10>:
	#endif
}

ISR(USB_GEN_vect, ISR_BLOCK)
{
     7ec:	1f 92       	push	r1
     7ee:	0f 92       	push	r0
     7f0:	0f b6       	in	r0, 0x3f	; 63
     7f2:	0f 92       	push	r0
     7f4:	11 24       	eor	r1, r1
     7f6:	0b b6       	in	r0, 0x3b	; 59
     7f8:	0f 92       	push	r0
     7fa:	2f 93       	push	r18
     7fc:	3f 93       	push	r19
     7fe:	4f 93       	push	r20
     800:	5f 93       	push	r21
     802:	6f 93       	push	r22
     804:	7f 93       	push	r23
     806:	8f 93       	push	r24
     808:	9f 93       	push	r25
     80a:	af 93       	push	r26
     80c:	bf 93       	push	r27
     80e:	ef 93       	push	r30
     810:	ff 93       	push	r31
					case USB_INT_SUSPI:
						return (UDINT  & (1 << SUSPI));
					case USB_INT_EORSTI:
						return (UDINT  & (1 << EORSTI));
					case USB_INT_SOFI:
						return (UDINT  & (1 << SOFI));
     812:	80 91 e1 00 	lds	r24, 0x00E1
	#if defined(USB_CAN_BE_DEVICE)
	#if !defined(NO_SOF_EVENTS)
	if (USB_INT_HasOccurred(USB_INT_SOFI) && USB_INT_IsEnabled(USB_INT_SOFI))
     816:	82 ff       	sbrs	r24, 2
     818:	0a c0       	rjmp	.+20     	; 0x82e <__vector_10+0x42>
					case USB_INT_SUSPI:
						return (UDIEN  & (1 << SUSPE));
					case USB_INT_EORSTI:
						return (UDIEN  & (1 << EORSTE));
					case USB_INT_SOFI:
						return (UDIEN  & (1 << SOFE));
     81a:	80 91 e2 00 	lds	r24, 0x00E2
     81e:	82 ff       	sbrs	r24, 2
     820:	06 c0       	rjmp	.+12     	; 0x82e <__vector_10+0x42>
						break;
					case USB_INT_EORSTI:
						UDINT  &= ~(1 << EORSTI);
						break;
					case USB_INT_SOFI:
						UDINT  &= ~(1 << SOFI);
     822:	80 91 e1 00 	lds	r24, 0x00E1
     826:	8b 7f       	andi	r24, 0xFB	; 251
     828:	80 93 e1 00 	sts	0x00E1, r24
	{
		USB_INT_Clear(USB_INT_SOFI);

		EVENT_USB_Device_StartOfFrame();
     82c:	f9 dc       	rcall	.-1550   	; 0x220 <EVENT_USB_Device_StartOfFrame>
     82e:	80 91 da 00 	lds	r24, 0x00DA
			{
				switch (Interrupt)
				{
					#if (defined(USB_SERIES_4_AVR) || defined(USB_SERIES_6_AVR) || defined(USB_SERIES_7_AVR))
					case USB_INT_VBUSTI:
						return (USBINT & (1 << VBUSTI));
     832:	80 ff       	sbrs	r24, 0
	}
	#endif

	#if defined(USB_SERIES_4_AVR) || defined(USB_SERIES_6_AVR) || defined(USB_SERIES_7_AVR)
	if (USB_INT_HasOccurred(USB_INT_VBUSTI) && USB_INT_IsEnabled(USB_INT_VBUSTI))
     834:	1d c0       	rjmp	.+58     	; 0x870 <__vector_10+0x84>
     836:	80 91 d8 00 	lds	r24, 0x00D8
			{
				switch (Interrupt)
				{
					#if (defined(USB_SERIES_4_AVR) || defined(USB_SERIES_6_AVR) || defined(USB_SERIES_7_AVR))
					case USB_INT_VBUSTI:
						return (USBCON & (1 << VBUSTE));
     83a:	80 ff       	sbrs	r24, 0
     83c:	19 c0       	rjmp	.+50     	; 0x870 <__vector_10+0x84>
     83e:	80 91 da 00 	lds	r24, 0x00DA
			{
				switch (Interrupt)
				{
					#if (defined(USB_SERIES_4_AVR) || defined(USB_SERIES_6_AVR) || defined(USB_SERIES_7_AVR))
					case USB_INT_VBUSTI:
						USBINT &= ~(1 << VBUSTI);
     842:	8e 7f       	andi	r24, 0xFE	; 254
     844:	80 93 da 00 	sts	0x00DA, r24
     848:	80 91 d9 00 	lds	r24, 0x00D9
				 *  \return Boolean \c true if the VBUS line is currently detecting power from a host, \c false otherwise.
				 */
				static inline bool USB_VBUS_GetStatus(void) ATTR_WARN_UNUSED_RESULT ATTR_ALWAYS_INLINE;
				static inline bool USB_VBUS_GetStatus(void)
				{
					return ((USBSTA & (1 << VBUS)) ? true : false);
     84c:	80 ff       	sbrs	r24, 0
	{
		USB_INT_Clear(USB_INT_VBUSTI);

		if (USB_VBUS_GetStatus())
     84e:	0c c0       	rjmp	.+24     	; 0x868 <__vector_10+0x7c>
     850:	8c e0       	ldi	r24, 0x0C	; 12

		/* Inline Functions: */
			static inline void USB_PLL_On(void) ATTR_ALWAYS_INLINE;
			static inline void USB_PLL_On(void)
			{
				PLLCSR = USB_PLL_PSC;
     852:	89 bd       	out	0x29, r24	; 41
     854:	8e e0       	ldi	r24, 0x0E	; 14
				PLLCSR = (USB_PLL_PSC | (1 << PLLE));
     856:	89 bd       	out	0x29, r24	; 41
     858:	09 b4       	in	r0, 0x29	; 41
		{
			if (!(USB_Options & USB_OPT_MANUAL_PLL))
			{
				USB_PLL_On();
				while (!(USB_PLL_IsReady()));
     85a:	00 fe       	sbrs	r0, 0
     85c:	fd cf       	rjmp	.-6      	; 0x858 <__vector_10+0x6c>
     85e:	81 e0       	ldi	r24, 0x01	; 1
			}

			USB_DeviceState = DEVICE_STATE_Powered;
     860:	80 93 18 01 	sts	0x0118, r24
     864:	c8 dc       	rcall	.-1648   	; 0x1f6 <EVENT_USB_Device_Connect>
			EVENT_USB_Device_Connect();
     866:	04 c0       	rjmp	.+8      	; 0x870 <__vector_10+0x84>
     868:	19 bc       	out	0x29, r1	; 41
     86a:	10 92 18 01 	sts	0x0118, r1
		else
		{
			if (!(USB_Options & USB_OPT_MANUAL_PLL))
			  USB_PLL_Off();

			USB_DeviceState = DEVICE_STATE_Unattached;
     86e:	c5 dc       	rcall	.-1654   	; 0x1fa <EVENT_USB_Device_Disconnect>
     870:	80 91 e1 00 	lds	r24, 0x00E1
			EVENT_USB_Device_Disconnect();
     874:	80 ff       	sbrs	r24, 0
					#endif
					#if defined(USB_CAN_BE_DEVICE)
					case USB_INT_WAKEUPI:
						return (UDINT  & (1 << WAKEUPI));
					case USB_INT_SUSPI:
						return (UDINT  & (1 << SUSPI));
     876:	18 c0       	rjmp	.+48     	; 0x8a8 <__vector_10+0xbc>
     878:	80 91 e2 00 	lds	r24, 0x00E2
		}
	}
	#endif

	if (USB_INT_HasOccurred(USB_INT_SUSPI) && USB_INT_IsEnabled(USB_INT_SUSPI))
     87c:	80 ff       	sbrs	r24, 0
					#endif
					#if defined(USB_CAN_BE_DEVICE)
					case USB_INT_WAKEUPI:
						return (UDIEN  & (1 << WAKEUPE));
					case USB_INT_SUSPI:
						return (UDIEN  & (1 << SUSPE));
     87e:	14 c0       	rjmp	.+40     	; 0x8a8 <__vector_10+0xbc>
     880:	80 91 e2 00 	lds	r24, 0x00E2
     884:	8e 7f       	andi	r24, 0xFE	; 254
					#if defined(USB_CAN_BE_DEVICE)
					case USB_INT_WAKEUPI:
						UDIEN  &= ~(1 << WAKEUPE);
						break;
					case USB_INT_SUSPI:
						UDIEN  &= ~(1 << SUSPE);
     886:	80 93 e2 00 	sts	0x00E2, r24
     88a:	80 91 e2 00 	lds	r24, 0x00E2
     88e:	80 61       	ori	r24, 0x10	; 16
						USBCON |= (1 << IDTE);
						break;
					#endif
					#if defined(USB_CAN_BE_DEVICE)
					case USB_INT_WAKEUPI:
						UDIEN  |= (1 << WAKEUPE);
     890:	80 93 e2 00 	sts	0x00E2, r24
     894:	80 91 d8 00 	lds	r24, 0x00D8
     898:	80 62       	ori	r24, 0x20	; 32
			#endif

			static inline void USB_CLK_Freeze(void) ATTR_ALWAYS_INLINE;
			static inline void USB_CLK_Freeze(void)
			{
				USBCON |=  (1 << FRZCLK);
     89a:	80 93 d8 00 	sts	0x00D8, r24
     89e:	19 bc       	out	0x29, r1	; 41
     8a0:	85 e0       	ldi	r24, 0x05	; 5
     8a2:	80 93 18 01 	sts	0x0118, r24

		#if defined(USB_SERIES_2_AVR) && !defined(NO_LIMITED_CONTROLLER_CONNECT)
		USB_DeviceState = DEVICE_STATE_Unattached;
		EVENT_USB_Device_Disconnect();
		#else
		USB_DeviceState = DEVICE_STATE_Suspended;
     8a6:	bd d1       	rcall	.+890    	; 0xc22 <USB_Event_Stub>
     8a8:	80 91 e1 00 	lds	r24, 0x00E1
		EVENT_USB_Device_Suspend();
     8ac:	84 ff       	sbrs	r24, 4
     8ae:	2f c0       	rjmp	.+94     	; 0x90e <__vector_10+0x122>
					case USB_INT_IDTI:
						return (USBINT & (1 << IDTI));
					#endif
					#if defined(USB_CAN_BE_DEVICE)
					case USB_INT_WAKEUPI:
						return (UDINT  & (1 << WAKEUPI));
     8b0:	80 91 e2 00 	lds	r24, 0x00E2
		#endif
	}

	if (USB_INT_HasOccurred(USB_INT_WAKEUPI) && USB_INT_IsEnabled(USB_INT_WAKEUPI))
     8b4:	84 ff       	sbrs	r24, 4
     8b6:	2b c0       	rjmp	.+86     	; 0x90e <__vector_10+0x122>
					case USB_INT_IDTI:
						return (USBCON & (1 << IDTE));
					#endif
					#if defined(USB_CAN_BE_DEVICE)
					case USB_INT_WAKEUPI:
						return (UDIEN  & (1 << WAKEUPE));
     8b8:	8c e0       	ldi	r24, 0x0C	; 12
     8ba:	89 bd       	out	0x29, r24	; 41
     8bc:	8e e0       	ldi	r24, 0x0E	; 14
     8be:	89 bd       	out	0x29, r24	; 41

		/* Inline Functions: */
			static inline void USB_PLL_On(void) ATTR_ALWAYS_INLINE;
			static inline void USB_PLL_On(void)
			{
				PLLCSR = USB_PLL_PSC;
     8c0:	09 b4       	in	r0, 0x29	; 41
     8c2:	00 fe       	sbrs	r0, 0
				PLLCSR = (USB_PLL_PSC | (1 << PLLE));
     8c4:	fd cf       	rjmp	.-6      	; 0x8c0 <__vector_10+0xd4>
     8c6:	80 91 d8 00 	lds	r24, 0x00D8
	{
		if (!(USB_Options & USB_OPT_MANUAL_PLL))
		{
			USB_PLL_On();
			while (!(USB_PLL_IsReady()));
     8ca:	8f 7d       	andi	r24, 0xDF	; 223
     8cc:	80 93 d8 00 	sts	0x00D8, r24
			}

			static inline void USB_CLK_Unfreeze(void) ATTR_ALWAYS_INLINE;
			static inline void USB_CLK_Unfreeze(void)
			{
				USBCON &= ~(1 << FRZCLK);
     8d0:	80 91 e1 00 	lds	r24, 0x00E1
     8d4:	8f 7e       	andi	r24, 0xEF	; 239
     8d6:	80 93 e1 00 	sts	0x00E1, r24
						USBINT &= ~(1 << IDTI);
						break;
					#endif
					#if defined(USB_CAN_BE_DEVICE)
					case USB_INT_WAKEUPI:
						UDINT  &= ~(1 << WAKEUPI);
     8da:	80 91 e2 00 	lds	r24, 0x00E2
     8de:	8f 7e       	andi	r24, 0xEF	; 239
     8e0:	80 93 e2 00 	sts	0x00E2, r24
						USBCON &= ~(1 << IDTE);
						break;
					#endif
					#if defined(USB_CAN_BE_DEVICE)
					case USB_INT_WAKEUPI:
						UDIEN  &= ~(1 << WAKEUPE);
     8e4:	80 91 e2 00 	lds	r24, 0x00E2
     8e8:	81 60       	ori	r24, 0x01	; 1
     8ea:	80 93 e2 00 	sts	0x00E2, r24
					#if defined(USB_CAN_BE_DEVICE)
					case USB_INT_WAKEUPI:
						UDIEN  |= (1 << WAKEUPE);
						break;
					case USB_INT_SUSPI:
						UDIEN  |= (1 << SUSPE);
     8ee:	80 91 14 01 	lds	r24, 0x0114
     8f2:	88 23       	and	r24, r24
     8f4:	11 f0       	breq	.+4      	; 0x8fa <__vector_10+0x10e>
		USB_INT_Clear(USB_INT_WAKEUPI);

		USB_INT_Disable(USB_INT_WAKEUPI);
		USB_INT_Enable(USB_INT_SUSPI);

		if (USB_Device_ConfigurationNumber)
     8f6:	84 e0       	ldi	r24, 0x04	; 4
     8f8:	07 c0       	rjmp	.+14     	; 0x908 <__vector_10+0x11c>
     8fa:	80 91 e3 00 	lds	r24, 0x00E3
		  USB_DeviceState = DEVICE_STATE_Configured;
     8fe:	87 ff       	sbrs	r24, 7
     900:	02 c0       	rjmp	.+4      	; 0x906 <__vector_10+0x11a>
			}

			static inline bool USB_Device_IsAddressSet(void) ATTR_ALWAYS_INLINE ATTR_WARN_UNUSED_RESULT;
			static inline bool USB_Device_IsAddressSet(void)
			{
				return (UDADDR & (1 << ADDEN));
     902:	83 e0       	ldi	r24, 0x03	; 3
     904:	01 c0       	rjmp	.+2      	; 0x908 <__vector_10+0x11c>
		else
		  USB_DeviceState = (USB_Device_IsAddressSet()) ? DEVICE_STATE_Addressed : DEVICE_STATE_Powered;
     906:	81 e0       	ldi	r24, 0x01	; 1
     908:	80 93 18 01 	sts	0x0118, r24
     90c:	8a d1       	rcall	.+788    	; 0xc22 <USB_Event_Stub>
     90e:	80 91 e1 00 	lds	r24, 0x00E1
     912:	83 ff       	sbrs	r24, 3

		#if defined(USB_SERIES_2_AVR) && !defined(NO_LIMITED_CONTROLLER_CONNECT)
		EVENT_USB_Device_Connect();
		#else
		EVENT_USB_Device_WakeUp();
     914:	22 c0       	rjmp	.+68     	; 0x95a <__vector_10+0x16e>
     916:	80 91 e2 00 	lds	r24, 0x00E2
					case USB_INT_WAKEUPI:
						return (UDINT  & (1 << WAKEUPI));
					case USB_INT_SUSPI:
						return (UDINT  & (1 << SUSPI));
					case USB_INT_EORSTI:
						return (UDINT  & (1 << EORSTI));
     91a:	83 ff       	sbrs	r24, 3
		#endif
	}

	if (USB_INT_HasOccurred(USB_INT_EORSTI) && USB_INT_IsEnabled(USB_INT_EORSTI))
     91c:	1e c0       	rjmp	.+60     	; 0x95a <__vector_10+0x16e>
     91e:	80 91 e1 00 	lds	r24, 0x00E1
					case USB_INT_WAKEUPI:
						return (UDIEN  & (1 << WAKEUPE));
					case USB_INT_SUSPI:
						return (UDIEN  & (1 << SUSPE));
					case USB_INT_EORSTI:
						return (UDIEN  & (1 << EORSTE));
     922:	87 7f       	andi	r24, 0xF7	; 247
     924:	80 93 e1 00 	sts	0x00E1, r24
						break;
					case USB_INT_SUSPI:
						UDINT  &= ~(1 << SUSPI);
						break;
					case USB_INT_EORSTI:
						UDINT  &= ~(1 << EORSTI);
     928:	82 e0       	ldi	r24, 0x02	; 2
     92a:	80 93 18 01 	sts	0x0118, r24
     92e:	10 92 14 01 	sts	0x0114, r1
	{
		USB_INT_Clear(USB_INT_EORSTI);

		USB_DeviceState                = DEVICE_STATE_Default;
     932:	80 91 e1 00 	lds	r24, 0x00E1
     936:	8e 7f       	andi	r24, 0xFE	; 254
		USB_Device_ConfigurationNumber = 0;
     938:	80 93 e1 00 	sts	0x00E1, r24
					#if defined(USB_CAN_BE_DEVICE)
					case USB_INT_WAKEUPI:
						UDINT  &= ~(1 << WAKEUPI);
						break;
					case USB_INT_SUSPI:
						UDINT  &= ~(1 << SUSPI);
     93c:	80 91 e2 00 	lds	r24, 0x00E2
     940:	8e 7f       	andi	r24, 0xFE	; 254
     942:	80 93 e2 00 	sts	0x00E2, r24
					#if defined(USB_CAN_BE_DEVICE)
					case USB_INT_WAKEUPI:
						UDIEN  &= ~(1 << WAKEUPE);
						break;
					case USB_INT_SUSPI:
						UDIEN  &= ~(1 << SUSPE);
     946:	80 91 e2 00 	lds	r24, 0x00E2
     94a:	80 61       	ori	r24, 0x10	; 16
     94c:	80 93 e2 00 	sts	0x00E2, r24
						USBCON |= (1 << IDTE);
						break;
					#endif
					#if defined(USB_CAN_BE_DEVICE)
					case USB_INT_WAKEUPI:
						UDIEN  |= (1 << WAKEUPE);
     950:	42 e0       	ldi	r20, 0x02	; 2
     952:	60 e0       	ldi	r22, 0x00	; 0
     954:	80 e0       	ldi	r24, 0x00	; 0
     956:	27 de       	rcall	.-946    	; 0x5a6 <Endpoint_ConfigureEndpoint_Prv>
     958:	64 d1       	rcall	.+712    	; 0xc22 <USB_Event_Stub>
				uint8_t Number = (Address & ENDPOINT_EPNUM_MASK);

				if (Number >= ENDPOINT_TOTAL_ENDPOINTS)
				  return false;

				return Endpoint_ConfigureEndpoint_Prv(Number,
     95a:	ff 91       	pop	r31
     95c:	ef 91       	pop	r30
     95e:	bf 91       	pop	r27
     960:	af 91       	pop	r26
     962:	9f 91       	pop	r25

		#if defined(INTERRUPT_CONTROL_ENDPOINT)
		USB_INT_Enable(USB_INT_RXSTPI);
		#endif

		EVENT_USB_Device_Reset();
     964:	8f 91       	pop	r24
     966:	7f 91       	pop	r23
		USB_ResetInterface();

		EVENT_USB_UIDChange();
	}
	#endif
}
     968:	6f 91       	pop	r22
     96a:	5f 91       	pop	r21
     96c:	4f 91       	pop	r20
     96e:	3f 91       	pop	r19
     970:	2f 91       	pop	r18
     972:	0f 90       	pop	r0
     974:	0b be       	out	0x3b, r0	; 59
     976:	0f 90       	pop	r0
     978:	0f be       	out	0x3f, r0	; 63
     97a:	0f 90       	pop	r0
     97c:	1f 90       	pop	r1
     97e:	18 95       	reti

00000980 <USB_Device_ProcessControlRequest>:
     980:	1f 93       	push	r17
     982:	cf 93       	push	r28
     984:	df 93       	push	r29
     986:	cd b7       	in	r28, 0x3d	; 61
     988:	de b7       	in	r29, 0x3e	; 62
     98a:	aa 97       	sbiw	r28, 0x2a	; 42
     98c:	0f b6       	in	r0, 0x3f	; 63
#if !defined(NO_DEVICE_REMOTE_WAKEUP)
bool    USB_Device_RemoteWakeupEnabled;
#endif

void USB_Device_ProcessControlRequest(void)
{
     98e:	f8 94       	cli
     990:	de bf       	out	0x3e, r29	; 62
     992:	0f be       	out	0x3f, r0	; 63
     994:	cd bf       	out	0x3d, r28	; 61
     996:	e9 e1       	ldi	r30, 0x19	; 25
     998:	f1 e0       	ldi	r31, 0x01	; 1
			 *  \return Next byte in the currently selected endpoint's FIFO buffer.
			 */
			static inline uint8_t Endpoint_Read_8(void) ATTR_WARN_UNUSED_RESULT ATTR_ALWAYS_INLINE;
			static inline uint8_t Endpoint_Read_8(void)
			{
				return UEDATX;
     99a:	80 91 f1 00 	lds	r24, 0x00F1
	USB_ControlRequest.wLength       = Endpoint_Read_16_LE();
	#else
	uint8_t* RequestHeader = (uint8_t*)&USB_ControlRequest;

	for (uint8_t RequestHeaderByte = 0; RequestHeaderByte < sizeof(USB_Request_Header_t); RequestHeaderByte++)
	  *(RequestHeader++) = Endpoint_Read_8();
     99e:	81 93       	st	Z+, r24
	USB_ControlRequest.wIndex        = Endpoint_Read_16_LE();
	USB_ControlRequest.wLength       = Endpoint_Read_16_LE();
	#else
	uint8_t* RequestHeader = (uint8_t*)&USB_ControlRequest;

	for (uint8_t RequestHeaderByte = 0; RequestHeaderByte < sizeof(USB_Request_Header_t); RequestHeaderByte++)
     9a0:	21 e0       	ldi	r18, 0x01	; 1
     9a2:	e1 32       	cpi	r30, 0x21	; 33
     9a4:	f2 07       	cpc	r31, r18
     9a6:	c9 f7       	brne	.-14     	; 0x99a <USB_Device_ProcessControlRequest+0x1a>
	  *(RequestHeader++) = Endpoint_Read_8();
	#endif

	EVENT_USB_Device_ControlRequest();
     9a8:	38 dc       	rcall	.-1936   	; 0x21a <EVENT_USB_Device_ControlRequest>
     9aa:	80 91 e8 00 	lds	r24, 0x00E8
			 *  \return Boolean \c true if the selected endpoint has received a SETUP packet, \c false otherwise.
			 */
			static inline bool Endpoint_IsSETUPReceived(void) ATTR_WARN_UNUSED_RESULT ATTR_ALWAYS_INLINE;
			static inline bool Endpoint_IsSETUPReceived(void)
			{
				return ((UEINTX & (1 << RXSTPI)) ? true : false);
     9ae:	83 ff       	sbrs	r24, 3

	if (Endpoint_IsSETUPReceived())
     9b0:	20 c1       	rjmp	.+576    	; 0xbf2 <USB_Device_ProcessControlRequest+0x272>
     9b2:	90 91 19 01 	lds	r25, 0x0119
	{
		uint8_t bmRequestType = USB_ControlRequest.bmRequestType;
     9b6:	80 91 1a 01 	lds	r24, 0x011A

		switch (USB_ControlRequest.bRequest)
     9ba:	85 30       	cpi	r24, 0x05	; 5
     9bc:	09 f4       	brne	.+2      	; 0x9c0 <USB_Device_ProcessControlRequest+0x40>
     9be:	77 c0       	rjmp	.+238    	; 0xaae <USB_Device_ProcessControlRequest+0x12e>
     9c0:	30 f4       	brcc	.+12     	; 0x9ce <USB_Device_ProcessControlRequest+0x4e>
     9c2:	81 30       	cpi	r24, 0x01	; 1
     9c4:	81 f1       	breq	.+96     	; 0xa26 <USB_Device_ProcessControlRequest+0xa6>
     9c6:	68 f0       	brcs	.+26     	; 0x9e2 <USB_Device_ProcessControlRequest+0x62>
     9c8:	83 30       	cpi	r24, 0x03	; 3
     9ca:	69 f1       	breq	.+90     	; 0xa26 <USB_Device_ProcessControlRequest+0xa6>
     9cc:	12 c1       	rjmp	.+548    	; 0xbf2 <USB_Device_ProcessControlRequest+0x272>
     9ce:	88 30       	cpi	r24, 0x08	; 8
     9d0:	09 f4       	brne	.+2      	; 0x9d4 <USB_Device_ProcessControlRequest+0x54>
     9d2:	e1 c0       	rjmp	.+450    	; 0xb96 <USB_Device_ProcessControlRequest+0x216>
     9d4:	89 30       	cpi	r24, 0x09	; 9
     9d6:	09 f4       	brne	.+2      	; 0x9da <USB_Device_ProcessControlRequest+0x5a>
     9d8:	f0 c0       	rjmp	.+480    	; 0xbba <USB_Device_ProcessControlRequest+0x23a>
     9da:	86 30       	cpi	r24, 0x06	; 6
     9dc:	09 f0       	breq	.+2      	; 0x9e0 <USB_Device_ProcessControlRequest+0x60>
     9de:	09 c1       	rjmp	.+530    	; 0xbf2 <USB_Device_ProcessControlRequest+0x272>
     9e0:	88 c0       	rjmp	.+272    	; 0xaf2 <USB_Device_ProcessControlRequest+0x172>
     9e2:	90 38       	cpi	r25, 0x80	; 128
		{
			case REQ_GetStatus:
				if ((bmRequestType == (REQDIR_DEVICETOHOST | REQTYPE_STANDARD | REQREC_DEVICE)) ||
     9e4:	81 f0       	breq	.+32     	; 0xa06 <USB_Device_ProcessControlRequest+0x86>
     9e6:	92 38       	cpi	r25, 0x82	; 130
     9e8:	09 f0       	breq	.+2      	; 0x9ec <USB_Device_ProcessControlRequest+0x6c>
     9ea:	03 c1       	rjmp	.+518    	; 0xbf2 <USB_Device_ProcessControlRequest+0x272>
     9ec:	80 91 1d 01 	lds	r24, 0x011D
			 */
			static inline void Endpoint_SelectEndpoint(const uint8_t Address) ATTR_ALWAYS_INLINE;
			static inline void Endpoint_SelectEndpoint(const uint8_t Address)
			{
				#if !defined(CONTROL_ONLY_DEVICE)
					UENUM = (Address & ENDPOINT_EPNUM_MASK);
     9f0:	8f 70       	andi	r24, 0x0F	; 15
     9f2:	80 93 e9 00 	sts	0x00E9, r24
     9f6:	80 91 eb 00 	lds	r24, 0x00EB
			 *  \return Boolean \c true if the currently selected endpoint is stalled, \c false otherwise.
			 */
			static inline bool Endpoint_IsStalled(void) ATTR_WARN_UNUSED_RESULT ATTR_ALWAYS_INLINE;
			static inline bool Endpoint_IsStalled(void)
			{
				return ((UECONX & (1 << STALLRQ)) ? true : false);
     9fa:	85 fb       	bst	r24, 5
     9fc:	88 27       	eor	r24, r24
     9fe:	80 f9       	bld	r24, 0
     a00:	10 92 e9 00 	sts	0x00E9, r1
			 */
			static inline void Endpoint_SelectEndpoint(const uint8_t Address) ATTR_ALWAYS_INLINE;
			static inline void Endpoint_SelectEndpoint(const uint8_t Address)
			{
				#if !defined(CONTROL_ONLY_DEVICE)
					UENUM = (Address & ENDPOINT_EPNUM_MASK);
     a04:	06 c0       	rjmp	.+12     	; 0xa12 <USB_Device_ProcessControlRequest+0x92>
     a06:	80 91 15 01 	lds	r24, 0x0115
	Endpoint_ClearOUT();
}

static void USB_Device_GetStatus(void)
{
	uint8_t CurrentStatus = 0;
     a0a:	90 91 16 01 	lds	r25, 0x0116
			if (USB_Device_CurrentlySelfPowered)
			  CurrentStatus |= FEATURE_SELFPOWERED_ENABLED;
			#endif

			#if !defined(NO_DEVICE_REMOTE_WAKEUP)
			if (USB_Device_RemoteWakeupEnabled)
     a0e:	91 11       	cpse	r25, r1
     a10:	82 60       	ori	r24, 0x02	; 2
			  CurrentStatus |= FEATURE_REMOTE_WAKEUP_ENABLED;
     a12:	90 91 e8 00 	lds	r25, 0x00E8
			 *  \note This is not applicable for non CONTROL type endpoints.
			 */
			static inline void Endpoint_ClearSETUP(void) ATTR_ALWAYS_INLINE;
			static inline void Endpoint_ClearSETUP(void)
			{
				UEINTX &= ~(1 << RXSTPI);
     a16:	97 7f       	andi	r25, 0xF7	; 247
     a18:	90 93 e8 00 	sts	0x00E8, r25
     a1c:	80 93 f1 00 	sts	0x00F1, r24
			 *  \param[in] Data  Data to write to the currently selected endpoint's FIFO buffer.
			 */
			static inline void Endpoint_Write_16_LE(const uint16_t Data) ATTR_ALWAYS_INLINE;
			static inline void Endpoint_Write_16_LE(const uint16_t Data)
			{
				UEDATX = (Data & 0xFF);
     a20:	10 92 f1 00 	sts	0x00F1, r1
				UEDATX = (Data >> 8);
     a24:	c3 c0       	rjmp	.+390    	; 0xbac <USB_Device_ProcessControlRequest+0x22c>
     a26:	29 2f       	mov	r18, r25
				}

				break;
			case REQ_ClearFeature:
			case REQ_SetFeature:
				if ((bmRequestType == (REQDIR_HOSTTODEVICE | REQTYPE_STANDARD | REQREC_DEVICE)) ||
     a28:	2d 7f       	andi	r18, 0xFD	; 253
     a2a:	09 f0       	breq	.+2      	; 0xa2e <USB_Device_ProcessControlRequest+0xae>
     a2c:	e2 c0       	rjmp	.+452    	; 0xbf2 <USB_Device_ProcessControlRequest+0x272>
     a2e:	99 23       	and	r25, r25
	Endpoint_ClearStatusStage();
}

static void USB_Device_ClearSetFeature(void)
{
	switch (USB_ControlRequest.bmRequestType & CONTROL_REQTYPE_RECIPIENT)
     a30:	19 f0       	breq	.+6      	; 0xa38 <USB_Device_ProcessControlRequest+0xb8>
     a32:	92 30       	cpi	r25, 0x02	; 2
     a34:	61 f0       	breq	.+24     	; 0xa4e <USB_Device_ProcessControlRequest+0xce>
     a36:	dd c0       	rjmp	.+442    	; 0xbf2 <USB_Device_ProcessControlRequest+0x272>
     a38:	90 91 1b 01 	lds	r25, 0x011B
	{
		#if !defined(NO_DEVICE_REMOTE_WAKEUP)
		case REQREC_DEVICE:
			if ((uint8_t)USB_ControlRequest.wValue == FEATURE_SEL_DeviceRemoteWakeup)
     a3c:	91 30       	cpi	r25, 0x01	; 1
     a3e:	09 f0       	breq	.+2      	; 0xa42 <USB_Device_ProcessControlRequest+0xc2>
     a40:	d8 c0       	rjmp	.+432    	; 0xbf2 <USB_Device_ProcessControlRequest+0x272>
     a42:	83 30       	cpi	r24, 0x03	; 3
			  USB_Device_RemoteWakeupEnabled = (USB_ControlRequest.bRequest == REQ_SetFeature);
     a44:	09 f0       	breq	.+2      	; 0xa48 <USB_Device_ProcessControlRequest+0xc8>
     a46:	90 e0       	ldi	r25, 0x00	; 0
     a48:	90 93 16 01 	sts	0x0116, r25
     a4c:	2a c0       	rjmp	.+84     	; 0xaa2 <USB_Device_ProcessControlRequest+0x122>
     a4e:	90 91 1b 01 	lds	r25, 0x011B

			break;
		#endif
		#if !defined(CONTROL_ONLY_DEVICE)
		case REQREC_ENDPOINT:
			if ((uint8_t)USB_ControlRequest.wValue == FEATURE_SEL_EndpointHalt)
     a52:	91 11       	cpse	r25, r1
     a54:	26 c0       	rjmp	.+76     	; 0xaa2 <USB_Device_ProcessControlRequest+0x122>
     a56:	20 91 1d 01 	lds	r18, 0x011D
			{
				uint8_t EndpointIndex = ((uint8_t)USB_ControlRequest.wIndex & ENDPOINT_EPNUM_MASK);
     a5a:	2f 70       	andi	r18, 0x0F	; 15
     a5c:	09 f4       	brne	.+2      	; 0xa60 <USB_Device_ProcessControlRequest+0xe0>

				if (EndpointIndex == ENDPOINT_CONTROLEP)
     a5e:	c9 c0       	rjmp	.+402    	; 0xbf2 <USB_Device_ProcessControlRequest+0x272>
     a60:	20 93 e9 00 	sts	0x00E9, r18
			 */
			static inline void Endpoint_SelectEndpoint(const uint8_t Address) ATTR_ALWAYS_INLINE;
			static inline void Endpoint_SelectEndpoint(const uint8_t Address)
			{
				#if !defined(CONTROL_ONLY_DEVICE)
					UENUM = (Address & ENDPOINT_EPNUM_MASK);
     a64:	90 91 eb 00 	lds	r25, 0x00EB
			 * \return Boolean \c true if the currently selected endpoint is enabled, \c false otherwise.
			 */
			static inline bool Endpoint_IsEnabled(void) ATTR_WARN_UNUSED_RESULT ATTR_ALWAYS_INLINE;
			static inline bool Endpoint_IsEnabled(void)
			{
				return ((UECONX & (1 << EPEN)) ? true : false);
     a68:	90 ff       	sbrs	r25, 0
				  return;

				Endpoint_SelectEndpoint(EndpointIndex);

				if (Endpoint_IsEnabled())
     a6a:	1b c0       	rjmp	.+54     	; 0xaa2 <USB_Device_ProcessControlRequest+0x122>
     a6c:	83 30       	cpi	r24, 0x03	; 3
				{
					if (USB_ControlRequest.bRequest == REQ_SetFeature)
     a6e:	21 f4       	brne	.+8      	; 0xa78 <USB_Device_ProcessControlRequest+0xf8>
     a70:	80 91 eb 00 	lds	r24, 0x00EB
			 *  \ingroup Group_EndpointPacketManagement_AVR8
			 */
			static inline void Endpoint_StallTransaction(void) ATTR_ALWAYS_INLINE;
			static inline void Endpoint_StallTransaction(void)
			{
				UECONX |= (1 << STALLRQ);
     a74:	80 62       	ori	r24, 0x20	; 32
     a76:	13 c0       	rjmp	.+38     	; 0xa9e <USB_Device_ProcessControlRequest+0x11e>
     a78:	80 91 eb 00 	lds	r24, 0x00EB
			 *  \ingroup Group_EndpointPacketManagement_AVR8
			 */
			static inline void Endpoint_ClearStall(void) ATTR_ALWAYS_INLINE;
			static inline void Endpoint_ClearStall(void)
			{
				UECONX |= (1 << STALLRQC);
     a7c:	80 61       	ori	r24, 0x10	; 16
     a7e:	80 93 eb 00 	sts	0x00EB, r24
     a82:	81 e0       	ldi	r24, 0x01	; 1
			 *  \param[in] Address  Endpoint address whose FIFO buffers are to be reset.
			 */
			static inline void Endpoint_ResetEndpoint(const uint8_t Address) ATTR_ALWAYS_INLINE;
			static inline void Endpoint_ResetEndpoint(const uint8_t Address)
			{
				UERST = (1 << (Address & ENDPOINT_EPNUM_MASK));
     a84:	90 e0       	ldi	r25, 0x00	; 0
     a86:	02 2e       	mov	r0, r18
     a88:	01 c0       	rjmp	.+2      	; 0xa8c <USB_Device_ProcessControlRequest+0x10c>
     a8a:	88 0f       	add	r24, r24
     a8c:	0a 94       	dec	r0
     a8e:	ea f7       	brpl	.-6      	; 0xa8a <USB_Device_ProcessControlRequest+0x10a>
     a90:	80 93 ea 00 	sts	0x00EA, r24
     a94:	10 92 ea 00 	sts	0x00EA, r1
				UERST = 0;
     a98:	80 91 eb 00 	lds	r24, 0x00EB

			/** Resets the data toggle of the currently selected endpoint. */
			static inline void Endpoint_ResetDataToggle(void) ATTR_ALWAYS_INLINE;
			static inline void Endpoint_ResetDataToggle(void)
			{
				UECONX |= (1 << RSTDT);
     a9c:	88 60       	ori	r24, 0x08	; 8
     a9e:	80 93 eb 00 	sts	0x00EB, r24
     aa2:	10 92 e9 00 	sts	0x00E9, r1
			 */
			static inline void Endpoint_SelectEndpoint(const uint8_t Address) ATTR_ALWAYS_INLINE;
			static inline void Endpoint_SelectEndpoint(const uint8_t Address)
			{
				#if !defined(CONTROL_ONLY_DEVICE)
					UENUM = (Address & ENDPOINT_EPNUM_MASK);
     aa6:	80 91 e8 00 	lds	r24, 0x00E8
			 *  \note This is not applicable for non CONTROL type endpoints.
			 */
			static inline void Endpoint_ClearSETUP(void) ATTR_ALWAYS_INLINE;
			static inline void Endpoint_ClearSETUP(void)
			{
				UEINTX &= ~(1 << RXSTPI);
     aaa:	87 7f       	andi	r24, 0xF7	; 247
     aac:	82 c0       	rjmp	.+260    	; 0xbb2 <USB_Device_ProcessControlRequest+0x232>
     aae:	91 11       	cpse	r25, r1
					USB_Device_ClearSetFeature();
				}

				break;
			case REQ_SetAddress:
				if (bmRequestType == (REQDIR_HOSTTODEVICE | REQTYPE_STANDARD | REQREC_DEVICE))
     ab0:	a0 c0       	rjmp	.+320    	; 0xbf2 <USB_Device_ProcessControlRequest+0x272>
     ab2:	10 91 1b 01 	lds	r17, 0x011B
	}
}

static void USB_Device_SetAddress(void)
{
	uint8_t DeviceAddress = (USB_ControlRequest.wValue & 0x7F);
     ab6:	1f 77       	andi	r17, 0x7F	; 127
     ab8:	80 91 e3 00 	lds	r24, 0x00E3
			#endif

			static inline void USB_Device_SetDeviceAddress(const uint8_t Address) ATTR_ALWAYS_INLINE;
			static inline void USB_Device_SetDeviceAddress(const uint8_t Address)
			{
				UDADDR = (UDADDR & (1 << ADDEN)) | (Address & 0x7F);
     abc:	80 78       	andi	r24, 0x80	; 128
     abe:	81 2b       	or	r24, r17
     ac0:	80 93 e3 00 	sts	0x00E3, r24
     ac4:	80 91 e8 00 	lds	r24, 0x00E8
     ac8:	87 7f       	andi	r24, 0xF7	; 247
     aca:	80 93 e8 00 	sts	0x00E8, r24
     ace:	dd dd       	rcall	.-1094   	; 0x68a <Endpoint_ClearStatusStage>

	USB_Device_SetDeviceAddress(DeviceAddress);

	Endpoint_ClearSETUP();

	Endpoint_ClearStatusStage();
     ad0:	80 91 e8 00 	lds	r24, 0x00E8
			 *  \return Boolean \c true if the current endpoint is ready for an IN packet, \c false otherwise.
			 */
			static inline bool Endpoint_IsINReady(void) ATTR_WARN_UNUSED_RESULT ATTR_ALWAYS_INLINE;
			static inline bool Endpoint_IsINReady(void)
			{
				return ((UEINTX & (1 << TXINI)) ? true : false);
     ad4:	80 ff       	sbrs	r24, 0
     ad6:	fc cf       	rjmp	.-8      	; 0xad0 <USB_Device_ProcessControlRequest+0x150>

	while (!(Endpoint_IsINReady()));
     ad8:	80 91 e3 00 	lds	r24, 0x00E3
			static inline void USB_Device_EnableDeviceAddress(const uint8_t Address) ATTR_ALWAYS_INLINE;
			static inline void USB_Device_EnableDeviceAddress(const uint8_t Address)
			{
				(void)Address;

				UDADDR |= (1 << ADDEN);
     adc:	80 68       	ori	r24, 0x80	; 128
     ade:	80 93 e3 00 	sts	0x00E3, r24
     ae2:	11 23       	and	r17, r17
     ae4:	11 f0       	breq	.+4      	; 0xaea <USB_Device_ProcessControlRequest+0x16a>

	USB_Device_EnableDeviceAddress(DeviceAddress);

	USB_DeviceState = (DeviceAddress) ? DEVICE_STATE_Addressed : DEVICE_STATE_Default;
     ae6:	83 e0       	ldi	r24, 0x03	; 3
     ae8:	01 c0       	rjmp	.+2      	; 0xaec <USB_Device_ProcessControlRequest+0x16c>
     aea:	82 e0       	ldi	r24, 0x02	; 2
     aec:	80 93 18 01 	sts	0x0118, r24
     af0:	80 c0       	rjmp	.+256    	; 0xbf2 <USB_Device_ProcessControlRequest+0x272>
     af2:	90 58       	subi	r25, 0x80	; 128
     af4:	92 30       	cpi	r25, 0x02	; 2
				if (bmRequestType == (REQDIR_HOSTTODEVICE | REQTYPE_STANDARD | REQREC_DEVICE))
				  USB_Device_SetAddress();

				break;
			case REQ_GetDescriptor:
				if ((bmRequestType == (REQDIR_DEVICETOHOST | REQTYPE_STANDARD | REQREC_DEVICE)) ||
     af6:	08 f0       	brcs	.+2      	; 0xafa <USB_Device_ProcessControlRequest+0x17a>
     af8:	7c c0       	rjmp	.+248    	; 0xbf2 <USB_Device_ProcessControlRequest+0x272>
     afa:	80 91 1b 01 	lds	r24, 0x011B
	    !(defined(USE_FLASH_DESCRIPTORS) || defined(USE_EEPROM_DESCRIPTORS) || defined(USE_RAM_DESCRIPTORS))
	uint8_t DescriptorAddressSpace;
	#endif

	#if !defined(NO_INTERNAL_SERIAL) && (USE_INTERNAL_SERIAL != NO_DESCRIPTOR)
	if (USB_ControlRequest.wValue == ((DTYPE_String << 8) | USE_INTERNAL_SERIAL))
     afe:	90 91 1c 01 	lds	r25, 0x011C
     b02:	8c 3d       	cpi	r24, 0xDC	; 220
     b04:	23 e0       	ldi	r18, 0x03	; 3
     b06:	92 07       	cpc	r25, r18
     b08:	71 f5       	brne	.+92     	; 0xb66 <USB_Device_ProcessControlRequest+0x1e6>
     b0a:	83 e0       	ldi	r24, 0x03	; 3
     b0c:	8a 83       	std	Y+2, r24	; 0x02
	{
		USB_Descriptor_Header_t Header;
		uint16_t                UnicodeString[INTERNAL_SERIAL_LENGTH_BITS / 4];
	} SignatureDescriptor;

	SignatureDescriptor.Header.Type = DTYPE_String;
     b0e:	8a e2       	ldi	r24, 0x2A	; 42
     b10:	89 83       	std	Y+1, r24	; 0x01
	SignatureDescriptor.Header.Size = USB_STRING_LEN(INTERNAL_SERIAL_LENGTH_BITS / 4);
     b12:	4f b7       	in	r20, 0x3f	; 63
     b14:	f8 94       	cli
			static inline uint_reg_t GetGlobalInterruptMask(void)
			{
				GCC_MEMORY_BARRIER();

				#if (ARCH == ARCH_AVR8)
				return SREG;
     b16:	de 01       	movw	r26, r28
			static inline void GlobalInterruptDisable(void)
			{
				GCC_MEMORY_BARRIER();

				#if (ARCH == ARCH_AVR8)
				cli();
     b18:	13 96       	adiw	r26, 0x03	; 3
				__builtin_ssrf(AVR32_SR_GM_OFFSET);
				#elif (ARCH == ARCH_XMEGA)
				cli();
				#endif

				GCC_MEMORY_BARRIER();
     b1a:	20 e0       	ldi	r18, 0x00	; 0
     b1c:	3e e0       	ldi	r19, 0x0E	; 14
				uint_reg_t CurrentGlobalInt = GetGlobalInterruptMask();
				GlobalInterruptDisable();

				uint8_t SigReadAddress = INTERNAL_SERIAL_START_ADDRESS;

				for (uint8_t SerialCharNum = 0; SerialCharNum < (INTERNAL_SERIAL_LENGTH_BITS / 4); SerialCharNum++)
     b1e:	51 e2       	ldi	r21, 0x21	; 33
			static inline void USB_Device_GetSerialString(uint16_t* const UnicodeString)
			{
				uint_reg_t CurrentGlobalInt = GetGlobalInterruptMask();
				GlobalInterruptDisable();

				uint8_t SigReadAddress = INTERNAL_SERIAL_START_ADDRESS;
     b20:	e3 2f       	mov	r30, r19

				for (uint8_t SerialCharNum = 0; SerialCharNum < (INTERNAL_SERIAL_LENGTH_BITS / 4); SerialCharNum++)
				{
					uint8_t SerialByte = boot_signature_byte_get(SigReadAddress);
     b22:	f0 e0       	ldi	r31, 0x00	; 0
     b24:	50 93 57 00 	sts	0x0057, r21
     b28:	e4 91       	lpm	r30, Z
     b2a:	20 ff       	sbrs	r18, 0
     b2c:	03 c0       	rjmp	.+6      	; 0xb34 <USB_Device_ProcessControlRequest+0x1b4>

					if (SerialCharNum & 0x01)
     b2e:	e2 95       	swap	r30
     b30:	ef 70       	andi	r30, 0x0F	; 15
					{
						SerialByte >>= 4;
     b32:	3f 5f       	subi	r19, 0xFF	; 255
     b34:	ef 70       	andi	r30, 0x0F	; 15
						SigReadAddress++;
     b36:	8e 2f       	mov	r24, r30
					}

					SerialByte &= 0x0F;
     b38:	90 e0       	ldi	r25, 0x00	; 0
     b3a:	ea 30       	cpi	r30, 0x0A	; 10
     b3c:	10 f0       	brcs	.+4      	; 0xb42 <USB_Device_ProcessControlRequest+0x1c2>

					UnicodeString[SerialCharNum] = cpu_to_le16((SerialByte >= 10) ?
     b3e:	c7 96       	adiw	r24, 0x37	; 55
     b40:	01 c0       	rjmp	.+2      	; 0xb44 <USB_Device_ProcessControlRequest+0x1c4>
     b42:	c0 96       	adiw	r24, 0x30	; 48
     b44:	8d 93       	st	X+, r24
     b46:	9d 93       	st	X+, r25
     b48:	2f 5f       	subi	r18, 0xFF	; 255
     b4a:	24 31       	cpi	r18, 0x14	; 20
				uint_reg_t CurrentGlobalInt = GetGlobalInterruptMask();
				GlobalInterruptDisable();

				uint8_t SigReadAddress = INTERNAL_SERIAL_START_ADDRESS;

				for (uint8_t SerialCharNum = 0; SerialCharNum < (INTERNAL_SERIAL_LENGTH_BITS / 4); SerialCharNum++)
     b4c:	49 f7       	brne	.-46     	; 0xb20 <USB_Device_ProcessControlRequest+0x1a0>
     b4e:	4f bf       	out	0x3f, r20	; 63
     b50:	80 91 e8 00 	lds	r24, 0x00E8
			 *  \note This is not applicable for non CONTROL type endpoints.
			 */
			static inline void Endpoint_ClearSETUP(void) ATTR_ALWAYS_INLINE;
			static inline void Endpoint_ClearSETUP(void)
			{
				UEINTX &= ~(1 << RXSTPI);
     b54:	87 7f       	andi	r24, 0xF7	; 247
     b56:	80 93 e8 00 	sts	0x00E8, r24
     b5a:	6a e2       	ldi	r22, 0x2A	; 42
     b5c:	70 e0       	ldi	r23, 0x00	; 0

	USB_Device_GetSerialString(SignatureDescriptor.UnicodeString);

	Endpoint_ClearSETUP();

	Endpoint_Write_Control_Stream_LE(&SignatureDescriptor, sizeof(SignatureDescriptor));
     b5e:	ce 01       	movw	r24, r28
     b60:	01 96       	adiw	r24, 0x01	; 1
     b62:	26 dc       	rcall	.-1972   	; 0x3b0 <Endpoint_Write_Control_Stream_LE>
     b64:	12 c0       	rjmp	.+36     	; 0xb8a <USB_Device_ProcessControlRequest+0x20a>
     b66:	ae 01       	movw	r20, r28
     b68:	4f 5f       	subi	r20, 0xFF	; 255
     b6a:	5f 4f       	sbci	r21, 0xFF	; 255
		USB_Device_GetInternalSerialDescriptor();
		return;
	}
	#endif

	if ((DescriptorSize = CALLBACK_USB_GetDescriptor(USB_ControlRequest.wValue, USB_ControlRequest.wIndex,
     b6c:	60 91 1d 01 	lds	r22, 0x011D
     b70:	94 db       	rcall	.-2264   	; 0x29a <CALLBACK_USB_GetDescriptor>
     b72:	00 97       	sbiw	r24, 0x00	; 0
     b74:	09 f4       	brne	.+2      	; 0xb78 <USB_Device_ProcessControlRequest+0x1f8>
     b76:	3d c0       	rjmp	.+122    	; 0xbf2 <USB_Device_ProcessControlRequest+0x272>
     b78:	20 91 e8 00 	lds	r18, 0x00E8
     b7c:	27 7f       	andi	r18, 0xF7	; 247
     b7e:	20 93 e8 00 	sts	0x00E8, r18
     b82:	bc 01       	movw	r22, r24
     b84:	89 81       	ldd	r24, Y+1	; 0x01
     b86:	9a 81       	ldd	r25, Y+2	; 0x02
     b88:	ae dc       	rcall	.-1700   	; 0x4e6 <Endpoint_Write_Control_PStream_LE>
	#if defined(USE_RAM_DESCRIPTORS) || !defined(ARCH_HAS_MULTI_ADDRESS_SPACE)
	Endpoint_Write_Control_Stream_LE(DescriptorPointer, DescriptorSize);
	#elif defined(USE_EEPROM_DESCRIPTORS)
	Endpoint_Write_Control_EStream_LE(DescriptorPointer, DescriptorSize);
	#elif defined(USE_FLASH_DESCRIPTORS)
	Endpoint_Write_Control_PStream_LE(DescriptorPointer, DescriptorSize);
     b8a:	80 91 e8 00 	lds	r24, 0x00E8
     b8e:	8b 77       	andi	r24, 0x7B	; 123
     b90:	80 93 e8 00 	sts	0x00E8, r24
			 */
			static inline void Endpoint_ClearOUT(void) ATTR_ALWAYS_INLINE;
			static inline void Endpoint_ClearOUT(void)
			{
				#if !defined(CONTROL_ONLY_DEVICE)
					UEINTX &= ~((1 << RXOUTI) | (1 << FIFOCON));
     b94:	2e c0       	rjmp	.+92     	; 0xbf2 <USB_Device_ProcessControlRequest+0x272>
     b96:	90 38       	cpi	r25, 0x80	; 128
     b98:	61 f5       	brne	.+88     	; 0xbf2 <USB_Device_ProcessControlRequest+0x272>
     b9a:	80 91 e8 00 	lds	r24, 0x00E8
     b9e:	87 7f       	andi	r24, 0xF7	; 247
					USB_Device_GetDescriptor();
				}

				break;
			case REQ_GetConfiguration:
				if (bmRequestType == (REQDIR_DEVICETOHOST | REQTYPE_STANDARD | REQREC_DEVICE))
     ba0:	80 93 e8 00 	sts	0x00E8, r24
			 *  \note This is not applicable for non CONTROL type endpoints.
			 */
			static inline void Endpoint_ClearSETUP(void) ATTR_ALWAYS_INLINE;
			static inline void Endpoint_ClearSETUP(void)
			{
				UEINTX &= ~(1 << RXSTPI);
     ba4:	80 91 14 01 	lds	r24, 0x0114
     ba8:	80 93 f1 00 	sts	0x00F1, r24
     bac:	80 91 e8 00 	lds	r24, 0x00E8

static void USB_Device_GetConfiguration(void)
{
	Endpoint_ClearSETUP();

	Endpoint_Write_8(USB_Device_ConfigurationNumber);
     bb0:	8e 77       	andi	r24, 0x7E	; 126
			 *  \param[in] Data  Data to write into the the currently selected endpoint's FIFO buffer.
			 */
			static inline void Endpoint_Write_8(const uint8_t Data) ATTR_ALWAYS_INLINE;
			static inline void Endpoint_Write_8(const uint8_t Data)
			{
				UEDATX = Data;
     bb2:	80 93 e8 00 	sts	0x00E8, r24
			 */
			static inline void Endpoint_ClearIN(void) ATTR_ALWAYS_INLINE;
			static inline void Endpoint_ClearIN(void)
			{
				#if !defined(CONTROL_ONLY_DEVICE)
					UEINTX &= ~((1 << TXINI) | (1 << FIFOCON));
     bb6:	69 dd       	rcall	.-1326   	; 0x68a <Endpoint_ClearStatusStage>
     bb8:	1c c0       	rjmp	.+56     	; 0xbf2 <USB_Device_ProcessControlRequest+0x272>
     bba:	91 11       	cpse	r25, r1
     bbc:	1a c0       	rjmp	.+52     	; 0xbf2 <USB_Device_ProcessControlRequest+0x272>
     bbe:	90 91 1b 01 	lds	r25, 0x011B
	Endpoint_ClearIN();

	Endpoint_ClearStatusStage();
     bc2:	92 30       	cpi	r25, 0x02	; 2
     bc4:	b0 f4       	brcc	.+44     	; 0xbf2 <USB_Device_ProcessControlRequest+0x272>
				if (bmRequestType == (REQDIR_DEVICETOHOST | REQTYPE_STANDARD | REQREC_DEVICE))
				  USB_Device_GetConfiguration();

				break;
			case REQ_SetConfiguration:
				if (bmRequestType == (REQDIR_HOSTTODEVICE | REQTYPE_STANDARD | REQREC_DEVICE))
     bc6:	80 91 e8 00 	lds	r24, 0x00E8
}

static void USB_Device_SetConfiguration(void)
{
	#if defined(FIXED_NUM_CONFIGURATIONS)
	if ((uint8_t)USB_ControlRequest.wValue > FIXED_NUM_CONFIGURATIONS)
     bca:	87 7f       	andi	r24, 0xF7	; 247
     bcc:	80 93 e8 00 	sts	0x00E8, r24
     bd0:	90 93 14 01 	sts	0x0114, r25
			 *  \note This is not applicable for non CONTROL type endpoints.
			 */
			static inline void Endpoint_ClearSETUP(void) ATTR_ALWAYS_INLINE;
			static inline void Endpoint_ClearSETUP(void)
			{
				UEINTX &= ~(1 << RXSTPI);
     bd4:	5a dd       	rcall	.-1356   	; 0x68a <Endpoint_ClearStatusStage>
     bd6:	80 91 14 01 	lds	r24, 0x0114
     bda:	81 11       	cpse	r24, r1
	#endif
	#endif

	Endpoint_ClearSETUP();

	USB_Device_ConfigurationNumber = (uint8_t)USB_ControlRequest.wValue;
     bdc:	04 c0       	rjmp	.+8      	; 0xbe6 <USB_Device_ProcessControlRequest+0x266>
     bde:	80 91 e3 00 	lds	r24, 0x00E3

	Endpoint_ClearStatusStage();
     be2:	87 ff       	sbrs	r24, 7

	if (USB_Device_ConfigurationNumber)
     be4:	02 c0       	rjmp	.+4      	; 0xbea <USB_Device_ProcessControlRequest+0x26a>
     be6:	84 e0       	ldi	r24, 0x04	; 4
     be8:	01 c0       	rjmp	.+2      	; 0xbec <USB_Device_ProcessControlRequest+0x26c>
     bea:	81 e0       	ldi	r24, 0x01	; 1
			}

			static inline bool USB_Device_IsAddressSet(void) ATTR_ALWAYS_INLINE ATTR_WARN_UNUSED_RESULT;
			static inline bool USB_Device_IsAddressSet(void)
			{
				return (UDADDR & (1 << ADDEN));
     bec:	80 93 18 01 	sts	0x0118, r24
	  USB_DeviceState = DEVICE_STATE_Configured;
	else
	  USB_DeviceState = (USB_Device_IsAddressSet()) ? DEVICE_STATE_Configured : DEVICE_STATE_Powered;
     bf0:	06 db       	rcall	.-2548   	; 0x1fe <EVENT_USB_Device_ConfigurationChanged>
     bf2:	80 91 e8 00 	lds	r24, 0x00E8
     bf6:	83 ff       	sbrs	r24, 3
     bf8:	0a c0       	rjmp	.+20     	; 0xc0e <USB_Device_ProcessControlRequest+0x28e>
     bfa:	80 91 e8 00 	lds	r24, 0x00E8

	EVENT_USB_Device_ConfigurationChanged();
     bfe:	87 7f       	andi	r24, 0xF7	; 247
     c00:	80 93 e8 00 	sts	0x00E8, r24
			 *  \return Boolean \c true if the selected endpoint has received a SETUP packet, \c false otherwise.
			 */
			static inline bool Endpoint_IsSETUPReceived(void) ATTR_WARN_UNUSED_RESULT ATTR_ALWAYS_INLINE;
			static inline bool Endpoint_IsSETUPReceived(void)
			{
				return ((UEINTX & (1 << RXSTPI)) ? true : false);
     c04:	80 91 eb 00 	lds	r24, 0x00EB
			default:
				break;
		}
	}

	if (Endpoint_IsSETUPReceived())
     c08:	80 62       	ori	r24, 0x20	; 32
			 *  \note This is not applicable for non CONTROL type endpoints.
			 */
			static inline void Endpoint_ClearSETUP(void) ATTR_ALWAYS_INLINE;
			static inline void Endpoint_ClearSETUP(void)
			{
				UEINTX &= ~(1 << RXSTPI);
     c0a:	80 93 eb 00 	sts	0x00EB, r24
     c0e:	aa 96       	adiw	r28, 0x2a	; 42
     c10:	0f b6       	in	r0, 0x3f	; 63
     c12:	f8 94       	cli
			 *  \ingroup Group_EndpointPacketManagement_AVR8
			 */
			static inline void Endpoint_StallTransaction(void) ATTR_ALWAYS_INLINE;
			static inline void Endpoint_StallTransaction(void)
			{
				UECONX |= (1 << STALLRQ);
     c14:	de bf       	out	0x3e, r29	; 62
     c16:	0f be       	out	0x3f, r0	; 63
     c18:	cd bf       	out	0x3d, r28	; 61
     c1a:	df 91       	pop	r29
     c1c:	cf 91       	pop	r28
	{
		Endpoint_ClearSETUP();
		Endpoint_StallTransaction();
	}
}
     c1e:	1f 91       	pop	r17
     c20:	08 95       	ret

00000c22 <USB_Event_Stub>:
     c22:	08 95       	ret

00000c24 <USB_USBTask>:
     c24:	cf 93       	push	r28
     c26:	80 91 18 01 	lds	r24, 0x0118
     c2a:	88 23       	and	r24, r24
     c2c:	a9 f0       	breq	.+42     	; 0xc58 <USB_USBTask+0x34>
     c2e:	80 91 e9 00 	lds	r24, 0x00E9
			 */
			static inline uint8_t Endpoint_GetCurrentEndpoint(void) ATTR_WARN_UNUSED_RESULT ATTR_ALWAYS_INLINE;
			static inline uint8_t Endpoint_GetCurrentEndpoint(void)
			{
				#if !defined(CONTROL_ONLY_DEVICE)
					return ((UENUM & ENDPOINT_EPNUM_MASK) | Endpoint_GetEndpointDirection());
     c32:	8f 70       	andi	r24, 0x0F	; 15
			 *  \return The currently selected endpoint's direction, as a \c ENDPOINT_DIR_* mask.
			 */
			static inline uint8_t Endpoint_GetEndpointDirection(void) ATTR_WARN_UNUSED_RESULT ATTR_ALWAYS_INLINE;
			static inline uint8_t Endpoint_GetEndpointDirection(void)
			{
				return (UECFG0X & (1 << EPDIR)) ? ENDPOINT_DIR_IN : ENDPOINT_DIR_OUT;
     c34:	90 91 ec 00 	lds	r25, 0x00EC
     c38:	90 ff       	sbrs	r25, 0
     c3a:	02 c0       	rjmp	.+4      	; 0xc40 <USB_USBTask+0x1c>
     c3c:	90 e8       	ldi	r25, 0x80	; 128
     c3e:	01 c0       	rjmp	.+2      	; 0xc42 <USB_USBTask+0x1e>
     c40:	90 e0       	ldi	r25, 0x00	; 0
			 */
			static inline uint8_t Endpoint_GetCurrentEndpoint(void) ATTR_WARN_UNUSED_RESULT ATTR_ALWAYS_INLINE;
			static inline uint8_t Endpoint_GetCurrentEndpoint(void)
			{
				#if !defined(CONTROL_ONLY_DEVICE)
					return ((UENUM & ENDPOINT_EPNUM_MASK) | Endpoint_GetEndpointDirection());
     c42:	c9 2f       	mov	r28, r25
     c44:	c8 2b       	or	r28, r24
			 */
			static inline void Endpoint_SelectEndpoint(const uint8_t Address) ATTR_ALWAYS_INLINE;
			static inline void Endpoint_SelectEndpoint(const uint8_t Address)
			{
				#if !defined(CONTROL_ONLY_DEVICE)
					UENUM = (Address & ENDPOINT_EPNUM_MASK);
     c46:	10 92 e9 00 	sts	0x00E9, r1
			 *  \return Boolean \c true if the selected endpoint has received a SETUP packet, \c false otherwise.
			 */
			static inline bool Endpoint_IsSETUPReceived(void) ATTR_WARN_UNUSED_RESULT ATTR_ALWAYS_INLINE;
			static inline bool Endpoint_IsSETUPReceived(void)
			{
				return ((UEINTX & (1 << RXSTPI)) ? true : false);
     c4a:	80 91 e8 00 	lds	r24, 0x00E8

	uint8_t PrevEndpoint = Endpoint_GetCurrentEndpoint();

	Endpoint_SelectEndpoint(ENDPOINT_CONTROLEP);

	if (Endpoint_IsSETUPReceived())
     c4e:	83 fd       	sbrc	r24, 3
	  USB_Device_ProcessControlRequest();
     c50:	97 de       	rcall	.-722    	; 0x980 <USB_Device_ProcessControlRequest>
     c52:	cf 70       	andi	r28, 0x0F	; 15
			 */
			static inline void Endpoint_SelectEndpoint(const uint8_t Address) ATTR_ALWAYS_INLINE;
			static inline void Endpoint_SelectEndpoint(const uint8_t Address)
			{
				#if !defined(CONTROL_ONLY_DEVICE)
					UENUM = (Address & ENDPOINT_EPNUM_MASK);
     c54:	c0 93 e9 00 	sts	0x00E9, r28
     c58:	cf 91       	pop	r28
	#elif defined(USB_CAN_BE_HOST)
		USB_HostTask();
	#elif defined(USB_CAN_BE_DEVICE)
		USB_DeviceTask();
	#endif
}
     c5a:	08 95       	ret

00000c5c <HID_Device_ProcessControlRequest>:
     c5c:	6f 92       	push	r6
#define  __INCLUDE_FROM_HID_DRIVER
#define  __INCLUDE_FROM_HID_DEVICE_C
#include "HIDClassDevice.h"

void HID_Device_ProcessControlRequest(USB_ClassInfo_HID_Device_t* const HIDInterfaceInfo)
{
     c5e:	7f 92       	push	r7
     c60:	8f 92       	push	r8
     c62:	9f 92       	push	r9
     c64:	af 92       	push	r10
     c66:	bf 92       	push	r11
     c68:	cf 92       	push	r12
     c6a:	df 92       	push	r13
     c6c:	ef 92       	push	r14
     c6e:	ff 92       	push	r15
     c70:	0f 93       	push	r16
     c72:	1f 93       	push	r17
     c74:	cf 93       	push	r28
     c76:	df 93       	push	r29
     c78:	00 d0       	rcall	.+0      	; 0xc7a <HID_Device_ProcessControlRequest+0x1e>
     c7a:	1f 92       	push	r1
     c7c:	cd b7       	in	r28, 0x3d	; 61
     c7e:	de b7       	in	r29, 0x3e	; 62
     c80:	7c 01       	movw	r14, r24
				Endpoint_ClearStatusStage();
			}

			break;
	}
}
     c82:	ad b6       	in	r10, 0x3d	; 61
     c84:	be b6       	in	r11, 0x3e	; 62
			 *  \return Boolean \c true if the selected endpoint has received a SETUP packet, \c false otherwise.
			 */
			static inline bool Endpoint_IsSETUPReceived(void) ATTR_WARN_UNUSED_RESULT ATTR_ALWAYS_INLINE;
			static inline bool Endpoint_IsSETUPReceived(void)
			{
				return ((UEINTX & (1 << RXSTPI)) ? true : false);
     c86:	80 91 e8 00 	lds	r24, 0x00E8
#define  __INCLUDE_FROM_HID_DEVICE_C
#include "HIDClassDevice.h"

void HID_Device_ProcessControlRequest(USB_ClassInfo_HID_Device_t* const HIDInterfaceInfo)
{
	if (!(Endpoint_IsSETUPReceived()))
     c8a:	83 ff       	sbrs	r24, 3
     c8c:	02 c1       	rjmp	.+516    	; 0xe92 <HID_Device_ProcessControlRequest+0x236>
	  return;

	if (USB_ControlRequest.wIndex != HIDInterfaceInfo->Config.InterfaceNumber)
     c8e:	f7 01       	movw	r30, r14
     c90:	80 81       	ld	r24, Z
     c92:	90 e0       	ldi	r25, 0x00	; 0
     c94:	20 91 1d 01 	lds	r18, 0x011D
     c98:	30 91 1e 01 	lds	r19, 0x011E
     c9c:	28 17       	cp	r18, r24
     c9e:	39 07       	cpc	r19, r25
     ca0:	09 f0       	breq	.+2      	; 0xca4 <HID_Device_ProcessControlRequest+0x48>
     ca2:	f7 c0       	rjmp	.+494    	; 0xe92 <HID_Device_ProcessControlRequest+0x236>
	  return;

	switch (USB_ControlRequest.bRequest)
     ca4:	80 91 1a 01 	lds	r24, 0x011A
     ca8:	83 30       	cpi	r24, 0x03	; 3
     caa:	09 f4       	brne	.+2      	; 0xcae <HID_Device_ProcessControlRequest+0x52>
     cac:	99 c0       	rjmp	.+306    	; 0xde0 <HID_Device_ProcessControlRequest+0x184>
     cae:	30 f4       	brcc	.+12     	; 0xcbc <HID_Device_ProcessControlRequest+0x60>
     cb0:	81 30       	cpi	r24, 0x01	; 1
     cb2:	71 f0       	breq	.+28     	; 0xcd0 <HID_Device_ProcessControlRequest+0x74>
     cb4:	82 30       	cpi	r24, 0x02	; 2
     cb6:	09 f4       	brne	.+2      	; 0xcba <HID_Device_ProcessControlRequest+0x5e>
     cb8:	d0 c0       	rjmp	.+416    	; 0xe5a <HID_Device_ProcessControlRequest+0x1fe>
     cba:	eb c0       	rjmp	.+470    	; 0xe92 <HID_Device_ProcessControlRequest+0x236>
     cbc:	8a 30       	cpi	r24, 0x0A	; 10
     cbe:	09 f4       	brne	.+2      	; 0xcc2 <HID_Device_ProcessControlRequest+0x66>
     cc0:	b4 c0       	rjmp	.+360    	; 0xe2a <HID_Device_ProcessControlRequest+0x1ce>
     cc2:	8b 30       	cpi	r24, 0x0B	; 11
     cc4:	09 f4       	brne	.+2      	; 0xcc8 <HID_Device_ProcessControlRequest+0x6c>
     cc6:	9d c0       	rjmp	.+314    	; 0xe02 <HID_Device_ProcessControlRequest+0x1a6>
     cc8:	89 30       	cpi	r24, 0x09	; 9
     cca:	09 f0       	breq	.+2      	; 0xcce <HID_Device_ProcessControlRequest+0x72>
     ccc:	e2 c0       	rjmp	.+452    	; 0xe92 <HID_Device_ProcessControlRequest+0x236>
     cce:	4b c0       	rjmp	.+150    	; 0xd66 <HID_Device_ProcessControlRequest+0x10a>
	{
		case HID_REQ_GetReport:
			if (USB_ControlRequest.bmRequestType == (REQDIR_DEVICETOHOST | REQTYPE_CLASS | REQREC_INTERFACE))
     cd0:	80 91 19 01 	lds	r24, 0x0119
     cd4:	81 3a       	cpi	r24, 0xA1	; 161
     cd6:	09 f0       	breq	.+2      	; 0xcda <HID_Device_ProcessControlRequest+0x7e>
     cd8:	dc c0       	rjmp	.+440    	; 0xe92 <HID_Device_ProcessControlRequest+0x236>
     cda:	8d b6       	in	r8, 0x3d	; 61
     cdc:	9e b6       	in	r9, 0x3e	; 62
			{
				uint16_t ReportSize = 0;
     cde:	1a 82       	std	Y+2, r1	; 0x02
     ce0:	19 82       	std	Y+1, r1	; 0x01
				uint8_t  ReportID   = (USB_ControlRequest.wValue & 0xFF);
     ce2:	80 91 1b 01 	lds	r24, 0x011B
     ce6:	10 91 1c 01 	lds	r17, 0x011C
     cea:	8b 83       	std	Y+3, r24	; 0x03
				uint8_t  ReportType = (USB_ControlRequest.wValue >> 8) - 1;
				uint8_t  ReportData[HIDInterfaceInfo->Config.PrevReportINBufferSize];
     cec:	f7 01       	movw	r30, r14
     cee:	40 85       	ldd	r20, Z+8	; 0x08
     cf0:	50 e0       	ldi	r21, 0x00	; 0
     cf2:	8d b7       	in	r24, 0x3d	; 61
     cf4:	9e b7       	in	r25, 0x3e	; 62
     cf6:	84 1b       	sub	r24, r20
     cf8:	95 0b       	sbc	r25, r21
     cfa:	0f b6       	in	r0, 0x3f	; 63
     cfc:	f8 94       	cli
     cfe:	9e bf       	out	0x3e, r25	; 62
     d00:	0f be       	out	0x3f, r0	; 63
     d02:	8d bf       	out	0x3d, r24	; 61
     d04:	ed b7       	in	r30, 0x3d	; 61
     d06:	fe b7       	in	r31, 0x3e	; 62
     d08:	31 96       	adiw	r30, 0x01	; 1
     d0a:	6f 01       	movw	r12, r30

				memset(ReportData, 0, sizeof(ReportData));
     d0c:	60 e0       	ldi	r22, 0x00	; 0
     d0e:	70 e0       	ldi	r23, 0x00	; 0
     d10:	cf 01       	movw	r24, r30
     d12:	bc d1       	rcall	.+888    	; 0x108c <memset>
     d14:	4f ef       	ldi	r20, 0xFF	; 255
		case HID_REQ_GetReport:
			if (USB_ControlRequest.bmRequestType == (REQDIR_DEVICETOHOST | REQTYPE_CLASS | REQREC_INTERFACE))
			{
				uint16_t ReportSize = 0;
				uint8_t  ReportID   = (USB_ControlRequest.wValue & 0xFF);
				uint8_t  ReportType = (USB_ControlRequest.wValue >> 8) - 1;
     d16:	41 0f       	add	r20, r17
     d18:	8e 01       	movw	r16, r28
				uint8_t  ReportData[HIDInterfaceInfo->Config.PrevReportINBufferSize];

				memset(ReportData, 0, sizeof(ReportData));

				CALLBACK_HID_Device_CreateHIDReport(HIDInterfaceInfo, &ReportID, ReportType, ReportData, &ReportSize);
     d1a:	0f 5f       	subi	r16, 0xFF	; 255
     d1c:	1f 4f       	sbci	r17, 0xFF	; 255
     d1e:	96 01       	movw	r18, r12
     d20:	be 01       	movw	r22, r28
     d22:	6d 5f       	subi	r22, 0xFD	; 253
     d24:	7f 4f       	sbci	r23, 0xFF	; 255
     d26:	c7 01       	movw	r24, r14
     d28:	87 da       	rcall	.-2802   	; 0x238 <CALLBACK_HID_Device_CreateHIDReport>
     d2a:	f7 01       	movw	r30, r14
     d2c:	86 81       	ldd	r24, Z+6	; 0x06

				if (HIDInterfaceInfo->Config.PrevReportINBuffer != NULL)
     d2e:	97 81       	ldd	r25, Z+7	; 0x07
     d30:	00 97       	sbiw	r24, 0x00	; 0
     d32:	21 f0       	breq	.+8      	; 0xd3c <HID_Device_ProcessControlRequest+0xe0>
     d34:	40 85       	ldd	r20, Z+8	; 0x08
     d36:	50 e0       	ldi	r21, 0x00	; 0
				{
					memcpy(HIDInterfaceInfo->Config.PrevReportINBuffer, ReportData,
     d38:	b6 01       	movw	r22, r12
     d3a:	9f d1       	rcall	.+830    	; 0x107a <memcpy>
     d3c:	10 92 e9 00 	sts	0x00E9, r1
     d40:	80 91 e8 00 	lds	r24, 0x00E8
			 */
			static inline void Endpoint_SelectEndpoint(const uint8_t Address) ATTR_ALWAYS_INLINE;
			static inline void Endpoint_SelectEndpoint(const uint8_t Address)
			{
				#if !defined(CONTROL_ONLY_DEVICE)
					UENUM = (Address & ENDPOINT_EPNUM_MASK);
     d44:	87 7f       	andi	r24, 0xF7	; 247
			 *  \note This is not applicable for non CONTROL type endpoints.
			 */
			static inline void Endpoint_ClearSETUP(void) ATTR_ALWAYS_INLINE;
			static inline void Endpoint_ClearSETUP(void)
			{
				UEINTX &= ~(1 << RXSTPI);
     d46:	80 93 e8 00 	sts	0x00E8, r24
     d4a:	8b 81       	ldd	r24, Y+3	; 0x03
     d4c:	81 11       	cpse	r24, r1
     d4e:	80 93 f1 00 	sts	0x00F1, r24

				Endpoint_SelectEndpoint(ENDPOINT_CONTROLEP);

				Endpoint_ClearSETUP();

				if (ReportID)
     d52:	69 81       	ldd	r22, Y+1	; 0x01
			 *  \param[in] Data  Data to write into the the currently selected endpoint's FIFO buffer.
			 */
			static inline void Endpoint_Write_8(const uint8_t Data) ATTR_ALWAYS_INLINE;
			static inline void Endpoint_Write_8(const uint8_t Data)
			{
				UEDATX = Data;
     d54:	7a 81       	ldd	r23, Y+2	; 0x02
     d56:	c6 01       	movw	r24, r12
				  Endpoint_Write_8(ReportID);

				Endpoint_Write_Control_Stream_LE(ReportData, ReportSize);
     d58:	2b db       	rcall	.-2474   	; 0x3b0 <Endpoint_Write_Control_Stream_LE>
     d5a:	80 91 e8 00 	lds	r24, 0x00E8
     d5e:	8b 77       	andi	r24, 0x7B	; 123
     d60:	80 93 e8 00 	sts	0x00E8, r24
			 */
			static inline void Endpoint_ClearOUT(void) ATTR_ALWAYS_INLINE;
			static inline void Endpoint_ClearOUT(void)
			{
				#if !defined(CONTROL_ONLY_DEVICE)
					UEINTX &= ~((1 << RXOUTI) | (1 << FIFOCON));
     d64:	37 c0       	rjmp	.+110    	; 0xdd4 <HID_Device_ProcessControlRequest+0x178>
     d66:	80 91 19 01 	lds	r24, 0x0119
     d6a:	81 32       	cpi	r24, 0x21	; 33
     d6c:	09 f0       	breq	.+2      	; 0xd70 <HID_Device_ProcessControlRequest+0x114>
				Endpoint_ClearOUT();
			}

			break;
		case HID_REQ_SetReport:
			if (USB_ControlRequest.bmRequestType == (REQDIR_HOSTTODEVICE | REQTYPE_CLASS | REQREC_INTERFACE))
     d6e:	91 c0       	rjmp	.+290    	; 0xe92 <HID_Device_ProcessControlRequest+0x236>
     d70:	8d b6       	in	r8, 0x3d	; 61
     d72:	9e b6       	in	r9, 0x3e	; 62
     d74:	00 91 1f 01 	lds	r16, 0x011F
     d78:	10 91 20 01 	lds	r17, 0x0120
			{
				uint16_t ReportSize = USB_ControlRequest.wLength;
     d7c:	70 90 1b 01 	lds	r7, 0x011B
     d80:	60 90 1c 01 	lds	r6, 0x011C
				uint8_t  ReportID   = (USB_ControlRequest.wValue & 0xFF);
     d84:	8d b7       	in	r24, 0x3d	; 61
     d86:	9e b7       	in	r25, 0x3e	; 62
     d88:	80 1b       	sub	r24, r16
     d8a:	91 0b       	sbc	r25, r17
				uint8_t  ReportType = (USB_ControlRequest.wValue >> 8) - 1;
				uint8_t  ReportData[ReportSize];
     d8c:	0f b6       	in	r0, 0x3f	; 63
     d8e:	f8 94       	cli
     d90:	9e bf       	out	0x3e, r25	; 62
     d92:	0f be       	out	0x3f, r0	; 63
     d94:	8d bf       	out	0x3d, r24	; 61
     d96:	ed b7       	in	r30, 0x3d	; 61
     d98:	fe b7       	in	r31, 0x3e	; 62
     d9a:	31 96       	adiw	r30, 0x01	; 1
     d9c:	6f 01       	movw	r12, r30
     d9e:	80 91 e8 00 	lds	r24, 0x00E8
     da2:	87 7f       	andi	r24, 0xF7	; 247
     da4:	80 93 e8 00 	sts	0x00E8, r24
			 *  \note This is not applicable for non CONTROL type endpoints.
			 */
			static inline void Endpoint_ClearSETUP(void) ATTR_ALWAYS_INLINE;
			static inline void Endpoint_ClearSETUP(void)
			{
				UEINTX &= ~(1 << RXSTPI);
     da8:	b8 01       	movw	r22, r16
     daa:	cf 01       	movw	r24, r30
     dac:	5e db       	rcall	.-2372   	; 0x46a <Endpoint_Read_Control_Stream_LE>
     dae:	80 91 e8 00 	lds	r24, 0x00E8

				Endpoint_ClearSETUP();
				Endpoint_Read_Control_Stream_LE(ReportData, ReportSize);
     db2:	8e 77       	andi	r24, 0x7E	; 126
     db4:	80 93 e8 00 	sts	0x00E8, r24
			 */
			static inline void Endpoint_ClearIN(void) ATTR_ALWAYS_INLINE;
			static inline void Endpoint_ClearIN(void)
			{
				#if !defined(CONTROL_ONLY_DEVICE)
					UEINTX &= ~((1 << TXINI) | (1 << FIFOCON));
     db8:	21 e0       	ldi	r18, 0x01	; 1
     dba:	71 10       	cpse	r7, r1
     dbc:	01 c0       	rjmp	.+2      	; 0xdc0 <HID_Device_ProcessControlRequest+0x164>
     dbe:	20 e0       	ldi	r18, 0x00	; 0
     dc0:	30 e0       	ldi	r19, 0x00	; 0
				Endpoint_ClearIN();

				CALLBACK_HID_Device_ProcessHIDReport(HIDInterfaceInfo, ReportID, ReportType,
     dc2:	02 1b       	sub	r16, r18
     dc4:	13 0b       	sbc	r17, r19
     dc6:	2c 0d       	add	r18, r12
     dc8:	3d 1d       	adc	r19, r13
     dca:	4f ef       	ldi	r20, 0xFF	; 255
     dcc:	46 0d       	add	r20, r6
     dce:	67 2d       	mov	r22, r7
				                                     &ReportData[ReportID ? 1 : 0], ReportSize - (ReportID ? 1 : 0));
     dd0:	c7 01       	movw	r24, r14
     dd2:	62 da       	rcall	.-2876   	; 0x298 <CALLBACK_HID_Device_ProcessHIDReport>
		case HID_REQ_SetReport:
			if (USB_ControlRequest.bmRequestType == (REQDIR_HOSTTODEVICE | REQTYPE_CLASS | REQREC_INTERFACE))
			{
				uint16_t ReportSize = USB_ControlRequest.wLength;
				uint8_t  ReportID   = (USB_ControlRequest.wValue & 0xFF);
				uint8_t  ReportType = (USB_ControlRequest.wValue >> 8) - 1;
     dd4:	0f b6       	in	r0, 0x3f	; 63
     dd6:	f8 94       	cli

				Endpoint_ClearSETUP();
				Endpoint_Read_Control_Stream_LE(ReportData, ReportSize);
				Endpoint_ClearIN();

				CALLBACK_HID_Device_ProcessHIDReport(HIDInterfaceInfo, ReportID, ReportType,
     dd8:	9e be       	out	0x3e, r9	; 62
     dda:	0f be       	out	0x3f, r0	; 63
     ddc:	8d be       	out	0x3d, r8	; 61
     dde:	59 c0       	rjmp	.+178    	; 0xe92 <HID_Device_ProcessControlRequest+0x236>
     de0:	80 91 19 01 	lds	r24, 0x0119
     de4:	81 3a       	cpi	r24, 0xA1	; 161
     de6:	09 f0       	breq	.+2      	; 0xdea <HID_Device_ProcessControlRequest+0x18e>
     de8:	54 c0       	rjmp	.+168    	; 0xe92 <HID_Device_ProcessControlRequest+0x236>
     dea:	80 91 e8 00 	lds	r24, 0x00E8
				                                     &ReportData[ReportID ? 1 : 0], ReportSize - (ReportID ? 1 : 0));
			}

			break;
		case HID_REQ_GetProtocol:
			if (USB_ControlRequest.bmRequestType == (REQDIR_DEVICETOHOST | REQTYPE_CLASS | REQREC_INTERFACE))
     dee:	87 7f       	andi	r24, 0xF7	; 247
     df0:	80 93 e8 00 	sts	0x00E8, r24
     df4:	80 91 e8 00 	lds	r24, 0x00E8
			 *  \note This is not applicable for non CONTROL type endpoints.
			 */
			static inline void Endpoint_ClearSETUP(void) ATTR_ALWAYS_INLINE;
			static inline void Endpoint_ClearSETUP(void)
			{
				UEINTX &= ~(1 << RXSTPI);
     df8:	80 ff       	sbrs	r24, 0
     dfa:	fc cf       	rjmp	.-8      	; 0xdf4 <HID_Device_ProcessControlRequest+0x198>
     dfc:	f7 01       	movw	r30, r14
     dfe:	81 85       	ldd	r24, Z+9	; 0x09
			 *  \return Boolean \c true if the current endpoint is ready for an IN packet, \c false otherwise.
			 */
			static inline bool Endpoint_IsINReady(void) ATTR_WARN_UNUSED_RESULT ATTR_ALWAYS_INLINE;
			static inline bool Endpoint_IsINReady(void)
			{
				return ((UEINTX & (1 << TXINI)) ? true : false);
     e00:	40 c0       	rjmp	.+128    	; 0xe82 <HID_Device_ProcessControlRequest+0x226>
     e02:	80 91 19 01 	lds	r24, 0x0119
			{
				Endpoint_ClearSETUP();
				while (!(Endpoint_IsINReady()));
     e06:	81 32       	cpi	r24, 0x21	; 33
				Endpoint_Write_8(HIDInterfaceInfo->State.UsingReportProtocol);
     e08:	09 f0       	breq	.+2      	; 0xe0c <HID_Device_ProcessControlRequest+0x1b0>
     e0a:	43 c0       	rjmp	.+134    	; 0xe92 <HID_Device_ProcessControlRequest+0x236>
     e0c:	80 91 e8 00 	lds	r24, 0x00E8
				Endpoint_ClearStatusStage();
			}

			break;
		case HID_REQ_SetProtocol:
			if (USB_ControlRequest.bmRequestType == (REQDIR_HOSTTODEVICE | REQTYPE_CLASS | REQREC_INTERFACE))
     e10:	87 7f       	andi	r24, 0xF7	; 247
     e12:	80 93 e8 00 	sts	0x00E8, r24
     e16:	39 dc       	rcall	.-1934   	; 0x68a <Endpoint_ClearStatusStage>
			 *  \note This is not applicable for non CONTROL type endpoints.
			 */
			static inline void Endpoint_ClearSETUP(void) ATTR_ALWAYS_INLINE;
			static inline void Endpoint_ClearSETUP(void)
			{
				UEINTX &= ~(1 << RXSTPI);
     e18:	90 91 1b 01 	lds	r25, 0x011B
     e1c:	81 e0       	ldi	r24, 0x01	; 1
     e1e:	91 11       	cpse	r25, r1
     e20:	01 c0       	rjmp	.+2      	; 0xe24 <HID_Device_ProcessControlRequest+0x1c8>
			{
				Endpoint_ClearSETUP();
				Endpoint_ClearStatusStage();
     e22:	80 e0       	ldi	r24, 0x00	; 0
     e24:	f7 01       	movw	r30, r14

				HIDInterfaceInfo->State.UsingReportProtocol = ((USB_ControlRequest.wValue & 0xFF) != 0x00);
     e26:	81 87       	std	Z+9, r24	; 0x09
     e28:	34 c0       	rjmp	.+104    	; 0xe92 <HID_Device_ProcessControlRequest+0x236>
     e2a:	80 91 19 01 	lds	r24, 0x0119
     e2e:	81 32       	cpi	r24, 0x21	; 33
     e30:	81 f5       	brne	.+96     	; 0xe92 <HID_Device_ProcessControlRequest+0x236>
     e32:	80 91 e8 00 	lds	r24, 0x00E8
     e36:	87 7f       	andi	r24, 0xF7	; 247
			}

			break;
		case HID_REQ_SetIdle:
			if (USB_ControlRequest.bmRequestType == (REQDIR_HOSTTODEVICE | REQTYPE_CLASS | REQREC_INTERFACE))
     e38:	80 93 e8 00 	sts	0x00E8, r24
     e3c:	26 dc       	rcall	.-1972   	; 0x68a <Endpoint_ClearStatusStage>
     e3e:	80 91 1b 01 	lds	r24, 0x011B
     e42:	90 91 1c 01 	lds	r25, 0x011C
     e46:	88 27       	eor	r24, r24
     e48:	36 e0       	ldi	r19, 0x06	; 6
			{
				Endpoint_ClearSETUP();
				Endpoint_ClearStatusStage();
     e4a:	96 95       	lsr	r25
     e4c:	87 95       	ror	r24

				HIDInterfaceInfo->State.IdleCount = ((USB_ControlRequest.wValue & 0xFF00) >> 6);
     e4e:	3a 95       	dec	r19
     e50:	e1 f7       	brne	.-8      	; 0xe4a <HID_Device_ProcessControlRequest+0x1ee>
     e52:	f7 01       	movw	r30, r14
     e54:	95 87       	std	Z+13, r25	; 0x0d
     e56:	84 87       	std	Z+12, r24	; 0x0c
     e58:	1c c0       	rjmp	.+56     	; 0xe92 <HID_Device_ProcessControlRequest+0x236>
     e5a:	80 91 19 01 	lds	r24, 0x0119
     e5e:	81 3a       	cpi	r24, 0xA1	; 161
     e60:	c1 f4       	brne	.+48     	; 0xe92 <HID_Device_ProcessControlRequest+0x236>
     e62:	80 91 e8 00 	lds	r24, 0x00E8
     e66:	87 7f       	andi	r24, 0xF7	; 247
     e68:	80 93 e8 00 	sts	0x00E8, r24
			}

			break;
		case HID_REQ_GetIdle:
			if (USB_ControlRequest.bmRequestType == (REQDIR_DEVICETOHOST | REQTYPE_CLASS | REQREC_INTERFACE))
     e6c:	80 91 e8 00 	lds	r24, 0x00E8
     e70:	80 ff       	sbrs	r24, 0
     e72:	fc cf       	rjmp	.-8      	; 0xe6c <HID_Device_ProcessControlRequest+0x210>
     e74:	f7 01       	movw	r30, r14
     e76:	84 85       	ldd	r24, Z+12	; 0x0c
     e78:	95 85       	ldd	r25, Z+13	; 0x0d
     e7a:	96 95       	lsr	r25
			 *  \return Boolean \c true if the current endpoint is ready for an IN packet, \c false otherwise.
			 */
			static inline bool Endpoint_IsINReady(void) ATTR_WARN_UNUSED_RESULT ATTR_ALWAYS_INLINE;
			static inline bool Endpoint_IsINReady(void)
			{
				return ((UEINTX & (1 << TXINI)) ? true : false);
     e7c:	87 95       	ror	r24
     e7e:	96 95       	lsr	r25
			{
				Endpoint_ClearSETUP();
				while (!(Endpoint_IsINReady()));
     e80:	87 95       	ror	r24
     e82:	80 93 f1 00 	sts	0x00F1, r24
				Endpoint_Write_8(HIDInterfaceInfo->State.IdleCount >> 2);
     e86:	80 91 e8 00 	lds	r24, 0x00E8
     e8a:	8e 77       	andi	r24, 0x7E	; 126
     e8c:	80 93 e8 00 	sts	0x00E8, r24
     e90:	fc db       	rcall	.-2056   	; 0x68a <Endpoint_ClearStatusStage>
			 *  \param[in] Data  Data to write into the the currently selected endpoint's FIFO buffer.
			 */
			static inline void Endpoint_Write_8(const uint8_t Data) ATTR_ALWAYS_INLINE;
			static inline void Endpoint_Write_8(const uint8_t Data)
			{
				UEDATX = Data;
     e92:	0f b6       	in	r0, 0x3f	; 63
     e94:	f8 94       	cli
			 */
			static inline void Endpoint_ClearIN(void) ATTR_ALWAYS_INLINE;
			static inline void Endpoint_ClearIN(void)
			{
				#if !defined(CONTROL_ONLY_DEVICE)
					UEINTX &= ~((1 << TXINI) | (1 << FIFOCON));
     e96:	be be       	out	0x3e, r11	; 62
     e98:	0f be       	out	0x3f, r0	; 63
     e9a:	ad be       	out	0x3d, r10	; 61
     e9c:	0f 90       	pop	r0
     e9e:	0f 90       	pop	r0
				Endpoint_ClearIN();
				Endpoint_ClearStatusStage();
     ea0:	0f 90       	pop	r0
     ea2:	df 91       	pop	r29
			}

			break;
	}
}
     ea4:	cf 91       	pop	r28
     ea6:	1f 91       	pop	r17
     ea8:	0f 91       	pop	r16
     eaa:	ff 90       	pop	r15
     eac:	ef 90       	pop	r14
     eae:	df 90       	pop	r13
     eb0:	cf 90       	pop	r12
     eb2:	bf 90       	pop	r11
     eb4:	af 90       	pop	r10
     eb6:	9f 90       	pop	r9
     eb8:	8f 90       	pop	r8
     eba:	7f 90       	pop	r7
     ebc:	6f 90       	pop	r6
     ebe:	08 95       	ret

00000ec0 <HID_Device_ConfigureEndpoints>:
     ec0:	fc 01       	movw	r30, r24
     ec2:	39 96       	adiw	r30, 0x09	; 9
     ec4:	27 e0       	ldi	r18, 0x07	; 7
     ec6:	df 01       	movw	r26, r30
     ec8:	1d 92       	st	X+, r1
     eca:	2a 95       	dec	r18
     ecc:	e9 f7       	brne	.-6      	; 0xec8 <HID_Device_ConfigureEndpoints+0x8>
     ece:	21 e0       	ldi	r18, 0x01	; 1
     ed0:	fc 01       	movw	r30, r24

bool HID_Device_ConfigureEndpoints(USB_ClassInfo_HID_Device_t* const HIDInterfaceInfo)
{
	memset(&HIDInterfaceInfo->State, 0x00, sizeof(HIDInterfaceInfo->State));
	HIDInterfaceInfo->State.UsingReportProtocol = true;
     ed2:	21 87       	std	Z+9, r18	; 0x09
	HIDInterfaceInfo->State.IdleCount           = 500;
     ed4:	24 ef       	ldi	r18, 0xF4	; 244
     ed6:	31 e0       	ldi	r19, 0x01	; 1
     ed8:	35 87       	std	Z+13, r19	; 0x0d
     eda:	24 87       	std	Z+12, r18	; 0x0c

	HIDInterfaceInfo->Config.ReportINEndpoint.Type = EP_TYPE_INTERRUPT;
     edc:	23 e0       	ldi	r18, 0x03	; 3
     ede:	24 83       	std	Z+4, r18	; 0x04

	if (!(Endpoint_ConfigureEndpointTable(&HIDInterfaceInfo->Config.ReportINEndpoint, 1)))
     ee0:	61 e0       	ldi	r22, 0x01	; 1
     ee2:	01 96       	adiw	r24, 0x01	; 1
     ee4:	95 cb       	rjmp	.-2262   	; 0x610 <Endpoint_ConfigureEndpointTable>

00000ee6 <HID_Device_USBTask>:
     ee6:	5f 92       	push	r5

	return true;
}

void HID_Device_USBTask(USB_ClassInfo_HID_Device_t* const HIDInterfaceInfo)
{
     ee8:	6f 92       	push	r6
     eea:	7f 92       	push	r7
     eec:	8f 92       	push	r8
     eee:	9f 92       	push	r9
     ef0:	af 92       	push	r10
     ef2:	bf 92       	push	r11
     ef4:	cf 92       	push	r12
     ef6:	df 92       	push	r13
     ef8:	ef 92       	push	r14
     efa:	ff 92       	push	r15
     efc:	0f 93       	push	r16
     efe:	1f 93       	push	r17
     f00:	cf 93       	push	r28
     f02:	df 93       	push	r29
     f04:	00 d0       	rcall	.+0      	; 0xf06 <HID_Device_USBTask+0x20>
     f06:	1f 92       	push	r1
     f08:	cd b7       	in	r28, 0x3d	; 61
     f0a:	de b7       	in	r29, 0x3e	; 62
     f0c:	7c 01       	movw	r14, r24
			Endpoint_ClearIN();
		}

		HIDInterfaceInfo->State.PrevFrameNum = USB_Device_GetFrameNumber();
	}
}
     f0e:	ad b6       	in	r10, 0x3d	; 61
     f10:	be b6       	in	r11, 0x3e	; 62
	return true;
}

void HID_Device_USBTask(USB_ClassInfo_HID_Device_t* const HIDInterfaceInfo)
{
	if (USB_DeviceState != DEVICE_STATE_Configured)
     f12:	80 91 18 01 	lds	r24, 0x0118
     f16:	84 30       	cpi	r24, 0x04	; 4
     f18:	09 f0       	breq	.+2      	; 0xf1c <HID_Device_USBTask+0x36>
     f1a:	8a c0       	rjmp	.+276    	; 0x1030 <HID_Device_USBTask+0x14a>
			 *  \return Current USB frame number from the USB controller.
			 */
			static inline uint16_t USB_Device_GetFrameNumber(void) ATTR_ALWAYS_INLINE ATTR_WARN_UNUSED_RESULT;
			static inline uint16_t USB_Device_GetFrameNumber(void)
			{
				return UDFNUM;
     f1c:	80 91 e4 00 	lds	r24, 0x00E4
     f20:	90 91 e5 00 	lds	r25, 0x00E5
	  return;

	if (HIDInterfaceInfo->State.PrevFrameNum == USB_Device_GetFrameNumber())
     f24:	f7 01       	movw	r30, r14
     f26:	22 85       	ldd	r18, Z+10	; 0x0a
     f28:	33 85       	ldd	r19, Z+11	; 0x0b
     f2a:	28 17       	cp	r18, r24
     f2c:	39 07       	cpc	r19, r25
     f2e:	09 f4       	brne	.+2      	; 0xf32 <HID_Device_USBTask+0x4c>
     f30:	7f c0       	rjmp	.+254    	; 0x1030 <HID_Device_USBTask+0x14a>
			 */
			static inline void Endpoint_SelectEndpoint(const uint8_t Address) ATTR_ALWAYS_INLINE;
			static inline void Endpoint_SelectEndpoint(const uint8_t Address)
			{
				#if !defined(CONTROL_ONLY_DEVICE)
					UENUM = (Address & ENDPOINT_EPNUM_MASK);
     f32:	81 81       	ldd	r24, Z+1	; 0x01
     f34:	8f 70       	andi	r24, 0x0F	; 15
     f36:	80 93 e9 00 	sts	0x00E9, r24
			 *          on its direction.
			 */
			static inline bool Endpoint_IsReadWriteAllowed(void) ATTR_WARN_UNUSED_RESULT ATTR_ALWAYS_INLINE;
			static inline bool Endpoint_IsReadWriteAllowed(void)
			{
				return ((UEINTX & (1 << RWAL)) ? true : false);
     f3a:	80 91 e8 00 	lds	r24, 0x00E8
		#endif
	}

	Endpoint_SelectEndpoint(HIDInterfaceInfo->Config.ReportINEndpoint.Address);

	if (Endpoint_IsReadWriteAllowed())
     f3e:	85 ff       	sbrs	r24, 5
     f40:	77 c0       	rjmp	.+238    	; 0x1030 <HID_Device_USBTask+0x14a>
     f42:	8d b6       	in	r8, 0x3d	; 61
     f44:	9e b6       	in	r9, 0x3e	; 62
	{
		uint8_t  ReportINData[HIDInterfaceInfo->Config.PrevReportINBufferSize];
     f46:	40 85       	ldd	r20, Z+8	; 0x08
     f48:	50 e0       	ldi	r21, 0x00	; 0
     f4a:	8d b7       	in	r24, 0x3d	; 61
     f4c:	9e b7       	in	r25, 0x3e	; 62
     f4e:	84 1b       	sub	r24, r20
     f50:	95 0b       	sbc	r25, r21
     f52:	0f b6       	in	r0, 0x3f	; 63
     f54:	f8 94       	cli
     f56:	9e bf       	out	0x3e, r25	; 62
     f58:	0f be       	out	0x3f, r0	; 63
     f5a:	8d bf       	out	0x3d, r24	; 61
     f5c:	ed b7       	in	r30, 0x3d	; 61
     f5e:	fe b7       	in	r31, 0x3e	; 62
     f60:	31 96       	adiw	r30, 0x01	; 1
     f62:	6f 01       	movw	r12, r30
		uint8_t  ReportID     = 0;
     f64:	1b 82       	std	Y+3, r1	; 0x03
		uint16_t ReportINSize = 0;
     f66:	1a 82       	std	Y+2, r1	; 0x02
     f68:	19 82       	std	Y+1, r1	; 0x01

		memset(ReportINData, 0, sizeof(ReportINData));
     f6a:	60 e0       	ldi	r22, 0x00	; 0
     f6c:	70 e0       	ldi	r23, 0x00	; 0
     f6e:	cf 01       	movw	r24, r30
     f70:	8d d0       	rcall	.+282    	; 0x108c <memset>
     f72:	8e 01       	movw	r16, r28

		bool ForceSend         = CALLBACK_HID_Device_CreateHIDReport(HIDInterfaceInfo, &ReportID, HID_REPORT_ITEM_In,
     f74:	0f 5f       	subi	r16, 0xFF	; 255
     f76:	1f 4f       	sbci	r17, 0xFF	; 255
     f78:	96 01       	movw	r18, r12
     f7a:	40 e0       	ldi	r20, 0x00	; 0
     f7c:	be 01       	movw	r22, r28
     f7e:	6d 5f       	subi	r22, 0xFD	; 253
     f80:	7f 4f       	sbci	r23, 0xFF	; 255
     f82:	c7 01       	movw	r24, r14
     f84:	59 d9       	rcall	.-3406   	; 0x238 <CALLBACK_HID_Device_CreateHIDReport>
     f86:	68 2e       	mov	r6, r24
     f88:	f7 01       	movw	r30, r14
     f8a:	84 85       	ldd	r24, Z+12	; 0x0c
		                                                             ReportINData, &ReportINSize);
		bool StatesChanged     = false;
		bool IdlePeriodElapsed = (HIDInterfaceInfo->State.IdleCount && !(HIDInterfaceInfo->State.IdleMSRemaining));
     f8c:	95 85       	ldd	r25, Z+13	; 0x0d
     f8e:	89 2b       	or	r24, r25
     f90:	41 f0       	breq	.+16     	; 0xfa2 <HID_Device_USBTask+0xbc>
     f92:	21 e0       	ldi	r18, 0x01	; 1
     f94:	86 85       	ldd	r24, Z+14	; 0x0e
     f96:	97 85       	ldd	r25, Z+15	; 0x0f
     f98:	89 2b       	or	r24, r25
     f9a:	09 f0       	breq	.+2      	; 0xf9e <HID_Device_USBTask+0xb8>
     f9c:	20 e0       	ldi	r18, 0x00	; 0
     f9e:	72 2e       	mov	r7, r18
     fa0:	01 c0       	rjmp	.+2      	; 0xfa4 <HID_Device_USBTask+0xbe>
     fa2:	71 2c       	mov	r7, r1
     fa4:	f7 01       	movw	r30, r14
     fa6:	06 81       	ldd	r16, Z+6	; 0x06

		if (HIDInterfaceInfo->Config.PrevReportINBuffer != NULL)
     fa8:	17 81       	ldd	r17, Z+7	; 0x07
     faa:	01 15       	cp	r16, r1
     fac:	11 05       	cpc	r17, r1
     fae:	89 f0       	breq	.+34     	; 0xfd2 <HID_Device_USBTask+0xec>
     fb0:	49 81       	ldd	r20, Y+1	; 0x01
     fb2:	5a 81       	ldd	r21, Y+2	; 0x02
		{
			StatesChanged = (memcmp(ReportINData, HIDInterfaceInfo->Config.PrevReportINBuffer, ReportINSize) != 0);
     fb4:	b8 01       	movw	r22, r16
     fb6:	c6 01       	movw	r24, r12
     fb8:	53 d0       	rcall	.+166    	; 0x1060 <memcmp>
     fba:	55 24       	eor	r5, r5
     fbc:	53 94       	inc	r5
     fbe:	89 2b       	or	r24, r25
     fc0:	09 f4       	brne	.+2      	; 0xfc4 <HID_Device_USBTask+0xde>
     fc2:	51 2c       	mov	r5, r1
     fc4:	f7 01       	movw	r30, r14
     fc6:	40 85       	ldd	r20, Z+8	; 0x08
     fc8:	50 e0       	ldi	r21, 0x00	; 0
			memcpy(HIDInterfaceInfo->Config.PrevReportINBuffer, ReportINData, HIDInterfaceInfo->Config.PrevReportINBufferSize);
     fca:	b6 01       	movw	r22, r12
     fcc:	c8 01       	movw	r24, r16
     fce:	55 d0       	rcall	.+170    	; 0x107a <memcpy>
     fd0:	01 c0       	rjmp	.+2      	; 0xfd4 <HID_Device_USBTask+0xee>
     fd2:	51 2c       	mov	r5, r1
     fd4:	29 81       	ldd	r18, Y+1	; 0x01
     fd6:	3a 81       	ldd	r19, Y+2	; 0x02
     fd8:	23 2b       	or	r18, r19

		memset(ReportINData, 0, sizeof(ReportINData));

		bool ForceSend         = CALLBACK_HID_Device_CreateHIDReport(HIDInterfaceInfo, &ReportID, HID_REPORT_ITEM_In,
		                                                             ReportINData, &ReportINSize);
		bool StatesChanged     = false;
     fda:	f1 f0       	breq	.+60     	; 0x1018 <HID_Device_USBTask+0x132>
		{
			StatesChanged = (memcmp(ReportINData, HIDInterfaceInfo->Config.PrevReportINBuffer, ReportINSize) != 0);
			memcpy(HIDInterfaceInfo->Config.PrevReportINBuffer, ReportINData, HIDInterfaceInfo->Config.PrevReportINBufferSize);
		}

		if (ReportINSize && (ForceSend || StatesChanged || IdlePeriodElapsed))
     fdc:	61 10       	cpse	r6, r1
     fde:	04 c0       	rjmp	.+8      	; 0xfe8 <HID_Device_USBTask+0x102>
     fe0:	51 10       	cpse	r5, r1
     fe2:	02 c0       	rjmp	.+4      	; 0xfe8 <HID_Device_USBTask+0x102>
     fe4:	70 fe       	sbrs	r7, 0
     fe6:	18 c0       	rjmp	.+48     	; 0x1018 <HID_Device_USBTask+0x132>
     fe8:	f7 01       	movw	r30, r14
     fea:	84 85       	ldd	r24, Z+12	; 0x0c
     fec:	95 85       	ldd	r25, Z+13	; 0x0d
     fee:	97 87       	std	Z+15, r25	; 0x0f
		{
			HIDInterfaceInfo->State.IdleMSRemaining = HIDInterfaceInfo->State.IdleCount;
     ff0:	86 87       	std	Z+14, r24	; 0x0e
     ff2:	81 81       	ldd	r24, Z+1	; 0x01
     ff4:	8f 70       	andi	r24, 0x0F	; 15
     ff6:	80 93 e9 00 	sts	0x00E9, r24
			 */
			static inline void Endpoint_SelectEndpoint(const uint8_t Address) ATTR_ALWAYS_INLINE;
			static inline void Endpoint_SelectEndpoint(const uint8_t Address)
			{
				#if !defined(CONTROL_ONLY_DEVICE)
					UENUM = (Address & ENDPOINT_EPNUM_MASK);
     ffa:	8b 81       	ldd	r24, Y+3	; 0x03
     ffc:	81 11       	cpse	r24, r1
     ffe:	80 93 f1 00 	sts	0x00F1, r24

			Endpoint_SelectEndpoint(HIDInterfaceInfo->Config.ReportINEndpoint.Address);

			if (ReportID)
    1002:	69 81       	ldd	r22, Y+1	; 0x01
    1004:	7a 81       	ldd	r23, Y+2	; 0x02
			 *  \param[in] Data  Data to write into the the currently selected endpoint's FIFO buffer.
			 */
			static inline void Endpoint_Write_8(const uint8_t Data) ATTR_ALWAYS_INLINE;
			static inline void Endpoint_Write_8(const uint8_t Data)
			{
				UEDATX = Data;
    1006:	40 e0       	ldi	r20, 0x00	; 0
    1008:	50 e0       	ldi	r21, 0x00	; 0
			  Endpoint_Write_8(ReportID);

			Endpoint_Write_Stream_LE(ReportINData, ReportINSize, NULL);
    100a:	c6 01       	movw	r24, r12
    100c:	89 d9       	rcall	.-3310   	; 0x320 <Endpoint_Write_Stream_LE>
    100e:	80 91 e8 00 	lds	r24, 0x00E8
    1012:	8e 77       	andi	r24, 0x7E	; 126
    1014:	80 93 e8 00 	sts	0x00E8, r24
			 */
			static inline void Endpoint_ClearIN(void) ATTR_ALWAYS_INLINE;
			static inline void Endpoint_ClearIN(void)
			{
				#if !defined(CONTROL_ONLY_DEVICE)
					UEINTX &= ~((1 << TXINI) | (1 << FIFOCON));
    1018:	80 91 e4 00 	lds	r24, 0x00E4
    101c:	90 91 e5 00 	lds	r25, 0x00E5
    1020:	f7 01       	movw	r30, r14
    1022:	93 87       	std	Z+11, r25	; 0x0b
    1024:	82 87       	std	Z+10, r24	; 0x0a
    1026:	0f b6       	in	r0, 0x3f	; 63
    1028:	f8 94       	cli

			Endpoint_ClearIN();
		}

		HIDInterfaceInfo->State.PrevFrameNum = USB_Device_GetFrameNumber();
    102a:	9e be       	out	0x3e, r9	; 62
    102c:	0f be       	out	0x3f, r0	; 63
    102e:	8d be       	out	0x3d, r8	; 61
    1030:	0f b6       	in	r0, 0x3f	; 63
    1032:	f8 94       	cli
    1034:	be be       	out	0x3e, r11	; 62
    1036:	0f be       	out	0x3f, r0	; 63
    1038:	ad be       	out	0x3d, r10	; 61
	}
}
    103a:	0f 90       	pop	r0
    103c:	0f 90       	pop	r0
    103e:	0f 90       	pop	r0
    1040:	df 91       	pop	r29
    1042:	cf 91       	pop	r28
    1044:	1f 91       	pop	r17
    1046:	0f 91       	pop	r16
    1048:	ff 90       	pop	r15
    104a:	ef 90       	pop	r14
    104c:	df 90       	pop	r13
    104e:	cf 90       	pop	r12
    1050:	bf 90       	pop	r11
    1052:	af 90       	pop	r10
    1054:	9f 90       	pop	r9
    1056:	8f 90       	pop	r8
    1058:	7f 90       	pop	r7
    105a:	6f 90       	pop	r6
    105c:	5f 90       	pop	r5
    105e:	08 95       	ret

00001060 <memcmp>:
    1060:	fb 01       	movw	r30, r22
    1062:	dc 01       	movw	r26, r24
    1064:	04 c0       	rjmp	.+8      	; 0x106e <memcmp+0xe>
    1066:	8d 91       	ld	r24, X+
    1068:	01 90       	ld	r0, Z+
    106a:	80 19       	sub	r24, r0
    106c:	21 f4       	brne	.+8      	; 0x1076 <memcmp+0x16>
    106e:	41 50       	subi	r20, 0x01	; 1
    1070:	50 40       	sbci	r21, 0x00	; 0
    1072:	c8 f7       	brcc	.-14     	; 0x1066 <memcmp+0x6>
    1074:	88 1b       	sub	r24, r24
    1076:	99 0b       	sbc	r25, r25
    1078:	08 95       	ret

0000107a <memcpy>:
    107a:	fb 01       	movw	r30, r22
    107c:	dc 01       	movw	r26, r24
    107e:	02 c0       	rjmp	.+4      	; 0x1084 <memcpy+0xa>
    1080:	01 90       	ld	r0, Z+
    1082:	0d 92       	st	X+, r0
    1084:	41 50       	subi	r20, 0x01	; 1
    1086:	50 40       	sbci	r21, 0x00	; 0
    1088:	d8 f7       	brcc	.-10     	; 0x1080 <memcpy+0x6>
    108a:	08 95       	ret

0000108c <memset>:
    108c:	dc 01       	movw	r26, r24
    108e:	01 c0       	rjmp	.+2      	; 0x1092 <memset+0x6>
    1090:	6d 93       	st	X+, r22
    1092:	41 50       	subi	r20, 0x01	; 1
    1094:	50 40       	sbci	r21, 0x00	; 0
    1096:	e0 f7       	brcc	.-8      	; 0x1090 <memset+0x4>
    1098:	08 95       	ret

0000109a <_exit>:
    109a:	f8 94       	cli

0000109c <__stop_program>:
    109c:	ff cf       	rjmp	.-2      	; 0x109c <__stop_program>
