
MouseHost.elf:     file format elf32-avr

Sections:
Idx Name          Size      VMA       LMA       File off  Algn
  0 .data         00000028  00800100  00001a86  00001b1a  2**0
                  CONTENTS, ALLOC, LOAD, DATA
  1 .text         00001a86  00000000  00000000  00000094  2**1
                  CONTENTS, ALLOC, LOAD, READONLY, CODE
  2 .bss          00000022  00800128  00800128  00001b42  2**0
                  ALLOC
  3 .stab         00002988  00000000  00000000  00001b44  2**2
                  CONTENTS, READONLY, DEBUGGING
  4 .stabstr      0000110f  00000000  00000000  000044cc  2**0
                  CONTENTS, READONLY, DEBUGGING
  5 .comment      00000011  00000000  00000000  000055db  2**0
                  CONTENTS, READONLY
  6 .debug_aranges 00000898  00000000  00000000  000055ec  2**0
                  CONTENTS, READONLY, DEBUGGING
  7 .debug_info   0000f51a  00000000  00000000  00005e84  2**0
                  CONTENTS, READONLY, DEBUGGING
  8 .debug_abbrev 0000373b  00000000  00000000  0001539e  2**0
                  CONTENTS, READONLY, DEBUGGING
  9 .debug_line   000055b9  00000000  00000000  00018ad9  2**0
                  CONTENTS, READONLY, DEBUGGING
 10 .debug_frame  00001818  00000000  00000000  0001e094  2**2
                  CONTENTS, READONLY, DEBUGGING
 11 .debug_str    00004f63  00000000  00000000  0001f8ac  2**0
                  CONTENTS, READONLY, DEBUGGING
 12 .debug_loc    0000ac8b  00000000  00000000  0002480f  2**0
                  CONTENTS, READONLY, DEBUGGING
 13 .debug_ranges 000008f8  00000000  00000000  0002f49a  2**0
                  CONTENTS, READONLY, DEBUGGING

Disassembly of section .text:

00000000 <__vectors>:
}

uint8_t AOA_Host_ConfigurePipes(USB_ClassInfo_AOA_Host_t* const AOAInterfaceInfo,
                                uint16_t ConfigDescriptorSize,
                                void* ConfigDescriptorData)
{
       0:	1a c1       	rjmp	.+564    	; 0x236 <__ctors_end>
       2:	00 00       	nop
       4:	36 c1       	rjmp	.+620    	; 0x272 <__bad_interrupt>
       6:	00 00       	nop
       8:	34 c1       	rjmp	.+616    	; 0x272 <__bad_interrupt>
       a:	00 00       	nop
       c:	32 c1       	rjmp	.+612    	; 0x272 <__bad_interrupt>
       e:	00 00       	nop
      10:	30 c1       	rjmp	.+608    	; 0x272 <__bad_interrupt>
      12:	00 00       	nop
      14:	2e c1       	rjmp	.+604    	; 0x272 <__bad_interrupt>
      16:	00 00       	nop
      18:	2c c1       	rjmp	.+600    	; 0x272 <__bad_interrupt>
      1a:	00 00       	nop
      1c:	2a c1       	rjmp	.+596    	; 0x272 <__bad_interrupt>
      1e:	00 00       	nop
      20:	28 c1       	rjmp	.+592    	; 0x272 <__bad_interrupt>
      22:	00 00       	nop
      24:	26 c1       	rjmp	.+588    	; 0x272 <__bad_interrupt>
      26:	00 00       	nop
	USB_Descriptor_Endpoint_t*  DataINEndpoint  = NULL;
	USB_Descriptor_Endpoint_t*  DataOUTEndpoint = NULL;
	USB_Descriptor_Interface_t* AOAInterface    = NULL;

	memset(&AOAInterfaceInfo->State, 0x00, sizeof(AOAInterfaceInfo->State));
      28:	f4 c5       	rjmp	.+3048   	; 0xc12 <__vector_10>
      2a:	00 00       	nop
      2c:	22 c1       	rjmp	.+580    	; 0x272 <__bad_interrupt>
      2e:	00 00       	nop
      30:	20 c1       	rjmp	.+576    	; 0x272 <__bad_interrupt>

	if (DESCRIPTOR_TYPE(ConfigDescriptorData) != DTYPE_Configuration)
      32:	00 00       	nop
      34:	1e c1       	rjmp	.+572    	; 0x272 <__bad_interrupt>
      36:	00 00       	nop
      38:	1c c1       	rjmp	.+568    	; 0x272 <__bad_interrupt>
	  return AOA_ENUMERROR_InvalidConfigDescriptor;

	if (USB_GetNextDescriptorComp(&ConfigDescriptorSize, &ConfigDescriptorData,
      3a:	00 00       	nop
      3c:	1a c1       	rjmp	.+564    	; 0x272 <__bad_interrupt>
      3e:	00 00       	nop
      40:	18 c1       	rjmp	.+560    	; 0x272 <__bad_interrupt>
      42:	00 00       	nop
      44:	16 c1       	rjmp	.+556    	; 0x272 <__bad_interrupt>
      46:	00 00       	nop
      48:	14 c1       	rjmp	.+552    	; 0x272 <__bad_interrupt>
      4a:	00 00       	nop
      4c:	12 c1       	rjmp	.+548    	; 0x272 <__bad_interrupt>
      4e:	00 00       	nop
	                              DCOMP_AOA_Host_NextAndroidAccessoryInterface) != DESCRIPTOR_SEARCH_COMP_Found)
	{
		return AOA_ENUMERROR_NoCompatibleInterfaceFound;
      50:	10 c1       	rjmp	.+544    	; 0x272 <__bad_interrupt>
      52:	00 00       	nop
	}

	AOAInterface = DESCRIPTOR_PCAST(ConfigDescriptorData, USB_Descriptor_Interface_t);
      54:	0e c1       	rjmp	.+540    	; 0x272 <__bad_interrupt>
      56:	00 00       	nop
uint8_t AOA_Host_ConfigurePipes(USB_ClassInfo_AOA_Host_t* const AOAInterfaceInfo,
                                uint16_t ConfigDescriptorSize,
                                void* ConfigDescriptorData)
{
	USB_Descriptor_Endpoint_t*  DataINEndpoint  = NULL;
	USB_Descriptor_Endpoint_t*  DataOUTEndpoint = NULL;
      58:	0c c1       	rjmp	.+536    	; 0x272 <__bad_interrupt>
      5a:	00 00       	nop

uint8_t AOA_Host_ConfigurePipes(USB_ClassInfo_AOA_Host_t* const AOAInterfaceInfo,
                                uint16_t ConfigDescriptorSize,
                                void* ConfigDescriptorData)
{
	USB_Descriptor_Endpoint_t*  DataINEndpoint  = NULL;
      5c:	0a c1       	rjmp	.+532    	; 0x272 <__bad_interrupt>
      5e:	00 00       	nop

	AOAInterface = DESCRIPTOR_PCAST(ConfigDescriptorData, USB_Descriptor_Interface_t);

	while (!(DataINEndpoint) || !(DataOUTEndpoint))
	{
		if (USB_GetNextDescriptorComp(&ConfigDescriptorSize, &ConfigDescriptorData,
      60:	08 c1       	rjmp	.+528    	; 0x272 <__bad_interrupt>
      62:	00 00       	nop
      64:	06 c1       	rjmp	.+524    	; 0x272 <__bad_interrupt>
      66:	00 00       	nop
      68:	04 c1       	rjmp	.+520    	; 0x272 <__bad_interrupt>
      6a:	00 00       	nop
      6c:	02 c1       	rjmp	.+516    	; 0x272 <__bad_interrupt>
      6e:	00 00       	nop
      70:	00 c1       	rjmp	.+512    	; 0x272 <__bad_interrupt>
      72:	00 00       	nop
      74:	fe c0       	rjmp	.+508    	; 0x272 <__bad_interrupt>
		                              DCOMP_AOA_Host_NextInterfaceBulkEndpoint) != DESCRIPTOR_SEARCH_COMP_Found)
		{
			return AOA_ENUMERROR_NoCompatibleInterfaceFound;
		}

		USB_Descriptor_Endpoint_t* EndpointData = DESCRIPTOR_PCAST(ConfigDescriptorData, USB_Descriptor_Endpoint_t);
      76:	00 00       	nop
      78:	fc c0       	rjmp	.+504    	; 0x272 <__bad_interrupt>

		if ((EndpointData->EndpointAddress & ENDPOINT_DIR_MASK) == ENDPOINT_DIR_IN)
      7a:	00 00       	nop
      7c:	fa c0       	rjmp	.+500    	; 0x272 <__bad_interrupt>
      7e:	00 00       	nop
		  DataINEndpoint  = EndpointData;
      80:	f8 c0       	rjmp	.+496    	; 0x272 <__bad_interrupt>
			return AOA_ENUMERROR_NoCompatibleInterfaceFound;
		}

		USB_Descriptor_Endpoint_t* EndpointData = DESCRIPTOR_PCAST(ConfigDescriptorData, USB_Descriptor_Endpoint_t);

		if ((EndpointData->EndpointAddress & ENDPOINT_DIR_MASK) == ENDPOINT_DIR_IN)
      82:	00 00       	nop
		return AOA_ENUMERROR_NoCompatibleInterfaceFound;
	}

	AOAInterface = DESCRIPTOR_PCAST(ConfigDescriptorData, USB_Descriptor_Interface_t);

	while (!(DataINEndpoint) || !(DataOUTEndpoint))
      84:	f6 c0       	rjmp	.+492    	; 0x272 <__bad_interrupt>
      86:	00 00       	nop
      88:	f4 c0       	rjmp	.+488    	; 0x272 <__bad_interrupt>
}

uint8_t AOA_Host_ConfigurePipes(USB_ClassInfo_AOA_Host_t* const AOAInterfaceInfo,
                                uint16_t ConfigDescriptorSize,
                                void* ConfigDescriptorData)
{
      8a:	00 00       	nop
      8c:	f2 c0       	rjmp	.+484    	; 0x272 <__bad_interrupt>
		return AOA_ENUMERROR_NoCompatibleInterfaceFound;
	}

	AOAInterface = DESCRIPTOR_PCAST(ConfigDescriptorData, USB_Descriptor_Interface_t);

	while (!(DataINEndpoint) || !(DataOUTEndpoint))
      8e:	00 00       	nop
      90:	f0 c0       	rjmp	.+480    	; 0x272 <__bad_interrupt>
		  DataINEndpoint  = EndpointData;
		else
		  DataOUTEndpoint = EndpointData;
	}

	AOAInterfaceInfo->Config.DataINPipe.Size  = le16_to_cpu(DataINEndpoint->EndpointSize);
      92:	00 00       	nop
      94:	ee c0       	rjmp	.+476    	; 0x272 <__bad_interrupt>
      96:	00 00       	nop

00000098 <__c.4557>:
      98:	1b 5b 33 31 6d 44 65 76 20 45 6e 75 6d 20 45 72     .[31mDev Enum Er
	AOAInterfaceInfo->Config.DataINPipe.EndpointAddress = DataINEndpoint->EndpointAddress;
      a8:	72 6f 72 0d 0a 20 2d 2d 20 45 72 72 6f 72 20 43     ror.. -- Error C
	AOAInterfaceInfo->Config.DataINPipe.Type  = EP_TYPE_BULK;
      b8:	6f 64 65 20 25 64 0d 0a 20 2d 2d 20 53 75 62 20     ode %d.. -- Sub 

	AOAInterfaceInfo->Config.DataOUTPipe.Size = le16_to_cpu(DataOUTEndpoint->EndpointSize);
	AOAInterfaceInfo->Config.DataOUTPipe.EndpointAddress = DataOUTEndpoint->EndpointAddress;
      c8:	45 72 72 6f 72 20 43 6f 64 65 20 25 64 0d 0a 20     Error Code %d.. 
	AOAInterfaceInfo->Config.DataOUTPipe.Type = EP_TYPE_BULK;

	if (!(Pipe_ConfigurePipeTable(&AOAInterfaceInfo->Config.DataINPipe, 1)))
      d8:	2d 2d 20 49 6e 20 53 74 61 74 65 20 25 64 0d 0a     -- In State %d..
	  return AOA_ENUMERROR_PipeConfigurationFailed;

	if (!(Pipe_ConfigurePipeTable(&AOAInterfaceInfo->Config.DataOUTPipe, 1)))
      e8:	1b 5b 33 37 6d 00                                   .[37m.

000000ee <__c.4550>:
      ee:	1b 5b 33 31 6d 48 6f 73 74 20 4d 6f 64 65 20 45     .[31mHost Mode E
	  return AOA_ENUMERROR_PipeConfigurationFailed;

	AOAInterfaceInfo->State.IsActive        = true;
	AOAInterfaceInfo->State.InterfaceNumber = AOAInterface->InterfaceNumber;
      fe:	72 72 6f 72 0d 0a 20 2d 2d 20 45 72 72 6f 72 20     rror.. -- Error 

	return AOA_ENUMERROR_NoError;
}
     10e:	43 6f 64 65 20 25 64 0d 0a 1b 5b 33 37 6d 00        Code %d...[37m.

0000011d <__c.4545>:
     11d:	4d 6f 75 73 65 20 45 6e 75 6d 65 72 61 74 65 64     Mouse Enumerated
	AudioInterfaceInfo->Config.DataINPipe.EndpointAddress = DataINEndpoint->EndpointAddress;
	AudioInterfaceInfo->Config.DataINPipe.Type   = EP_TYPE_ISOCHRONOUS;
	AudioInterfaceInfo->Config.DataINPipe.Banks  = 2;

	AudioInterfaceInfo->Config.DataOUTPipe.Size  = le16_to_cpu(DataOUTEndpoint->EndpointSize);
	AudioInterfaceInfo->Config.DataOUTPipe.EndpointAddress = DataOUTEndpoint->EndpointAddress;
     12d:	2e 0d 0a 00                                         ....

00000131 <__c.4543>:
     131:	43 6f 75 6c 64 20 6e 6f 74 20 53 65 74 20 42 6f     Could not Set Bo
	AudioInterfaceInfo->Config.DataOUTPipe.Type  = EP_TYPE_ISOCHRONOUS;
	AudioInterfaceInfo->Config.DataOUTPipe.Banks = 2;

	if (!(Pipe_ConfigurePipeTable(&AudioInterfaceInfo->Config.DataINPipe, 1)))
     141:	6f 74 20 50 72 6f 74 6f 63 6f 6c 20 4d 6f 64 65     ot Protocol Mode

	if (DESCRIPTOR_TYPE(ConfigDescriptorData) != DTYPE_Configuration)
	  return AUDIO_ENUMERROR_InvalidConfigDescriptor;

	while ((AudioInterfaceInfo->Config.DataINPipe.Address  && !(DataINEndpoint)) ||
	       (AudioInterfaceInfo->Config.DataOUTPipe.Address && !(DataOUTEndpoint)))
     151:	2e 0d 0a 00                                         ....

00000155 <__c.4541>:
     155:	45 72 72 6f 72 20 53 65 74 74 69 6e 67 20 44 65     Error Setting De
	AudioInterfaceInfo->Config.DataOUTPipe.Banks = 2;

	if (!(Pipe_ConfigurePipeTable(&AudioInterfaceInfo->Config.DataINPipe, 1)))
	  return AUDIO_ENUMERROR_PipeConfigurationFailed;

	if (!(Pipe_ConfigurePipeTable(&AudioInterfaceInfo->Config.DataOUTPipe, 1)))
     165:	76 69 63 65 20 43 6f 6e 66 69 67 75 72 61 74 69     vice Configurati
	  return AUDIO_ENUMERROR_PipeConfigurationFailed;

	AudioInterfaceInfo->State.ControlInterfaceNumber    = AudioControlInterface->InterfaceNumber;
	AudioInterfaceInfo->State.StreamingInterfaceNumber  = AudioStreamingInterface->InterfaceNumber;
     175:	6f 6e 2e 0d 0a 00                                   on....

0000017b <__c.4539>:
     17b:	41 74 74 61 63 68 65 64 20 44 65 76 69 63 65 20     Attached Device 
	AudioInterfaceInfo->State.EnabledStreamingAltIndex  = AudioStreamingInterface->AlternateSetting;
	AudioInterfaceInfo->State.IsActive = true;

	return AUDIO_ENUMERROR_NoError;
}
     18b:	4e 6f 74 20 61 20 56 61 6c 69 64 20 4d 6f 75 73     Not a Valid Mous
     19b:	65 2e 0d 0a 00                                      e....

000001a0 <__c.4537>:
     1a0:	45 72 72 6f 72 20 52 65 74 72 69 65 76 69 6e 67     Error Retrieving
	  return ErrorCode;

	Pipe_SelectPipe(MSInterfaceInfo->Config.DataINPipe.Address);
	Pipe_Unfreeze();

	if ((ErrorCode = Pipe_Read_Stream_LE(SCSICommandStatus, sizeof(MS_CommandStatusWrapper_t),
     1b0:	20 43 6f 6e 66 69 67 75 72 61 74 69 6f 6e 20 44      Configuration D
			 *  \ingroup Group_PipePacketManagement_AVR8
			 */
			static inline void Pipe_ClearIN(void) ATTR_ALWAYS_INLINE;
			static inline void Pipe_ClearIN(void)
			{
				UPINTX &= ~((1 << RXINI) | (1 << FIFOCON));
     1c0:	65 73 63 72 69 70 74 6f 72 2e 0d 0a 00              escriptor....

000001cd <__c.4530>:
	}

	Pipe_ClearIN();
	Pipe_Freeze();

	if (SCSICommandStatus->Status != MS_SCSI_COMMAND_Pass)
     1cd:	0d 0a 44 65 76 69 63 65 20 55 6e 61 74 74 61 63     ..Device Unattac
		}
	}

	MS_CommandStatusWrapper_t SCSIStatusBlock;
	return MS_Host_GetReturnedStatus(MSInterfaceInfo, &SCSIStatusBlock);
}
     1dd:	68 65 64 2e 0d 0a 00                                hed....

000001e4 <__c.4525>:
     1e4:	44 65 76 69 63 65 20 41 74 74 61 63 68 65 64 2e     Device Attached.
     1f4:	0d 0a 00                                            ...

000001f7 <__c.4520>:
     1f7:	64 58 3a 25 32 64 20 64 59 3a 25 32 64 20 42 75     dX:%2d dY:%2d Bu
     207:	74 74 6f 6e 3a 25 64 0d 0a 00                       tton:%d...

00000211 <__c.4509>:
     211:	1b 5b 33 36 6d 4d 6f 75 73 65 20 48 6f 73 74 20     .[36mMouse Host 
     221:	44 65 6d 6f 20 72 75 6e 6e 69 6e 67 2e 0d 0a 1b     Demo running....
     231:	5b 33 37 6d 00                                      [37m.

00000236 <__ctors_end>:
     236:	11 24       	eor	r1, r1
     238:	1f be       	out	0x3f, r1	; 63
     23a:	cf ef       	ldi	r28, 0xFF	; 255
     23c:	d0 e2       	ldi	r29, 0x20	; 32
     23e:	de bf       	out	0x3e, r29	; 62
     240:	cd bf       	out	0x3d, r28	; 61

00000242 <__do_copy_data>:
     242:	11 e0       	ldi	r17, 0x01	; 1
     244:	a0 e0       	ldi	r26, 0x00	; 0
     246:	b1 e0       	ldi	r27, 0x01	; 1
     248:	e6 e8       	ldi	r30, 0x86	; 134
     24a:	fa e1       	ldi	r31, 0x1A	; 26
     24c:	00 e0       	ldi	r16, 0x00	; 0
     24e:	0b bf       	out	0x3b, r16	; 59
     250:	02 c0       	rjmp	.+4      	; 0x256 <__do_copy_data+0x14>
     252:	07 90       	elpm	r0, Z+
     254:	0d 92       	st	X+, r0
     256:	a8 32       	cpi	r26, 0x28	; 40
     258:	b1 07       	cpc	r27, r17
     25a:	d9 f7       	brne	.-10     	; 0x252 <__do_copy_data+0x10>

0000025c <__do_clear_bss>:
     25c:	11 e0       	ldi	r17, 0x01	; 1
     25e:	a8 e2       	ldi	r26, 0x28	; 40
     260:	b1 e0       	ldi	r27, 0x01	; 1
     262:	01 c0       	rjmp	.+2      	; 0x266 <.do_clear_bss_start>

00000264 <.do_clear_bss_loop>:
     264:	1d 92       	st	X+, r1

00000266 <.do_clear_bss_start>:
     266:	aa 34       	cpi	r26, 0x4A	; 74
     268:	b1 07       	cpc	r27, r17
     26a:	e1 f7       	brne	.-8      	; 0x264 <.do_clear_bss_loop>
     26c:	84 d0       	rcall	.+264    	; 0x376 <main>
     26e:	0c 94 41 0d 	jmp	0x1a82	; 0x1a82 <_exit>

00000272 <__bad_interrupt>:
     272:	c6 ce       	rjmp	.-628    	; 0x0 <__vectors>

00000274 <LEDs_SetAllLEDs>:
				PORTD &= ~LEDMask;
			}

			static inline void LEDs_SetAllLEDs(const uint8_t LEDMask)
			{
				PORTD = ((PORTD & ~LEDS_ALL_LEDS) | LEDMask);
     274:	9b b1       	in	r25, 0x0b	; 11
     276:	9f 70       	andi	r25, 0x0F	; 15
     278:	98 2b       	or	r25, r24
     27a:	9b b9       	out	0x0b, r25	; 11
     27c:	08 95       	ret

0000027e <SetupHardware>:
/** Configures the board hardware and chip peripherals for the demo's functionality. */
void SetupHardware(void)
{
#if (ARCH == ARCH_AVR8)
	/* Disable watchdog if enabled by bootloader/fuses */
	MCUSR &= ~(1 << WDRF);
     27e:	84 b7       	in	r24, 0x34	; 52
     280:	87 7f       	andi	r24, 0xF7	; 247
     282:	84 bf       	out	0x34, r24	; 52
	wdt_disable();
     284:	88 e1       	ldi	r24, 0x18	; 24
     286:	0f b6       	in	r0, 0x3f	; 63
     288:	f8 94       	cli
     28a:	80 93 60 00 	sts	0x0060, r24
     28e:	10 92 60 00 	sts	0x0060, r1
     292:	0f be       	out	0x3f, r0	; 63
The type of x is clock_div_t.
*/
void clock_prescale_set(clock_div_t __x)
{
    uint8_t __tmp = _BV(CLKPCE);
    __asm__ __volatile__ (
     294:	90 e0       	ldi	r25, 0x00	; 0
     296:	80 e8       	ldi	r24, 0x80	; 128
     298:	0f b6       	in	r0, 0x3f	; 63
     29a:	f8 94       	cli
     29c:	80 93 61 00 	sts	0x0061, r24
     2a0:	90 93 61 00 	sts	0x0061, r25
     2a4:	0f be       	out	0x3f, r0	; 63
			static inline void Serial_Init(const uint32_t BaudRate,
			                               const bool DoubleSpeed);
			static inline void Serial_Init(const uint32_t BaudRate,
			                               const bool DoubleSpeed)
			{
				UBRR1  = (DoubleSpeed ? SERIAL_2X_UBBRVAL(BaudRate) : SERIAL_UBBRVAL(BaudRate));
     2a6:	83 e3       	ldi	r24, 0x33	; 51
     2a8:	90 e0       	ldi	r25, 0x00	; 0
     2aa:	90 93 cd 00 	sts	0x00CD, r25
     2ae:	80 93 cc 00 	sts	0x00CC, r24

				UCSR1C = ((1 << UCSZ11) | (1 << UCSZ10));
     2b2:	86 e0       	ldi	r24, 0x06	; 6
     2b4:	80 93 ca 00 	sts	0x00CA, r24
				UCSR1A = (DoubleSpeed ? (1 << U2X1) : 0);
     2b8:	10 92 c8 00 	sts	0x00C8, r1
				UCSR1B = ((1 << TXEN1)  | (1 << RXEN1));
     2bc:	88 e1       	ldi	r24, 0x18	; 24
     2be:	80 93 c9 00 	sts	0x00C9, r24

				DDRD  |= (1 << 3);
     2c2:	53 9a       	sbi	0x0a, 3	; 10
				PORTD |= (1 << 2);
     2c4:	5a 9a       	sbi	0x0b, 2	; 11

		/* Inline Functions: */
		#if !defined(__DOXYGEN__)
			static inline void LEDs_Init(void)
			{
				DDRD  |=  LEDS_ALL_LEDS;
     2c6:	8a b1       	in	r24, 0x0a	; 10
     2c8:	80 6f       	ori	r24, 0xF0	; 240
     2ca:	8a b9       	out	0x0a, r24	; 10
				PORTD &= ~LEDS_ALL_LEDS;
     2cc:	8b b1       	in	r24, 0x0b	; 11
     2ce:	8f 70       	andi	r24, 0x0F	; 15
     2d0:	8b b9       	out	0x0b, r24	; 11
#endif

	/* Hardware Initialization */
	Serial_Init(9600, false);
	LEDs_Init();
	USB_Init();
     2d2:	84 d4       	rcall	.+2312   	; 0xbdc <USB_Init>
     2d4:	80 e0       	ldi	r24, 0x00	; 0

	/* Create a stdio stream for the serial port for stdin and stdout */
	Serial_CreateStream(NULL);
     2d6:	90 e0       	ldi	r25, 0x00	; 0
     2d8:	0c 94 3d 0a 	jmp	0x147a	; 0x147a <Serial_CreateStream>

000002dc <MouseHost_Task>:
     2dc:	cf 93       	push	r28

/** Task to manage an enumerated USB mouse once connected, to display movement
 *  data as it is received.
 */
void MouseHost_Task(void)
{
     2de:	df 93       	push	r29
     2e0:	00 d0       	rcall	.+0      	; 0x2e2 <MouseHost_Task+0x6>
     2e2:	1f 92       	push	r1
     2e4:	cd b7       	in	r28, 0x3d	; 61
     2e6:	de b7       	in	r29, 0x3e	; 62
	if (USB_HostState != HOST_STATE_Configured)
     2e8:	80 91 35 01 	lds	r24, 0x0135
     2ec:	8b 30       	cpi	r24, 0x0B	; 11
     2ee:	09 f0       	breq	.+2      	; 0x2f2 <MouseHost_Task+0x16>
     2f0:	3c c0       	rjmp	.+120    	; 0x36a <MouseHost_Task+0x8e>
	  return;

	if (HID_Host_IsReportReceived(&Mouse_HID_Interface))
     2f2:	80 e0       	ldi	r24, 0x00	; 0
     2f4:	91 e0       	ldi	r25, 0x01	; 1
     2f6:	0e 94 db 09 	call	0x13b6	; 0x13b6 <HID_Host_IsReportReceived>
     2fa:	88 23       	and	r24, r24
     2fc:	b1 f1       	breq	.+108    	; 0x36a <MouseHost_Task+0x8e>
	{
		uint8_t LEDMask = LEDS_NO_LEDS;

		USB_MouseReport_Data_t MouseReport;
		HID_Host_ReceiveReport(&Mouse_HID_Interface, &MouseReport);
     2fe:	be 01       	movw	r22, r28
     300:	6f 5f       	subi	r22, 0xFF	; 255
     302:	7f 4f       	sbci	r23, 0xFF	; 255
     304:	80 e0       	ldi	r24, 0x00	; 0
     306:	91 e0       	ldi	r25, 0x01	; 1
     308:	0e 94 97 09 	call	0x132e	; 0x132e <HID_Host_ReceiveReport>

		printf_P(PSTR("dX:%2d dY:%2d Button:%d\r\n"), MouseReport.X,
     30c:	89 81       	ldd	r24, Y+1	; 0x01
     30e:	1f 92       	push	r1
     310:	8f 93       	push	r24
     312:	2b 81       	ldd	r18, Y+3	; 0x03
     314:	82 2f       	mov	r24, r18
     316:	99 27       	eor	r25, r25
     318:	87 fd       	sbrc	r24, 7
     31a:	90 95       	com	r25
     31c:	9f 93       	push	r25
     31e:	2f 93       	push	r18
     320:	2a 81       	ldd	r18, Y+2	; 0x02
     322:	82 2f       	mov	r24, r18
     324:	99 27       	eor	r25, r25
     326:	87 fd       	sbrc	r24, 7
     328:	90 95       	com	r25
     32a:	9f 93       	push	r25
     32c:	2f 93       	push	r18
     32e:	87 ef       	ldi	r24, 0xF7	; 247
     330:	91 e0       	ldi	r25, 0x01	; 1
     332:	9f 93       	push	r25
     334:	8f 93       	push	r24
     336:	0e 94 5b 0a 	call	0x14b6	; 0x14b6 <printf_P>
		                                              MouseReport.Y,
		                                              MouseReport.Button);
		if (MouseReport.X > 0)
     33a:	8a 81       	ldd	r24, Y+2	; 0x02
     33c:	0f b6       	in	r0, 0x3f	; 63
     33e:	f8 94       	cli
     340:	de bf       	out	0x3e, r29	; 62
     342:	0f be       	out	0x3f, r0	; 63
     344:	cd bf       	out	0x3d, r28	; 61
     346:	18 16       	cp	r1, r24
     348:	24 f0       	brlt	.+8      	; 0x352 <MouseHost_Task+0x76>
		  LEDMask |= LEDS_LED1;
		else if (MouseReport.X < 0)
     34a:	88 23       	and	r24, r24
     34c:	19 f0       	breq	.+6      	; 0x354 <MouseHost_Task+0x78>
		  LEDMask |= LEDS_LED2;
     34e:	80 e2       	ldi	r24, 0x20	; 32
     350:	01 c0       	rjmp	.+2      	; 0x354 <MouseHost_Task+0x78>

		printf_P(PSTR("dX:%2d dY:%2d Button:%d\r\n"), MouseReport.X,
		                                              MouseReport.Y,
		                                              MouseReport.Button);
		if (MouseReport.X > 0)
		  LEDMask |= LEDS_LED1;
     352:	80 e1       	ldi	r24, 0x10	; 16
		else if (MouseReport.X < 0)
		  LEDMask |= LEDS_LED2;

		if (MouseReport.Y > 0)
     354:	9b 81       	ldd	r25, Y+3	; 0x03
     356:	19 16       	cp	r1, r25
     358:	14 f4       	brge	.+4      	; 0x35e <MouseHost_Task+0x82>
		  LEDMask |= LEDS_LED3;
     35a:	80 68       	ori	r24, 0x80	; 128
     35c:	02 c0       	rjmp	.+4      	; 0x362 <MouseHost_Task+0x86>
		else if (MouseReport.Y < 0)
     35e:	91 11       	cpse	r25, r1
		  LEDMask |= LEDS_LED4;
     360:	80 64       	ori	r24, 0x40	; 64

		if (MouseReport.Button)
     362:	99 81       	ldd	r25, Y+1	; 0x01
     364:	91 11       	cpse	r25, r1
		  LEDMask  = LEDS_ALL_LEDS;
     366:	80 ef       	ldi	r24, 0xF0	; 240

		LEDs_SetAllLEDs(LEDMask);
     368:	85 df       	rcall	.-246    	; 0x274 <LEDs_SetAllLEDs>
     36a:	0f 90       	pop	r0
	}
}
     36c:	0f 90       	pop	r0
     36e:	0f 90       	pop	r0
     370:	df 91       	pop	r29
     372:	cf 91       	pop	r28
     374:	08 95       	ret

00000376 <main>:
     376:	83 df       	rcall	.-250    	; 0x27e <SetupHardware>
/** Main program entry point. This routine configures the hardware required by the application, then
 *  enters a loop to run the application tasks in sequence.
 */
int main(void)
{
	SetupHardware();
     378:	81 e1       	ldi	r24, 0x11	; 17

	puts_P(PSTR(ESC_FG_CYAN "Mouse Host Demo running.\r\n" ESC_FG_WHITE));
     37a:	92 e0       	ldi	r25, 0x02	; 2
     37c:	0e 94 7e 0a 	call	0x14fc	; 0x14fc <puts_P>
     380:	80 e1       	ldi	r24, 0x10	; 16

	LEDs_SetAllLEDs(LEDMASK_USB_NOTREADY);
     382:	78 df       	rcall	.-272    	; 0x274 <LEDs_SetAllLEDs>
     384:	78 94       	sei
     386:	aa df       	rcall	.-172    	; 0x2dc <MouseHost_Task>
			static inline void GlobalInterruptEnable(void)
			{
				GCC_MEMORY_BARRIER();

				#if (ARCH == ARCH_AVR8)
				sei();
     388:	c9 d6       	rcall	.+3474   	; 0x111c <USB_USBTask>
	GlobalInterruptEnable();

	for (;;)
	{
		MouseHost_Task();
     38a:	fd cf       	rjmp	.-6      	; 0x386 <main+0x10>

0000038c <EVENT_USB_Host_DeviceAttached>:
     38c:	84 ee       	ldi	r24, 0xE4	; 228

		HID_Host_USBTask(&Mouse_HID_Interface);
		USB_USBTask();
     38e:	91 e0       	ldi	r25, 0x01	; 1
     390:	0e 94 7e 0a 	call	0x14fc	; 0x14fc <puts_P>
 *  starts the library USB task to begin the enumeration and USB management process.
 */
void EVENT_USB_Host_DeviceAttached(void)
{
	puts_P(PSTR("Device Attached.\r\n"));
	LEDs_SetAllLEDs(LEDMASK_USB_ENUMERATING);
     394:	80 ea       	ldi	r24, 0xA0	; 160
     396:	6e cf       	rjmp	.-292    	; 0x274 <LEDs_SetAllLEDs>

00000398 <EVENT_USB_Host_DeviceUnattached>:
     398:	8d ec       	ldi	r24, 0xCD	; 205
/** Event handler for the USB_DeviceUnattached event. This indicates that a device has been removed from the host, and
 *  stops the library USB task management process.
 */
void EVENT_USB_Host_DeviceUnattached(void)
{
	puts_P(PSTR("\r\nDevice Unattached.\r\n"));
     39a:	91 e0       	ldi	r25, 0x01	; 1
     39c:	0e 94 7e 0a 	call	0x14fc	; 0x14fc <puts_P>
	LEDs_SetAllLEDs(LEDMASK_USB_NOTREADY);
     3a0:	80 e1       	ldi	r24, 0x10	; 16
     3a2:	68 cf       	rjmp	.-304    	; 0x274 <LEDs_SetAllLEDs>

000003a4 <EVENT_USB_Host_DeviceEnumerationComplete>:
     3a4:	cf 93       	push	r28

/** Event handler for the USB_DeviceEnumerationComplete event. This indicates that a device has been successfully
 *  enumerated by the host and is now ready to be used by the application.
 */
void EVENT_USB_Host_DeviceEnumerationComplete(void)
{
     3a6:	df 93       	push	r29
     3a8:	cd b7       	in	r28, 0x3d	; 61
     3aa:	de b7       	in	r29, 0x3e	; 62
     3ac:	c2 50       	subi	r28, 0x02	; 2
     3ae:	d2 40       	sbci	r29, 0x02	; 2
     3b0:	0f b6       	in	r0, 0x3f	; 63
     3b2:	f8 94       	cli
     3b4:	de bf       	out	0x3e, r29	; 62
     3b6:	0f be       	out	0x3f, r0	; 63
     3b8:	cd bf       	out	0x3d, r28	; 61
	LEDs_SetAllLEDs(LEDMASK_USB_ENUMERATING);
     3ba:	80 ea       	ldi	r24, 0xA0	; 160
     3bc:	5b df       	rcall	.-330    	; 0x274 <LEDs_SetAllLEDs>
     3be:	20 e0       	ldi	r18, 0x00	; 0

	uint16_t ConfigDescriptorSize;
	uint8_t  ConfigDescriptorData[512];

	if (USB_Host_GetDeviceConfigDescriptor(1, &ConfigDescriptorSize, ConfigDescriptorData,
     3c0:	32 e0       	ldi	r19, 0x02	; 2
     3c2:	ae 01       	movw	r20, r28
     3c4:	4f 5f       	subi	r20, 0xFF	; 255
     3c6:	5f 4f       	sbci	r21, 0xFF	; 255
     3c8:	be 01       	movw	r22, r28
     3ca:	6f 5f       	subi	r22, 0xFF	; 255
     3cc:	7d 4f       	sbci	r23, 0xFD	; 253
     3ce:	81 e0       	ldi	r24, 0x01	; 1
     3d0:	cf d4       	rcall	.+2462   	; 0xd70 <USB_Host_GetDeviceConfigDescriptor>
     3d2:	88 23       	and	r24, r24
     3d4:	19 f0       	breq	.+6      	; 0x3dc <EVENT_USB_Host_DeviceEnumerationComplete+0x38>
     3d6:	80 ea       	ldi	r24, 0xA0	; 160
     3d8:	91 e0       	ldi	r25, 0x01	; 1
	                                       sizeof(ConfigDescriptorData)) != HOST_GETCONFIG_Successful)
	{
		puts_P(PSTR("Error Retrieving Configuration Descriptor.\r\n"));
     3da:	17 c0       	rjmp	.+46     	; 0x40a <EVENT_USB_Host_DeviceEnumerationComplete+0x66>
     3dc:	cf 5f       	subi	r28, 0xFF	; 255
     3de:	dd 4f       	sbci	r29, 0xFD	; 253
		LEDs_SetAllLEDs(LEDMASK_USB_ERROR);
		return;
	}

	if (HID_Host_ConfigurePipes(&Mouse_HID_Interface,
     3e0:	68 81       	ld	r22, Y
     3e2:	79 81       	ldd	r23, Y+1	; 0x01
     3e4:	c1 50       	subi	r28, 0x01	; 1
     3e6:	d2 40       	sbci	r29, 0x02	; 2
     3e8:	ae 01       	movw	r20, r28
     3ea:	4f 5f       	subi	r20, 0xFF	; 255
     3ec:	5f 4f       	sbci	r21, 0xFF	; 255
     3ee:	80 e0       	ldi	r24, 0x00	; 0
     3f0:	91 e0       	ldi	r25, 0x01	; 1
     3f2:	c8 d6       	rcall	.+3472   	; 0x1184 <HID_Host_ConfigurePipes>
     3f4:	88 23       	and	r24, r24
     3f6:	19 f0       	breq	.+6      	; 0x3fe <EVENT_USB_Host_DeviceEnumerationComplete+0x5a>
     3f8:	8b e7       	ldi	r24, 0x7B	; 123
     3fa:	91 e0       	ldi	r25, 0x01	; 1
     3fc:	06 c0       	rjmp	.+12     	; 0x40a <EVENT_USB_Host_DeviceEnumerationComplete+0x66>
	                            ConfigDescriptorSize, ConfigDescriptorData) != HID_ENUMERROR_NoError)
	{
		puts_P(PSTR("Attached Device Not a Valid Mouse.\r\n"));
     3fe:	81 e0       	ldi	r24, 0x01	; 1
     400:	66 d6       	rcall	.+3276   	; 0x10ce <USB_Host_SetDeviceConfiguration>
     402:	88 23       	and	r24, r24
		LEDs_SetAllLEDs(LEDMASK_USB_ERROR);
		return;
	}

	if (USB_Host_SetDeviceConfiguration(1) != HOST_SENDCONTROL_Successful)
     404:	31 f0       	breq	.+12     	; 0x412 <EVENT_USB_Host_DeviceEnumerationComplete+0x6e>
     406:	85 e5       	ldi	r24, 0x55	; 85
     408:	91 e0       	ldi	r25, 0x01	; 1
     40a:	0e 94 7e 0a 	call	0x14fc	; 0x14fc <puts_P>
	{
		puts_P(PSTR("Error Setting Device Configuration.\r\n"));
     40e:	80 e9       	ldi	r24, 0x90	; 144
     410:	13 c0       	rjmp	.+38     	; 0x438 <EVENT_USB_Host_DeviceEnumerationComplete+0x94>
     412:	80 e0       	ldi	r24, 0x00	; 0
     414:	91 e0       	ldi	r25, 0x01	; 1
		LEDs_SetAllLEDs(LEDMASK_USB_ERROR);
     416:	eb d7       	rcall	.+4054   	; 0x13ee <HID_Host_SetBootProtocol>
     418:	88 23       	and	r24, r24
		return;
	}

	if (HID_Host_SetBootProtocol(&Mouse_HID_Interface) != 0)
     41a:	49 f0       	breq	.+18     	; 0x42e <EVENT_USB_Host_DeviceEnumerationComplete+0x8a>
     41c:	81 e3       	ldi	r24, 0x31	; 49
     41e:	91 e0       	ldi	r25, 0x01	; 1
     420:	0e 94 7e 0a 	call	0x14fc	; 0x14fc <puts_P>
     424:	80 e9       	ldi	r24, 0x90	; 144
	{
		puts_P(PSTR("Could not Set Boot Protocol Mode.\r\n"));
     426:	26 df       	rcall	.-436    	; 0x274 <LEDs_SetAllLEDs>
     428:	80 e0       	ldi	r24, 0x00	; 0
     42a:	51 d6       	rcall	.+3234   	; 0x10ce <USB_Host_SetDeviceConfiguration>
     42c:	06 c0       	rjmp	.+12     	; 0x43a <EVENT_USB_Host_DeviceEnumerationComplete+0x96>
		LEDs_SetAllLEDs(LEDMASK_USB_ERROR);
     42e:	8d e1       	ldi	r24, 0x1D	; 29
     430:	91 e0       	ldi	r25, 0x01	; 1
     432:	0e 94 7e 0a 	call	0x14fc	; 0x14fc <puts_P>
		USB_Host_SetDeviceConfiguration(0);
     436:	80 e6       	ldi	r24, 0x60	; 96
     438:	1d df       	rcall	.-454    	; 0x274 <LEDs_SetAllLEDs>
		return;
     43a:	ce 5f       	subi	r28, 0xFE	; 254
	}

	puts_P(PSTR("Mouse Enumerated.\r\n"));
     43c:	dd 4f       	sbci	r29, 0xFD	; 253
     43e:	0f b6       	in	r0, 0x3f	; 63
     440:	f8 94       	cli
     442:	de bf       	out	0x3e, r29	; 62
	LEDs_SetAllLEDs(LEDMASK_USB_READY);
     444:	0f be       	out	0x3f, r0	; 63
     446:	cd bf       	out	0x3d, r28	; 61
     448:	df 91       	pop	r29
}
     44a:	cf 91       	pop	r28
     44c:	08 95       	ret

0000044e <EVENT_USB_Host_HostError>:
     44e:	cf 93       	push	r28
     450:	df 93       	push	r29
     452:	1f 92       	push	r1
     454:	cd b7       	in	r28, 0x3d	; 61
     456:	de b7       	in	r29, 0x3e	; 62
     458:	89 83       	std	Y+1, r24	; 0x01
     45a:	58 d3       	rcall	.+1712   	; 0xb0c <USB_Disable>
     45c:	1f 92       	push	r1
/** Event handler for the USB_HostError event. This indicates that a hardware error occurred while in host mode. */
void EVENT_USB_Host_HostError(const uint8_t ErrorCode)
{
	USB_Disable();

	printf_P(PSTR(ESC_FG_RED "Host Mode Error\r\n"
     45e:	89 81       	ldd	r24, Y+1	; 0x01
     460:	8f 93       	push	r24
     462:	8e ee       	ldi	r24, 0xEE	; 238
     464:	90 e0       	ldi	r25, 0x00	; 0
     466:	9f 93       	push	r25
     468:	8f 93       	push	r24
     46a:	0e 94 5b 0a 	call	0x14b6	; 0x14b6 <printf_P>
     46e:	80 e9       	ldi	r24, 0x90	; 144
	                         " -- Error Code %d\r\n" ESC_FG_WHITE), ErrorCode);

	LEDs_SetAllLEDs(LEDMASK_USB_ERROR);
     470:	01 df       	rcall	.-510    	; 0x274 <LEDs_SetAllLEDs>
     472:	0f 90       	pop	r0
     474:	0f 90       	pop	r0
     476:	0f 90       	pop	r0
     478:	0f 90       	pop	r0
     47a:	ff cf       	rjmp	.-2      	; 0x47a <EVENT_USB_Host_HostError+0x2c>

0000047c <EVENT_USB_Host_DeviceEnumerationFailed>:
     47c:	90 91 35 01 	lds	r25, 0x0135
 *  enumerating an attached USB device.
 */
void EVENT_USB_Host_DeviceEnumerationFailed(const uint8_t ErrorCode,
                                            const uint8_t SubErrorCode)
{
	printf_P(PSTR(ESC_FG_RED "Dev Enum Error\r\n"
     480:	1f 92       	push	r1
     482:	9f 93       	push	r25
     484:	1f 92       	push	r1
     486:	6f 93       	push	r22
     488:	1f 92       	push	r1
     48a:	8f 93       	push	r24
     48c:	88 e9       	ldi	r24, 0x98	; 152
     48e:	90 e0       	ldi	r25, 0x00	; 0
     490:	9f 93       	push	r25
     492:	8f 93       	push	r24
     494:	0e 94 5b 0a 	call	0x14b6	; 0x14b6 <printf_P>
	                         " -- Error Code %d\r\n"
	                         " -- Sub Error Code %d\r\n"
	                         " -- In State %d\r\n" ESC_FG_WHITE), ErrorCode, SubErrorCode, USB_HostState);

	LEDs_SetAllLEDs(LEDMASK_USB_ERROR);
     498:	8d b7       	in	r24, 0x3d	; 61
     49a:	9e b7       	in	r25, 0x3e	; 62
     49c:	08 96       	adiw	r24, 0x08	; 8
     49e:	0f b6       	in	r0, 0x3f	; 63
     4a0:	f8 94       	cli
     4a2:	9e bf       	out	0x3e, r25	; 62
     4a4:	0f be       	out	0x3f, r0	; 63
     4a6:	8d bf       	out	0x3d, r24	; 61
     4a8:	80 e9       	ldi	r24, 0x90	; 144
     4aa:	e4 ce       	rjmp	.-568    	; 0x274 <LEDs_SetAllLEDs>

000004ac <USB_GetHIDReportSize>:
			case HID_RI_END_COLLECTION(0):
				if (CurrCollectionPath == NULL)
				  return HID_PARSE_UnexpectedEndCollection;

				CurrCollectionPath = CurrCollectionPath->Parent;
				break;
     4ac:	fc 01       	movw	r30, r24
					ParserData->LargestReportSizeBits = MAX(ParserData->LargestReportSizeBits, CurrReportIDInfo->ReportSizeBits[NewReportItem.ItemType]);

					if (ParserData->TotalReportItems == HID_MAX_REPORTITEMS)
					  return HID_PARSE_InsufficientReportItems;

					memcpy(&ParserData->ReportItems[ParserData->TotalReportItems],
     4ae:	e4 0f       	add	r30, r20
     4b0:	f1 1d       	adc	r31, r1
     4b2:	e4 0f       	add	r30, r20
     4b4:	f1 1d       	adc	r31, r1
     4b6:	20 e0       	ldi	r18, 0x00	; 0
     4b8:	30 e0       	ldi	r19, 0x00	; 0
     4ba:	df 01       	movw	r26, r30
     4bc:	a2 0f       	add	r26, r18
     4be:	b3 1f       	adc	r27, r19
     4c0:	af 56       	subi	r26, 0x6F	; 111
     4c2:	bc 4f       	sbci	r27, 0xFC	; 252
     4c4:	4d 91       	ld	r20, X+
     4c6:	5c 91       	ld	r21, X
     4c8:	dc 01       	movw	r26, r24
					       &NewReportItem, sizeof(HID_ReportItem_t));

					if (!(ReportItemData & HID_IOF_CONSTANT) && CALLBACK_HIDParser_FilterHIDReportItem(&NewReportItem))
     4ca:	a2 0f       	add	r26, r18
     4cc:	b3 1f       	adc	r27, r19
     4ce:	a0 57       	subi	r26, 0x70	; 112
     4d0:	bc 4f       	sbci	r27, 0xFC	; 252
     4d2:	7c 91       	ld	r23, X
     4d4:	76 13       	cpse	r23, r22
     4d6:	12 c0       	rjmp	.+36     	; 0x4fc <USB_GetHIDReportSize+0x50>
     4d8:	21 e0       	ldi	r18, 0x01	; 1
     4da:	30 e0       	ldi	r19, 0x00	; 0
     4dc:	ca 01       	movw	r24, r20
     4de:	87 70       	andi	r24, 0x07	; 7
     4e0:	99 27       	eor	r25, r25
     4e2:	89 2b       	or	r24, r25
				break;

			case HID_RI_INPUT(0):
			case HID_RI_OUTPUT(0):
			case HID_RI_FEATURE(0):
				for (uint8_t ReportItemNum = 0; ReportItemNum < CurrStateTable->ReportCount; ReportItemNum++)
     4e4:	11 f4       	brne	.+4      	; 0x4ea <USB_GetHIDReportSize+0x3e>
     4e6:	20 e0       	ldi	r18, 0x00	; 0
     4e8:	30 e0       	ldi	r19, 0x00	; 0
     4ea:	ca 01       	movw	r24, r20
     4ec:	43 e0       	ldi	r20, 0x03	; 3
     4ee:	96 95       	lsr	r25
				{
					HID_ReportItem_t NewReportItem;

					memcpy(&NewReportItem.Attributes,
     4f0:	87 95       	ror	r24
     4f2:	4a 95       	dec	r20
     4f4:	e1 f7       	brne	.-8      	; 0x4ee <USB_GetHIDReportSize+0x42>
     4f6:	82 0f       	add	r24, r18
     4f8:	93 1f       	adc	r25, r19
     4fa:	08 95       	ret
     4fc:	29 5f       	subi	r18, 0xF9	; 249
     4fe:	3f 4f       	sbci	r19, 0xFF	; 255
     500:	26 34       	cpi	r18, 0x46	; 70
					       &CurrStateTable->Attributes,
					       sizeof(HID_ReportItem_Attributes_t));

					NewReportItem.ItemFlags      = ReportItemData;
     502:	31 05       	cpc	r19, r1
     504:	d1 f6       	brne	.-76     	; 0x4ba <USB_GetHIDReportSize+0xe>
					NewReportItem.CollectionPath = CurrCollectionPath;
     506:	80 e0       	ldi	r24, 0x00	; 0
     508:	90 e0       	ldi	r25, 0x00	; 0
     50a:	08 95       	ret

0000050c <USB_Host_ResetDevice>:
			 *  \return Boolean \c true if the bus is currently suspended, \c false otherwise.
			 */
			static inline bool USB_Host_IsBusSuspended(void) ATTR_WARN_UNUSED_RESULT ATTR_ALWAYS_INLINE;
			static inline bool USB_Host_IsBusSuspended(void)
			{
				return ((UHCON & (1 << SOFEN)) ? false : true);
     50c:	80 91 9e 00 	lds	r24, 0x009E
     510:	81 70       	andi	r24, 0x01	; 1
						break;
					case USB_INT_DCONNI:
						UHIEN  &= ~(1 << DCONNE);
						break;
					case USB_INT_DDISCI:
						UHIEN  &= ~(1 << DDISCE);
     512:	90 91 a0 00 	lds	r25, 0x00A0
     516:	9d 7f       	andi	r25, 0xFD	; 253
     518:	90 93 a0 00 	sts	0x00A0, r25
			 *  woken up automatically and the bus resumed after the reset has been correctly issued.
			 */
			static inline void USB_Host_ResetBus(void) ATTR_ALWAYS_INLINE;
			static inline void USB_Host_ResetBus(void)
			{
				UHCON |=  (1 << RESET);
     51c:	90 91 9e 00 	lds	r25, 0x009E
     520:	92 60       	ori	r25, 0x02	; 2
     522:	90 93 9e 00 	sts	0x009E, r25
			 *  \return Boolean \c true if no bus reset is currently being sent, \c false otherwise.
			 */
			static inline bool USB_Host_IsBusResetComplete(void) ATTR_WARN_UNUSED_RESULT ATTR_ALWAYS_INLINE;
			static inline bool USB_Host_IsBusResetComplete(void)
			{
				return ((UHCON & (1 << RESET)) ? false : true);
     526:	90 91 9e 00 	lds	r25, 0x009E
	bool BusSuspended = USB_Host_IsBusSuspended();

	USB_INT_Disable(USB_INT_DDISCI);

	USB_Host_ResetBus();
	while (!(USB_Host_IsBusResetComplete()));
     52a:	91 fd       	sbrc	r25, 1
     52c:	fc cf       	rjmp	.-8      	; 0x526 <USB_Host_ResetDevice+0x1a>
			 *  host and attached device may occur.
			 */
			static inline void USB_Host_ResumeBus(void) ATTR_ALWAYS_INLINE;
			static inline void USB_Host_ResumeBus(void)
			{
				UHCON |=  (1 << SOFEN);
     52e:	90 91 9e 00 	lds	r25, 0x009E
     532:	91 60       	ori	r25, 0x01	; 1
     534:	90 93 9e 00 	sts	0x009E, r25
	USB_Host_ResumeBus();

	USB_Host_ConfigurationNumber = 0;
     538:	10 92 2b 01 	sts	0x012B, r1
					case USB_INT_RXSTPI:
						return (UEIENX & (1 << RXSTPE));
					#endif
					#if defined(USB_CAN_BE_HOST)
					case USB_INT_HSOFI:
						return (UHIEN  & (1 << HSOFE));
     53c:	90 91 a0 00 	lds	r25, 0x00A0
     540:	90 72       	andi	r25, 0x20	; 32
						UEIENX &= ~(1 << RXSTPE);
						break;
					#endif
					#if defined(USB_CAN_BE_HOST)
					case USB_INT_HSOFI:
						UHIEN  &= ~(1 << HSOFE);
     542:	20 91 a0 00 	lds	r18, 0x00A0
     546:	2f 7d       	andi	r18, 0xDF	; 223
     548:	20 93 a0 00 	sts	0x00A0, r18
						UEINTX &= ~(1 << RXSTPI);
						break;
					#endif
					#if defined(USB_CAN_BE_HOST)
					case USB_INT_HSOFI:
						UHINT  &= ~(1 << HSOFI);
     54c:	20 91 9f 00 	lds	r18, 0x009F
     550:	2f 7d       	andi	r18, 0xDF	; 223
     552:	20 93 9f 00 	sts	0x009F, r18
     556:	2a e0       	ldi	r18, 0x0A	; 10
					case USB_INT_RXSTPI:
						return (UEINTX & (1 << RXSTPI));
					#endif
					#if defined(USB_CAN_BE_HOST)
					case USB_INT_HSOFI:
						return (UHINT  & (1 << HSOFI));
     558:	30 91 9f 00 	lds	r19, 0x009F
		/* Workaround for powerless-pull-up devices. After a USB bus reset,
		   all disconnection interrupts are suppressed while a USB frame is
		   looked for - if it is found within 10ms, the device is still
		   present.                                                        */

		if (USB_INT_HasOccurred(USB_INT_HSOFI))
     55c:	35 ff       	sbrs	r19, 5
     55e:	0b c0       	rjmp	.+22     	; 0x576 <USB_Host_ResetDevice+0x6a>
						UEINTX &= ~(1 << RXSTPI);
						break;
					#endif
					#if defined(USB_CAN_BE_HOST)
					case USB_INT_HSOFI:
						UHINT  &= ~(1 << HSOFI);
     560:	20 91 9f 00 	lds	r18, 0x009F
     564:	2f 7d       	andi	r18, 0xDF	; 223
     566:	20 93 9f 00 	sts	0x009F, r18
						break;
					case USB_INT_DCONNI:
						UHINT  &= ~(1 << DCONNI);
						break;
					case USB_INT_DDISCI:
						UHINT  &= ~(1 << DDISCI);
     56a:	20 91 9f 00 	lds	r18, 0x009F
     56e:	2d 7f       	andi	r18, 0xFD	; 253
     570:	20 93 9f 00 	sts	0x009F, r18
     574:	08 c0       	rjmp	.+16     	; 0x586 <USB_Host_ResetDevice+0x7a>
	#else
		//round up by default
		__ticks_dc = (uint32_t)(ceil(fabs(__tmp)));
	#endif

	__builtin_avr_delay_cycles(__ticks_dc);
     576:	ef ec       	ldi	r30, 0xCF	; 207
     578:	f7 e0       	ldi	r31, 0x07	; 7
     57a:	31 97       	sbiw	r30, 0x01	; 1
     57c:	f1 f7       	brne	.-4      	; 0x57a <USB_Host_ResetDevice+0x6e>
     57e:	00 c0       	rjmp	.+0      	; 0x580 <USB_Host_ResetDevice+0x74>
     580:	00 00       	nop
     582:	21 50       	subi	r18, 0x01	; 1
	bool HSOFIEnabled = USB_INT_IsEnabled(USB_INT_HSOFI);

	USB_INT_Disable(USB_INT_HSOFI);
	USB_INT_Clear(USB_INT_HSOFI);

	for (uint8_t MSRem = 10; MSRem != 0; MSRem--)
     584:	49 f7       	brne	.-46     	; 0x558 <USB_Host_ResetDevice+0x4c>
		}

		Delay_MS(1);
	}

	if (HSOFIEnabled)
     586:	99 23       	and	r25, r25
     588:	29 f0       	breq	.+10     	; 0x594 <USB_Host_ResetDevice+0x88>
						UEIENX |= (1 << RXSTPE);
						break;
					#endif
					#if defined(USB_CAN_BE_HOST)
					case USB_INT_HSOFI:
						UHIEN  |= (1 << HSOFE);
     58a:	90 91 a0 00 	lds	r25, 0x00A0
     58e:	90 62       	ori	r25, 0x20	; 32
     590:	90 93 a0 00 	sts	0x00A0, r25
	  USB_INT_Enable(USB_INT_HSOFI);

	if (BusSuspended)
     594:	81 11       	cpse	r24, r1
     596:	05 c0       	rjmp	.+10     	; 0x5a2 <USB_Host_ResetDevice+0x96>
			 *             some events (such as device disconnections) will not fire until the bus is resumed.
			 */
			static inline void USB_Host_SuspendBus(void) ATTR_ALWAYS_INLINE;
			static inline void USB_Host_SuspendBus(void)
			{
				UHCON &= ~(1 << SOFEN);
     598:	80 91 9e 00 	lds	r24, 0x009E
     59c:	8e 7f       	andi	r24, 0xFE	; 254
     59e:	80 93 9e 00 	sts	0x009E, r24
						break;
					case USB_INT_DCONNI:
						UHIEN  |= (1 << DCONNE);
						break;
					case USB_INT_DDISCI:
						UHIEN  |= (1 << DDISCE);
     5a2:	80 91 a0 00 	lds	r24, 0x00A0
     5a6:	82 60       	ori	r24, 0x02	; 2
     5a8:	80 93 a0 00 	sts	0x00A0, r24
     5ac:	08 95       	ret

000005ae <USB_Host_WaitMS>:
			 *  \return Boolean \c true if the bus is currently suspended, \c false otherwise.
			 */
			static inline bool USB_Host_IsBusSuspended(void) ATTR_WARN_UNUSED_RESULT ATTR_ALWAYS_INLINE;
			static inline bool USB_Host_IsBusSuspended(void)
			{
				return ((UHCON & (1 << SOFEN)) ? false : true);
     5ae:	20 91 9e 00 	lds	r18, 0x009E
     5b2:	21 70       	andi	r18, 0x01	; 1
					case USB_INT_RXSTPI:
						return (UEIENX & (1 << RXSTPE));
					#endif
					#if defined(USB_CAN_BE_HOST)
					case USB_INT_HSOFI:
						return (UHIEN  & (1 << HSOFE));
     5b4:	90 91 a0 00 	lds	r25, 0x00A0
     5b8:	90 72       	andi	r25, 0x20	; 32
						UEIENX &= ~(1 << RXSTPE);
						break;
					#endif
					#if defined(USB_CAN_BE_HOST)
					case USB_INT_HSOFI:
						UHIEN  &= ~(1 << HSOFE);
     5ba:	30 91 a0 00 	lds	r19, 0x00A0
     5be:	3f 7d       	andi	r19, 0xDF	; 223
     5c0:	30 93 a0 00 	sts	0x00A0, r19
						UEINTX &= ~(1 << RXSTPI);
						break;
					#endif
					#if defined(USB_CAN_BE_HOST)
					case USB_INT_HSOFI:
						UHINT  &= ~(1 << HSOFI);
     5c4:	30 91 9f 00 	lds	r19, 0x009F
     5c8:	3f 7d       	andi	r19, 0xDF	; 223
     5ca:	30 93 9f 00 	sts	0x009F, r19
			 *  host and attached device may occur.
			 */
			static inline void USB_Host_ResumeBus(void) ATTR_ALWAYS_INLINE;
			static inline void USB_Host_ResumeBus(void)
			{
				UHCON |=  (1 << SOFEN);
     5ce:	30 91 9e 00 	lds	r19, 0x009E
     5d2:	31 60       	ori	r19, 0x01	; 1
     5d4:	30 93 9e 00 	sts	0x009E, r19
	USB_INT_Disable(USB_INT_HSOFI);
	USB_INT_Clear(USB_INT_HSOFI);

	USB_Host_ResumeBus();

	while (MS)
     5d8:	88 23       	and	r24, r24
     5da:	39 f1       	breq	.+78     	; 0x62a <USB_Host_WaitMS+0x7c>
					case USB_INT_RXSTPI:
						return (UEINTX & (1 << RXSTPI));
					#endif
					#if defined(USB_CAN_BE_HOST)
					case USB_INT_HSOFI:
						return (UHINT  & (1 << HSOFI));
     5dc:	30 91 9f 00 	lds	r19, 0x009F
	{
		if (USB_INT_HasOccurred(USB_INT_HSOFI))
     5e0:	35 ff       	sbrs	r19, 5
     5e2:	06 c0       	rjmp	.+12     	; 0x5f0 <USB_Host_WaitMS+0x42>
						UEINTX &= ~(1 << RXSTPI);
						break;
					#endif
					#if defined(USB_CAN_BE_HOST)
					case USB_INT_HSOFI:
						UHINT  &= ~(1 << HSOFI);
     5e4:	30 91 9f 00 	lds	r19, 0x009F
     5e8:	3f 7d       	andi	r19, 0xDF	; 223
     5ea:	30 93 9f 00 	sts	0x009F, r19
		{
			USB_INT_Clear(USB_INT_HSOFI);
			MS--;
     5ee:	81 50       	subi	r24, 0x01	; 1
		}

		if ((USB_HostState == HOST_STATE_Unattached) || (USB_CurrentMode != USB_MODE_Host))
     5f0:	30 91 35 01 	lds	r19, 0x0135
     5f4:	31 30       	cpi	r19, 0x01	; 1
     5f6:	c1 f0       	breq	.+48     	; 0x628 <USB_Host_WaitMS+0x7a>
			 *  \return Boolean \c true if an error has occurred on the selected pipe, \c false otherwise.
			 */
			static inline bool Pipe_IsError(void) ATTR_WARN_UNUSED_RESULT ATTR_ALWAYS_INLINE;
			static inline bool Pipe_IsError(void)
			{
				return ((UPINTX & (1 << PERRI)) ? true : false);
     5f8:	30 91 a6 00 	lds	r19, 0x00A6
			ErrorCode = HOST_WAITERROR_DeviceDisconnect;

			break;
		}

		if (Pipe_IsError())
     5fc:	34 ff       	sbrs	r19, 4
     5fe:	09 c0       	rjmp	.+18     	; 0x612 <USB_Host_WaitMS+0x64>

			/** Clears the error flags for the currently selected pipe. */
			static inline void Pipe_ClearError(void) ATTR_ALWAYS_INLINE;
			static inline void Pipe_ClearError(void)
			{
				UPERRX = 0;
     600:	10 92 f5 00 	sts	0x00F5, r1
				UPINTX &= ~(1 << PERRI);
     604:	80 91 a6 00 	lds	r24, 0x00A6
     608:	8f 7e       	andi	r24, 0xEF	; 239
     60a:	80 93 a6 00 	sts	0x00A6, r24
		{
			Pipe_ClearError();
			ErrorCode = HOST_WAITERROR_PipeError;
     60e:	82 e0       	ldi	r24, 0x02	; 2

			break;
     610:	0c c0       	rjmp	.+24     	; 0x62a <USB_Host_WaitMS+0x7c>
			 *  \return Boolean \c true if the current pipe has been stalled by the attached device, \c false otherwise.
			 */
			static inline bool Pipe_IsStalled(void) ATTR_WARN_UNUSED_RESULT ATTR_ALWAYS_INLINE;
			static inline bool Pipe_IsStalled(void)
			{
				return ((UPINTX & (1 << RXSTALLI)) ? true : false);
     612:	30 91 a6 00 	lds	r19, 0x00A6
		}

		if (Pipe_IsStalled())
     616:	31 ff       	sbrs	r19, 1
     618:	df cf       	rjmp	.-66     	; 0x5d8 <USB_Host_WaitMS+0x2a>
			 *  \ingroup Group_PipePacketManagement_AVR8
			 */
			static inline void Pipe_ClearStall(void) ATTR_ALWAYS_INLINE;
			static inline void Pipe_ClearStall(void)
			{
				UPINTX &= ~(1 << RXSTALLI);
     61a:	80 91 a6 00 	lds	r24, 0x00A6
     61e:	8d 7f       	andi	r24, 0xFD	; 253
     620:	80 93 a6 00 	sts	0x00A6, r24
		{
			Pipe_ClearStall();
			ErrorCode = HOST_WAITERROR_SetupStalled;
     624:	83 e0       	ldi	r24, 0x03	; 3

			break;
     626:	01 c0       	rjmp	.+2      	; 0x62a <USB_Host_WaitMS+0x7c>
			MS--;
		}

		if ((USB_HostState == HOST_STATE_Unattached) || (USB_CurrentMode != USB_MODE_Host))
		{
			ErrorCode = HOST_WAITERROR_DeviceDisconnect;
     628:	81 e0       	ldi	r24, 0x01	; 1

			break;
		}
	}

	if (BusSuspended)
     62a:	21 11       	cpse	r18, r1
     62c:	05 c0       	rjmp	.+10     	; 0x638 <USB_Host_WaitMS+0x8a>
			 *             some events (such as device disconnections) will not fire until the bus is resumed.
			 */
			static inline void USB_Host_SuspendBus(void) ATTR_ALWAYS_INLINE;
			static inline void USB_Host_SuspendBus(void)
			{
				UHCON &= ~(1 << SOFEN);
     62e:	20 91 9e 00 	lds	r18, 0x009E
     632:	2e 7f       	andi	r18, 0xFE	; 254
     634:	20 93 9e 00 	sts	0x009E, r18
	  USB_Host_SuspendBus();

	if (HSOFIEnabled)
     638:	99 23       	and	r25, r25
     63a:	29 f0       	breq	.+10     	; 0x646 <USB_Host_WaitMS+0x98>
						UEIENX |= (1 << RXSTPE);
						break;
					#endif
					#if defined(USB_CAN_BE_HOST)
					case USB_INT_HSOFI:
						UHIEN  |= (1 << HSOFE);
     63c:	90 91 a0 00 	lds	r25, 0x00A0
     640:	90 62       	ori	r25, 0x20	; 32
     642:	90 93 a0 00 	sts	0x00A0, r25
	  USB_INT_Enable(USB_INT_HSOFI);

	return ErrorCode;
}
     646:	08 95       	ret

00000648 <USB_Host_ProcessNextHostState>:

#define  __INCLUDE_FROM_HOST_C
#include "../Host.h"

void USB_Host_ProcessNextHostState(void)
{
     648:	0f 93       	push	r16
     64a:	1f 93       	push	r17
     64c:	cf 93       	push	r28
     64e:	df 93       	push	r29
     650:	cd b7       	in	r28, 0x3d	; 61
     652:	de b7       	in	r29, 0x3e	; 62
     654:	28 97       	sbiw	r28, 0x08	; 8
     656:	0f b6       	in	r0, 0x3f	; 63
     658:	f8 94       	cli
     65a:	de bf       	out	0x3e, r29	; 62
     65c:	0f be       	out	0x3f, r0	; 63
     65e:	cd bf       	out	0x3d, r28	; 61
	uint8_t SubErrorCode = HOST_ENUMERROR_NoError;

	static uint16_t WaitMSRemaining;
	static uint8_t  PostWaitState;

	switch (USB_HostState)
     660:	80 91 35 01 	lds	r24, 0x0135
     664:	85 30       	cpi	r24, 0x05	; 5
     666:	09 f4       	brne	.+2      	; 0x66a <USB_Host_ProcessNextHostState+0x22>
     668:	9c c0       	rjmp	.+312    	; 0x7a2 <USB_Host_ProcessNextHostState+0x15a>
     66a:	68 f4       	brcc	.+26     	; 0x686 <USB_Host_ProcessNextHostState+0x3e>
     66c:	82 30       	cpi	r24, 0x02	; 2
     66e:	e1 f1       	breq	.+120    	; 0x6e8 <USB_Host_ProcessNextHostState+0xa0>
     670:	18 f4       	brcc	.+6      	; 0x678 <USB_Host_ProcessNextHostState+0x30>
     672:	88 23       	and	r24, r24
     674:	d9 f0       	breq	.+54     	; 0x6ac <USB_Host_ProcessNextHostState+0x64>
     676:	ff c0       	rjmp	.+510    	; 0x876 <USB_Host_ProcessNextHostState+0x22e>
     678:	83 30       	cpi	r24, 0x03	; 3
     67a:	09 f4       	brne	.+2      	; 0x67e <USB_Host_ProcessNextHostState+0x36>
     67c:	3f c0       	rjmp	.+126    	; 0x6fc <USB_Host_ProcessNextHostState+0xb4>
     67e:	84 30       	cpi	r24, 0x04	; 4
     680:	09 f4       	brne	.+2      	; 0x684 <USB_Host_ProcessNextHostState+0x3c>
     682:	67 c0       	rjmp	.+206    	; 0x752 <USB_Host_ProcessNextHostState+0x10a>
     684:	f8 c0       	rjmp	.+496    	; 0x876 <USB_Host_ProcessNextHostState+0x22e>
     686:	87 30       	cpi	r24, 0x07	; 7
     688:	09 f4       	brne	.+2      	; 0x68c <USB_Host_ProcessNextHostState+0x44>
     68a:	a6 c0       	rjmp	.+332    	; 0x7d8 <USB_Host_ProcessNextHostState+0x190>
     68c:	08 f4       	brcc	.+2      	; 0x690 <USB_Host_ProcessNextHostState+0x48>
     68e:	96 c0       	rjmp	.+300    	; 0x7bc <USB_Host_ProcessNextHostState+0x174>
     690:	88 30       	cpi	r24, 0x08	; 8
     692:	09 f4       	brne	.+2      	; 0x696 <USB_Host_ProcessNextHostState+0x4e>
     694:	bf c0       	rjmp	.+382    	; 0x814 <USB_Host_ProcessNextHostState+0x1cc>
     696:	89 30       	cpi	r24, 0x09	; 9
     698:	09 f0       	breq	.+2      	; 0x69c <USB_Host_ProcessNextHostState+0x54>
     69a:	ed c0       	rjmp	.+474    	; 0x876 <USB_Host_ProcessNextHostState+0x22e>
			}

			static inline void USB_Host_SetDeviceAddress(const uint8_t Address) ATTR_ALWAYS_INLINE;
			static inline void USB_Host_SetDeviceAddress(const uint8_t Address)
			{
				UHADDR  =  (Address & 0x7F);
     69c:	81 e0       	ldi	r24, 0x01	; 1
     69e:	80 93 a1 00 	sts	0x00A1, r24
			HOST_TASK_NONBLOCK_WAIT(100, HOST_STATE_Default_PostAddressSet);
			break;
		case HOST_STATE_Default_PostAddressSet:
			USB_Host_SetDeviceAddress(USB_HOST_DEVICEADDRESS);

			USB_HostState = HOST_STATE_Addressed;
     6a2:	8a e0       	ldi	r24, 0x0A	; 10
     6a4:	80 93 35 01 	sts	0x0135, r24

			EVENT_USB_Host_DeviceEnumerationComplete();
     6a8:	7d de       	rcall	.-774    	; 0x3a4 <EVENT_USB_Host_DeviceEnumerationComplete>
     6aa:	e5 c0       	rjmp	.+458    	; 0x876 <USB_Host_ProcessNextHostState+0x22e>
			break;
     6ac:	00 91 29 01 	lds	r16, 0x0129
	static uint8_t  PostWaitState;

	switch (USB_HostState)
	{
		case HOST_STATE_WaitForDevice:
			if (WaitMSRemaining)
     6b0:	10 91 2a 01 	lds	r17, 0x012A
     6b4:	01 15       	cp	r16, r1
     6b6:	11 05       	cpc	r17, r1
     6b8:	09 f4       	brne	.+2      	; 0x6bc <USB_Host_ProcessNextHostState+0x74>
     6ba:	dd c0       	rjmp	.+442    	; 0x876 <USB_Host_ProcessNextHostState+0x22e>
     6bc:	81 e0       	ldi	r24, 0x01	; 1
			{
				if ((SubErrorCode = USB_Host_WaitMS(1)) != HOST_WAITERROR_Successful)
     6be:	77 df       	rcall	.-274    	; 0x5ae <USB_Host_WaitMS>
     6c0:	88 23       	and	r24, r24
     6c2:	31 f0       	breq	.+12     	; 0x6d0 <USB_Host_ProcessNextHostState+0x88>
     6c4:	90 91 28 01 	lds	r25, 0x0128
				{
					USB_HostState = PostWaitState;
     6c8:	90 93 35 01 	sts	0x0135, r25
     6cc:	91 e0       	ldi	r25, 0x01	; 1
     6ce:	c5 c0       	rjmp	.+394    	; 0x85a <USB_Host_ProcessNextHostState+0x212>
					ErrorCode     = HOST_ENUMERROR_WaitStage;
     6d0:	01 50       	subi	r16, 0x01	; 1
					break;
     6d2:	11 09       	sbc	r17, r1
				}

				if (!(--WaitMSRemaining))
     6d4:	10 93 2a 01 	sts	0x012A, r17
     6d8:	00 93 29 01 	sts	0x0129, r16
     6dc:	01 2b       	or	r16, r17
     6de:	09 f0       	breq	.+2      	; 0x6e2 <USB_Host_ProcessNextHostState+0x9a>
     6e0:	ca c0       	rjmp	.+404    	; 0x876 <USB_Host_ProcessNextHostState+0x22e>
     6e2:	80 91 28 01 	lds	r24, 0x0128
				  USB_HostState = PostWaitState;
     6e6:	07 c0       	rjmp	.+14     	; 0x6f6 <USB_Host_ProcessNextHostState+0xae>
     6e8:	88 ee       	ldi	r24, 0xE8	; 232
     6ea:	93 e0       	ldi	r25, 0x03	; 3
			}

			break;
		case HOST_STATE_Powered:
			WaitMSRemaining = HOST_DEVICE_SETTLE_DELAY_MS;
     6ec:	90 93 2a 01 	sts	0x012A, r25
     6f0:	80 93 29 01 	sts	0x0129, r24
     6f4:	83 e0       	ldi	r24, 0x03	; 3
     6f6:	80 93 35 01 	sts	0x0135, r24

			USB_HostState = HOST_STATE_Powered_WaitForDeviceSettle;
     6fa:	bd c0       	rjmp	.+378    	; 0x876 <USB_Host_ProcessNextHostState+0x22e>
     6fc:	80 91 29 01 	lds	r24, 0x0129
			break;
		case HOST_STATE_Powered_WaitForDeviceSettle:
			if (WaitMSRemaining--)
     700:	90 91 2a 01 	lds	r25, 0x012A
     704:	9c 01       	movw	r18, r24
     706:	21 50       	subi	r18, 0x01	; 1
     708:	31 09       	sbc	r19, r1
     70a:	30 93 2a 01 	sts	0x012A, r19
     70e:	20 93 29 01 	sts	0x0129, r18
     712:	89 2b       	or	r24, r25
     714:	39 f0       	breq	.+14     	; 0x724 <USB_Host_ProcessNextHostState+0xdc>
     716:	8f ec       	ldi	r24, 0xCF	; 207
     718:	97 e0       	ldi	r25, 0x07	; 7
     71a:	01 97       	sbiw	r24, 0x01	; 1
     71c:	f1 f7       	brne	.-4      	; 0x71a <USB_Host_ProcessNextHostState+0xd2>
     71e:	00 c0       	rjmp	.+0      	; 0x720 <USB_Host_ProcessNextHostState+0xd8>
     720:	00 00       	nop
     722:	a9 c0       	rjmp	.+338    	; 0x876 <USB_Host_ProcessNextHostState+0x22e>
     724:	77 98       	cbi	0x0e, 7	; 14
     726:	80 91 d8 00 	lds	r24, 0x00D8

			#if defined(USB_SERIES_4_AVR) || defined(USB_SERIES_6_AVR) || defined(USB_SERIES_7_AVR)
			static inline void USB_OTGPAD_On(void) ATTR_ALWAYS_INLINE;
			static inline void USB_OTGPAD_On(void)
			{
				USBCON |=  (1 << OTGPADE);
     72a:	80 61       	ori	r24, 0x10	; 16
     72c:	80 93 d8 00 	sts	0x00D8, r24
     730:	80 91 dd 00 	lds	r24, 0x00DD
			}

			static inline void USB_Host_VBUS_Auto_Enable(void) ATTR_ALWAYS_INLINE;
			static inline void USB_Host_VBUS_Auto_Enable(void)
			{
				OTGCON &= ~(1 << VBUSHWC);
     734:	8b 7f       	andi	r24, 0xFB	; 251
     736:	80 93 dd 00 	sts	0x00DD, r24
     73a:	80 91 d7 00 	lds	r24, 0x00D7
				UHWCON |=  (1 << UVCONE);
     73e:	80 61       	ori	r24, 0x10	; 16
     740:	80 93 d7 00 	sts	0x00D7, r24
     744:	80 91 dd 00 	lds	r24, 0x00DD
			}

			static inline void USB_Host_VBUS_Auto_On(void) ATTR_ALWAYS_INLINE;
			static inline void USB_Host_VBUS_Auto_On(void)
			{
				OTGCON |=  (1 << VBUSREQ);
     748:	82 60       	ori	r24, 0x02	; 2
     74a:	80 93 dd 00 	sts	0x00DD, r24
     74e:	84 e0       	ldi	r24, 0x04	; 4
     750:	d2 cf       	rjmp	.-92     	; 0x6f6 <USB_Host_ProcessNextHostState+0xae>
				#if defined(NO_AUTO_VBUS_MANAGEMENT)
				USB_Host_VBUS_Manual_Enable();
				USB_Host_VBUS_Manual_On();
				#endif

				USB_HostState = HOST_STATE_Powered_WaitForConnect;
     752:	80 91 9f 00 	lds	r24, 0x009F
					#endif
					#if defined(USB_CAN_BE_HOST)
					case USB_INT_HSOFI:
						return (UHINT  & (1 << HSOFI));
					case USB_INT_DCONNI:
						return (UHINT  & (1 << DCONNI));
     756:	80 ff       	sbrs	r24, 0
     758:	8e c0       	rjmp	.+284    	; 0x876 <USB_Host_ProcessNextHostState+0x22e>
			}

			break;
		case HOST_STATE_Powered_WaitForConnect:
			if (USB_INT_HasOccurred(USB_INT_DCONNI))
     75a:	80 91 9f 00 	lds	r24, 0x009F
					#if defined(USB_CAN_BE_HOST)
					case USB_INT_HSOFI:
						UHINT  &= ~(1 << HSOFI);
						break;
					case USB_INT_DCONNI:
						UHINT  &= ~(1 << DCONNI);
     75e:	8e 7f       	andi	r24, 0xFE	; 254
     760:	80 93 9f 00 	sts	0x009F, r24
     764:	80 91 9f 00 	lds	r24, 0x009F
						break;
					case USB_INT_DDISCI:
						UHINT  &= ~(1 << DDISCI);
     768:	8d 7f       	andi	r24, 0xFD	; 253
     76a:	80 93 9f 00 	sts	0x009F, r24
     76e:	80 91 df 00 	lds	r24, 0x00DF
						break;
					case USB_INT_BCERRI:
						OTGINT &= ~(1 << BCERRI);
						break;
					case USB_INT_VBERRI:
						OTGINT &= ~(1 << VBERRI);
     772:	8d 7f       	andi	r24, 0xFD	; 253
     774:	80 93 df 00 	sts	0x00DF, r24
     778:	80 91 de 00 	lds	r24, 0x00DE
						break;
					case USB_INT_BCERRI:
						OTGIEN |= (1 << BCERRE);
						break;
					case USB_INT_VBERRI:
						OTGIEN |= (1 << VBERRE);
     77c:	82 60       	ori	r24, 0x02	; 2
     77e:	80 93 de 00 	sts	0x00DE, r24
     782:	80 91 9e 00 	lds	r24, 0x009E
			 *  host and attached device may occur.
			 */
			static inline void USB_Host_ResumeBus(void) ATTR_ALWAYS_INLINE;
			static inline void USB_Host_ResumeBus(void)
			{
				UHCON |=  (1 << SOFEN);
     786:	81 60       	ori	r24, 0x01	; 1
     788:	80 93 9e 00 	sts	0x009E, r24
     78c:	53 d1       	rcall	.+678    	; 0xa34 <Pipe_ClearPipes>
     78e:	10 92 35 01 	sts	0x0135, r1

				USB_INT_Clear(USB_INT_VBERRI);
				USB_INT_Enable(USB_INT_VBERRI);

				USB_Host_ResumeBus();
				Pipe_ClearPipes();
     792:	84 e6       	ldi	r24, 0x64	; 100

				HOST_TASK_NONBLOCK_WAIT(100, HOST_STATE_Powered_DoReset);
     794:	90 e0       	ldi	r25, 0x00	; 0
     796:	90 93 2a 01 	sts	0x012A, r25
     79a:	80 93 29 01 	sts	0x0129, r24
     79e:	85 e0       	ldi	r24, 0x05	; 5
     7a0:	0a c0       	rjmp	.+20     	; 0x7b6 <USB_Host_ProcessNextHostState+0x16e>
     7a2:	b4 de       	rcall	.-664    	; 0x50c <USB_Host_ResetDevice>
     7a4:	10 92 35 01 	sts	0x0135, r1
			}

			break;
		case HOST_STATE_Powered_DoReset:
			USB_Host_ResetDevice();
     7a8:	88 ec       	ldi	r24, 0xC8	; 200
     7aa:	90 e0       	ldi	r25, 0x00	; 0

			HOST_TASK_NONBLOCK_WAIT(200, HOST_STATE_Powered_ConfigPipe);
     7ac:	90 93 2a 01 	sts	0x012A, r25
     7b0:	80 93 29 01 	sts	0x0129, r24
     7b4:	86 e0       	ldi	r24, 0x06	; 6
     7b6:	80 93 28 01 	sts	0x0128, r24
     7ba:	5d c0       	rjmp	.+186    	; 0x876 <USB_Host_ProcessNextHostState+0x22e>
     7bc:	01 e0       	ldi	r16, 0x01	; 1
     7be:	20 e4       	ldi	r18, 0x40	; 64
     7c0:	30 e0       	ldi	r19, 0x00	; 0
			break;
     7c2:	40 e0       	ldi	r20, 0x00	; 0
		case HOST_STATE_Powered_ConfigPipe:
			if (!(Pipe_ConfigurePipe(PIPE_CONTROLPIPE, EP_TYPE_CONTROL, ENDPOINT_CONTROLEP, PIPE_CONTROLPIPE_DEFAULT_SIZE, 1)))
     7c4:	60 e0       	ldi	r22, 0x00	; 0
     7c6:	80 e0       	ldi	r24, 0x00	; 0
     7c8:	ae d0       	rcall	.+348    	; 0x926 <Pipe_ConfigurePipe>
     7ca:	81 11       	cpse	r24, r1
     7cc:	03 c0       	rjmp	.+6      	; 0x7d4 <USB_Host_ProcessNextHostState+0x18c>
     7ce:	80 e0       	ldi	r24, 0x00	; 0
     7d0:	94 e0       	ldi	r25, 0x04	; 4
     7d2:	43 c0       	rjmp	.+134    	; 0x85a <USB_Host_ProcessNextHostState+0x212>
     7d4:	87 e0       	ldi	r24, 0x07	; 7
     7d6:	8f cf       	rjmp	.-226    	; 0x6f6 <USB_Host_ProcessNextHostState+0xae>
			{
				ErrorCode    = HOST_ENUMERROR_PipeConfigError;
				SubErrorCode = 0;
     7d8:	88 e0       	ldi	r24, 0x08	; 8
			HOST_TASK_NONBLOCK_WAIT(200, HOST_STATE_Powered_ConfigPipe);
			break;
		case HOST_STATE_Powered_ConfigPipe:
			if (!(Pipe_ConfigurePipe(PIPE_CONTROLPIPE, EP_TYPE_CONTROL, ENDPOINT_CONTROLEP, PIPE_CONTROLPIPE_DEFAULT_SIZE, 1)))
			{
				ErrorCode    = HOST_ENUMERROR_PipeConfigError;
     7da:	e8 e1       	ldi	r30, 0x18	; 24
     7dc:	f1 e0       	ldi	r31, 0x01	; 1
				SubErrorCode = 0;
				break;
			}

			USB_HostState = HOST_STATE_Default;
     7de:	ad e2       	ldi	r26, 0x2D	; 45
     7e0:	b1 e0       	ldi	r27, 0x01	; 1
			break;
		case HOST_STATE_Default:
			USB_ControlRequest = (USB_Request_Header_t)
     7e2:	01 90       	ld	r0, Z+
     7e4:	0d 92       	st	X+, r0
     7e6:	8a 95       	dec	r24
     7e8:	e1 f7       	brne	.-8      	; 0x7e2 <USB_Host_ProcessNextHostState+0x19a>
     7ea:	10 92 a7 00 	sts	0x00A7, r1
     7ee:	ce 01       	movw	r24, r28
     7f0:	01 96       	adiw	r24, 0x01	; 1
     7f2:	72 d3       	rcall	.+1764   	; 0xed8 <USB_Host_SendControlRequest>
			 *  \param[in] Address  Address of the pipe to select.
			 */
			static inline void Pipe_SelectPipe(const uint8_t Address) ATTR_ALWAYS_INLINE;
			static inline void Pipe_SelectPipe(const uint8_t Address)
			{
				UPNUM = (Address & PIPE_PIPENUM_MASK);
     7f4:	81 11       	cpse	r24, r1
     7f6:	30 c0       	rjmp	.+96     	; 0x858 <USB_Host_ProcessNextHostState+0x210>
				};

			uint8_t DataBuffer[8];

			Pipe_SelectPipe(PIPE_CONTROLPIPE);
			if ((SubErrorCode = USB_Host_SendControlRequest(DataBuffer)) != HOST_SENDCONTROL_Successful)
     7f8:	88 85       	ldd	r24, Y+8	; 0x08
     7fa:	80 93 17 01 	sts	0x0117, r24
     7fe:	86 de       	rcall	.-756    	; 0x50c <USB_Host_ResetDevice>
     800:	10 92 35 01 	sts	0x0135, r1
			{
				ErrorCode = HOST_ENUMERROR_ControlError;
				break;
			}

			USB_Host_ControlPipeSize = DataBuffer[offsetof(USB_Descriptor_Device_t, Endpoint0Size)];
     804:	88 ec       	ldi	r24, 0xC8	; 200
     806:	90 e0       	ldi	r25, 0x00	; 0
     808:	90 93 2a 01 	sts	0x012A, r25

			USB_Host_ResetDevice();
     80c:	80 93 29 01 	sts	0x0129, r24

			HOST_TASK_NONBLOCK_WAIT(200, HOST_STATE_Default_PostReset);
     810:	88 e0       	ldi	r24, 0x08	; 8
     812:	d1 cf       	rjmp	.-94     	; 0x7b6 <USB_Host_ProcessNextHostState+0x16e>
     814:	20 91 17 01 	lds	r18, 0x0117
     818:	30 e0       	ldi	r19, 0x00	; 0
     81a:	01 e0       	ldi	r16, 0x01	; 1
     81c:	40 e0       	ldi	r20, 0x00	; 0
     81e:	60 e0       	ldi	r22, 0x00	; 0
     820:	80 e0       	ldi	r24, 0x00	; 0
			break;
		case HOST_STATE_Default_PostReset:
			if (!(Pipe_ConfigurePipe(PIPE_CONTROLPIPE, EP_TYPE_CONTROL, ENDPOINT_CONTROLEP, USB_Host_ControlPipeSize, 1)))
     822:	81 d0       	rcall	.+258    	; 0x926 <Pipe_ConfigurePipe>
     824:	88 23       	and	r24, r24
     826:	99 f2       	breq	.-90     	; 0x7ce <USB_Host_ProcessNextHostState+0x186>
     828:	88 e0       	ldi	r24, 0x08	; 8
     82a:	e0 e2       	ldi	r30, 0x20	; 32
     82c:	f1 e0       	ldi	r31, 0x01	; 1
     82e:	ad e2       	ldi	r26, 0x2D	; 45
     830:	b1 e0       	ldi	r27, 0x01	; 1
     832:	01 90       	ld	r0, Z+
     834:	0d 92       	st	X+, r0
     836:	8a 95       	dec	r24
				ErrorCode    = HOST_ENUMERROR_PipeConfigError;
				SubErrorCode = 0;
				break;
			}

			USB_ControlRequest = (USB_Request_Header_t)
     838:	e1 f7       	brne	.-8      	; 0x832 <USB_Host_ProcessNextHostState+0x1ea>
     83a:	80 e0       	ldi	r24, 0x00	; 0
     83c:	90 e0       	ldi	r25, 0x00	; 0
     83e:	4c d3       	rcall	.+1688   	; 0xed8 <USB_Host_SendControlRequest>
     840:	81 11       	cpse	r24, r1
     842:	0a c0       	rjmp	.+20     	; 0x858 <USB_Host_ProcessNextHostState+0x210>
     844:	10 92 35 01 	sts	0x0135, r1
     848:	84 e6       	ldi	r24, 0x64	; 100
					.wValue        = USB_HOST_DEVICEADDRESS,
					.wIndex        = 0,
					.wLength       = 0,
				};

			if ((SubErrorCode = USB_Host_SendControlRequest(NULL)) != HOST_SENDCONTROL_Successful)
     84a:	90 e0       	ldi	r25, 0x00	; 0
     84c:	90 93 2a 01 	sts	0x012A, r25
     850:	80 93 29 01 	sts	0x0129, r24
     854:	89 e0       	ldi	r24, 0x09	; 9
			{
				ErrorCode = HOST_ENUMERROR_ControlError;
				break;
			}

			HOST_TASK_NONBLOCK_WAIT(100, HOST_STATE_Default_PostAddressSet);
     856:	af cf       	rjmp	.-162    	; 0x7b6 <USB_Host_ProcessNextHostState+0x16e>
     858:	93 e0       	ldi	r25, 0x03	; 3
     85a:	20 91 35 01 	lds	r18, 0x0135
     85e:	21 30       	cpi	r18, 0x01	; 1
     860:	51 f0       	breq	.+20     	; 0x876 <USB_Host_ProcessNextHostState+0x22e>
     862:	68 2f       	mov	r22, r24
     864:	89 2f       	mov	r24, r25
     866:	0a de       	rcall	.-1004   	; 0x47c <EVENT_USB_Host_DeviceEnumerationFailed>
     868:	80 91 dd 00 	lds	r24, 0x00DD

		default:
			break;
	}

	if ((ErrorCode != HOST_ENUMERROR_NoError) && (USB_HostState != HOST_STATE_Unattached))
     86c:	81 60       	ori	r24, 0x01	; 1
     86e:	80 93 dd 00 	sts	0x00DD, r24
     872:	92 dd       	rcall	.-1244   	; 0x398 <EVENT_USB_Host_DeviceUnattached>
	{
		EVENT_USB_Host_DeviceEnumerationFailed(ErrorCode, SubErrorCode);
     874:	63 d1       	rcall	.+710    	; 0xb3c <USB_ResetInterface>
     876:	28 96       	adiw	r28, 0x08	; 8
     878:	0f b6       	in	r0, 0x3f	; 63
     87a:	f8 94       	cli
			}

			static inline void USB_Host_VBUS_Auto_Off(void) ATTR_ALWAYS_INLINE;
			static inline void USB_Host_VBUS_Auto_Off(void)
			{
				OTGCON |=  (1 << VBUSRQC);
     87c:	de bf       	out	0x3e, r29	; 62
     87e:	0f be       	out	0x3f, r0	; 63
     880:	cd bf       	out	0x3d, r28	; 61
     882:	df 91       	pop	r29
     884:	cf 91       	pop	r28

		USB_Host_VBUS_Auto_Off();

		EVENT_USB_Host_DeviceUnattached();
     886:	1f 91       	pop	r17
     888:	0f 91       	pop	r16

		USB_ResetInterface();
     88a:	08 95       	ret

0000088c <Pipe_Read_Stream_LE>:
#if defined(TEMPLATE_FUNC_NAME)

uint8_t TEMPLATE_FUNC_NAME (TEMPLATE_BUFFER_TYPE const Buffer,
                            uint16_t Length,
                            uint16_t* const BytesProcessed)
{
     88c:	cf 92       	push	r12
     88e:	df 92       	push	r13
     890:	ef 92       	push	r14
     892:	ff 92       	push	r15
     894:	0f 93       	push	r16
     896:	1f 93       	push	r17
     898:	cf 93       	push	r28
     89a:	df 93       	push	r29
     89c:	7c 01       	movw	r14, r24
     89e:	8b 01       	movw	r16, r22
     8a0:	ea 01       	movw	r28, r20
			 *  \param[in] Token  New pipe token to set the selected pipe to, as a \c PIPE_TOKEN_* mask.
			 */
			static inline void Pipe_SetPipeToken(const uint8_t Token) ATTR_ALWAYS_INLINE;
			static inline void Pipe_SetPipeToken(const uint8_t Token)
			{
				UPCFG0X = ((UPCFG0X & ~(0x03 << PTOKEN0)) | Token);
     8a2:	80 91 aa 00 	lds	r24, 0x00AA
     8a6:	8f 7c       	andi	r24, 0xCF	; 207
     8a8:	80 61       	ori	r24, 0x10	; 16
     8aa:	80 93 aa 00 	sts	0x00AA, r24
	uint16_t BytesInTransfer = 0;
	uint8_t  ErrorCode;

	Pipe_SetPipeToken(TEMPLATE_TOKEN);

	if ((ErrorCode = Pipe_WaitUntilReady()))
     8ae:	00 d1       	rcall	.+512    	; 0xab0 <Pipe_WaitUntilReady>
     8b0:	81 11       	cpse	r24, r1
     8b2:	30 c0       	rjmp	.+96     	; 0x914 <Pipe_Read_Stream_LE+0x88>
     8b4:	20 97       	sbiw	r28, 0x00	; 0
	  return ErrorCode;

	if (BytesProcessed != NULL)
     8b6:	31 f0       	breq	.+12     	; 0x8c4 <Pipe_Read_Stream_LE+0x38>
     8b8:	88 81       	ld	r24, Y
	{
		Length -= *BytesProcessed;
     8ba:	99 81       	ldd	r25, Y+1	; 0x01
     8bc:	08 1b       	sub	r16, r24
     8be:	19 0b       	sbc	r17, r25
     8c0:	e8 0e       	add	r14, r24
		TEMPLATE_BUFFER_MOVE(DataStream, *BytesProcessed);
     8c2:	f9 1e       	adc	r15, r25
     8c4:	c1 2c       	mov	r12, r1

uint8_t TEMPLATE_FUNC_NAME (TEMPLATE_BUFFER_TYPE const Buffer,
                            uint16_t Length,
                            uint16_t* const BytesProcessed)
{
	uint8_t* DataStream      = ((uint8_t*)Buffer + TEMPLATE_BUFFER_OFFSET(Length));
     8c6:	d1 2c       	mov	r13, r1
     8c8:	01 15       	cp	r16, r1
	{
		Length -= *BytesProcessed;
		TEMPLATE_BUFFER_MOVE(DataStream, *BytesProcessed);
	}

	while (Length)
     8ca:	11 05       	cpc	r17, r1
     8cc:	11 f1       	breq	.+68     	; 0x912 <Pipe_Read_Stream_LE+0x86>
     8ce:	80 91 a6 00 	lds	r24, 0x00A6
			 *          on its direction.
			 */
			static inline bool Pipe_IsReadWriteAllowed(void) ATTR_WARN_UNUSED_RESULT ATTR_ALWAYS_INLINE;
			static inline bool Pipe_IsReadWriteAllowed(void)
			{
				return ((UPINTX & (1 << RWAL)) ? true : false);
     8d2:	85 fd       	sbrc	r24, 5
	{
		if (!(Pipe_IsReadWriteAllowed()))
     8d4:	13 c0       	rjmp	.+38     	; 0x8fc <Pipe_Read_Stream_LE+0x70>
     8d6:	80 91 a6 00 	lds	r24, 0x00A6
			 *  \ingroup Group_PipePacketManagement_AVR8
			 */
			static inline void Pipe_ClearIN(void) ATTR_ALWAYS_INLINE;
			static inline void Pipe_ClearIN(void)
			{
				UPINTX &= ~((1 << RXINI) | (1 << FIFOCON));
     8da:	8e 77       	andi	r24, 0x7E	; 126
     8dc:	80 93 a6 00 	sts	0x00A6, r24
     8e0:	20 97       	sbiw	r28, 0x00	; 0
		{
			TEMPLATE_CLEAR_PIPE();

			if (BytesProcessed != NULL)
     8e2:	41 f0       	breq	.+16     	; 0x8f4 <Pipe_Read_Stream_LE+0x68>
     8e4:	88 81       	ld	r24, Y
			{
				*BytesProcessed += BytesInTransfer;
     8e6:	99 81       	ldd	r25, Y+1	; 0x01
     8e8:	8c 0d       	add	r24, r12
     8ea:	9d 1d       	adc	r25, r13
     8ec:	99 83       	std	Y+1, r25	; 0x01
     8ee:	88 83       	st	Y, r24
     8f0:	84 e0       	ldi	r24, 0x04	; 4
				return PIPE_RWSTREAM_IncompleteTransfer;
     8f2:	10 c0       	rjmp	.+32     	; 0x914 <Pipe_Read_Stream_LE+0x88>
     8f4:	dd d0       	rcall	.+442    	; 0xab0 <Pipe_WaitUntilReady>
			}

			if ((ErrorCode = Pipe_WaitUntilReady()))
     8f6:	88 23       	and	r24, r24
     8f8:	39 f3       	breq	.-50     	; 0x8c8 <Pipe_Read_Stream_LE+0x3c>
     8fa:	0c c0       	rjmp	.+24     	; 0x914 <Pipe_Read_Stream_LE+0x88>
     8fc:	80 91 af 00 	lds	r24, 0x00AF
			 *  \return Next byte in the currently selected pipe's FIFO buffer.
			 */
			static inline uint8_t Pipe_Read_8(void) ATTR_WARN_UNUSED_RESULT ATTR_ALWAYS_INLINE;
			static inline uint8_t Pipe_Read_8(void)
			{
				return UPDATX;
     900:	f7 01       	movw	r30, r14
     902:	81 93       	st	Z+, r24
			  return ErrorCode;
		}
		else
		{
			TEMPLATE_TRANSFER_BYTE(DataStream);
     904:	7f 01       	movw	r14, r30
     906:	01 50       	subi	r16, 0x01	; 1
     908:	11 09       	sbc	r17, r1
			TEMPLATE_BUFFER_MOVE(DataStream, 1);
			Length--;
     90a:	ff ef       	ldi	r31, 0xFF	; 255
     90c:	cf 1a       	sub	r12, r31
			BytesInTransfer++;
     90e:	df 0a       	sbc	r13, r31
     910:	db cf       	rjmp	.-74     	; 0x8c8 <Pipe_Read_Stream_LE+0x3c>
     912:	80 e0       	ldi	r24, 0x00	; 0
     914:	df 91       	pop	r29
		}
	}

	return PIPE_RWSTREAM_NoError;
     916:	cf 91       	pop	r28
}
     918:	1f 91       	pop	r17
     91a:	0f 91       	pop	r16
     91c:	ff 90       	pop	r15
     91e:	ef 90       	pop	r14
     920:	df 90       	pop	r13
     922:	cf 90       	pop	r12
     924:	08 95       	ret

00000926 <Pipe_ConfigurePipe>:
bool Pipe_ConfigurePipe(const uint8_t Address,
                        const uint8_t Type,
                        const uint8_t EndpointAddress,
                        const uint16_t Size,
                        const uint8_t Banks)
{
     926:	0f 93       	push	r16
	uint8_t Number = (Address & PIPE_EPNUM_MASK);
     928:	e8 2f       	mov	r30, r24
     92a:	ef 70       	andi	r30, 0x0F	; 15
	uint8_t Token  = (Address & PIPE_DIR_IN) ? PIPE_TOKEN_IN : PIPE_TOKEN_OUT;
     92c:	87 ff       	sbrs	r24, 7
     92e:	02 c0       	rjmp	.+4      	; 0x934 <Pipe_ConfigurePipe+0xe>
     930:	80 e1       	ldi	r24, 0x10	; 16
     932:	01 c0       	rjmp	.+2      	; 0x936 <Pipe_ConfigurePipe+0x10>
     934:	80 e2       	ldi	r24, 0x20	; 32

	if (Number >= PIPE_TOTAL_PIPES)
     936:	e7 30       	cpi	r30, 0x07	; 7
     938:	10 f0       	brcs	.+4      	; 0x93e <Pipe_ConfigurePipe+0x18>
	  return false;
     93a:	80 e0       	ldi	r24, 0x00	; 0
     93c:	5a c0       	rjmp	.+180    	; 0x9f2 <Pipe_ConfigurePipe+0xcc>

	if (Type == EP_TYPE_CONTROL)
     93e:	61 11       	cpse	r22, r1
     940:	01 c0       	rjmp	.+2      	; 0x944 <Pipe_ConfigurePipe+0x1e>
	  Token = PIPE_TOKEN_SETUP;
     942:	80 e0       	ldi	r24, 0x00	; 0

		Pipe_SelectPipe(PNum);

		if (PNum == Number)
		{
			UPCFG0XTemp = ((Type << EPTYPE0) | Token | ((EndpointAddress & PIPE_EPNUM_MASK) << PEPNUM0));
     944:	90 e4       	ldi	r25, 0x40	; 64
     946:	69 9f       	mul	r22, r25
     948:	b0 01       	movw	r22, r0
     94a:	11 24       	eor	r1, r1
     94c:	4f 70       	andi	r20, 0x0F	; 15
     94e:	46 2b       	or	r20, r22
     950:	48 2b       	or	r20, r24
     952:	5e 2f       	mov	r21, r30
			 *  \param[in] Address  Address of the pipe to select.
			 */
			static inline void Pipe_SelectPipe(const uint8_t Address) ATTR_ALWAYS_INLINE;
			static inline void Pipe_SelectPipe(const uint8_t Address)
			{
				UPNUM = (Address & PIPE_PIPENUM_MASK);
     954:	50 93 a7 00 	sts	0x00A7, r21
		uint8_t UPCFG2XTemp;
		uint8_t UPIENXTemp;

		Pipe_SelectPipe(PNum);

		if (PNum == Number)
     958:	5e 13       	cpse	r21, r30
     95a:	19 c0       	rjmp	.+50     	; 0x98e <Pipe_ConfigurePipe+0x68>
		{
			UPCFG0XTemp = ((Type << EPTYPE0) | Token | ((EndpointAddress & PIPE_EPNUM_MASK) << PEPNUM0));
			UPCFG1XTemp = ((1 << ALLOC) | ((Banks > 1) ? (1 << EPBK0) : 0) | Pipe_BytesToEPSizeMask(Size));
     95c:	02 30       	cpi	r16, 0x02	; 2
     95e:	10 f0       	brcs	.+4      	; 0x964 <Pipe_ConfigurePipe+0x3e>
     960:	76 e0       	ldi	r23, 0x06	; 6
     962:	01 c0       	rjmp	.+2      	; 0x966 <Pipe_ConfigurePipe+0x40>
     964:	72 e0       	ldi	r23, 0x02	; 2
		/* Inline Functions: */
			static inline uint8_t Pipe_BytesToEPSizeMask(const uint16_t Bytes) ATTR_WARN_UNUSED_RESULT ATTR_CONST ATTR_ALWAYS_INLINE;
			static inline uint8_t Pipe_BytesToEPSizeMask(const uint16_t Bytes)
			{
				uint8_t  MaskVal    = 0;
				uint16_t CheckBytes = 8;
     966:	88 e0       	ldi	r24, 0x08	; 8
     968:	90 e0       	ldi	r25, 0x00	; 0

		/* Inline Functions: */
			static inline uint8_t Pipe_BytesToEPSizeMask(const uint16_t Bytes) ATTR_WARN_UNUSED_RESULT ATTR_CONST ATTR_ALWAYS_INLINE;
			static inline uint8_t Pipe_BytesToEPSizeMask(const uint16_t Bytes)
			{
				uint8_t  MaskVal    = 0;
     96a:	60 e0       	ldi	r22, 0x00	; 0
				uint16_t CheckBytes = 8;

				while ((CheckBytes < Bytes) && (CheckBytes < PIPE_MAX_SIZE))
     96c:	82 17       	cp	r24, r18
     96e:	93 07       	cpc	r25, r19
     970:	40 f0       	brcs	.+16     	; 0x982 <Pipe_ConfigurePipe+0x5c>
				{
					MaskVal++;
					CheckBytes <<= 1;
				}

				return (MaskVal << EPSIZE0);
     972:	86 2f       	mov	r24, r22
     974:	82 95       	swap	r24
     976:	80 7f       	andi	r24, 0xF0	; 240
     978:	87 2b       	or	r24, r23

		Pipe_SelectPipe(PNum);

		if (PNum == Number)
		{
			UPCFG0XTemp = ((Type << EPTYPE0) | Token | ((EndpointAddress & PIPE_EPNUM_MASK) << PEPNUM0));
     97a:	f4 2f       	mov	r31, r20
			UPCFG1XTemp = ((1 << ALLOC) | ((Banks > 1) ? (1 << EPBK0) : 0) | Pipe_BytesToEPSizeMask(Size));
			UPCFG2XTemp = 0;
			UPIENXTemp  = 0;
     97c:	60 e0       	ldi	r22, 0x00	; 0

		if (PNum == Number)
		{
			UPCFG0XTemp = ((Type << EPTYPE0) | Token | ((EndpointAddress & PIPE_EPNUM_MASK) << PEPNUM0));
			UPCFG1XTemp = ((1 << ALLOC) | ((Banks > 1) ? (1 << EPBK0) : 0) | Pipe_BytesToEPSizeMask(Size));
			UPCFG2XTemp = 0;
     97e:	70 e0       	ldi	r23, 0x00	; 0
     980:	0e c0       	rjmp	.+28     	; 0x99e <Pipe_ConfigurePipe+0x78>
			static inline uint8_t Pipe_BytesToEPSizeMask(const uint16_t Bytes)
			{
				uint8_t  MaskVal    = 0;
				uint16_t CheckBytes = 8;

				while ((CheckBytes < Bytes) && (CheckBytes < PIPE_MAX_SIZE))
     982:	65 30       	cpi	r22, 0x05	; 5
     984:	b1 f3       	breq	.-20     	; 0x972 <Pipe_ConfigurePipe+0x4c>
				{
					MaskVal++;
     986:	6f 5f       	subi	r22, 0xFF	; 255
					CheckBytes <<= 1;
     988:	88 0f       	add	r24, r24
     98a:	99 1f       	adc	r25, r25
     98c:	ef cf       	rjmp	.-34     	; 0x96c <Pipe_ConfigurePipe+0x46>
			UPIENXTemp  = 0;
		}
		else
		{
			UPCFG0XTemp = UPCFG0X;
     98e:	f0 91 aa 00 	lds	r31, 0x00AA
			UPCFG1XTemp = UPCFG1X;
     992:	80 91 ab 00 	lds	r24, 0x00AB
			UPCFG2XTemp = UPCFG2X;
     996:	70 91 ad 00 	lds	r23, 0x00AD
			UPIENXTemp  = UPIENX;
     99a:	60 91 ae 00 	lds	r22, 0x00AE
		}

		if (!(UPCFG1XTemp & (1 << ALLOC)))
     99e:	81 fd       	sbrc	r24, 1
     9a0:	07 c0       	rjmp	.+14     	; 0x9b0 <Pipe_ConfigurePipe+0x8a>

	Pipe_SetInfiniteINRequests();

	return Pipe_IsConfigured();
#else
	for (uint8_t PNum = Number; PNum < PIPE_TOTAL_PIPES; PNum++)
     9a2:	5f 5f       	subi	r21, 0xFF	; 255
     9a4:	57 30       	cpi	r21, 0x07	; 7
     9a6:	b1 f6       	brne	.-84     	; 0x954 <Pipe_ConfigurePipe+0x2e>
			 *  \param[in] Address  Address of the pipe to select.
			 */
			static inline void Pipe_SelectPipe(const uint8_t Address) ATTR_ALWAYS_INLINE;
			static inline void Pipe_SelectPipe(const uint8_t Address)
			{
				UPNUM = (Address & PIPE_PIPENUM_MASK);
     9a8:	e0 93 a7 00 	sts	0x00A7, r30
		if (!(Pipe_IsConfigured()))
		  return false;
	}

	Pipe_SelectPipe(Number);
	return true;
     9ac:	81 e0       	ldi	r24, 0x01	; 1
     9ae:	21 c0       	rjmp	.+66     	; 0x9f2 <Pipe_ConfigurePipe+0xcc>
			 *  from an attached device.
			 */
			static inline void Pipe_DisablePipe(void) ATTR_ALWAYS_INLINE;
			static inline void Pipe_DisablePipe(void)
			{
				UPCONX &= ~(1 << PEN);
     9b0:	90 91 a9 00 	lds	r25, 0x00A9
     9b4:	9e 7f       	andi	r25, 0xFE	; 254
     9b6:	90 93 a9 00 	sts	0x00A9, r25

		if (!(UPCFG1XTemp & (1 << ALLOC)))
		  continue;

		Pipe_DisablePipe();
		UPCFG1X &= ~(1 << ALLOC);
     9ba:	90 91 ab 00 	lds	r25, 0x00AB
     9be:	9d 7f       	andi	r25, 0xFD	; 253
     9c0:	90 93 ab 00 	sts	0x00AB, r25
			 *  \pre The currently selected pipe must first be configured properly via \ref Pipe_ConfigurePipe().
			 */
			static inline void Pipe_EnablePipe(void) ATTR_ALWAYS_INLINE;
			static inline void Pipe_EnablePipe(void)
			{
				UPCONX |= (1 << PEN);
     9c4:	90 91 a9 00 	lds	r25, 0x00A9
     9c8:	91 60       	ori	r25, 0x01	; 1
     9ca:	90 93 a9 00 	sts	0x00A9, r25

		Pipe_EnablePipe();
		UPCFG0X = UPCFG0XTemp;
     9ce:	f0 93 aa 00 	sts	0x00AA, r31
		UPCFG1X = UPCFG1XTemp;
     9d2:	80 93 ab 00 	sts	0x00AB, r24
		UPCFG2X = UPCFG2XTemp;
     9d6:	70 93 ad 00 	sts	0x00AD, r23
		UPIENX  = UPIENXTemp;
     9da:	60 93 ae 00 	sts	0x00AE, r22

			/** Configures the currently selected pipe to allow for an unlimited number of IN requests. */
			static inline void Pipe_SetInfiniteINRequests(void) ATTR_ALWAYS_INLINE;
			static inline void Pipe_SetInfiniteINRequests(void)
			{
				UPCONX |= (1 << INMODE);
     9de:	80 91 a9 00 	lds	r24, 0x00A9
     9e2:	80 62       	ori	r24, 0x20	; 32
     9e4:	80 93 a9 00 	sts	0x00A9, r24
			 *  \return Boolean \c true if the selected pipe is configured, \c false otherwise.
			 */
			static inline bool Pipe_IsConfigured(void) ATTR_WARN_UNUSED_RESULT ATTR_ALWAYS_INLINE;
			static inline bool Pipe_IsConfigured(void)
			{
				return ((UPSTAX & (1 << CFGOK)) ? true : false);
     9e8:	80 91 ac 00 	lds	r24, 0x00AC

		Pipe_SetInfiniteINRequests();

		if (!(Pipe_IsConfigured()))
     9ec:	87 fd       	sbrc	r24, 7
     9ee:	d9 cf       	rjmp	.-78     	; 0x9a2 <Pipe_ConfigurePipe+0x7c>
     9f0:	a4 cf       	rjmp	.-184    	; 0x93a <Pipe_ConfigurePipe+0x14>
	}

	Pipe_SelectPipe(Number);
	return true;
#endif
}
     9f2:	0f 91       	pop	r16
     9f4:	08 95       	ret

000009f6 <Pipe_ConfigurePipeTable>:

uint8_t USB_Host_ControlPipeSize = PIPE_CONTROLPIPE_DEFAULT_SIZE;

bool Pipe_ConfigurePipeTable(const USB_Pipe_Table_t* const Table,
                             const uint8_t Entries)
{
     9f6:	ff 92       	push	r15
     9f8:	0f 93       	push	r16
     9fa:	1f 93       	push	r17
     9fc:	cf 93       	push	r28
     9fe:	df 93       	push	r29
     a00:	f6 2e       	mov	r15, r22
     a02:	ec 01       	movw	r28, r24
	for (uint8_t i = 0; i < Entries; i++)
     a04:	10 e0       	ldi	r17, 0x00	; 0
     a06:	1f 15       	cp	r17, r15
     a08:	71 f0       	breq	.+28     	; 0xa26 <Pipe_ConfigurePipeTable+0x30>
	{
		if (!(Table[i].Address))
     a0a:	88 81       	ld	r24, Y
     a0c:	88 23       	and	r24, r24
     a0e:	41 f0       	breq	.+16     	; 0xa20 <Pipe_ConfigurePipeTable+0x2a>
		  continue;

		if (!(Pipe_ConfigurePipe(Table[i].Address, Table[i].Type, Table[i].EndpointAddress, Table[i].Size, Table[i].Banks)))
     a10:	29 81       	ldd	r18, Y+1	; 0x01
     a12:	3a 81       	ldd	r19, Y+2	; 0x02
     a14:	0d 81       	ldd	r16, Y+5	; 0x05
     a16:	4b 81       	ldd	r20, Y+3	; 0x03
     a18:	6c 81       	ldd	r22, Y+4	; 0x04
     a1a:	85 df       	rcall	.-246    	; 0x926 <Pipe_ConfigurePipe>
     a1c:	88 23       	and	r24, r24
     a1e:	21 f0       	breq	.+8      	; 0xa28 <Pipe_ConfigurePipeTable+0x32>
     a20:	1f 5f       	subi	r17, 0xFF	; 255
uint8_t USB_Host_ControlPipeSize = PIPE_CONTROLPIPE_DEFAULT_SIZE;

bool Pipe_ConfigurePipeTable(const USB_Pipe_Table_t* const Table,
                             const uint8_t Entries)
{
	for (uint8_t i = 0; i < Entries; i++)
     a22:	26 96       	adiw	r28, 0x06	; 6
     a24:	f0 cf       	rjmp	.-32     	; 0xa06 <Pipe_ConfigurePipeTable+0x10>
     a26:	81 e0       	ldi	r24, 0x01	; 1
		{
			return false;
		}
	}

	return true;
     a28:	df 91       	pop	r29
}
     a2a:	cf 91       	pop	r28
     a2c:	1f 91       	pop	r17
     a2e:	0f 91       	pop	r16
     a30:	ff 90       	pop	r15
     a32:	08 95       	ret

00000a34 <Pipe_ClearPipes>:
     a34:	10 92 f8 00 	sts	0x00F8, r1

void Pipe_ClearPipes(void)
{
	UPINT = 0;

	for (uint8_t PNum = 0; PNum < PIPE_TOTAL_PIPES; PNum++)
     a38:	80 e0       	ldi	r24, 0x00	; 0
			 *  \param[in] Address  Address of the pipe to select.
			 */
			static inline void Pipe_SelectPipe(const uint8_t Address) ATTR_ALWAYS_INLINE;
			static inline void Pipe_SelectPipe(const uint8_t Address)
			{
				UPNUM = (Address & PIPE_PIPENUM_MASK);
     a3a:	80 93 a7 00 	sts	0x00A7, r24
	{
		Pipe_SelectPipe(PNum);
		UPIENX  = 0;
     a3e:	10 92 ae 00 	sts	0x00AE, r1
		UPINTX  = 0;
     a42:	10 92 a6 00 	sts	0x00A6, r1
		UPCFG1X = 0;
     a46:	10 92 ab 00 	sts	0x00AB, r1
			 *  from an attached device.
			 */
			static inline void Pipe_DisablePipe(void) ATTR_ALWAYS_INLINE;
			static inline void Pipe_DisablePipe(void)
			{
				UPCONX &= ~(1 << PEN);
     a4a:	90 91 a9 00 	lds	r25, 0x00A9
     a4e:	9e 7f       	andi	r25, 0xFE	; 254
     a50:	90 93 a9 00 	sts	0x00A9, r25

void Pipe_ClearPipes(void)
{
	UPINT = 0;

	for (uint8_t PNum = 0; PNum < PIPE_TOTAL_PIPES; PNum++)
     a54:	8f 5f       	subi	r24, 0xFF	; 255
     a56:	87 30       	cpi	r24, 0x07	; 7
     a58:	81 f7       	brne	.-32     	; 0xa3a <Pipe_ClearPipes+0x6>
		UPIENX  = 0;
		UPINTX  = 0;
		UPCFG1X = 0;
		Pipe_DisablePipe();
	}
}
     a5a:	08 95       	ret

00000a5c <Pipe_IsEndpointBound>:
			 *  \return Index of the currently selected pipe.
			 */
			static inline uint8_t Pipe_GetCurrentPipe(void) ATTR_WARN_UNUSED_RESULT ATTR_ALWAYS_INLINE;
			static inline uint8_t Pipe_GetCurrentPipe(void)
			{
				return ((UPNUM & PIPE_PIPENUM_MASK) | Pipe_GetPipeDirection());
     a5c:	90 91 a7 00 	lds	r25, 0x00A7
     a60:	9f 70       	andi	r25, 0x0F	; 15
			 *  \return The currently selected pipe's direction, as a \c PIPE_DIR_* mask.
			 */
			static inline uint8_t Pipe_GetPipeDirection(void) ATTR_WARN_UNUSED_RESULT ATTR_ALWAYS_INLINE;
			static inline uint8_t Pipe_GetPipeDirection(void)
			{
				return (UPCFG0X & (1 << EPDIR)) ? PIPE_DIR_IN : PIPE_DIR_OUT;
     a62:	20 91 aa 00 	lds	r18, 0x00AA
     a66:	20 ff       	sbrs	r18, 0
     a68:	02 c0       	rjmp	.+4      	; 0xa6e <Pipe_IsEndpointBound+0x12>
     a6a:	20 e8       	ldi	r18, 0x80	; 128
     a6c:	01 c0       	rjmp	.+2      	; 0xa70 <Pipe_IsEndpointBound+0x14>
     a6e:	20 e0       	ldi	r18, 0x00	; 0
			 *  \return Index of the currently selected pipe.
			 */
			static inline uint8_t Pipe_GetCurrentPipe(void) ATTR_WARN_UNUSED_RESULT ATTR_ALWAYS_INLINE;
			static inline uint8_t Pipe_GetCurrentPipe(void)
			{
				return ((UPNUM & PIPE_PIPENUM_MASK) | Pipe_GetPipeDirection());
     a70:	42 2f       	mov	r20, r18
     a72:	49 2b       	or	r20, r25

bool Pipe_IsEndpointBound(const uint8_t EndpointAddress)
{
	uint8_t PrevPipeNumber = Pipe_GetCurrentPipe();

	for (uint8_t PNum = 0; PNum < PIPE_TOTAL_PIPES; PNum++)
     a74:	90 e0       	ldi	r25, 0x00	; 0
			 *  \param[in] Address  Address of the pipe to select.
			 */
			static inline void Pipe_SelectPipe(const uint8_t Address) ATTR_ALWAYS_INLINE;
			static inline void Pipe_SelectPipe(const uint8_t Address)
			{
				UPNUM = (Address & PIPE_PIPENUM_MASK);
     a76:	90 93 a7 00 	sts	0x00A7, r25
			 *  \return Boolean \c true if the selected pipe is configured, \c false otherwise.
			 */
			static inline bool Pipe_IsConfigured(void) ATTR_WARN_UNUSED_RESULT ATTR_ALWAYS_INLINE;
			static inline bool Pipe_IsConfigured(void)
			{
				return ((UPSTAX & (1 << CFGOK)) ? true : false);
     a7a:	20 91 ac 00 	lds	r18, 0x00AC
	{
		Pipe_SelectPipe(PNum);

		if (!(Pipe_IsConfigured()))
     a7e:	27 ff       	sbrs	r18, 7
     a80:	0c c0       	rjmp	.+24     	; 0xa9a <Pipe_IsEndpointBound+0x3e>
			 *  \return Endpoint address the currently selected pipe is bound to.
			 */
			static inline uint8_t Pipe_GetBoundEndpointAddress(void) ATTR_WARN_UNUSED_RESULT ATTR_ALWAYS_INLINE;
			static inline uint8_t Pipe_GetBoundEndpointAddress(void)
			{
				uint8_t UPCFG0X_Temp = UPCFG0X;
     a82:	30 91 aa 00 	lds	r19, 0x00AA

				return (((UPCFG0X_Temp >> PEPNUM0) & PIPE_EPNUM_MASK) |
     a86:	53 2f       	mov	r21, r19
     a88:	5f 70       	andi	r21, 0x0F	; 15
     a8a:	35 ff       	sbrs	r19, 5
     a8c:	02 c0       	rjmp	.+4      	; 0xa92 <Pipe_IsEndpointBound+0x36>
     a8e:	20 e8       	ldi	r18, 0x80	; 128
     a90:	01 c0       	rjmp	.+2      	; 0xa94 <Pipe_IsEndpointBound+0x38>
     a92:	20 e0       	ldi	r18, 0x00	; 0
     a94:	25 2b       	or	r18, r21
		  continue;

		if (Pipe_GetBoundEndpointAddress() == EndpointAddress)
     a96:	28 17       	cp	r18, r24
     a98:	49 f0       	breq	.+18     	; 0xaac <Pipe_IsEndpointBound+0x50>

bool Pipe_IsEndpointBound(const uint8_t EndpointAddress)
{
	uint8_t PrevPipeNumber = Pipe_GetCurrentPipe();

	for (uint8_t PNum = 0; PNum < PIPE_TOTAL_PIPES; PNum++)
     a9a:	9f 5f       	subi	r25, 0xFF	; 255
     a9c:	97 30       	cpi	r25, 0x07	; 7
     a9e:	59 f7       	brne	.-42     	; 0xa76 <Pipe_IsEndpointBound+0x1a>
			 *  \param[in] Address  Address of the pipe to select.
			 */
			static inline void Pipe_SelectPipe(const uint8_t Address) ATTR_ALWAYS_INLINE;
			static inline void Pipe_SelectPipe(const uint8_t Address)
			{
				UPNUM = (Address & PIPE_PIPENUM_MASK);
     aa0:	94 2f       	mov	r25, r20
     aa2:	9f 70       	andi	r25, 0x0F	; 15
     aa4:	90 93 a7 00 	sts	0x00A7, r25
		if (Pipe_GetBoundEndpointAddress() == EndpointAddress)
		  return true;
	}

	Pipe_SelectPipe(PrevPipeNumber);
	return false;
     aa8:	80 e0       	ldi	r24, 0x00	; 0
     aaa:	08 95       	ret

		if (!(Pipe_IsConfigured()))
		  continue;

		if (Pipe_GetBoundEndpointAddress() == EndpointAddress)
		  return true;
     aac:	81 e0       	ldi	r24, 0x01	; 1
	}

	Pipe_SelectPipe(PrevPipeNumber);
	return false;
}
     aae:	08 95       	ret

00000ab0 <Pipe_WaitUntilReady>:
			 *  \return Current USB frame number from the USB controller.
			 */
			static inline uint16_t USB_Host_GetFrameNumber(void) ATTR_WARN_UNUSED_RESULT ATTR_ALWAYS_INLINE;
			static inline uint16_t USB_Host_GetFrameNumber(void)
			{
				return UHFNUM;
     ab0:	80 91 a2 00 	lds	r24, 0x00A2
     ab4:	90 91 a3 00 	lds	r25, 0x00A3
     ab8:	45 e6       	ldi	r20, 0x65	; 101
			 *  \return The current pipe token, as a \c PIPE_TOKEN_* mask.
			 */
			static inline uint8_t Pipe_GetPipeToken(void) ATTR_WARN_UNUSED_RESULT ATTR_ALWAYS_INLINE;
			static inline uint8_t Pipe_GetPipeToken(void)
			{
				return (UPCFG0X & (0x03 << PTOKEN0));
     aba:	20 91 aa 00 	lds	r18, 0x00AA
     abe:	20 73       	andi	r18, 0x30	; 48

	uint16_t PreviousFrameNumber = USB_Host_GetFrameNumber();

	for (;;)
	{
		if (Pipe_GetPipeToken() == PIPE_TOKEN_IN)
     ac0:	20 31       	cpi	r18, 0x10	; 16
     ac2:	29 f4       	brne	.+10     	; 0xace <Pipe_WaitUntilReady+0x1e>
			 *  \return Boolean \c true if the current pipe has received an IN packet, \c false otherwise.
			 */
			static inline bool Pipe_IsINReceived(void) ATTR_WARN_UNUSED_RESULT ATTR_ALWAYS_INLINE;
			static inline bool Pipe_IsINReceived(void)
			{
				return ((UPINTX & (1 << RXINI)) ? true : false);
     ac4:	20 91 a6 00 	lds	r18, 0x00A6
		{
			if (Pipe_IsINReceived())
     ac8:	20 ff       	sbrs	r18, 0
     aca:	05 c0       	rjmp	.+10     	; 0xad6 <Pipe_WaitUntilReady+0x26>
     acc:	17 c0       	rjmp	.+46     	; 0xafc <Pipe_WaitUntilReady+0x4c>
			 *  \return Boolean \c true if the current pipe is ready for an OUT packet, \c false otherwise.
			 */
			static inline bool Pipe_IsOUTReady(void) ATTR_WARN_UNUSED_RESULT ATTR_ALWAYS_INLINE;
			static inline bool Pipe_IsOUTReady(void)
			{
				return ((UPINTX & (1 << TXOUTI)) ? true : false);
     ace:	20 91 a6 00 	lds	r18, 0x00A6
			  return PIPE_READYWAIT_NoError;
		}
		else
		{
			if (Pipe_IsOUTReady())
     ad2:	22 fd       	sbrc	r18, 2
     ad4:	13 c0       	rjmp	.+38     	; 0xafc <Pipe_WaitUntilReady+0x4c>
			 *  \return Boolean \c true if the current pipe has been stalled by the attached device, \c false otherwise.
			 */
			static inline bool Pipe_IsStalled(void) ATTR_WARN_UNUSED_RESULT ATTR_ALWAYS_INLINE;
			static inline bool Pipe_IsStalled(void)
			{
				return ((UPINTX & (1 << RXSTALLI)) ? true : false);
     ad6:	20 91 a6 00 	lds	r18, 0x00A6
			  return PIPE_READYWAIT_NoError;
		}

		if (Pipe_IsStalled())
     ada:	21 fd       	sbrc	r18, 1
     adc:	11 c0       	rjmp	.+34     	; 0xb00 <Pipe_WaitUntilReady+0x50>
		  return PIPE_READYWAIT_PipeStalled;
		else if (USB_HostState == HOST_STATE_Unattached)
     ade:	20 91 35 01 	lds	r18, 0x0135
     ae2:	21 30       	cpi	r18, 0x01	; 1
     ae4:	79 f0       	breq	.+30     	; 0xb04 <Pipe_WaitUntilReady+0x54>
     ae6:	20 91 a2 00 	lds	r18, 0x00A2
     aea:	30 91 a3 00 	lds	r19, 0x00A3
		  return PIPE_READYWAIT_DeviceDisconnected;

		uint16_t CurrentFrameNumber = USB_Host_GetFrameNumber();

		if (CurrentFrameNumber != PreviousFrameNumber)
     aee:	28 17       	cp	r18, r24
     af0:	39 07       	cpc	r19, r25
     af2:	19 f3       	breq	.-58     	; 0xaba <Pipe_WaitUntilReady+0xa>
     af4:	41 50       	subi	r20, 0x01	; 1
		{
			PreviousFrameNumber = CurrentFrameNumber;

			if (!(TimeoutMSRem--))
     af6:	41 f0       	breq	.+16     	; 0xb08 <Pipe_WaitUntilReady+0x58>
     af8:	c9 01       	movw	r24, r18
     afa:	df cf       	rjmp	.-66     	; 0xaba <Pipe_WaitUntilReady+0xa>
	for (;;)
	{
		if (Pipe_GetPipeToken() == PIPE_TOKEN_IN)
		{
			if (Pipe_IsINReceived())
			  return PIPE_READYWAIT_NoError;
     afc:	80 e0       	ldi	r24, 0x00	; 0
     afe:	08 95       	ret
			if (Pipe_IsOUTReady())
			  return PIPE_READYWAIT_NoError;
		}

		if (Pipe_IsStalled())
		  return PIPE_READYWAIT_PipeStalled;
     b00:	81 e0       	ldi	r24, 0x01	; 1
     b02:	08 95       	ret
		else if (USB_HostState == HOST_STATE_Unattached)
		  return PIPE_READYWAIT_DeviceDisconnected;
     b04:	82 e0       	ldi	r24, 0x02	; 2
     b06:	08 95       	ret
		if (CurrentFrameNumber != PreviousFrameNumber)
		{
			PreviousFrameNumber = CurrentFrameNumber;

			if (!(TimeoutMSRem--))
			  return PIPE_READYWAIT_Timeout;
     b08:	83 e0       	ldi	r24, 0x03	; 3
		}
	}
}
     b0a:	08 95       	ret

00000b0c <USB_Disable>:
	USB_ResetInterface();
}

void USB_Disable(void)
{
	USB_INT_DisableAllInterrupts();
     b0c:	75 d0       	rcall	.+234    	; 0xbf8 <USB_INT_DisableAllInterrupts>
     b0e:	7c d0       	rcall	.+248    	; 0xc08 <USB_INT_ClearAllInterrupts>
	USB_INT_ClearAllInterrupts();
     b10:	e0 ee       	ldi	r30, 0xE0	; 224
     b12:	f0 e0       	ldi	r31, 0x00	; 0
			 *  enumerating the device once attached until \ref USB_Attach() is called.
			 */
			static inline void USB_Detach(void) ATTR_ALWAYS_INLINE;
			static inline void USB_Detach(void)
			{
				UDCON  |=  (1 << DETACH);
     b14:	80 81       	ld	r24, Z
     b16:	81 60       	ori	r24, 0x01	; 1
     b18:	80 83       	st	Z, r24
     b1a:	e8 ed       	ldi	r30, 0xD8	; 216
     b1c:	f0 e0       	ldi	r31, 0x00	; 0
			}

			static inline void USB_Controller_Disable(void) ATTR_ALWAYS_INLINE;
			static inline void USB_Controller_Disable(void)
			{
				USBCON &= ~(1 << USBE);
     b1e:	80 81       	ld	r24, Z
     b20:	8f 77       	andi	r24, 0x7F	; 127
     b22:	80 83       	st	Z, r24
     b24:	19 bc       	out	0x29, r1	; 41
     b26:	a7 ed       	ldi	r26, 0xD7	; 215
			}

			static inline void USB_PLL_Off(void) ATTR_ALWAYS_INLINE;
			static inline void USB_PLL_Off(void)
			{
				PLLCSR = 0;
     b28:	b0 e0       	ldi	r27, 0x00	; 0

			static inline void USB_REG_Off(void) ATTR_ALWAYS_INLINE;
			static inline void USB_REG_Off(void)
			{
			#if defined(USB_SERIES_4_AVR) || defined(USB_SERIES_6_AVR) || defined(USB_SERIES_7_AVR)
				UHWCON &= ~(1 << UVREGE);
     b2a:	8c 91       	ld	r24, X
     b2c:	8e 7f       	andi	r24, 0xFE	; 254
     b2e:	8c 93       	st	X, r24
     b30:	80 81       	ld	r24, Z
     b32:	8f 7e       	andi	r24, 0xEF	; 239
			}

			static inline void USB_OTGPAD_Off(void) ATTR_ALWAYS_INLINE;
			static inline void USB_OTGPAD_Off(void)
			{
				USBCON &= ~(1 << OTGPADE);
     b34:	80 83       	st	Z, r24
     b36:	10 92 2c 01 	sts	0x012C, r1

	#if defined(USB_CAN_BE_BOTH)
	USB_CurrentMode = USB_MODE_None;
	#endif

	USB_IsInitialized = false;
     b3a:	08 95       	ret

00000b3c <USB_ResetInterface>:
     b3c:	5d d0       	rcall	.+186    	; 0xbf8 <USB_INT_DisableAllInterrupts>
     b3e:	64 d0       	rcall	.+200    	; 0xc08 <USB_INT_ClearAllInterrupts>
	#if defined(USB_CAN_BE_BOTH)
	bool UIDModeSelectEnabled = ((UHWCON & (1 << UIDE)) != 0);
	#endif

	USB_INT_DisableAllInterrupts();
	USB_INT_ClearAllInterrupts();
     b40:	80 91 d8 00 	lds	r24, 0x00D8
			}

			static inline void USB_Controller_Reset(void) ATTR_ALWAYS_INLINE;
			static inline void USB_Controller_Reset(void)
			{
				USBCON &= ~(1 << USBE);
     b44:	8f 77       	andi	r24, 0x7F	; 127
     b46:	80 93 d8 00 	sts	0x00D8, r24
     b4a:	80 91 d8 00 	lds	r24, 0x00D8
				USBCON |=  (1 << USBE);
     b4e:	80 68       	ori	r24, 0x80	; 128
     b50:	80 93 d8 00 	sts	0x00D8, r24
     b54:	80 91 d8 00 	lds	r24, 0x00D8
			}

			static inline void USB_CLK_Unfreeze(void) ATTR_ALWAYS_INLINE;
			static inline void USB_CLK_Unfreeze(void)
			{
				USBCON &= ~(1 << FRZCLK);
     b58:	8f 7d       	andi	r24, 0xDF	; 223
     b5a:	80 93 d8 00 	sts	0x00D8, r24
     b5e:	80 91 d7 00 	lds	r24, 0x00D7
		#endif
	}
	else if (USB_CurrentMode == USB_MODE_Host)
	{
		#if defined(USB_CAN_BE_HOST)
		UHWCON &= ~(1 << UIMOD);
     b62:	8f 77       	andi	r24, 0x7F	; 127
     b64:	80 93 d7 00 	sts	0x00D7, r24
     b68:	8c e0       	ldi	r24, 0x0C	; 12
     b6a:	89 bd       	out	0x29, r24	; 41

		/* Inline Functions: */
			static inline void USB_PLL_On(void) ATTR_ALWAYS_INLINE;
			static inline void USB_PLL_On(void)
			{
				PLLCSR = USB_PLL_PSC;
     b6c:	8e e0       	ldi	r24, 0x0E	; 14
     b6e:	89 bd       	out	0x29, r24	; 41
				PLLCSR = (USB_PLL_PSC | (1 << PLLE));
     b70:	09 b4       	in	r0, 0x29	; 41
     b72:	00 fe       	sbrs	r0, 0

		if (!(USB_Options & USB_OPT_MANUAL_PLL))
		{
			#if defined(USB_CAN_BE_HOST)
			USB_PLL_On();
			while (!(USB_PLL_IsReady()));
     b74:	fd cf       	rjmp	.-6      	; 0xb70 <USB_ResetInterface+0x34>
     b76:	81 e0       	ldi	r24, 0x01	; 1
     b78:	80 93 35 01 	sts	0x0135, r24
#endif

#if defined(USB_CAN_BE_HOST)
static void USB_Init_Host(void)
{
	USB_HostState                = HOST_STATE_Unattached;
     b7c:	10 92 2b 01 	sts	0x012B, r1
	USB_Host_ConfigurationNumber = 0;
     b80:	80 e4       	ldi	r24, 0x40	; 64
     b82:	80 93 17 01 	sts	0x0117, r24
	USB_Host_ControlPipeSize     = PIPE_CONTROLPIPE_DEFAULT_SIZE;
     b86:	80 91 d8 00 	lds	r24, 0x00D8
	#if !defined(__DOXYGEN__)
		/* Macros: */
			static inline void USB_Host_HostMode_On(void) ATTR_ALWAYS_INLINE;
			static inline void USB_Host_HostMode_On(void)
			{
				USBCON |=  (1 << HOST);
     b8a:	80 64       	ori	r24, 0x40	; 64
     b8c:	80 93 d8 00 	sts	0x00D8, r24
     b90:	80 91 dd 00 	lds	r24, 0x00DD
			}

			static inline void USB_Host_VBUS_Auto_Off(void) ATTR_ALWAYS_INLINE;
			static inline void USB_Host_VBUS_Auto_Off(void)
			{
				OTGCON |=  (1 << VBUSRQC);
     b94:	81 60       	ori	r24, 0x01	; 1
     b96:	80 93 dd 00 	sts	0x00DD, r24
     b9a:	80 91 dd 00 	lds	r24, 0x00DD
			}

			static inline void USB_Host_VBUS_Manual_Enable(void) ATTR_ALWAYS_INLINE;
			static inline void USB_Host_VBUS_Manual_Enable(void)
			{
				OTGCON |=  (1 << VBUSHWC);
     b9e:	84 60       	ori	r24, 0x04	; 4
     ba0:	80 93 dd 00 	sts	0x00DD, r24
     ba4:	80 91 d7 00 	lds	r24, 0x00D7
				UHWCON &= ~(1 << UVCONE);
     ba8:	8f 7e       	andi	r24, 0xEF	; 239
     baa:	80 93 d7 00 	sts	0x00D7, r24
     bae:	6f 9a       	sbi	0x0d, 7	; 13
     bb0:	77 9a       	sbi	0x0e, 7	; 14

				DDRE   |=  (1 << 7);
     bb2:	80 91 de 00 	lds	r24, 0x00DE
						break;
					case USB_INT_VBERRI:
						OTGIEN |= (1 << VBERRE);
						break;
					case USB_INT_SRPI:
						OTGIEN |= (1 << SRPE);
     bb6:	81 60       	ori	r24, 0x01	; 1
     bb8:	80 93 de 00 	sts	0x00DE, r24
     bbc:	80 91 de 00 	lds	r24, 0x00DE
						break;
					case USB_INT_RSTI:
						UHIEN  |= (1 << RSTE);
						break;
					case USB_INT_BCERRI:
						OTGIEN |= (1 << BCERRE);
     bc0:	84 60       	ori	r24, 0x04	; 4
     bc2:	80 93 de 00 	sts	0x00DE, r24
     bc6:	80 91 e0 00 	lds	r24, 0x00E0
			 *  register and despite the datasheet making no mention of its requirement in host mode.
			 */
			static inline void USB_Attach(void) ATTR_ALWAYS_INLINE;
			static inline void USB_Attach(void)
			{
				UDCON  &= ~(1 << DETACH);
     bca:	8e 7f       	andi	r24, 0xFE	; 254
     bcc:	80 93 e0 00 	sts	0x00E0, r24
     bd0:	80 91 d8 00 	lds	r24, 0x00D8

			#if defined(USB_SERIES_4_AVR) || defined(USB_SERIES_6_AVR) || defined(USB_SERIES_7_AVR)
			static inline void USB_OTGPAD_On(void) ATTR_ALWAYS_INLINE;
			static inline void USB_OTGPAD_On(void)
			{
				USBCON |=  (1 << OTGPADE);
     bd4:	80 61       	ori	r24, 0x10	; 16
     bd6:	80 93 d8 00 	sts	0x00D8, r24
     bda:	08 95       	ret

00000bdc <USB_Init>:
     bdc:	e8 ed       	ldi	r30, 0xD8	; 216
     bde:	f0 e0       	ldi	r31, 0x00	; 0
			}

			static inline void USB_OTGPAD_Off(void) ATTR_ALWAYS_INLINE;
			static inline void USB_OTGPAD_Off(void)
			{
				USBCON &= ~(1 << OTGPADE);
     be0:	80 81       	ld	r24, Z
     be2:	8f 7e       	andi	r24, 0xEF	; 239
     be4:	80 83       	st	Z, r24

			static inline void USB_REG_On(void) ATTR_ALWAYS_INLINE;
			static inline void USB_REG_On(void)
			{
			#if defined(USB_SERIES_4_AVR) || defined(USB_SERIES_6_AVR) || defined(USB_SERIES_7_AVR)
				UHWCON |=  (1 << UVREGE);
     be6:	e7 ed       	ldi	r30, 0xD7	; 215
     be8:	f0 e0       	ldi	r31, 0x00	; 0
     bea:	80 81       	ld	r24, Z
     bec:	81 60       	ori	r24, 0x01	; 1
     bee:	80 83       	st	Z, r24
		UHWCON &= ~(1 << UIDE);
		USB_CurrentMode = Mode;
	}
	#endif

	USB_IsInitialized = true;
     bf0:	81 e0       	ldi	r24, 0x01	; 1
     bf2:	80 93 2c 01 	sts	0x012C, r24

	USB_ResetInterface();
     bf6:	a2 cf       	rjmp	.-188    	; 0xb3c <USB_ResetInterface>

00000bf8 <USB_INT_DisableAllInterrupts>:
#include "../USBInterrupt.h"

void USB_INT_DisableAllInterrupts(void)
{
	#if defined(USB_SERIES_6_AVR) || defined(USB_SERIES_7_AVR)
	USBCON &= ~((1 << VBUSTE) | (1 << IDTE));
     bf8:	e8 ed       	ldi	r30, 0xD8	; 216
     bfa:	f0 e0       	ldi	r31, 0x00	; 0
     bfc:	80 81       	ld	r24, Z
     bfe:	8c 7f       	andi	r24, 0xFC	; 252
     c00:	80 83       	st	Z, r24
	#if defined(USB_CAN_BE_BOTH)
	OTGIEN  = 0;
	#endif

	#if defined(USB_CAN_BE_HOST)
	UHIEN   = 0;
     c02:	10 92 a0 00 	sts	0x00A0, r1
     c06:	08 95       	ret

00000c08 <USB_INT_ClearAllInterrupts>:
}

void USB_INT_ClearAllInterrupts(void)
{
	#if defined(USB_SERIES_4_AVR) || defined(USB_SERIES_6_AVR) || defined(USB_SERIES_7_AVR)
	USBINT = 0;
     c08:	10 92 da 00 	sts	0x00DA, r1
	#if defined(USB_CAN_BE_BOTH)
	OTGINT = 0;
	#endif

	#if defined(USB_CAN_BE_HOST)
	UHINT  = 0;
     c0c:	10 92 9f 00 	sts	0x009F, r1
     c10:	08 95       	ret

00000c12 <__vector_10>:
	UDINT  = 0;
	#endif
}

ISR(USB_GEN_vect, ISR_BLOCK)
{
     c12:	1f 92       	push	r1
     c14:	0f 92       	push	r0
     c16:	0f b6       	in	r0, 0x3f	; 63
     c18:	0f 92       	push	r0
     c1a:	11 24       	eor	r1, r1
     c1c:	0b b6       	in	r0, 0x3b	; 59
     c1e:	0f 92       	push	r0
     c20:	2f 93       	push	r18
     c22:	3f 93       	push	r19
     c24:	4f 93       	push	r20
     c26:	5f 93       	push	r21
     c28:	6f 93       	push	r22
     c2a:	7f 93       	push	r23
     c2c:	8f 93       	push	r24
     c2e:	9f 93       	push	r25
     c30:	af 93       	push	r26
     c32:	bf 93       	push	r27
     c34:	ef 93       	push	r30
     c36:	ff 93       	push	r31
					case USB_INT_RXSTPI:
						return (UEINTX & (1 << RXSTPI));
					#endif
					#if defined(USB_CAN_BE_HOST)
					case USB_INT_HSOFI:
						return (UHINT  & (1 << HSOFI));
     c38:	80 91 9f 00 	lds	r24, 0x009F
	}
	#endif

	#if defined(USB_CAN_BE_HOST)
	#if !defined(NO_SOF_EVENTS)
	if (USB_INT_HasOccurred(USB_INT_HSOFI) && USB_INT_IsEnabled(USB_INT_HSOFI))
     c3c:	85 ff       	sbrs	r24, 5
     c3e:	0a c0       	rjmp	.+20     	; 0xc54 <__vector_10+0x42>
					case USB_INT_RXSTPI:
						return (UEIENX & (1 << RXSTPE));
					#endif
					#if defined(USB_CAN_BE_HOST)
					case USB_INT_HSOFI:
						return (UHIEN  & (1 << HSOFE));
     c40:	80 91 a0 00 	lds	r24, 0x00A0
     c44:	85 ff       	sbrs	r24, 5
     c46:	06 c0       	rjmp	.+12     	; 0xc54 <__vector_10+0x42>
						UEINTX &= ~(1 << RXSTPI);
						break;
					#endif
					#if defined(USB_CAN_BE_HOST)
					case USB_INT_HSOFI:
						UHINT  &= ~(1 << HSOFI);
     c48:	80 91 9f 00 	lds	r24, 0x009F
     c4c:	8f 7d       	andi	r24, 0xDF	; 223
     c4e:	80 93 9f 00 	sts	0x009F, r24
	{
		USB_INT_Clear(USB_INT_HSOFI);

		EVENT_USB_Host_StartOfFrame();
     c52:	1a d1       	rcall	.+564    	; 0xe88 <USB_Event_Stub>
     c54:	80 91 9f 00 	lds	r24, 0x009F
					case USB_INT_HSOFI:
						return (UHINT  & (1 << HSOFI));
					case USB_INT_DCONNI:
						return (UHINT  & (1 << DCONNI));
					case USB_INT_DDISCI:
						return (UHINT  & (1 << DDISCI));
     c58:	81 ff       	sbrs	r24, 1
	}
	#endif

	if (USB_INT_HasOccurred(USB_INT_DDISCI) && USB_INT_IsEnabled(USB_INT_DDISCI))
     c5a:	15 c0       	rjmp	.+42     	; 0xc86 <__vector_10+0x74>
     c5c:	80 91 a0 00 	lds	r24, 0x00A0
					case USB_INT_HSOFI:
						return (UHIEN  & (1 << HSOFE));
					case USB_INT_DCONNI:
						return (UHIEN  & (1 << DCONNE));
					case USB_INT_DDISCI:
						return (UHIEN  & (1 << DDISCE));
     c60:	81 ff       	sbrs	r24, 1
     c62:	11 c0       	rjmp	.+34     	; 0xc86 <__vector_10+0x74>
     c64:	80 91 9f 00 	lds	r24, 0x009F
						break;
					case USB_INT_DCONNI:
						UHINT  &= ~(1 << DCONNI);
						break;
					case USB_INT_DDISCI:
						UHINT  &= ~(1 << DDISCI);
     c68:	8d 7f       	andi	r24, 0xFD	; 253
     c6a:	80 93 9f 00 	sts	0x009F, r24
     c6e:	80 91 9f 00 	lds	r24, 0x009F
					#if defined(USB_CAN_BE_HOST)
					case USB_INT_HSOFI:
						UHINT  &= ~(1 << HSOFI);
						break;
					case USB_INT_DCONNI:
						UHINT  &= ~(1 << DCONNI);
     c72:	8e 7f       	andi	r24, 0xFE	; 254
     c74:	80 93 9f 00 	sts	0x009F, r24
     c78:	80 91 a0 00 	lds	r24, 0x00A0
						break;
					case USB_INT_DCONNI:
						UHIEN  &= ~(1 << DCONNE);
						break;
					case USB_INT_DDISCI:
						UHIEN  &= ~(1 << DDISCE);
     c7c:	8d 7f       	andi	r24, 0xFD	; 253
     c7e:	80 93 a0 00 	sts	0x00A0, r24
     c82:	8a db       	rcall	.-2284   	; 0x398 <EVENT_USB_Host_DeviceUnattached>
	{
		USB_INT_Clear(USB_INT_DDISCI);
		USB_INT_Clear(USB_INT_DCONNI);
		USB_INT_Disable(USB_INT_DDISCI);

		EVENT_USB_Host_DeviceUnattached();
     c84:	5b df       	rcall	.-330    	; 0xb3c <USB_ResetInterface>
     c86:	80 91 df 00 	lds	r24, 0x00DF

		USB_ResetInterface();
     c8a:	81 ff       	sbrs	r24, 1
					case USB_INT_RSTI:
						return (UHINT  & (1 << RSTI));
					case USB_INT_BCERRI:
						return (OTGINT & (1 << BCERRI));
					case USB_INT_VBERRI:
						return (OTGINT & (1 << VBERRI));
     c8c:	15 c0       	rjmp	.+42     	; 0xcb8 <__vector_10+0xa6>
     c8e:	80 91 de 00 	lds	r24, 0x00DE
	}

	if (USB_INT_HasOccurred(USB_INT_VBERRI) && USB_INT_IsEnabled(USB_INT_VBERRI))
     c92:	81 ff       	sbrs	r24, 1
					case USB_INT_RSTI:
						return (UHIEN  & (1 << RSTE));
					case USB_INT_BCERRI:
						return (OTGIEN & (1 << BCERRE));
					case USB_INT_VBERRI:
						return (OTGIEN & (1 << VBERRE));
     c94:	11 c0       	rjmp	.+34     	; 0xcb8 <__vector_10+0xa6>
     c96:	80 91 df 00 	lds	r24, 0x00DF
     c9a:	8d 7f       	andi	r24, 0xFD	; 253
						break;
					case USB_INT_BCERRI:
						OTGINT &= ~(1 << BCERRI);
						break;
					case USB_INT_VBERRI:
						OTGINT &= ~(1 << VBERRI);
     c9c:	80 93 df 00 	sts	0x00DF, r24
     ca0:	77 98       	cbi	0x0e, 7	; 14
     ca2:	80 91 dd 00 	lds	r24, 0x00DD
			static inline void USB_Host_VBUS_Manual_Off(void)
			{
				#if defined(INVERTED_VBUS_ENABLE_LINE)
				PORTE  |=  (1 << 7);
				#else
				PORTE  &= ~(1 << 7);
     ca6:	81 60       	ori	r24, 0x01	; 1
			}

			static inline void USB_Host_VBUS_Auto_Off(void) ATTR_ALWAYS_INLINE;
			static inline void USB_Host_VBUS_Auto_Off(void)
			{
				OTGCON |=  (1 << VBUSRQC);
     ca8:	80 93 dd 00 	sts	0x00DD, r24
     cac:	80 e0       	ldi	r24, 0x00	; 0
     cae:	cf db       	rcall	.-2146   	; 0x44e <EVENT_USB_Host_HostError>
     cb0:	73 db       	rcall	.-2330   	; 0x398 <EVENT_USB_Host_DeviceUnattached>
		USB_INT_Clear(USB_INT_VBERRI);

		USB_Host_VBUS_Manual_Off();
		USB_Host_VBUS_Auto_Off();

		EVENT_USB_Host_HostError(HOST_ERROR_VBusVoltageDip);
     cb2:	81 e0       	ldi	r24, 0x01	; 1
     cb4:	80 93 35 01 	sts	0x0135, r24
		EVENT_USB_Host_DeviceUnattached();
     cb8:	80 91 df 00 	lds	r24, 0x00DF

		USB_HostState = HOST_STATE_Unattached;
     cbc:	80 ff       	sbrs	r24, 0
     cbe:	17 c0       	rjmp	.+46     	; 0xcee <__vector_10+0xdc>
     cc0:	80 91 de 00 	lds	r24, 0x00DE
					case USB_INT_BCERRI:
						return (OTGINT & (1 << BCERRI));
					case USB_INT_VBERRI:
						return (OTGINT & (1 << VBERRI));
					case USB_INT_SRPI:
						return (OTGINT & (1 << SRPI));
     cc4:	80 ff       	sbrs	r24, 0
	}

	if (USB_INT_HasOccurred(USB_INT_SRPI) && USB_INT_IsEnabled(USB_INT_SRPI))
     cc6:	13 c0       	rjmp	.+38     	; 0xcee <__vector_10+0xdc>
     cc8:	80 91 df 00 	lds	r24, 0x00DF
					case USB_INT_BCERRI:
						return (OTGIEN & (1 << BCERRE));
					case USB_INT_VBERRI:
						return (OTGIEN & (1 << VBERRE));
					case USB_INT_SRPI:
						return (OTGIEN & (1 << SRPE));
     ccc:	8e 7f       	andi	r24, 0xFE	; 254
     cce:	80 93 df 00 	sts	0x00DF, r24
						break;
					case USB_INT_VBERRI:
						OTGINT &= ~(1 << VBERRI);
						break;
					case USB_INT_SRPI:
						OTGINT &= ~(1 << SRPI);
     cd2:	80 91 de 00 	lds	r24, 0x00DE
     cd6:	8e 7f       	andi	r24, 0xFE	; 254
     cd8:	80 93 de 00 	sts	0x00DE, r24
						break;
					case USB_INT_VBERRI:
						OTGIEN &= ~(1 << VBERRE);
						break;
					case USB_INT_SRPI:
						OTGIEN &= ~(1 << SRPE);
     cdc:	57 db       	rcall	.-2386   	; 0x38c <EVENT_USB_Host_DeviceAttached>
     cde:	80 91 a0 00 	lds	r24, 0x00A0
     ce2:	82 60       	ori	r24, 0x02	; 2
     ce4:	80 93 a0 00 	sts	0x00A0, r24
	{
		USB_INT_Clear(USB_INT_SRPI);
		USB_INT_Disable(USB_INT_SRPI);

		EVENT_USB_Host_DeviceAttached();
     ce8:	82 e0       	ldi	r24, 0x02	; 2
						break;
					case USB_INT_DCONNI:
						UHIEN  |= (1 << DCONNE);
						break;
					case USB_INT_DDISCI:
						UHIEN  |= (1 << DDISCE);
     cea:	80 93 35 01 	sts	0x0135, r24
     cee:	80 91 df 00 	lds	r24, 0x00DF
     cf2:	82 ff       	sbrs	r24, 2

		USB_INT_Enable(USB_INT_DDISCI);

		USB_HostState = HOST_STATE_Powered;
     cf4:	0e c0       	rjmp	.+28     	; 0xd12 <__vector_10+0x100>
     cf6:	80 91 de 00 	lds	r24, 0x00DE
					case USB_INT_DDISCI:
						return (UHINT  & (1 << DDISCI));
					case USB_INT_RSTI:
						return (UHINT  & (1 << RSTI));
					case USB_INT_BCERRI:
						return (OTGINT & (1 << BCERRI));
     cfa:	82 ff       	sbrs	r24, 2
     cfc:	0a c0       	rjmp	.+20     	; 0xd12 <__vector_10+0x100>
	}

	if (USB_INT_HasOccurred(USB_INT_BCERRI) && USB_INT_IsEnabled(USB_INT_BCERRI))
     cfe:	80 91 df 00 	lds	r24, 0x00DF
					case USB_INT_DDISCI:
						return (UHIEN  & (1 << DDISCE));
					case USB_INT_RSTI:
						return (UHIEN  & (1 << RSTE));
					case USB_INT_BCERRI:
						return (OTGIEN & (1 << BCERRE));
     d02:	8b 7f       	andi	r24, 0xFB	; 251
     d04:	80 93 df 00 	sts	0x00DF, r24
     d08:	60 e0       	ldi	r22, 0x00	; 0
						break;
					case USB_INT_RSTI:
						UHINT  &= ~(1 << RSTI);
						break;
					case USB_INT_BCERRI:
						OTGINT &= ~(1 << BCERRI);
     d0a:	82 e0       	ldi	r24, 0x02	; 2
     d0c:	b7 db       	rcall	.-2194   	; 0x47c <EVENT_USB_Host_DeviceEnumerationFailed>
     d0e:	44 db       	rcall	.-2424   	; 0x398 <EVENT_USB_Host_DeviceUnattached>
     d10:	15 df       	rcall	.-470    	; 0xb3c <USB_ResetInterface>
     d12:	ff 91       	pop	r31
	{
		USB_INT_Clear(USB_INT_BCERRI);

		EVENT_USB_Host_DeviceEnumerationFailed(HOST_ENUMERROR_NoDeviceDetected, 0);
     d14:	ef 91       	pop	r30
     d16:	bf 91       	pop	r27
     d18:	af 91       	pop	r26
     d1a:	9f 91       	pop	r25
		EVENT_USB_Host_DeviceUnattached();
     d1c:	8f 91       	pop	r24
     d1e:	7f 91       	pop	r23

		USB_ResetInterface();
     d20:	6f 91       	pop	r22
     d22:	5f 91       	pop	r21
		USB_ResetInterface();

		EVENT_USB_UIDChange();
	}
	#endif
}
     d24:	4f 91       	pop	r20
     d26:	3f 91       	pop	r19
     d28:	2f 91       	pop	r18
     d2a:	0f 90       	pop	r0
     d2c:	0b be       	out	0x3b, r0	; 59
     d2e:	0f 90       	pop	r0
     d30:	0f be       	out	0x3f, r0	; 63
     d32:	0f 90       	pop	r0
     d34:	1f 90       	pop	r1
     d36:	18 95       	reti

00000d38 <USB_GetNextDescriptor>:
			 */
			static inline void USB_GetNextDescriptor(uint16_t* const BytesRem,
			                                         void** CurrConfigLoc) ATTR_NON_NULL_PTR_ARG(1) ATTR_NON_NULL_PTR_ARG(2);
			static inline void USB_GetNextDescriptor(uint16_t* const BytesRem,
			                                         void** CurrConfigLoc)
			{
     d38:	cf 93       	push	r28
     d3a:	df 93       	push	r29
     d3c:	fc 01       	movw	r30, r24
				uint16_t CurrDescriptorSize = DESCRIPTOR_CAST(*CurrConfigLoc, USB_Descriptor_Header_t).Size;
     d3e:	eb 01       	movw	r28, r22
     d40:	a8 81       	ld	r26, Y
     d42:	b9 81       	ldd	r27, Y+1	; 0x01
     d44:	8c 91       	ld	r24, X
     d46:	90 e0       	ldi	r25, 0x00	; 0

				if (*BytesRem < CurrDescriptorSize)
     d48:	20 81       	ld	r18, Z
     d4a:	31 81       	ldd	r19, Z+1	; 0x01
     d4c:	82 17       	cp	r24, r18
     d4e:	93 07       	cpc	r25, r19
     d50:	08 f4       	brcc	.+2      	; 0xd54 <USB_GetNextDescriptor+0x1c>
     d52:	9c 01       	movw	r18, r24
				  CurrDescriptorSize = *BytesRem;

				*CurrConfigLoc  = (void*)((uintptr_t)*CurrConfigLoc + CurrDescriptorSize);
     d54:	a2 0f       	add	r26, r18
     d56:	b3 1f       	adc	r27, r19
     d58:	eb 01       	movw	r28, r22
     d5a:	b9 83       	std	Y+1, r27	; 0x01
     d5c:	a8 83       	st	Y, r26
				*BytesRem      -= CurrDescriptorSize;
     d5e:	80 81       	ld	r24, Z
     d60:	91 81       	ldd	r25, Z+1	; 0x01
     d62:	82 1b       	sub	r24, r18
     d64:	93 0b       	sbc	r25, r19
     d66:	91 83       	std	Z+1, r25	; 0x01
     d68:	80 83       	st	Z, r24
			}
     d6a:	df 91       	pop	r29
     d6c:	cf 91       	pop	r28
     d6e:	08 95       	ret

00000d70 <USB_Host_GetDeviceConfigDescriptor>:
#if defined(USB_CAN_BE_HOST)
uint8_t USB_Host_GetDeviceConfigDescriptor(const uint8_t ConfigNumber,
                                           uint16_t* const ConfigSizePtr,
                                           void* const BufferPtr,
                                           const uint16_t BufferSize)
{
     d70:	cf 92       	push	r12
     d72:	df 92       	push	r13
     d74:	ef 92       	push	r14
     d76:	ff 92       	push	r15
     d78:	0f 93       	push	r16
     d7a:	1f 93       	push	r17
     d7c:	cf 93       	push	r28
     d7e:	df 93       	push	r29
     d80:	cd b7       	in	r28, 0x3d	; 61
     d82:	de b7       	in	r29, 0x3e	; 62
     d84:	29 97       	sbiw	r28, 0x09	; 9
     d86:	0f b6       	in	r0, 0x3f	; 63
     d88:	f8 94       	cli
     d8a:	de bf       	out	0x3e, r29	; 62
     d8c:	0f be       	out	0x3f, r0	; 63
     d8e:	cd bf       	out	0x3d, r28	; 61
     d90:	7b 01       	movw	r14, r22
     d92:	8a 01       	movw	r16, r20
     d94:	69 01       	movw	r12, r18
	uint8_t ErrorCode;
	uint8_t ConfigHeader[sizeof(USB_Descriptor_Configuration_Header_t)];

	USB_ControlRequest = (USB_Request_Header_t)
     d96:	90 e8       	ldi	r25, 0x80	; 128
     d98:	90 93 2d 01 	sts	0x012D, r25
     d9c:	96 e0       	ldi	r25, 0x06	; 6
     d9e:	90 93 2e 01 	sts	0x012E, r25
		{
			.bmRequestType = (REQDIR_DEVICETOHOST | REQTYPE_STANDARD | REQREC_DEVICE),
			.bRequest      = REQ_GetDescriptor,
			.wValue        = ((DTYPE_Configuration << 8) | (ConfigNumber - 1)),
     da2:	e8 2f       	mov	r30, r24
     da4:	f0 e0       	ldi	r31, 0x00	; 0
     da6:	31 97       	sbiw	r30, 0x01	; 1
     da8:	f2 60       	ori	r31, 0x02	; 2
                                           const uint16_t BufferSize)
{
	uint8_t ErrorCode;
	uint8_t ConfigHeader[sizeof(USB_Descriptor_Configuration_Header_t)];

	USB_ControlRequest = (USB_Request_Header_t)
     daa:	f0 93 30 01 	sts	0x0130, r31
     dae:	e0 93 2f 01 	sts	0x012F, r30
     db2:	10 92 32 01 	sts	0x0132, r1
     db6:	10 92 31 01 	sts	0x0131, r1
     dba:	89 e0       	ldi	r24, 0x09	; 9
     dbc:	90 e0       	ldi	r25, 0x00	; 0
     dbe:	90 93 34 01 	sts	0x0134, r25
     dc2:	80 93 33 01 	sts	0x0133, r24
     dc6:	10 92 a7 00 	sts	0x00A7, r1
			.wLength       = sizeof(USB_Descriptor_Configuration_Header_t),
		};

	Pipe_SelectPipe(PIPE_CONTROLPIPE);

	if ((ErrorCode = USB_Host_SendControlRequest(ConfigHeader)) != HOST_SENDCONTROL_Successful)
     dca:	ce 01       	movw	r24, r28
     dcc:	01 96       	adiw	r24, 0x01	; 1
     dce:	84 d0       	rcall	.+264    	; 0xed8 <USB_Host_SendControlRequest>
     dd0:	81 11       	cpse	r24, r1
     dd2:	19 c0       	rjmp	.+50     	; 0xe06 <USB_Host_GetDeviceConfigDescriptor+0x96>
     dd4:	eb 81       	ldd	r30, Y+3	; 0x03
	  return ErrorCode;

	*ConfigSizePtr = le16_to_cpu(DESCRIPTOR_PCAST(ConfigHeader, USB_Descriptor_Configuration_Header_t)->TotalConfigurationSize);
     dd6:	fc 81       	ldd	r31, Y+4	; 0x04
     dd8:	d7 01       	movw	r26, r14
     dda:	ed 93       	st	X+, r30
     ddc:	fc 93       	st	X, r31
     dde:	ce 16       	cp	r12, r30

	if (*ConfigSizePtr > BufferSize)
     de0:	df 06       	cpc	r13, r31
     de2:	70 f0       	brcs	.+28     	; 0xe00 <USB_Host_GetDeviceConfigDescriptor+0x90>
     de4:	f0 93 34 01 	sts	0x0134, r31
	  return HOST_GETCONFIG_BuffOverflow;

	USB_ControlRequest.wLength = *ConfigSizePtr;
     de8:	e0 93 33 01 	sts	0x0133, r30
     dec:	c8 01       	movw	r24, r16

	if ((ErrorCode = USB_Host_SendControlRequest(BufferPtr)) != HOST_SENDCONTROL_Successful)
     dee:	74 d0       	rcall	.+232    	; 0xed8 <USB_Host_SendControlRequest>
     df0:	81 11       	cpse	r24, r1
     df2:	09 c0       	rjmp	.+18     	; 0xe06 <USB_Host_GetDeviceConfigDescriptor+0x96>
     df4:	f8 01       	movw	r30, r16
     df6:	81 81       	ldd	r24, Z+1	; 0x01
	  return ErrorCode;

	if (DESCRIPTOR_TYPE(BufferPtr) != DTYPE_Configuration)
     df8:	82 30       	cpi	r24, 0x02	; 2
     dfa:	21 f0       	breq	.+8      	; 0xe04 <USB_Host_GetDeviceConfigDescriptor+0x94>
     dfc:	86 e0       	ldi	r24, 0x06	; 6
     dfe:	03 c0       	rjmp	.+6      	; 0xe06 <USB_Host_GetDeviceConfigDescriptor+0x96>
	  return HOST_GETCONFIG_InvalidData;
     e00:	85 e0       	ldi	r24, 0x05	; 5
     e02:	01 c0       	rjmp	.+2      	; 0xe06 <USB_Host_GetDeviceConfigDescriptor+0x96>
	  return ErrorCode;

	*ConfigSizePtr = le16_to_cpu(DESCRIPTOR_PCAST(ConfigHeader, USB_Descriptor_Configuration_Header_t)->TotalConfigurationSize);

	if (*ConfigSizePtr > BufferSize)
	  return HOST_GETCONFIG_BuffOverflow;
     e04:	80 e0       	ldi	r24, 0x00	; 0
     e06:	29 96       	adiw	r28, 0x09	; 9
	  return ErrorCode;

	if (DESCRIPTOR_TYPE(BufferPtr) != DTYPE_Configuration)
	  return HOST_GETCONFIG_InvalidData;

	return HOST_GETCONFIG_Successful;
     e08:	0f b6       	in	r0, 0x3f	; 63
}
     e0a:	f8 94       	cli
     e0c:	de bf       	out	0x3e, r29	; 62
     e0e:	0f be       	out	0x3f, r0	; 63
     e10:	cd bf       	out	0x3d, r28	; 61
     e12:	df 91       	pop	r29
     e14:	cf 91       	pop	r28
     e16:	1f 91       	pop	r17
     e18:	0f 91       	pop	r16
     e1a:	ff 90       	pop	r15
     e1c:	ef 90       	pop	r14
     e1e:	df 90       	pop	r13
     e20:	cf 90       	pop	r12
     e22:	08 95       	ret

00000e24 <USB_GetNextDescriptorComp>:
     e24:	af 92       	push	r10
     e26:	bf 92       	push	r11
}

uint8_t USB_GetNextDescriptorComp(uint16_t* const BytesRem,
                                  void** const CurrConfigLoc,
                                  ConfigComparatorPtr_t const ComparatorRoutine)
{
     e28:	cf 92       	push	r12
     e2a:	df 92       	push	r13
     e2c:	ef 92       	push	r14
     e2e:	ff 92       	push	r15
     e30:	0f 93       	push	r16
     e32:	1f 93       	push	r17
     e34:	cf 93       	push	r28
     e36:	df 93       	push	r29
     e38:	8c 01       	movw	r16, r24
     e3a:	eb 01       	movw	r28, r22
     e3c:	6a 01       	movw	r12, r20
	uint8_t ErrorCode;

	while (*BytesRem)
     e3e:	f8 01       	movw	r30, r16
     e40:	e0 80       	ld	r14, Z
     e42:	f1 80       	ldd	r15, Z+1	; 0x01
     e44:	e1 14       	cp	r14, r1
     e46:	f1 04       	cpc	r15, r1
     e48:	99 f0       	breq	.+38     	; 0xe70 <USB_GetNextDescriptorComp+0x4c>
	{
		uint8_t* PrevDescLoc  = *CurrConfigLoc;
     e4a:	a8 80       	ld	r10, Y
     e4c:	b9 80       	ldd	r11, Y+1	; 0x01
		uint16_t PrevBytesRem = *BytesRem;

		USB_GetNextDescriptor(BytesRem, CurrConfigLoc);
     e4e:	be 01       	movw	r22, r28
     e50:	c8 01       	movw	r24, r16
     e52:	72 df       	rcall	.-284    	; 0xd38 <USB_GetNextDescriptor>
     e54:	88 81       	ld	r24, Y

		if ((ErrorCode = ComparatorRoutine(*CurrConfigLoc)) != DESCRIPTOR_SEARCH_NotFound)
     e56:	99 81       	ldd	r25, Y+1	; 0x01
     e58:	f6 01       	movw	r30, r12
     e5a:	09 95       	icall
     e5c:	82 30       	cpi	r24, 0x02	; 2
     e5e:	79 f3       	breq	.-34     	; 0xe3e <USB_GetNextDescriptorComp+0x1a>
     e60:	81 30       	cpi	r24, 0x01	; 1
		{
			if (ErrorCode == DESCRIPTOR_SEARCH_Fail)
     e62:	39 f4       	brne	.+14     	; 0xe72 <USB_GetNextDescriptorComp+0x4e>
     e64:	b9 82       	std	Y+1, r11	; 0x01
			{
				*CurrConfigLoc = PrevDescLoc;
     e66:	a8 82       	st	Y, r10
     e68:	f8 01       	movw	r30, r16
				*BytesRem      = PrevBytesRem;
     e6a:	f1 82       	std	Z+1, r15	; 0x01
     e6c:	e0 82       	st	Z, r14
     e6e:	01 c0       	rjmp	.+2      	; 0xe72 <USB_GetNextDescriptorComp+0x4e>
     e70:	82 e0       	ldi	r24, 0x02	; 2

			return ErrorCode;
		}
	}

	return DESCRIPTOR_SEARCH_COMP_EndOfDescriptor;
     e72:	df 91       	pop	r29
}
     e74:	cf 91       	pop	r28
     e76:	1f 91       	pop	r17
     e78:	0f 91       	pop	r16
     e7a:	ff 90       	pop	r15
     e7c:	ef 90       	pop	r14
     e7e:	df 90       	pop	r13
     e80:	cf 90       	pop	r12
     e82:	bf 90       	pop	r11
     e84:	af 90       	pop	r10
     e86:	08 95       	ret

00000e88 <USB_Event_Stub>:
#define  __INCLUDE_FROM_EVENTS_C
#define  __INCLUDE_FROM_USB_DRIVER
#include "Events.h"

void USB_Event_Stub(void)
{
     e88:	08 95       	ret

00000e8a <USB_Host_WaitForIOS>:

	return ReturnStatus;
}

static uint8_t USB_Host_WaitForIOS(const uint8_t WaitType)
{
     e8a:	1f 93       	push	r17
     e8c:	cf 93       	push	r28
     e8e:	df 93       	push	r29
     e90:	18 2f       	mov	r17, r24
	uint8_t  TimeoutCounter = USB_HOST_TIMEOUT_MS;
	#else
	uint16_t TimeoutCounter = USB_HOST_TIMEOUT_MS;
	#endif

	while (!(((WaitType == USB_HOST_WAITFOR_SetupSent)  && Pipe_IsSETUPSent())  ||
     e92:	c9 ee       	ldi	r28, 0xE9	; 233
     e94:	d3 e0       	ldi	r29, 0x03	; 3
     e96:	11 11       	cpse	r17, r1
     e98:	0d c0       	rjmp	.+26     	; 0xeb4 <USB_Host_WaitForIOS+0x2a>
			 *  \return Boolean \c true if the current pipe is ready for a SETUP packet, \c false otherwise.
			 */
			static inline bool Pipe_IsSETUPSent(void) ATTR_WARN_UNUSED_RESULT ATTR_ALWAYS_INLINE;
			static inline bool Pipe_IsSETUPSent(void)
			{
				return ((UPINTX & (1 << TXSTPI)) ? true : false);
     e9a:	80 91 a6 00 	lds	r24, 0x00A6
     e9e:	83 fd       	sbrc	r24, 3
     ea0:	16 c0       	rjmp	.+44     	; 0xece <USB_Host_WaitForIOS+0x44>
	         ((WaitType == USB_HOST_WAITFOR_InReceived) && Pipe_IsINReceived()) ||
	         ((WaitType == USB_HOST_WAITFOR_OutReady)   && Pipe_IsOUTReady())))
	{
		uint8_t ErrorCode;

		if ((ErrorCode = USB_Host_WaitMS(1)) != HOST_WAITERROR_Successful)
     ea2:	81 e0       	ldi	r24, 0x01	; 1
     ea4:	84 db       	rcall	.-2296   	; 0x5ae <USB_Host_WaitMS>
     ea6:	81 11       	cpse	r24, r1
     ea8:	13 c0       	rjmp	.+38     	; 0xed0 <USB_Host_WaitForIOS+0x46>
     eaa:	21 97       	sbiw	r28, 0x01	; 1
     eac:	20 97       	sbiw	r28, 0x00	; 0
		  return ErrorCode;

		if (!(TimeoutCounter--))
     eae:	99 f7       	brne	.-26     	; 0xe96 <USB_Host_WaitForIOS+0xc>
     eb0:	84 e0       	ldi	r24, 0x04	; 4
		  return HOST_SENDCONTROL_SoftwareTimeOut;
     eb2:	0e c0       	rjmp	.+28     	; 0xed0 <USB_Host_WaitForIOS+0x46>
     eb4:	11 30       	cpi	r17, 0x01	; 1
	uint8_t  TimeoutCounter = USB_HOST_TIMEOUT_MS;
	#else
	uint16_t TimeoutCounter = USB_HOST_TIMEOUT_MS;
	#endif

	while (!(((WaitType == USB_HOST_WAITFOR_SetupSent)  && Pipe_IsSETUPSent())  ||
     eb6:	29 f4       	brne	.+10     	; 0xec2 <USB_Host_WaitForIOS+0x38>
     eb8:	80 91 a6 00 	lds	r24, 0x00A6
			 *  \return Boolean \c true if the current pipe has received an IN packet, \c false otherwise.
			 */
			static inline bool Pipe_IsINReceived(void) ATTR_WARN_UNUSED_RESULT ATTR_ALWAYS_INLINE;
			static inline bool Pipe_IsINReceived(void)
			{
				return ((UPINTX & (1 << RXINI)) ? true : false);
     ebc:	80 ff       	sbrs	r24, 0
	         ((WaitType == USB_HOST_WAITFOR_InReceived) && Pipe_IsINReceived()) ||
     ebe:	f1 cf       	rjmp	.-30     	; 0xea2 <USB_Host_WaitForIOS+0x18>
     ec0:	06 c0       	rjmp	.+12     	; 0xece <USB_Host_WaitForIOS+0x44>
     ec2:	12 30       	cpi	r17, 0x02	; 2
	uint8_t  TimeoutCounter = USB_HOST_TIMEOUT_MS;
	#else
	uint16_t TimeoutCounter = USB_HOST_TIMEOUT_MS;
	#endif

	while (!(((WaitType == USB_HOST_WAITFOR_SetupSent)  && Pipe_IsSETUPSent())  ||
     ec4:	71 f7       	brne	.-36     	; 0xea2 <USB_Host_WaitForIOS+0x18>
     ec6:	80 91 a6 00 	lds	r24, 0x00A6
			 *  \return Boolean \c true if the current pipe is ready for an OUT packet, \c false otherwise.
			 */
			static inline bool Pipe_IsOUTReady(void) ATTR_WARN_UNUSED_RESULT ATTR_ALWAYS_INLINE;
			static inline bool Pipe_IsOUTReady(void)
			{
				return ((UPINTX & (1 << TXOUTI)) ? true : false);
     eca:	82 ff       	sbrs	r24, 2
	         ((WaitType == USB_HOST_WAITFOR_InReceived) && Pipe_IsINReceived()) ||
	         ((WaitType == USB_HOST_WAITFOR_OutReady)   && Pipe_IsOUTReady())))
     ecc:	ea cf       	rjmp	.-44     	; 0xea2 <USB_Host_WaitForIOS+0x18>
     ece:	80 e0       	ldi	r24, 0x00	; 0

		if (!(TimeoutCounter--))
		  return HOST_SENDCONTROL_SoftwareTimeOut;
	}

	return HOST_SENDCONTROL_Successful;
     ed0:	df 91       	pop	r29
}
     ed2:	cf 91       	pop	r28
     ed4:	1f 91       	pop	r17
     ed6:	08 95       	ret

00000ed8 <USB_Host_SendControlRequest>:
     ed8:	ff 92       	push	r15

uint8_t USB_Host_SendControlRequest(void* const BufferPtr)
{
     eda:	0f 93       	push	r16
     edc:	1f 93       	push	r17
     ede:	cf 93       	push	r28
     ee0:	df 93       	push	r29
     ee2:	8c 01       	movw	r16, r24
			 *  \return Boolean \c true if the bus is currently suspended, \c false otherwise.
			 */
			static inline bool USB_Host_IsBusSuspended(void) ATTR_WARN_UNUSED_RESULT ATTR_ALWAYS_INLINE;
			static inline bool USB_Host_IsBusSuspended(void)
			{
				return ((UHCON & (1 << SOFEN)) ? false : true);
     ee4:	f0 90 9e 00 	lds	r15, 0x009E
     ee8:	8f 2d       	mov	r24, r15
     eea:	81 70       	andi	r24, 0x01	; 1
     eec:	f8 2e       	mov	r15, r24

static uint8_t USB_Host_SendControlRequest_PRV(void* const BufferPtr)
{
	uint8_t* DataStream   = (uint8_t*)BufferPtr;
	uint8_t  ReturnStatus = HOST_SENDCONTROL_Successful;
	uint16_t DataLen      = USB_ControlRequest.wLength;
     eee:	c0 91 33 01 	lds	r28, 0x0133
     ef2:	d0 91 34 01 	lds	r29, 0x0134
			 *  host and attached device may occur.
			 */
			static inline void USB_Host_ResumeBus(void) ATTR_ALWAYS_INLINE;
			static inline void USB_Host_ResumeBus(void)
			{
				UHCON |=  (1 << SOFEN);
     ef6:	80 91 9e 00 	lds	r24, 0x009E
     efa:	81 60       	ori	r24, 0x01	; 1
     efc:	80 93 9e 00 	sts	0x009E, r24

	USB_Host_ResumeBus();

	if ((ReturnStatus = USB_Host_WaitMS(1)) != HOST_WAITERROR_Successful)
     f00:	81 e0       	ldi	r24, 0x01	; 1
     f02:	55 db       	rcall	.-2390   	; 0x5ae <USB_Host_WaitMS>
     f04:	81 11       	cpse	r24, r1
     f06:	cc c0       	rjmp	.+408    	; 0x10a0 <USB_Host_SendControlRequest+0x1c8>
     f08:	80 91 aa 00 	lds	r24, 0x00AA
			 *  \param[in] Token  New pipe token to set the selected pipe to, as a \c PIPE_TOKEN_* mask.
			 */
			static inline void Pipe_SetPipeToken(const uint8_t Token) ATTR_ALWAYS_INLINE;
			static inline void Pipe_SetPipeToken(const uint8_t Token)
			{
				UPCFG0X = ((UPCFG0X & ~(0x03 << PTOKEN0)) | Token);
     f0c:	8f 7c       	andi	r24, 0xCF	; 207
     f0e:	80 93 aa 00 	sts	0x00AA, r24
     f12:	10 92 f5 00 	sts	0x00F5, r1

			/** Clears the error flags for the currently selected pipe. */
			static inline void Pipe_ClearError(void) ATTR_ALWAYS_INLINE;
			static inline void Pipe_ClearError(void)
			{
				UPERRX = 0;
     f16:	80 91 a6 00 	lds	r24, 0x00A6
				UPINTX &= ~(1 << PERRI);
     f1a:	8f 7e       	andi	r24, 0xEF	; 239
     f1c:	80 93 a6 00 	sts	0x00A6, r24
     f20:	80 91 a9 00 	lds	r24, 0x00A9

			/** Unfreezes the selected pipe, allowing it to communicate with an attached device. */
			static inline void Pipe_Unfreeze(void) ATTR_ALWAYS_INLINE;
			static inline void Pipe_Unfreeze(void)
			{
				UPCONX &= ~(1 << PFREEZE);
     f24:	8f 7b       	andi	r24, 0xBF	; 191
     f26:	80 93 a9 00 	sts	0x00A9, r24
     f2a:	ed e2       	ldi	r30, 0x2D	; 45
     f2c:	f1 e0       	ldi	r31, 0x01	; 1
     f2e:	81 91       	ld	r24, Z+
	Pipe_Write_16_LE(USB_ControlRequest.wLength);
	#else
	uint8_t* HeaderStream = (uint8_t*)&USB_ControlRequest;

	for (uint8_t HeaderByte = 0; HeaderByte < sizeof(USB_Request_Header_t); HeaderByte++)
	  Pipe_Write_8(*(HeaderStream++));
     f30:	80 93 af 00 	sts	0x00AF, r24
			 *  \param[in] Data  Data to write into the the currently selected pipe's FIFO buffer.
			 */
			static inline void Pipe_Write_8(const uint8_t Data) ATTR_ALWAYS_INLINE;
			static inline void Pipe_Write_8(const uint8_t Data)
			{
				UPDATX = Data;
     f34:	81 e0       	ldi	r24, 0x01	; 1
	Pipe_Write_16_LE(USB_ControlRequest.wIndex);
	Pipe_Write_16_LE(USB_ControlRequest.wLength);
	#else
	uint8_t* HeaderStream = (uint8_t*)&USB_ControlRequest;

	for (uint8_t HeaderByte = 0; HeaderByte < sizeof(USB_Request_Header_t); HeaderByte++)
     f36:	e5 33       	cpi	r30, 0x35	; 53
     f38:	f8 07       	cpc	r31, r24
     f3a:	c9 f7       	brne	.-14     	; 0xf2e <USB_Host_SendControlRequest+0x56>
     f3c:	80 91 a6 00 	lds	r24, 0x00A6
			 *  \ingroup Group_PipePacketManagement_AVR8
			 */
			static inline void Pipe_ClearSETUP(void) ATTR_ALWAYS_INLINE;
			static inline void Pipe_ClearSETUP(void)
			{
				UPINTX &= ~((1 << TXSTPI) | (1 << FIFOCON));
     f40:	87 77       	andi	r24, 0x77	; 119
     f42:	80 93 a6 00 	sts	0x00A6, r24
     f46:	80 e0       	ldi	r24, 0x00	; 0
	  Pipe_Write_8(*(HeaderStream++));
	#endif

	Pipe_ClearSETUP();

	if ((ReturnStatus = USB_Host_WaitForIOS(USB_HOST_WAITFOR_SetupSent)) != HOST_SENDCONTROL_Successful)
     f48:	a0 df       	rcall	.-192    	; 0xe8a <USB_Host_WaitForIOS>
     f4a:	81 11       	cpse	r24, r1
     f4c:	a9 c0       	rjmp	.+338    	; 0x10a0 <USB_Host_SendControlRequest+0x1c8>
     f4e:	80 91 a9 00 	lds	r24, 0x00A9

			/** Freezes the selected pipe, preventing it from communicating with an attached device. */
			static inline void Pipe_Freeze(void) ATTR_ALWAYS_INLINE;
			static inline void Pipe_Freeze(void)
			{
				UPCONX |= (1 << PFREEZE);
     f52:	80 64       	ori	r24, 0x40	; 64
     f54:	80 93 a9 00 	sts	0x00A9, r24
     f58:	81 e0       	ldi	r24, 0x01	; 1
     f5a:	29 db       	rcall	.-2478   	; 0x5ae <USB_Host_WaitMS>
	  return ReturnStatus;

	Pipe_Freeze();

	if ((ReturnStatus = USB_Host_WaitMS(1)) != HOST_WAITERROR_Successful)
     f5c:	81 11       	cpse	r24, r1
     f5e:	a0 c0       	rjmp	.+320    	; 0x10a0 <USB_Host_SendControlRequest+0x1c8>
     f60:	80 91 2d 01 	lds	r24, 0x012D
     f64:	87 ff       	sbrs	r24, 7
	  return ReturnStatus;

	if ((USB_ControlRequest.bmRequestType & CONTROL_REQTYPE_DIRECTION) == REQDIR_DEVICETOHOST)
     f66:	4e c0       	rjmp	.+156    	; 0x1004 <USB_Host_SendControlRequest+0x12c>
     f68:	80 91 aa 00 	lds	r24, 0x00AA
     f6c:	8f 7c       	andi	r24, 0xCF	; 207
			 *  \param[in] Token  New pipe token to set the selected pipe to, as a \c PIPE_TOKEN_* mask.
			 */
			static inline void Pipe_SetPipeToken(const uint8_t Token) ATTR_ALWAYS_INLINE;
			static inline void Pipe_SetPipeToken(const uint8_t Token)
			{
				UPCFG0X = ((UPCFG0X & ~(0x03 << PTOKEN0)) | Token);
     f6e:	80 61       	ori	r24, 0x10	; 16
     f70:	80 93 aa 00 	sts	0x00AA, r24
     f74:	01 15       	cp	r16, r1
     f76:	11 05       	cpc	r17, r1
     f78:	09 f0       	breq	.+2      	; 0xf7c <USB_Host_SendControlRequest+0xa4>
	{
		Pipe_SetPipeToken(PIPE_TOKEN_IN);

		if (DataStream != NULL)
     f7a:	3a c0       	rjmp	.+116    	; 0xff0 <USB_Host_SendControlRequest+0x118>
     f7c:	80 91 aa 00 	lds	r24, 0x00AA
     f80:	8f 7c       	andi	r24, 0xCF	; 207
     f82:	80 62       	ori	r24, 0x20	; 32
     f84:	80 93 aa 00 	sts	0x00AA, r24
     f88:	80 91 a9 00 	lds	r24, 0x00A9
     f8c:	8f 7b       	andi	r24, 0xBF	; 191

			/** Unfreezes the selected pipe, allowing it to communicate with an attached device. */
			static inline void Pipe_Unfreeze(void) ATTR_ALWAYS_INLINE;
			static inline void Pipe_Unfreeze(void)
			{
				UPCONX &= ~(1 << PFREEZE);
     f8e:	80 93 a9 00 	sts	0x00A9, r24
     f92:	82 e0       	ldi	r24, 0x02	; 2
     f94:	7a df       	rcall	.-268    	; 0xe8a <USB_Host_WaitForIOS>
     f96:	81 11       	cpse	r24, r1
		}

		Pipe_SetPipeToken(PIPE_TOKEN_OUT);
		Pipe_Unfreeze();

		if ((ReturnStatus = USB_Host_WaitForIOS(USB_HOST_WAITFOR_OutReady)) != HOST_SENDCONTROL_Successful)
     f98:	83 c0       	rjmp	.+262    	; 0x10a0 <USB_Host_SendControlRequest+0x1c8>
     f9a:	80 91 a6 00 	lds	r24, 0x00A6
     f9e:	8b 77       	andi	r24, 0x7B	; 123
     fa0:	80 93 a6 00 	sts	0x00A6, r24
			 *  \ingroup Group_PipePacketManagement_AVR8
			 */
			static inline void Pipe_ClearOUT(void) ATTR_ALWAYS_INLINE;
			static inline void Pipe_ClearOUT(void)
			{
				UPINTX &= ~((1 << TXOUTI) | (1 << FIFOCON));
     fa4:	82 e0       	ldi	r24, 0x02	; 2
     fa6:	71 df       	rcall	.-286    	; 0xe8a <USB_Host_WaitForIOS>
     fa8:	7b c0       	rjmp	.+246    	; 0x10a0 <USB_Host_SendControlRequest+0x1c8>
     faa:	80 91 a9 00 	lds	r24, 0x00A9
		  return ReturnStatus;

		Pipe_ClearOUT();

		if ((ReturnStatus = USB_Host_WaitForIOS(USB_HOST_WAITFOR_OutReady)) != HOST_SENDCONTROL_Successful)
     fae:	8f 7b       	andi	r24, 0xBF	; 191
     fb0:	80 93 a9 00 	sts	0x00A9, r24

			/** Unfreezes the selected pipe, allowing it to communicate with an attached device. */
			static inline void Pipe_Unfreeze(void) ATTR_ALWAYS_INLINE;
			static inline void Pipe_Unfreeze(void)
			{
				UPCONX &= ~(1 << PFREEZE);
     fb4:	81 e0       	ldi	r24, 0x01	; 1
     fb6:	69 df       	rcall	.-302    	; 0xe8a <USB_Host_WaitForIOS>
     fb8:	81 11       	cpse	r24, r1
     fba:	72 c0       	rjmp	.+228    	; 0x10a0 <USB_Host_SendControlRequest+0x1c8>
     fbc:	80 91 f6 00 	lds	r24, 0x00F6
		{
			while (DataLen)
			{
				Pipe_Unfreeze();

				if ((ReturnStatus = USB_Host_WaitForIOS(USB_HOST_WAITFOR_InReceived)) != HOST_SENDCONTROL_Successful)
     fc0:	90 91 f7 00 	lds	r25, 0x00F7
     fc4:	89 2b       	or	r24, r25
     fc6:	11 f4       	brne	.+4      	; 0xfcc <USB_Host_SendControlRequest+0xf4>
			 *  \return Total number of bytes in the currently selected pipe's FIFO buffer.
			 */
			static inline uint16_t Pipe_BytesInPipe(void) ATTR_WARN_UNUSED_RESULT ATTR_ALWAYS_INLINE;
			static inline uint16_t Pipe_BytesInPipe(void)
			{
				return UPBCX;
     fc8:	c0 e0       	ldi	r28, 0x00	; 0
     fca:	d0 e0       	ldi	r29, 0x00	; 0
     fcc:	f8 01       	movw	r30, r16
     fce:	8f 01       	movw	r16, r30
				  return ReturnStatus;

				if (!(Pipe_BytesInPipe()))
     fd0:	80 91 f6 00 	lds	r24, 0x00F6
				  DataLen = 0;
     fd4:	90 91 f7 00 	lds	r25, 0x00F7
     fd8:	89 2b       	or	r24, r25
     fda:	69 f4       	brne	.+26     	; 0xff6 <USB_Host_SendControlRequest+0x11e>
     fdc:	80 91 a9 00 	lds	r24, 0x00A9
     fe0:	80 64       	ori	r24, 0x40	; 64
     fe2:	80 93 a9 00 	sts	0x00A9, r24

				while (Pipe_BytesInPipe() && DataLen)
     fe6:	80 91 a6 00 	lds	r24, 0x00A6

			/** Freezes the selected pipe, preventing it from communicating with an attached device. */
			static inline void Pipe_Freeze(void) ATTR_ALWAYS_INLINE;
			static inline void Pipe_Freeze(void)
			{
				UPCONX |= (1 << PFREEZE);
     fea:	8e 77       	andi	r24, 0x7E	; 126
     fec:	80 93 a6 00 	sts	0x00A6, r24
     ff0:	20 97       	sbiw	r28, 0x00	; 0
			 *  \ingroup Group_PipePacketManagement_AVR8
			 */
			static inline void Pipe_ClearIN(void) ATTR_ALWAYS_INLINE;
			static inline void Pipe_ClearIN(void)
			{
				UPINTX &= ~((1 << RXINI) | (1 << FIFOCON));
     ff2:	d9 f6       	brne	.-74     	; 0xfaa <USB_Host_SendControlRequest+0xd2>
     ff4:	c3 cf       	rjmp	.-122    	; 0xf7c <USB_Host_SendControlRequest+0xa4>
     ff6:	20 97       	sbiw	r28, 0x00	; 0
     ff8:	89 f3       	breq	.-30     	; 0xfdc <USB_Host_SendControlRequest+0x104>
     ffa:	80 91 af 00 	lds	r24, 0x00AF
	{
		Pipe_SetPipeToken(PIPE_TOKEN_IN);

		if (DataStream != NULL)
		{
			while (DataLen)
     ffe:	81 93       	st	Z+, r24
    1000:	21 97       	sbiw	r28, 0x01	; 1
				  return ReturnStatus;

				if (!(Pipe_BytesInPipe()))
				  DataLen = 0;

				while (Pipe_BytesInPipe() && DataLen)
    1002:	e5 cf       	rjmp	.-54     	; 0xfce <USB_Host_SendControlRequest+0xf6>
    1004:	01 15       	cp	r16, r1
			 *  \return Next byte in the currently selected pipe's FIFO buffer.
			 */
			static inline uint8_t Pipe_Read_8(void) ATTR_WARN_UNUSED_RESULT ATTR_ALWAYS_INLINE;
			static inline uint8_t Pipe_Read_8(void)
			{
				return UPDATX;
    1006:	11 05       	cpc	r17, r1
    1008:	b1 f1       	breq	.+108    	; 0x1076 <USB_Host_SendControlRequest+0x19e>
				{
					*(DataStream++) = Pipe_Read_8();
    100a:	80 91 aa 00 	lds	r24, 0x00AA
					DataLen--;
    100e:	8f 7c       	andi	r24, 0xCF	; 207
		if ((ReturnStatus = USB_Host_WaitForIOS(USB_HOST_WAITFOR_OutReady)) != HOST_SENDCONTROL_Successful)
		  return ReturnStatus;
	}
	else
	{
		if (DataStream != NULL)
    1010:	80 62       	ori	r24, 0x20	; 32
    1012:	80 93 aa 00 	sts	0x00AA, r24
			 *  \param[in] Token  New pipe token to set the selected pipe to, as a \c PIPE_TOKEN_* mask.
			 */
			static inline void Pipe_SetPipeToken(const uint8_t Token) ATTR_ALWAYS_INLINE;
			static inline void Pipe_SetPipeToken(const uint8_t Token)
			{
				UPCFG0X = ((UPCFG0X & ~(0x03 << PTOKEN0)) | Token);
    1016:	80 91 a9 00 	lds	r24, 0x00A9
    101a:	8f 7b       	andi	r24, 0xBF	; 191
    101c:	80 93 a9 00 	sts	0x00A9, r24
    1020:	82 e0       	ldi	r24, 0x02	; 2

			/** Unfreezes the selected pipe, allowing it to communicate with an attached device. */
			static inline void Pipe_Unfreeze(void) ATTR_ALWAYS_INLINE;
			static inline void Pipe_Unfreeze(void)
			{
				UPCONX &= ~(1 << PFREEZE);
    1022:	20 97       	sbiw	r28, 0x00	; 0
    1024:	01 f1       	breq	.+64     	; 0x1066 <USB_Host_SendControlRequest+0x18e>
    1026:	31 df       	rcall	.-414    	; 0xe8a <USB_Host_WaitForIOS>
    1028:	81 11       	cpse	r24, r1
    102a:	3a c0       	rjmp	.+116    	; 0x10a0 <USB_Host_SendControlRequest+0x1c8>
			Pipe_SetPipeToken(PIPE_TOKEN_OUT);
			Pipe_Unfreeze();

			while (DataLen)
			{
				if ((ReturnStatus = USB_Host_WaitForIOS(USB_HOST_WAITFOR_OutReady)) != HOST_SENDCONTROL_Successful)
    102c:	f8 01       	movw	r30, r16
		if (DataStream != NULL)
		{
			Pipe_SetPipeToken(PIPE_TOKEN_OUT);
			Pipe_Unfreeze();

			while (DataLen)
    102e:	20 91 f6 00 	lds	r18, 0x00F6
			{
				if ((ReturnStatus = USB_Host_WaitForIOS(USB_HOST_WAITFOR_OutReady)) != HOST_SENDCONTROL_Successful)
    1032:	30 91 f7 00 	lds	r19, 0x00F7
    1036:	80 91 17 01 	lds	r24, 0x0117
    103a:	90 e0       	ldi	r25, 0x00	; 0
			 *  \return Total number of bytes in the currently selected pipe's FIFO buffer.
			 */
			static inline uint16_t Pipe_BytesInPipe(void) ATTR_WARN_UNUSED_RESULT ATTR_ALWAYS_INLINE;
			static inline uint16_t Pipe_BytesInPipe(void)
			{
				return UPBCX;
    103c:	28 17       	cp	r18, r24
    103e:	39 07       	cpc	r19, r25
    1040:	58 f4       	brcc	.+22     	; 0x1058 <USB_Host_SendControlRequest+0x180>
    1042:	cf 01       	movw	r24, r30
				  return ReturnStatus;

				while (DataLen && (Pipe_BytesInPipe() < USB_Host_ControlPipeSize))
    1044:	01 96       	adiw	r24, 0x01	; 1
    1046:	8c 01       	movw	r16, r24
    1048:	20 81       	ld	r18, Z
    104a:	20 93 af 00 	sts	0x00AF, r18
    104e:	21 97       	sbiw	r28, 0x01	; 1
    1050:	20 97       	sbiw	r28, 0x00	; 0
    1052:	19 f0       	breq	.+6      	; 0x105a <USB_Host_SendControlRequest+0x182>
    1054:	fc 01       	movw	r30, r24
				{
					Pipe_Write_8(*(DataStream++));
    1056:	eb cf       	rjmp	.-42     	; 0x102e <USB_Host_SendControlRequest+0x156>
			 *  \param[in] Data  Data to write into the the currently selected pipe's FIFO buffer.
			 */
			static inline void Pipe_Write_8(const uint8_t Data) ATTR_ALWAYS_INLINE;
			static inline void Pipe_Write_8(const uint8_t Data)
			{
				UPDATX = Data;
    1058:	8f 01       	movw	r16, r30
    105a:	80 91 a6 00 	lds	r24, 0x00A6
			while (DataLen)
			{
				if ((ReturnStatus = USB_Host_WaitForIOS(USB_HOST_WAITFOR_OutReady)) != HOST_SENDCONTROL_Successful)
				  return ReturnStatus;

				while (DataLen && (Pipe_BytesInPipe() < USB_Host_ControlPipeSize))
    105e:	8b 77       	andi	r24, 0x7B	; 123
    1060:	80 93 a6 00 	sts	0x00A6, r24
    1064:	dd cf       	rjmp	.-70     	; 0x1020 <USB_Host_SendControlRequest+0x148>
    1066:	11 df       	rcall	.-478    	; 0xe8a <USB_Host_WaitForIOS>
			 *  \ingroup Group_PipePacketManagement_AVR8
			 */
			static inline void Pipe_ClearOUT(void) ATTR_ALWAYS_INLINE;
			static inline void Pipe_ClearOUT(void)
			{
				UPINTX &= ~((1 << TXOUTI) | (1 << FIFOCON));
    1068:	81 11       	cpse	r24, r1
    106a:	1a c0       	rjmp	.+52     	; 0x10a0 <USB_Host_SendControlRequest+0x1c8>
    106c:	80 91 a9 00 	lds	r24, 0x00A9
    1070:	80 64       	ori	r24, 0x40	; 64
    1072:	80 93 a9 00 	sts	0x00A9, r24
				}

				Pipe_ClearOUT();
			}

			if ((ReturnStatus = USB_Host_WaitForIOS(USB_HOST_WAITFOR_OutReady)) != HOST_SENDCONTROL_Successful)
    1076:	80 91 aa 00 	lds	r24, 0x00AA
    107a:	8f 7c       	andi	r24, 0xCF	; 207

			/** Freezes the selected pipe, preventing it from communicating with an attached device. */
			static inline void Pipe_Freeze(void) ATTR_ALWAYS_INLINE;
			static inline void Pipe_Freeze(void)
			{
				UPCONX |= (1 << PFREEZE);
    107c:	80 61       	ori	r24, 0x10	; 16
    107e:	80 93 aa 00 	sts	0x00AA, r24
    1082:	80 91 a9 00 	lds	r24, 0x00A9
			 *  \param[in] Token  New pipe token to set the selected pipe to, as a \c PIPE_TOKEN_* mask.
			 */
			static inline void Pipe_SetPipeToken(const uint8_t Token) ATTR_ALWAYS_INLINE;
			static inline void Pipe_SetPipeToken(const uint8_t Token)
			{
				UPCFG0X = ((UPCFG0X & ~(0x03 << PTOKEN0)) | Token);
    1086:	8f 7b       	andi	r24, 0xBF	; 191
    1088:	80 93 a9 00 	sts	0x00A9, r24
    108c:	81 e0       	ldi	r24, 0x01	; 1
    108e:	fd de       	rcall	.-518    	; 0xe8a <USB_Host_WaitForIOS>
    1090:	81 11       	cpse	r24, r1

			/** Unfreezes the selected pipe, allowing it to communicate with an attached device. */
			static inline void Pipe_Unfreeze(void) ATTR_ALWAYS_INLINE;
			static inline void Pipe_Unfreeze(void)
			{
				UPCONX &= ~(1 << PFREEZE);
    1092:	06 c0       	rjmp	.+12     	; 0x10a0 <USB_Host_SendControlRequest+0x1c8>
    1094:	80 91 a6 00 	lds	r24, 0x00A6
    1098:	8e 77       	andi	r24, 0x7E	; 126
    109a:	80 93 a6 00 	sts	0x00A6, r24
		}

		Pipe_SetPipeToken(PIPE_TOKEN_IN);
		Pipe_Unfreeze();

		if ((ReturnStatus = USB_Host_WaitForIOS(USB_HOST_WAITFOR_InReceived)) != HOST_SENDCONTROL_Successful)
    109e:	80 e0       	ldi	r24, 0x00	; 0
    10a0:	90 91 a9 00 	lds	r25, 0x00A9
    10a4:	90 64       	ori	r25, 0x40	; 64
			 *  \ingroup Group_PipePacketManagement_AVR8
			 */
			static inline void Pipe_ClearIN(void) ATTR_ALWAYS_INLINE;
			static inline void Pipe_ClearIN(void)
			{
				UPINTX &= ~((1 << RXINI) | (1 << FIFOCON));
    10a6:	90 93 a9 00 	sts	0x00A9, r25
    10aa:	f1 10       	cpse	r15, r1
    10ac:	05 c0       	rjmp	.+10     	; 0x10b8 <USB_Host_SendControlRequest+0x1e0>
    10ae:	90 91 9e 00 	lds	r25, 0x009E

			/** Freezes the selected pipe, preventing it from communicating with an attached device. */
			static inline void Pipe_Freeze(void) ATTR_ALWAYS_INLINE;
			static inline void Pipe_Freeze(void)
			{
				UPCONX |= (1 << PFREEZE);
    10b2:	9e 7f       	andi	r25, 0xFE	; 254
    10b4:	90 93 9e 00 	sts	0x009E, r25
    10b8:	91 e0       	ldi	r25, 0x01	; 1
    10ba:	90 93 a8 00 	sts	0x00A8, r25
	bool BusSuspended    = USB_Host_IsBusSuspended();
	uint8_t ReturnStatus = USB_Host_SendControlRequest_PRV(BufferPtr);

	Pipe_Freeze();

	if (BusSuspended)
    10be:	10 92 a8 00 	sts	0x00A8, r1
			 *             some events (such as device disconnections) will not fire until the bus is resumed.
			 */
			static inline void USB_Host_SuspendBus(void) ATTR_ALWAYS_INLINE;
			static inline void USB_Host_SuspendBus(void)
			{
				UHCON &= ~(1 << SOFEN);
    10c2:	df 91       	pop	r29
    10c4:	cf 91       	pop	r28
    10c6:	1f 91       	pop	r17
    10c8:	0f 91       	pop	r16
			 *  \param[in] Address  Address of the pipe to reset.
			 */
			static inline void Pipe_ResetPipe(const uint8_t Address) ATTR_ALWAYS_INLINE;
			static inline void Pipe_ResetPipe(const uint8_t Address)
			{
				UPRST = (1 << (Address & PIPE_PIPENUM_MASK));
    10ca:	ff 90       	pop	r15
    10cc:	08 95       	ret

000010ce <USB_Host_SetDeviceConfiguration>:
    10ce:	cf 93       	push	r28
				UPRST = 0;
    10d0:	c8 2f       	mov	r28, r24
    10d2:	10 92 2d 01 	sts	0x012D, r1
	  USB_Host_SuspendBus();

	Pipe_ResetPipe(PIPE_CONTROLPIPE);

	return ReturnStatus;
}
    10d6:	89 e0       	ldi	r24, 0x09	; 9
    10d8:	80 93 2e 01 	sts	0x012E, r24
    10dc:	2c 2f       	mov	r18, r28
    10de:	30 e0       	ldi	r19, 0x00	; 0

uint8_t USB_Host_SetDeviceConfiguration(const uint8_t ConfigNumber)
{
	uint8_t ErrorCode;

	USB_ControlRequest = (USB_Request_Header_t)
    10e0:	30 93 30 01 	sts	0x0130, r19
    10e4:	20 93 2f 01 	sts	0x012F, r18
    10e8:	10 92 32 01 	sts	0x0132, r1
    10ec:	10 92 31 01 	sts	0x0131, r1
    10f0:	10 92 34 01 	sts	0x0134, r1
    10f4:	10 92 33 01 	sts	0x0133, r1
			 *  \param[in] Address  Address of the pipe to select.
			 */
			static inline void Pipe_SelectPipe(const uint8_t Address) ATTR_ALWAYS_INLINE;
			static inline void Pipe_SelectPipe(const uint8_t Address)
			{
				UPNUM = (Address & PIPE_PIPENUM_MASK);
    10f8:	10 92 a7 00 	sts	0x00A7, r1
			.wLength       = 0,
		};

	Pipe_SelectPipe(PIPE_CONTROLPIPE);

	if ((ErrorCode = USB_Host_SendControlRequest(NULL)) == HOST_SENDCONTROL_Successful)
    10fc:	80 e0       	ldi	r24, 0x00	; 0
    10fe:	90 e0       	ldi	r25, 0x00	; 0
    1100:	eb de       	rcall	.-554    	; 0xed8 <USB_Host_SendControlRequest>
    1102:	81 11       	cpse	r24, r1
    1104:	09 c0       	rjmp	.+18     	; 0x1118 <USB_Host_SetDeviceConfiguration+0x4a>
    1106:	c0 93 2b 01 	sts	0x012B, r28
	{
		USB_Host_ConfigurationNumber = ConfigNumber;
    110a:	cc 23       	and	r28, r28
		USB_HostState                = (ConfigNumber) ? HOST_STATE_Configured : HOST_STATE_Addressed;
    110c:	11 f0       	breq	.+4      	; 0x1112 <USB_Host_SetDeviceConfiguration+0x44>
    110e:	9b e0       	ldi	r25, 0x0B	; 11
    1110:	01 c0       	rjmp	.+2      	; 0x1114 <USB_Host_SetDeviceConfiguration+0x46>
    1112:	9a e0       	ldi	r25, 0x0A	; 10
    1114:	90 93 35 01 	sts	0x0135, r25
    1118:	cf 91       	pop	r28
	}

	return ErrorCode;
}
    111a:	08 95       	ret

0000111c <USB_USBTask>:
#if defined(USB_CAN_BE_DEVICE) && !defined(DEVICE_STATE_AS_GPIOR)
volatile uint8_t     USB_DeviceState;
#endif

void USB_USBTask(void)
{
    111c:	cf 93       	push	r28
			 *  \return Index of the currently selected pipe.
			 */
			static inline uint8_t Pipe_GetCurrentPipe(void) ATTR_WARN_UNUSED_RESULT ATTR_ALWAYS_INLINE;
			static inline uint8_t Pipe_GetCurrentPipe(void)
			{
				return ((UPNUM & PIPE_PIPENUM_MASK) | Pipe_GetPipeDirection());
    111e:	c0 91 a7 00 	lds	r28, 0x00A7
    1122:	cf 70       	andi	r28, 0x0F	; 15
			 *  \return The currently selected pipe's direction, as a \c PIPE_DIR_* mask.
			 */
			static inline uint8_t Pipe_GetPipeDirection(void) ATTR_WARN_UNUSED_RESULT ATTR_ALWAYS_INLINE;
			static inline uint8_t Pipe_GetPipeDirection(void)
			{
				return (UPCFG0X & (1 << EPDIR)) ? PIPE_DIR_IN : PIPE_DIR_OUT;
    1124:	80 91 aa 00 	lds	r24, 0x00AA
			 *  \param[in] Address  Address of the pipe to select.
			 */
			static inline void Pipe_SelectPipe(const uint8_t Address) ATTR_ALWAYS_INLINE;
			static inline void Pipe_SelectPipe(const uint8_t Address)
			{
				UPNUM = (Address & PIPE_PIPENUM_MASK);
    1128:	10 92 a7 00 	sts	0x00A7, r1
{
	uint8_t PrevPipe = Pipe_GetCurrentPipe();

	Pipe_SelectPipe(PIPE_CONTROLPIPE);

	USB_Host_ProcessNextHostState();
    112c:	8d da       	rcall	.-2790   	; 0x648 <USB_Host_ProcessNextHostState>
    112e:	c0 93 a7 00 	sts	0x00A7, r28
    1132:	cf 91       	pop	r28
	#elif defined(USB_CAN_BE_HOST)
		USB_HostTask();
	#elif defined(USB_CAN_BE_DEVICE)
		USB_DeviceTask();
	#endif
}
    1134:	08 95       	ret

00001136 <DCOMP_HID_Host_NextHIDInterface>:

static uint8_t DCOMP_HID_Host_NextHIDInterface(void* const CurrentDescriptor)
{
	USB_Descriptor_Header_t* Header = DESCRIPTOR_PCAST(CurrentDescriptor, USB_Descriptor_Header_t);

	if (Header->Type == DTYPE_Interface)
    1136:	fc 01       	movw	r30, r24
    1138:	21 81       	ldd	r18, Z+1	; 0x01
    113a:	24 30       	cpi	r18, 0x04	; 4
    113c:	29 f4       	brne	.+10     	; 0x1148 <DCOMP_HID_Host_NextHIDInterface+0x12>
	{
		USB_Descriptor_Interface_t* Interface = DESCRIPTOR_PCAST(CurrentDescriptor, USB_Descriptor_Interface_t);

		if (Interface->Class == HID_CSCP_HIDClass)
    113e:	85 81       	ldd	r24, Z+5	; 0x05
    1140:	83 30       	cpi	r24, 0x03	; 3
    1142:	11 f4       	brne	.+4      	; 0x1148 <DCOMP_HID_Host_NextHIDInterface+0x12>
		  return DESCRIPTOR_SEARCH_Found;
    1144:	80 e0       	ldi	r24, 0x00	; 0
    1146:	08 95       	ret
	}

	return DESCRIPTOR_SEARCH_NotFound;
    1148:	82 e0       	ldi	r24, 0x02	; 2
}
    114a:	08 95       	ret

0000114c <DCOMP_HID_Host_NextHIDDescriptor>:

static uint8_t DCOMP_HID_Host_NextHIDDescriptor(void* const CurrentDescriptor)
{
	USB_Descriptor_Header_t* Header = DESCRIPTOR_PCAST(CurrentDescriptor, USB_Descriptor_Header_t);

	if (Header->Type == HID_DTYPE_HID)
    114c:	fc 01       	movw	r30, r24
    114e:	81 81       	ldd	r24, Z+1	; 0x01
    1150:	81 32       	cpi	r24, 0x21	; 33
    1152:	21 f0       	breq	.+8      	; 0x115c <DCOMP_HID_Host_NextHIDDescriptor+0x10>
	  return DESCRIPTOR_SEARCH_Found;
	else if (Header->Type == DTYPE_Interface)
    1154:	84 30       	cpi	r24, 0x04	; 4
    1156:	21 f4       	brne	.+8      	; 0x1160 <DCOMP_HID_Host_NextHIDDescriptor+0x14>
	  return DESCRIPTOR_SEARCH_Fail;
    1158:	81 e0       	ldi	r24, 0x01	; 1
    115a:	08 95       	ret
static uint8_t DCOMP_HID_Host_NextHIDDescriptor(void* const CurrentDescriptor)
{
	USB_Descriptor_Header_t* Header = DESCRIPTOR_PCAST(CurrentDescriptor, USB_Descriptor_Header_t);

	if (Header->Type == HID_DTYPE_HID)
	  return DESCRIPTOR_SEARCH_Found;
    115c:	80 e0       	ldi	r24, 0x00	; 0
    115e:	08 95       	ret
	else if (Header->Type == DTYPE_Interface)
	  return DESCRIPTOR_SEARCH_Fail;
	else
	  return DESCRIPTOR_SEARCH_NotFound;
    1160:	82 e0       	ldi	r24, 0x02	; 2
}
    1162:	08 95       	ret

00001164 <DCOMP_HID_Host_NextHIDInterfaceEndpoint>:

static uint8_t DCOMP_HID_Host_NextHIDInterfaceEndpoint(void* const CurrentDescriptor)
{
	USB_Descriptor_Header_t* Header = DESCRIPTOR_PCAST(CurrentDescriptor, USB_Descriptor_Header_t);

	if (Header->Type == DTYPE_Endpoint)
    1164:	fc 01       	movw	r30, r24
    1166:	21 81       	ldd	r18, Z+1	; 0x01
    1168:	25 30       	cpi	r18, 0x05	; 5
    116a:	31 f4       	brne	.+12     	; 0x1178 <DCOMP_HID_Host_NextHIDInterfaceEndpoint+0x14>
	{
		USB_Descriptor_Endpoint_t* Endpoint = DESCRIPTOR_PCAST(CurrentDescriptor, USB_Descriptor_Endpoint_t);

		if (!(Pipe_IsEndpointBound(Endpoint->EndpointAddress)))
    116c:	82 81       	ldd	r24, Z+2	; 0x02
    116e:	76 dc       	rcall	.-1812   	; 0xa5c <Pipe_IsEndpointBound>
    1170:	88 23       	and	r24, r24
    1172:	31 f0       	breq	.+12     	; 0x1180 <DCOMP_HID_Host_NextHIDInterfaceEndpoint+0x1c>
    1174:	82 e0       	ldi	r24, 0x02	; 2
	else if (Header->Type == DTYPE_Interface)
	{
		return DESCRIPTOR_SEARCH_Fail;
	}

	return DESCRIPTOR_SEARCH_NotFound;
    1176:	08 95       	ret
    1178:	24 30       	cpi	r18, 0x04	; 4
		USB_Descriptor_Endpoint_t* Endpoint = DESCRIPTOR_PCAST(CurrentDescriptor, USB_Descriptor_Endpoint_t);

		if (!(Pipe_IsEndpointBound(Endpoint->EndpointAddress)))
		  return DESCRIPTOR_SEARCH_Found;
	}
	else if (Header->Type == DTYPE_Interface)
    117a:	e1 f7       	brne	.-8      	; 0x1174 <DCOMP_HID_Host_NextHIDInterfaceEndpoint+0x10>
    117c:	81 e0       	ldi	r24, 0x01	; 1
	{
		return DESCRIPTOR_SEARCH_Fail;
    117e:	08 95       	ret
    1180:	80 e0       	ldi	r24, 0x00	; 0
	if (Header->Type == DTYPE_Endpoint)
	{
		USB_Descriptor_Endpoint_t* Endpoint = DESCRIPTOR_PCAST(CurrentDescriptor, USB_Descriptor_Endpoint_t);

		if (!(Pipe_IsEndpointBound(Endpoint->EndpointAddress)))
		  return DESCRIPTOR_SEARCH_Found;
    1182:	08 95       	ret

00001184 <HID_Host_ConfigurePipes>:
	{
		return DESCRIPTOR_SEARCH_Fail;
	}

	return DESCRIPTOR_SEARCH_NotFound;
}
    1184:	6f 92       	push	r6
#include "HIDClassHost.h"

uint8_t HID_Host_ConfigurePipes(USB_ClassInfo_HID_Host_t* const HIDInterfaceInfo,
                                uint16_t ConfigDescriptorSize,
                                void* ConfigDescriptorData)
{
    1186:	7f 92       	push	r7
    1188:	8f 92       	push	r8
    118a:	9f 92       	push	r9
    118c:	af 92       	push	r10
    118e:	bf 92       	push	r11
    1190:	cf 92       	push	r12
    1192:	df 92       	push	r13
    1194:	ef 92       	push	r14
    1196:	ff 92       	push	r15
    1198:	0f 93       	push	r16
    119a:	1f 93       	push	r17
    119c:	cf 93       	push	r28
    119e:	df 93       	push	r29
    11a0:	00 d0       	rcall	.+0      	; 0x11a2 <HID_Host_ConfigurePipes+0x1e>
    11a2:	00 d0       	rcall	.+0      	; 0x11a4 <HID_Host_ConfigurePipes+0x20>
    11a4:	cd b7       	in	r28, 0x3d	; 61
    11a6:	de b7       	in	r29, 0x3e	; 62
    11a8:	8c 01       	movw	r16, r24
    11aa:	7a 83       	std	Y+2, r23	; 0x02
    11ac:	69 83       	std	Y+1, r22	; 0x01
    11ae:	5c 83       	std	Y+4, r21	; 0x04
    11b0:	4b 83       	std	Y+3, r20	; 0x03
	USB_Descriptor_Endpoint_t*  DataINEndpoint  = NULL;
	USB_Descriptor_Endpoint_t*  DataOUTEndpoint = NULL;
	USB_Descriptor_Interface_t* HIDInterface    = NULL;
	USB_HID_Descriptor_HID_t*   HIDDescriptor   = NULL;

	memset(&HIDInterfaceInfo->State, 0x00, sizeof(HIDInterfaceInfo->State));
    11b2:	fc 01       	movw	r30, r24
    11b4:	3f 96       	adiw	r30, 0x0f	; 15
    11b6:	88 e0       	ldi	r24, 0x08	; 8
    11b8:	df 01       	movw	r26, r30
    11ba:	1d 92       	st	X+, r1
    11bc:	8a 95       	dec	r24
    11be:	e9 f7       	brne	.-6      	; 0x11ba <HID_Host_ConfigurePipes+0x36>

	if (DESCRIPTOR_TYPE(ConfigDescriptorData) != DTYPE_Configuration)
    11c0:	eb 81       	ldd	r30, Y+3	; 0x03
    11c2:	fc 81       	ldd	r31, Y+4	; 0x04
    11c4:	81 81       	ldd	r24, Z+1	; 0x01
    11c6:	82 30       	cpi	r24, 0x02	; 2
    11c8:	09 f0       	breq	.+2      	; 0x11cc <HID_Host_ConfigurePipes+0x48>
    11ca:	9d c0       	rjmp	.+314    	; 0x1306 <HID_Host_ConfigurePipes+0x182>
    11cc:	81 2c       	mov	r8, r1
    11ce:	91 2c       	mov	r9, r1
    11d0:	c1 2c       	mov	r12, r1
    11d2:	d1 2c       	mov	r13, r1
    11d4:	61 2c       	mov	r6, r1
    11d6:	71 2c       	mov	r7, r1
    11d8:	a1 2c       	mov	r10, r1
    11da:	b1 2c       	mov	r11, r1
	  return HID_ENUMERROR_InvalidConfigDescriptor;

	while (!(DataINEndpoint) || !(DataOUTEndpoint))
	{
		if (!(HIDInterface) ||
    11dc:	c1 14       	cp	r12, r1
    11de:	d1 04       	cpc	r13, r1
    11e0:	21 f4       	brne	.+8      	; 0x11ea <HID_Host_ConfigurePipes+0x66>
		    USB_GetNextDescriptorComp(&ConfigDescriptorSize, &ConfigDescriptorData,
		                              DCOMP_HID_Host_NextHIDInterfaceEndpoint) != DESCRIPTOR_SEARCH_COMP_Found)
		{
			if (DataINEndpoint)
    11e2:	a1 14       	cp	r10, r1
    11e4:	b1 04       	cpc	r11, r1
    11e6:	b9 f0       	breq	.+46     	; 0x1216 <HID_Host_ConfigurePipes+0x92>
    11e8:	41 c0       	rjmp	.+130    	; 0x126c <HID_Host_ConfigurePipes+0xe8>
	  return HID_ENUMERROR_InvalidConfigDescriptor;

	while (!(DataINEndpoint) || !(DataOUTEndpoint))
	{
		if (!(HIDInterface) ||
		    USB_GetNextDescriptorComp(&ConfigDescriptorSize, &ConfigDescriptorData,
    11ea:	42 eb       	ldi	r20, 0xB2	; 178
    11ec:	58 e0       	ldi	r21, 0x08	; 8
    11ee:	be 01       	movw	r22, r28
    11f0:	6d 5f       	subi	r22, 0xFD	; 253
    11f2:	7f 4f       	sbci	r23, 0xFF	; 255
    11f4:	ce 01       	movw	r24, r28
    11f6:	01 96       	adiw	r24, 0x01	; 1
    11f8:	15 de       	rcall	.-982    	; 0xe24 <USB_GetNextDescriptorComp>
    11fa:	81 11       	cpse	r24, r1
	if (DESCRIPTOR_TYPE(ConfigDescriptorData) != DTYPE_Configuration)
	  return HID_ENUMERROR_InvalidConfigDescriptor;

	while (!(DataINEndpoint) || !(DataOUTEndpoint))
	{
		if (!(HIDInterface) ||
    11fc:	f2 cf       	rjmp	.-28     	; 0x11e2 <HID_Host_ConfigurePipes+0x5e>
    11fe:	27 c0       	rjmp	.+78     	; 0x124e <HID_Host_ConfigurePipes+0xca>
    1200:	cb 80       	ldd	r12, Y+3	; 0x03
				                              DCOMP_HID_Host_NextHIDInterface) != DESCRIPTOR_SEARCH_COMP_Found)
				{
					return HID_ENUMERROR_NoCompatibleInterfaceFound;
				}

				HIDInterface = DESCRIPTOR_PCAST(ConfigDescriptorData, USB_Descriptor_Interface_t);
    1202:	dc 80       	ldd	r13, Y+4	; 0x04
    1204:	f8 01       	movw	r30, r16
			} while (HIDInterfaceInfo->Config.HIDInterfaceProtocol &&
    1206:	84 85       	ldd	r24, Z+12	; 0x0c
    1208:	88 23       	and	r24, r24
					 (HIDInterface->Protocol != HIDInterfaceInfo->Config.HIDInterfaceProtocol));
    120a:	89 f0       	breq	.+34     	; 0x122e <HID_Host_ConfigurePipes+0xaa>
    120c:	d6 01       	movw	r26, r12
				{
					return HID_ENUMERROR_NoCompatibleInterfaceFound;
				}

				HIDInterface = DESCRIPTOR_PCAST(ConfigDescriptorData, USB_Descriptor_Interface_t);
			} while (HIDInterfaceInfo->Config.HIDInterfaceProtocol &&
    120e:	17 96       	adiw	r26, 0x07	; 7
    1210:	9c 91       	ld	r25, X
    1212:	98 17       	cp	r25, r24
    1214:	61 f0       	breq	.+24     	; 0x122e <HID_Host_ConfigurePipes+0xaa>
    1216:	4b e9       	ldi	r20, 0x9B	; 155
			if (DataINEndpoint)
			  break;

			do
			{
				if (USB_GetNextDescriptorComp(&ConfigDescriptorSize, &ConfigDescriptorData,
    1218:	58 e0       	ldi	r21, 0x08	; 8
    121a:	be 01       	movw	r22, r28
    121c:	6d 5f       	subi	r22, 0xFD	; 253
    121e:	7f 4f       	sbci	r23, 0xFF	; 255
    1220:	ce 01       	movw	r24, r28
    1222:	01 96       	adiw	r24, 0x01	; 1
    1224:	ff dd       	rcall	.-1026   	; 0xe24 <USB_GetNextDescriptorComp>
    1226:	88 23       	and	r24, r24
    1228:	59 f3       	breq	.-42     	; 0x1200 <HID_Host_ConfigurePipes+0x7c>
    122a:	82 e0       	ldi	r24, 0x02	; 2
    122c:	6d c0       	rjmp	.+218    	; 0x1308 <HID_Host_ConfigurePipes+0x184>
				                              DCOMP_HID_Host_NextHIDInterface) != DESCRIPTOR_SEARCH_COMP_Found)
				{
					return HID_ENUMERROR_NoCompatibleInterfaceFound;
    122e:	46 ea       	ldi	r20, 0xA6	; 166
    1230:	58 e0       	ldi	r21, 0x08	; 8

				HIDInterface = DESCRIPTOR_PCAST(ConfigDescriptorData, USB_Descriptor_Interface_t);
			} while (HIDInterfaceInfo->Config.HIDInterfaceProtocol &&
					 (HIDInterface->Protocol != HIDInterfaceInfo->Config.HIDInterfaceProtocol));

			if (USB_GetNextDescriptorComp(&ConfigDescriptorSize, &ConfigDescriptorData,
    1232:	be 01       	movw	r22, r28
    1234:	6d 5f       	subi	r22, 0xFD	; 253
    1236:	7f 4f       	sbci	r23, 0xFF	; 255
    1238:	ce 01       	movw	r24, r28
    123a:	01 96       	adiw	r24, 0x01	; 1
    123c:	f3 dd       	rcall	.-1050   	; 0xe24 <USB_GetNextDescriptorComp>
    123e:	81 11       	cpse	r24, r1
    1240:	f4 cf       	rjmp	.-24     	; 0x122a <HID_Host_ConfigurePipes+0xa6>
    1242:	8b 80       	ldd	r8, Y+3	; 0x03
    1244:	9c 80       	ldd	r9, Y+4	; 0x04
    1246:	e1 2c       	mov	r14, r1
			                              DCOMP_HID_Host_NextHIDDescriptor) != DESCRIPTOR_SEARCH_COMP_Found)
			{
				return HID_ENUMERROR_NoCompatibleInterfaceFound;
			}

			HIDDescriptor = DESCRIPTOR_PCAST(ConfigDescriptorData, USB_HID_Descriptor_HID_t);
    1248:	f1 2c       	mov	r15, r1
    124a:	37 01       	movw	r6, r14

			DataINEndpoint  = NULL;
			DataOUTEndpoint = NULL;
    124c:	c7 cf       	rjmp	.-114    	; 0x11dc <HID_Host_ConfigurePipes+0x58>
    124e:	eb 80       	ldd	r14, Y+3	; 0x03
    1250:	fc 80       	ldd	r15, Y+4	; 0x04
    1252:	f7 01       	movw	r30, r14

			continue;
		}

		USB_Descriptor_Endpoint_t* EndpointData = DESCRIPTOR_PCAST(ConfigDescriptorData, USB_Descriptor_Endpoint_t);
    1254:	82 81       	ldd	r24, Z+2	; 0x02
    1256:	87 ff       	sbrs	r24, 7

		if ((EndpointData->EndpointAddress & ENDPOINT_DIR_MASK) == ENDPOINT_DIR_IN)
    1258:	02 c0       	rjmp	.+4      	; 0x125e <HID_Host_ConfigurePipes+0xda>
    125a:	57 01       	movw	r10, r14
    125c:	73 01       	movw	r14, r6
    125e:	a1 14       	cp	r10, r1
		  DataINEndpoint  = EndpointData;
    1260:	b1 04       	cpc	r11, r1
			continue;
		}

		USB_Descriptor_Endpoint_t* EndpointData = DESCRIPTOR_PCAST(ConfigDescriptorData, USB_Descriptor_Endpoint_t);

		if ((EndpointData->EndpointAddress & ENDPOINT_DIR_MASK) == ENDPOINT_DIR_IN)
    1262:	99 f3       	breq	.-26     	; 0x124a <HID_Host_ConfigurePipes+0xc6>
	memset(&HIDInterfaceInfo->State, 0x00, sizeof(HIDInterfaceInfo->State));

	if (DESCRIPTOR_TYPE(ConfigDescriptorData) != DTYPE_Configuration)
	  return HID_ENUMERROR_InvalidConfigDescriptor;

	while (!(DataINEndpoint) || !(DataOUTEndpoint))
    1264:	e1 14       	cp	r14, r1
    1266:	f1 04       	cpc	r15, r1
    1268:	81 f3       	breq	.-32     	; 0x124a <HID_Host_ConfigurePipes+0xc6>
    126a:	01 c0       	rjmp	.+2      	; 0x126e <HID_Host_ConfigurePipes+0xea>
    126c:	73 01       	movw	r14, r6
    126e:	d5 01       	movw	r26, r10
    1270:	14 96       	adiw	r26, 0x04	; 4
    1272:	8d 91       	ld	r24, X+
		  DataINEndpoint  = EndpointData;
		else
		  DataOUTEndpoint = EndpointData;
	}

	HIDInterfaceInfo->Config.DataINPipe.Size  = le16_to_cpu(DataINEndpoint->EndpointSize);
    1274:	9c 91       	ld	r25, X
    1276:	15 97       	sbiw	r26, 0x05	; 5
    1278:	f8 01       	movw	r30, r16
    127a:	92 83       	std	Z+2, r25	; 0x02
    127c:	81 83       	std	Z+1, r24	; 0x01
    127e:	12 96       	adiw	r26, 0x02	; 2
    1280:	8c 91       	ld	r24, X
    1282:	83 83       	std	Z+3, r24	; 0x03
	HIDInterfaceInfo->Config.DataINPipe.EndpointAddress = DataINEndpoint->EndpointAddress;
    1284:	83 e0       	ldi	r24, 0x03	; 3
    1286:	b8 2e       	mov	r11, r24
    1288:	b4 82       	std	Z+4, r11	; 0x04
	HIDInterfaceInfo->Config.DataINPipe.Type  = EP_TYPE_INTERRUPT;
    128a:	61 e0       	ldi	r22, 0x01	; 1
    128c:	c8 01       	movw	r24, r16
    128e:	b3 db       	rcall	.-2202   	; 0x9f6 <Pipe_ConfigurePipeTable>

	if (!(Pipe_ConfigurePipeTable(&HIDInterfaceInfo->Config.DataINPipe, 1)))
    1290:	81 11       	cpse	r24, r1
    1292:	02 c0       	rjmp	.+4      	; 0x1298 <HID_Host_ConfigurePipes+0x114>
    1294:	83 e0       	ldi	r24, 0x03	; 3
    1296:	38 c0       	rjmp	.+112    	; 0x1308 <HID_Host_ConfigurePipes+0x184>
    1298:	e1 14       	cp	r14, r1
    129a:	f1 04       	cpc	r15, r1
	  return HID_ENUMERROR_PipeConfigurationFailed;
    129c:	f9 f4       	brne	.+62     	; 0x12dc <HID_Host_ConfigurePipes+0x158>
    129e:	d6 01       	movw	r26, r12

	if (DataOUTEndpoint)
    12a0:	12 96       	adiw	r26, 0x02	; 2
    12a2:	8c 91       	ld	r24, X
    12a4:	f8 01       	movw	r30, r16

		if (!(Pipe_ConfigurePipeTable(&HIDInterfaceInfo->Config.DataOUTPipe, 1)))
		  return HID_ENUMERROR_PipeConfigurationFailed;
	}

	HIDInterfaceInfo->State.InterfaceNumber      = HIDInterface->InterfaceNumber;
    12a6:	80 8b       	std	Z+16, r24	; 0x10
    12a8:	d4 01       	movw	r26, r8
    12aa:	17 96       	adiw	r26, 0x07	; 7
    12ac:	8d 91       	ld	r24, X+
    12ae:	9c 91       	ld	r25, X
	HIDInterfaceInfo->State.HIDReportSize        = LE16_TO_CPU(HIDDescriptor->HIDReportLength);
    12b0:	18 97       	sbiw	r26, 0x08	; 8
    12b2:	95 8b       	std	Z+21, r25	; 0x15
    12b4:	84 8b       	std	Z+20, r24	; 0x14
    12b6:	81 e0       	ldi	r24, 0x01	; 1
    12b8:	f6 01       	movw	r30, r12
    12ba:	96 81       	ldd	r25, Z+6	; 0x06
    12bc:	91 11       	cpse	r25, r1
	HIDInterfaceInfo->State.SupportsBootProtocol = (HIDInterface->SubClass != HID_CSCP_NonBootProtocol);
    12be:	01 c0       	rjmp	.+2      	; 0x12c2 <HID_Host_ConfigurePipes+0x13e>
    12c0:	80 e0       	ldi	r24, 0x00	; 0
    12c2:	d8 01       	movw	r26, r16
    12c4:	51 96       	adiw	r26, 0x11	; 17
    12c6:	8c 93       	st	X, r24
    12c8:	51 97       	sbiw	r26, 0x11	; 17
    12ca:	88 e0       	ldi	r24, 0x08	; 8
    12cc:	56 96       	adiw	r26, 0x16	; 22
    12ce:	8c 93       	st	X, r24
    12d0:	56 97       	sbiw	r26, 0x16	; 22
	HIDInterfaceInfo->State.LargestReportSize    = 8;
    12d2:	81 e0       	ldi	r24, 0x01	; 1
    12d4:	1f 96       	adiw	r26, 0x0f	; 15
    12d6:	8c 93       	st	X, r24
    12d8:	80 e0       	ldi	r24, 0x00	; 0
	HIDInterfaceInfo->State.IsActive             = true;
    12da:	16 c0       	rjmp	.+44     	; 0x1308 <HID_Host_ConfigurePipes+0x184>
    12dc:	f7 01       	movw	r30, r14
    12de:	84 81       	ldd	r24, Z+4	; 0x04

	return HID_ENUMERROR_NoError;
    12e0:	95 81       	ldd	r25, Z+5	; 0x05
    12e2:	d8 01       	movw	r26, r16
	if (!(Pipe_ConfigurePipeTable(&HIDInterfaceInfo->Config.DataINPipe, 1)))
	  return HID_ENUMERROR_PipeConfigurationFailed;

	if (DataOUTEndpoint)
	{
		HIDInterfaceInfo->Config.DataOUTPipe.Size = le16_to_cpu(DataOUTEndpoint->EndpointSize);
    12e4:	18 96       	adiw	r26, 0x08	; 8
    12e6:	9c 93       	st	X, r25
    12e8:	8e 93       	st	-X, r24
    12ea:	17 97       	sbiw	r26, 0x07	; 7
    12ec:	82 81       	ldd	r24, Z+2	; 0x02
    12ee:	19 96       	adiw	r26, 0x09	; 9
    12f0:	8c 93       	st	X, r24
    12f2:	19 97       	sbiw	r26, 0x09	; 9
		HIDInterfaceInfo->Config.DataOUTPipe.EndpointAddress = DataOUTEndpoint->EndpointAddress;
    12f4:	1a 96       	adiw	r26, 0x0a	; 10
    12f6:	bc 92       	st	X, r11
    12f8:	61 e0       	ldi	r22, 0x01	; 1
    12fa:	c8 01       	movw	r24, r16
		HIDInterfaceInfo->Config.DataOUTPipe.Type = EP_TYPE_INTERRUPT;
    12fc:	06 96       	adiw	r24, 0x06	; 6
    12fe:	7b db       	rcall	.-2314   	; 0x9f6 <Pipe_ConfigurePipeTable>

		if (!(Pipe_ConfigurePipeTable(&HIDInterfaceInfo->Config.DataOUTPipe, 1)))
    1300:	88 23       	and	r24, r24
    1302:	41 f2       	breq	.-112    	; 0x1294 <HID_Host_ConfigurePipes+0x110>
    1304:	cc cf       	rjmp	.-104    	; 0x129e <HID_Host_ConfigurePipes+0x11a>
    1306:	81 e0       	ldi	r24, 0x01	; 1
    1308:	0f 90       	pop	r0
    130a:	0f 90       	pop	r0
    130c:	0f 90       	pop	r0
    130e:	0f 90       	pop	r0
	USB_HID_Descriptor_HID_t*   HIDDescriptor   = NULL;

	memset(&HIDInterfaceInfo->State, 0x00, sizeof(HIDInterfaceInfo->State));

	if (DESCRIPTOR_TYPE(ConfigDescriptorData) != DTYPE_Configuration)
	  return HID_ENUMERROR_InvalidConfigDescriptor;
    1310:	df 91       	pop	r29
	HIDInterfaceInfo->State.SupportsBootProtocol = (HIDInterface->SubClass != HID_CSCP_NonBootProtocol);
	HIDInterfaceInfo->State.LargestReportSize    = 8;
	HIDInterfaceInfo->State.IsActive             = true;

	return HID_ENUMERROR_NoError;
}
    1312:	cf 91       	pop	r28
    1314:	1f 91       	pop	r17
    1316:	0f 91       	pop	r16
    1318:	ff 90       	pop	r15
    131a:	ef 90       	pop	r14
    131c:	df 90       	pop	r13
    131e:	cf 90       	pop	r12
    1320:	bf 90       	pop	r11
    1322:	af 90       	pop	r10
    1324:	9f 90       	pop	r9
    1326:	8f 90       	pop	r8
    1328:	7f 90       	pop	r7
    132a:	6f 90       	pop	r6
    132c:	08 95       	ret

0000132e <HID_Host_ReceiveReport>:
    132e:	cf 93       	push	r28
    1330:	df 93       	push	r29
    1332:	fc 01       	movw	r30, r24
    1334:	eb 01       	movw	r28, r22
    1336:	80 91 35 01 	lds	r24, 0x0135
#endif

uint8_t HID_Host_ReceiveReport(USB_ClassInfo_HID_Host_t* const HIDInterfaceInfo,
                               void* Buffer)
{
	if ((USB_HostState != HOST_STATE_Configured) || !(HIDInterfaceInfo->State.IsActive))
    133a:	8b 30       	cpi	r24, 0x0B	; 11
    133c:	c1 f5       	brne	.+112    	; 0x13ae <HID_Host_ReceiveReport+0x80>
    133e:	87 85       	ldd	r24, Z+15	; 0x0f
    1340:	88 23       	and	r24, r24
    1342:	a9 f1       	breq	.+106    	; 0x13ae <HID_Host_ReceiveReport+0x80>
			 *  \param[in] Address  Address of the pipe to select.
			 */
			static inline void Pipe_SelectPipe(const uint8_t Address) ATTR_ALWAYS_INLINE;
			static inline void Pipe_SelectPipe(const uint8_t Address)
			{
				UPNUM = (Address & PIPE_PIPENUM_MASK);
    1344:	80 81       	ld	r24, Z
    1346:	8f 70       	andi	r24, 0x0F	; 15
    1348:	80 93 a7 00 	sts	0x00A7, r24

			/** Unfreezes the selected pipe, allowing it to communicate with an attached device. */
			static inline void Pipe_Unfreeze(void) ATTR_ALWAYS_INLINE;
			static inline void Pipe_Unfreeze(void)
			{
				UPCONX &= ~(1 << PFREEZE);
    134c:	80 91 a9 00 	lds	r24, 0x00A9
    1350:	8f 7b       	andi	r24, 0xBF	; 191
    1352:	80 93 a9 00 	sts	0x00A9, r24

	uint16_t ReportSize;
	uint8_t* BufferPos = Buffer;

#if !defined(HID_HOST_BOOT_PROTOCOL_ONLY)
	if (!(HIDInterfaceInfo->State.UsingBootProtocol))
    1356:	83 89       	ldd	r24, Z+19	; 0x13
    1358:	81 11       	cpse	r24, r1
    135a:	12 c0       	rjmp	.+36     	; 0x1380 <HID_Host_ReceiveReport+0x52>
	{
		uint8_t ReportID = 0;

		if (HIDInterfaceInfo->Config.HIDParserData->UsingReportIDs)
    135c:	a5 85       	ldd	r26, Z+13	; 0x0d
    135e:	b6 85       	ldd	r27, Z+14	; 0x0e
    1360:	a8 52       	subi	r26, 0x28	; 40
    1362:	bc 4f       	sbci	r27, 0xFC	; 252
    1364:	8c 91       	ld	r24, X
    1366:	88 23       	and	r24, r24
    1368:	29 f0       	breq	.+10     	; 0x1374 <HID_Host_ReceiveReport+0x46>
			 *  \return Next byte in the currently selected pipe's FIFO buffer.
			 */
			static inline uint8_t Pipe_Read_8(void) ATTR_WARN_UNUSED_RESULT ATTR_ALWAYS_INLINE;
			static inline uint8_t Pipe_Read_8(void)
			{
				return UPDATX;
    136a:	60 91 af 00 	lds	r22, 0x00AF
		{
			ReportID = Pipe_Read_8();
			*(BufferPos++) = ReportID;
    136e:	68 83       	st	Y, r22
    1370:	21 96       	adiw	r28, 0x01	; 1
    1372:	01 c0       	rjmp	.+2      	; 0x1376 <HID_Host_ReceiveReport+0x48>
	uint8_t* BufferPos = Buffer;

#if !defined(HID_HOST_BOOT_PROTOCOL_ONLY)
	if (!(HIDInterfaceInfo->State.UsingBootProtocol))
	{
		uint8_t ReportID = 0;
    1374:	60 e0       	ldi	r22, 0x00	; 0
		{
			ReportID = Pipe_Read_8();
			*(BufferPos++) = ReportID;
		}

		ReportSize = USB_GetHIDReportSize(HIDInterfaceInfo->Config.HIDParserData, ReportID, HID_REPORT_ITEM_In);
    1376:	40 e0       	ldi	r20, 0x00	; 0
    1378:	85 85       	ldd	r24, Z+13	; 0x0d
    137a:	96 85       	ldd	r25, Z+14	; 0x0e
    137c:	97 d8       	rcall	.-3794   	; 0x4ac <USB_GetHIDReportSize>
    137e:	04 c0       	rjmp	.+8      	; 0x1388 <HID_Host_ReceiveReport+0x5a>
    1380:	80 91 f6 00 	lds	r24, 0x00F6
			 *  \return Total number of bytes in the currently selected pipe's FIFO buffer.
			 */
			static inline uint16_t Pipe_BytesInPipe(void) ATTR_WARN_UNUSED_RESULT ATTR_ALWAYS_INLINE;
			static inline uint16_t Pipe_BytesInPipe(void)
			{
				return UPBCX;
    1384:	90 91 f7 00 	lds	r25, 0x00F7
    1388:	40 e0       	ldi	r20, 0x00	; 0
#endif
	{
		ReportSize = Pipe_BytesInPipe();
	}

	if ((ErrorCode = Pipe_Read_Stream_LE(BufferPos, ReportSize, NULL)) != PIPE_RWSTREAM_NoError)
    138a:	50 e0       	ldi	r21, 0x00	; 0
    138c:	bc 01       	movw	r22, r24
    138e:	ce 01       	movw	r24, r28
    1390:	7d da       	rcall	.-2822   	; 0x88c <Pipe_Read_Stream_LE>
    1392:	81 11       	cpse	r24, r1
    1394:	0d c0       	rjmp	.+26     	; 0x13b0 <HID_Host_ReceiveReport+0x82>
    1396:	80 91 a6 00 	lds	r24, 0x00A6
			 *  \ingroup Group_PipePacketManagement_AVR8
			 */
			static inline void Pipe_ClearIN(void) ATTR_ALWAYS_INLINE;
			static inline void Pipe_ClearIN(void)
			{
				UPINTX &= ~((1 << RXINI) | (1 << FIFOCON));
    139a:	8e 77       	andi	r24, 0x7E	; 126
    139c:	80 93 a6 00 	sts	0x00A6, r24
    13a0:	80 91 a9 00 	lds	r24, 0x00A9

			/** Freezes the selected pipe, preventing it from communicating with an attached device. */
			static inline void Pipe_Freeze(void) ATTR_ALWAYS_INLINE;
			static inline void Pipe_Freeze(void)
			{
				UPCONX |= (1 << PFREEZE);
    13a4:	80 64       	ori	r24, 0x40	; 64
    13a6:	80 93 a9 00 	sts	0x00A9, r24
    13aa:	80 e0       	ldi	r24, 0x00	; 0
    13ac:	01 c0       	rjmp	.+2      	; 0x13b0 <HID_Host_ReceiveReport+0x82>
	  return ErrorCode;

	Pipe_ClearIN();
	Pipe_Freeze();

	return PIPE_RWSTREAM_NoError;
    13ae:	82 e0       	ldi	r24, 0x02	; 2
    13b0:	df 91       	pop	r29

uint8_t HID_Host_ReceiveReport(USB_ClassInfo_HID_Host_t* const HIDInterfaceInfo,
                               void* Buffer)
{
	if ((USB_HostState != HOST_STATE_Configured) || !(HIDInterfaceInfo->State.IsActive))
	  return PIPE_READYWAIT_DeviceDisconnected;
    13b2:	cf 91       	pop	r28

	Pipe_ClearIN();
	Pipe_Freeze();

	return PIPE_RWSTREAM_NoError;
}
    13b4:	08 95       	ret

000013b6 <HID_Host_IsReportReceived>:
    13b6:	fc 01       	movw	r30, r24
    13b8:	80 91 35 01 	lds	r24, 0x0135
	}
}

bool HID_Host_IsReportReceived(USB_ClassInfo_HID_Host_t* const HIDInterfaceInfo)
{
	if ((USB_HostState != HOST_STATE_Configured) || !(HIDInterfaceInfo->State.IsActive))
    13bc:	8b 30       	cpi	r24, 0x0B	; 11
    13be:	a9 f4       	brne	.+42     	; 0x13ea <HID_Host_IsReportReceived+0x34>
    13c0:	87 85       	ldd	r24, Z+15	; 0x0f
    13c2:	88 23       	and	r24, r24
    13c4:	99 f0       	breq	.+38     	; 0x13ec <HID_Host_IsReportReceived+0x36>
			 *  \param[in] Address  Address of the pipe to select.
			 */
			static inline void Pipe_SelectPipe(const uint8_t Address) ATTR_ALWAYS_INLINE;
			static inline void Pipe_SelectPipe(const uint8_t Address)
			{
				UPNUM = (Address & PIPE_PIPENUM_MASK);
    13c6:	80 81       	ld	r24, Z
    13c8:	8f 70       	andi	r24, 0x0F	; 15
    13ca:	80 93 a7 00 	sts	0x00A7, r24

			/** Unfreezes the selected pipe, allowing it to communicate with an attached device. */
			static inline void Pipe_Unfreeze(void) ATTR_ALWAYS_INLINE;
			static inline void Pipe_Unfreeze(void)
			{
				UPCONX &= ~(1 << PFREEZE);
    13ce:	80 91 a9 00 	lds	r24, 0x00A9
    13d2:	8f 7b       	andi	r24, 0xBF	; 191
    13d4:	80 93 a9 00 	sts	0x00A9, r24
			 *  \return Boolean \c true if the current pipe has received an IN packet, \c false otherwise.
			 */
			static inline bool Pipe_IsINReceived(void) ATTR_WARN_UNUSED_RESULT ATTR_ALWAYS_INLINE;
			static inline bool Pipe_IsINReceived(void)
			{
				return ((UPINTX & (1 << RXINI)) ? true : false);
    13d8:	80 91 a6 00 	lds	r24, 0x00A6
    13dc:	81 70       	andi	r24, 0x01	; 1

			/** Freezes the selected pipe, preventing it from communicating with an attached device. */
			static inline void Pipe_Freeze(void) ATTR_ALWAYS_INLINE;
			static inline void Pipe_Freeze(void)
			{
				UPCONX |= (1 << PFREEZE);
    13de:	90 91 a9 00 	lds	r25, 0x00A9
    13e2:	90 64       	ori	r25, 0x40	; 64
    13e4:	90 93 a9 00 	sts	0x00A9, r25

	ReportReceived = Pipe_IsINReceived();

	Pipe_Freeze();

	return ReportReceived;
    13e8:	08 95       	ret
}

bool HID_Host_IsReportReceived(USB_ClassInfo_HID_Host_t* const HIDInterfaceInfo)
{
	if ((USB_HostState != HOST_STATE_Configured) || !(HIDInterfaceInfo->State.IsActive))
	  return false;
    13ea:	80 e0       	ldi	r24, 0x00	; 0
	ReportReceived = Pipe_IsINReceived();

	Pipe_Freeze();

	return ReportReceived;
}
    13ec:	08 95       	ret

000013ee <HID_Host_SetBootProtocol>:

uint8_t HID_Host_SetBootProtocol(USB_ClassInfo_HID_Host_t* const HIDInterfaceInfo)
{
    13ee:	cf 93       	push	r28
    13f0:	df 93       	push	r29
    13f2:	ec 01       	movw	r28, r24
	uint8_t ErrorCode;

	if (!(HIDInterfaceInfo->State.SupportsBootProtocol))
    13f4:	89 89       	ldd	r24, Y+17	; 0x11
    13f6:	88 23       	and	r24, r24
    13f8:	09 f1       	breq	.+66     	; 0x143c <HID_Host_SetBootProtocol+0x4e>
	  return HID_ERROR_LOGICAL;

	USB_ControlRequest = (USB_Request_Header_t)
    13fa:	88 89       	ldd	r24, Y+16	; 0x10
    13fc:	90 e0       	ldi	r25, 0x00	; 0
    13fe:	21 e2       	ldi	r18, 0x21	; 33
    1400:	20 93 2d 01 	sts	0x012D, r18
    1404:	2b e0       	ldi	r18, 0x0B	; 11
    1406:	20 93 2e 01 	sts	0x012E, r18
    140a:	10 92 30 01 	sts	0x0130, r1
    140e:	10 92 2f 01 	sts	0x012F, r1
    1412:	90 93 32 01 	sts	0x0132, r25
    1416:	80 93 31 01 	sts	0x0131, r24
    141a:	10 92 34 01 	sts	0x0134, r1
    141e:	10 92 33 01 	sts	0x0133, r1
			 *  \param[in] Address  Address of the pipe to select.
			 */
			static inline void Pipe_SelectPipe(const uint8_t Address) ATTR_ALWAYS_INLINE;
			static inline void Pipe_SelectPipe(const uint8_t Address)
			{
				UPNUM = (Address & PIPE_PIPENUM_MASK);
    1422:	10 92 a7 00 	sts	0x00A7, r1
			.wLength       = 0,
		};

	Pipe_SelectPipe(PIPE_CONTROLPIPE);

	if ((ErrorCode = USB_Host_SendControlRequest(NULL)) != HOST_SENDCONTROL_Successful)
    1426:	80 e0       	ldi	r24, 0x00	; 0
    1428:	90 e0       	ldi	r25, 0x00	; 0
    142a:	56 dd       	rcall	.-1364   	; 0xed8 <USB_Host_SendControlRequest>
    142c:	81 11       	cpse	r24, r1
    142e:	07 c0       	rjmp	.+14     	; 0x143e <HID_Host_SetBootProtocol+0x50>
    1430:	88 e0       	ldi	r24, 0x08	; 8
	  return ErrorCode;

	HIDInterfaceInfo->State.LargestReportSize = 8;
    1432:	8e 8b       	std	Y+22, r24	; 0x16
    1434:	81 e0       	ldi	r24, 0x01	; 1
	HIDInterfaceInfo->State.UsingBootProtocol = true;
    1436:	8b 8b       	std	Y+19, r24	; 0x13
    1438:	80 e0       	ldi	r24, 0x00	; 0

	return HOST_SENDCONTROL_Successful;
    143a:	01 c0       	rjmp	.+2      	; 0x143e <HID_Host_SetBootProtocol+0x50>
    143c:	80 e8       	ldi	r24, 0x80	; 128
uint8_t HID_Host_SetBootProtocol(USB_ClassInfo_HID_Host_t* const HIDInterfaceInfo)
{
	uint8_t ErrorCode;

	if (!(HIDInterfaceInfo->State.SupportsBootProtocol))
	  return HID_ERROR_LOGICAL;
    143e:	df 91       	pop	r29

	HIDInterfaceInfo->State.LargestReportSize = 8;
	HIDInterfaceInfo->State.UsingBootProtocol = true;

	return HOST_SENDCONTROL_Successful;
}
    1440:	cf 91       	pop	r28
    1442:	08 95       	ret

00001444 <Serial_putchar>:
			 *  \return Boolean \c true if a character can be queued for transmission immediately, \c false otherwise.
			 */
			static inline bool Serial_IsSendReady(void) ATTR_WARN_UNUSED_RESULT ATTR_ALWAYS_INLINE;
			static inline bool Serial_IsSendReady(void)
			{
				return ((UCSR1A & (1 << UDRE1)) ? true : false);
    1444:	90 91 c8 00 	lds	r25, 0x00C8
			 *  \param[in] DataByte  Byte to transmit through the USART.
			 */
			static inline void Serial_SendByte(const char DataByte) ATTR_ALWAYS_INLINE;
			static inline void Serial_SendByte(const char DataByte)
			{
				while (!(Serial_IsSendReady()));
    1448:	95 ff       	sbrs	r25, 5
    144a:	fc cf       	rjmp	.-8      	; 0x1444 <Serial_putchar>
				UDR1 = DataByte;
    144c:	80 93 ce 00 	sts	0x00CE, r24
{
	(void)Stream;

	Serial_SendByte(DataByte);
	return 0;
}
    1450:	80 e0       	ldi	r24, 0x00	; 0
    1452:	90 e0       	ldi	r25, 0x00	; 0
    1454:	08 95       	ret

00001456 <Serial_getchar>:
			 *  \return Boolean \c true if a character has been received, \c false otherwise.
			 */
			static inline bool Serial_IsCharReceived(void) ATTR_WARN_UNUSED_RESULT ATTR_ALWAYS_INLINE;
			static inline bool Serial_IsCharReceived(void)
			{
				return ((UCSR1A & (1 << RXC1)) ? true : false);
    1456:	80 91 c8 00 	lds	r24, 0x00C8

int Serial_getchar(FILE *Stream)
{
	(void)Stream;

	if (!(Serial_IsCharReceived()))
    145a:	87 ff       	sbrs	r24, 7
    145c:	08 c0       	rjmp	.+16     	; 0x146e <Serial_getchar+0x18>
    145e:	80 91 c8 00 	lds	r24, 0x00C8
			 *  \return Next byte received from the USART, or a negative value if no byte has been received.
			 */
			static inline int16_t Serial_ReceiveByte(void) ATTR_ALWAYS_INLINE;
			static inline int16_t Serial_ReceiveByte(void)
			{
				if (!(Serial_IsCharReceived()))
    1462:	87 ff       	sbrs	r24, 7
    1464:	07 c0       	rjmp	.+14     	; 0x1474 <Serial_getchar+0x1e>
				  return -1;

				return UDR1;
    1466:	80 91 ce 00 	lds	r24, 0x00CE
    146a:	90 e0       	ldi	r25, 0x00	; 0
    146c:	08 95       	ret
	  return _FDEV_EOF;
    146e:	8e ef       	ldi	r24, 0xFE	; 254
    1470:	9f ef       	ldi	r25, 0xFF	; 255
    1472:	08 95       	ret
			 */
			static inline int16_t Serial_ReceiveByte(void) ATTR_ALWAYS_INLINE;
			static inline int16_t Serial_ReceiveByte(void)
			{
				if (!(Serial_IsCharReceived()))
				  return -1;
    1474:	8f ef       	ldi	r24, 0xFF	; 255
    1476:	9f ef       	ldi	r25, 0xFF	; 255

	return Serial_ReceiveByte();
}
    1478:	08 95       	ret

0000147a <Serial_CreateStream>:
	while (Length--)
	  Serial_SendByte(*((uint8_t*)Buffer++));
}

void Serial_CreateStream(FILE* Stream)
{
    147a:	fc 01       	movw	r30, r24
	if (!(Stream))
    147c:	00 97       	sbiw	r24, 0x00	; 0
    147e:	59 f4       	brne	.+22     	; 0x1496 <Serial_CreateStream+0x1c>
	{
		Stream = &USARTSerialStream;
		stdin  = Stream;
    1480:	86 e3       	ldi	r24, 0x36	; 54
    1482:	91 e0       	ldi	r25, 0x01	; 1
    1484:	90 93 45 01 	sts	0x0145, r25
    1488:	80 93 44 01 	sts	0x0144, r24
		stdout = Stream;
    148c:	90 93 47 01 	sts	0x0147, r25
    1490:	80 93 46 01 	sts	0x0146, r24

void Serial_CreateStream(FILE* Stream)
{
	if (!(Stream))
	{
		Stream = &USARTSerialStream;
    1494:	fc 01       	movw	r30, r24
		stdin  = Stream;
		stdout = Stream;
	}

	*Stream = (FILE)FDEV_SETUP_STREAM(Serial_putchar, Serial_getchar, _FDEV_SETUP_RW);
    1496:	8e e0       	ldi	r24, 0x0E	; 14
    1498:	df 01       	movw	r26, r30
    149a:	1d 92       	st	X+, r1
    149c:	8a 95       	dec	r24
    149e:	e9 f7       	brne	.-6      	; 0x149a <Serial_CreateStream+0x20>
    14a0:	83 e0       	ldi	r24, 0x03	; 3
    14a2:	83 83       	std	Z+3, r24	; 0x03
    14a4:	82 e2       	ldi	r24, 0x22	; 34
    14a6:	9a e0       	ldi	r25, 0x0A	; 10
    14a8:	91 87       	std	Z+9, r25	; 0x09
    14aa:	80 87       	std	Z+8, r24	; 0x08
    14ac:	8b e2       	ldi	r24, 0x2B	; 43
    14ae:	9a e0       	ldi	r25, 0x0A	; 10
    14b0:	93 87       	std	Z+11, r25	; 0x0b
    14b2:	82 87       	std	Z+10, r24	; 0x0a
    14b4:	08 95       	ret

000014b6 <printf_P>:
    14b6:	0f 93       	push	r16
    14b8:	1f 93       	push	r17
    14ba:	cf 93       	push	r28
    14bc:	df 93       	push	r29
    14be:	cd b7       	in	r28, 0x3d	; 61
    14c0:	de b7       	in	r29, 0x3e	; 62
    14c2:	fe 01       	movw	r30, r28
    14c4:	37 96       	adiw	r30, 0x07	; 7
    14c6:	61 91       	ld	r22, Z+
    14c8:	71 91       	ld	r23, Z+
    14ca:	06 e4       	ldi	r16, 0x46	; 70
    14cc:	11 e0       	ldi	r17, 0x01	; 1
    14ce:	d8 01       	movw	r26, r16
    14d0:	8d 91       	ld	r24, X+
    14d2:	9c 91       	ld	r25, X
    14d4:	dc 01       	movw	r26, r24
    14d6:	13 96       	adiw	r26, 0x03	; 3
    14d8:	2c 91       	ld	r18, X
    14da:	13 97       	sbiw	r26, 0x03	; 3
    14dc:	28 60       	ori	r18, 0x08	; 8
    14de:	13 96       	adiw	r26, 0x03	; 3
    14e0:	2c 93       	st	X, r18
    14e2:	af 01       	movw	r20, r30
    14e4:	3a d0       	rcall	.+116    	; 0x155a <vfprintf>
    14e6:	d8 01       	movw	r26, r16
    14e8:	ed 91       	ld	r30, X+
    14ea:	fc 91       	ld	r31, X
    14ec:	23 81       	ldd	r18, Z+3	; 0x03
    14ee:	27 7f       	andi	r18, 0xF7	; 247
    14f0:	23 83       	std	Z+3, r18	; 0x03
    14f2:	df 91       	pop	r29
    14f4:	cf 91       	pop	r28
    14f6:	1f 91       	pop	r17
    14f8:	0f 91       	pop	r16
    14fa:	08 95       	ret

000014fc <puts_P>:
    14fc:	0f 93       	push	r16
    14fe:	1f 93       	push	r17
    1500:	cf 93       	push	r28
    1502:	df 93       	push	r29
    1504:	ec 01       	movw	r28, r24
    1506:	e0 91 46 01 	lds	r30, 0x0146
    150a:	f0 91 47 01 	lds	r31, 0x0147
    150e:	83 81       	ldd	r24, Z+3	; 0x03
    1510:	81 ff       	sbrs	r24, 1
    1512:	1c c0       	rjmp	.+56     	; 0x154c <puts_P+0x50>
    1514:	00 e0       	ldi	r16, 0x00	; 0
    1516:	10 e0       	ldi	r17, 0x00	; 0
    1518:	fe 01       	movw	r30, r28
    151a:	84 91       	lpm	r24, Z
    151c:	60 91 46 01 	lds	r22, 0x0146
    1520:	70 91 47 01 	lds	r23, 0x0147
    1524:	db 01       	movw	r26, r22
    1526:	18 96       	adiw	r26, 0x08	; 8
    1528:	ed 91       	ld	r30, X+
    152a:	fc 91       	ld	r31, X
    152c:	19 97       	sbiw	r26, 0x09	; 9
    152e:	88 23       	and	r24, r24
    1530:	39 f0       	breq	.+14     	; 0x1540 <puts_P+0x44>
    1532:	09 95       	icall
    1534:	89 2b       	or	r24, r25
    1536:	11 f0       	breq	.+4      	; 0x153c <puts_P+0x40>
    1538:	0f ef       	ldi	r16, 0xFF	; 255
    153a:	1f ef       	ldi	r17, 0xFF	; 255
    153c:	21 96       	adiw	r28, 0x01	; 1
    153e:	ec cf       	rjmp	.-40     	; 0x1518 <puts_P+0x1c>
    1540:	8a e0       	ldi	r24, 0x0A	; 10
    1542:	09 95       	icall
    1544:	89 2b       	or	r24, r25
    1546:	11 f4       	brne	.+4      	; 0x154c <puts_P+0x50>
    1548:	c8 01       	movw	r24, r16
    154a:	02 c0       	rjmp	.+4      	; 0x1550 <puts_P+0x54>
    154c:	8f ef       	ldi	r24, 0xFF	; 255
    154e:	9f ef       	ldi	r25, 0xFF	; 255
    1550:	df 91       	pop	r29
    1552:	cf 91       	pop	r28
    1554:	1f 91       	pop	r17
    1556:	0f 91       	pop	r16
    1558:	08 95       	ret

0000155a <vfprintf>:
    155a:	2f 92       	push	r2
    155c:	3f 92       	push	r3
    155e:	4f 92       	push	r4
    1560:	5f 92       	push	r5
    1562:	6f 92       	push	r6
    1564:	7f 92       	push	r7
    1566:	8f 92       	push	r8
    1568:	9f 92       	push	r9
    156a:	af 92       	push	r10
    156c:	bf 92       	push	r11
    156e:	cf 92       	push	r12
    1570:	df 92       	push	r13
    1572:	ef 92       	push	r14
    1574:	ff 92       	push	r15
    1576:	0f 93       	push	r16
    1578:	1f 93       	push	r17
    157a:	cf 93       	push	r28
    157c:	df 93       	push	r29
    157e:	cd b7       	in	r28, 0x3d	; 61
    1580:	de b7       	in	r29, 0x3e	; 62
    1582:	2c 97       	sbiw	r28, 0x0c	; 12
    1584:	0f b6       	in	r0, 0x3f	; 63
    1586:	f8 94       	cli
    1588:	de bf       	out	0x3e, r29	; 62
    158a:	0f be       	out	0x3f, r0	; 63
    158c:	cd bf       	out	0x3d, r28	; 61
    158e:	7c 01       	movw	r14, r24
    1590:	6b 01       	movw	r12, r22
    1592:	8a 01       	movw	r16, r20
    1594:	fc 01       	movw	r30, r24
    1596:	17 82       	std	Z+7, r1	; 0x07
    1598:	16 82       	std	Z+6, r1	; 0x06
    159a:	83 81       	ldd	r24, Z+3	; 0x03
    159c:	81 ff       	sbrs	r24, 1
    159e:	b0 c1       	rjmp	.+864    	; 0x1900 <vfprintf+0x3a6>
    15a0:	ce 01       	movw	r24, r28
    15a2:	01 96       	adiw	r24, 0x01	; 1
    15a4:	4c 01       	movw	r8, r24
    15a6:	f7 01       	movw	r30, r14
    15a8:	93 81       	ldd	r25, Z+3	; 0x03
    15aa:	f6 01       	movw	r30, r12
    15ac:	93 fd       	sbrc	r25, 3
    15ae:	85 91       	lpm	r24, Z+
    15b0:	93 ff       	sbrs	r25, 3
    15b2:	81 91       	ld	r24, Z+
    15b4:	6f 01       	movw	r12, r30
    15b6:	88 23       	and	r24, r24
    15b8:	09 f4       	brne	.+2      	; 0x15bc <vfprintf+0x62>
    15ba:	9e c1       	rjmp	.+828    	; 0x18f8 <vfprintf+0x39e>
    15bc:	85 32       	cpi	r24, 0x25	; 37
    15be:	39 f4       	brne	.+14     	; 0x15ce <vfprintf+0x74>
    15c0:	93 fd       	sbrc	r25, 3
    15c2:	85 91       	lpm	r24, Z+
    15c4:	93 ff       	sbrs	r25, 3
    15c6:	81 91       	ld	r24, Z+
    15c8:	6f 01       	movw	r12, r30
    15ca:	85 32       	cpi	r24, 0x25	; 37
    15cc:	21 f4       	brne	.+8      	; 0x15d6 <vfprintf+0x7c>
    15ce:	b7 01       	movw	r22, r14
    15d0:	90 e0       	ldi	r25, 0x00	; 0
    15d2:	c7 d1       	rcall	.+910    	; 0x1962 <fputc>
    15d4:	e8 cf       	rjmp	.-48     	; 0x15a6 <vfprintf+0x4c>
    15d6:	51 2c       	mov	r5, r1
    15d8:	31 2c       	mov	r3, r1
    15da:	20 e0       	ldi	r18, 0x00	; 0
    15dc:	20 32       	cpi	r18, 0x20	; 32
    15de:	a0 f4       	brcc	.+40     	; 0x1608 <vfprintf+0xae>
    15e0:	8b 32       	cpi	r24, 0x2B	; 43
    15e2:	69 f0       	breq	.+26     	; 0x15fe <vfprintf+0xa4>
    15e4:	30 f4       	brcc	.+12     	; 0x15f2 <vfprintf+0x98>
    15e6:	80 32       	cpi	r24, 0x20	; 32
    15e8:	59 f0       	breq	.+22     	; 0x1600 <vfprintf+0xa6>
    15ea:	83 32       	cpi	r24, 0x23	; 35
    15ec:	69 f4       	brne	.+26     	; 0x1608 <vfprintf+0xae>
    15ee:	20 61       	ori	r18, 0x10	; 16
    15f0:	2c c0       	rjmp	.+88     	; 0x164a <vfprintf+0xf0>
    15f2:	8d 32       	cpi	r24, 0x2D	; 45
    15f4:	39 f0       	breq	.+14     	; 0x1604 <vfprintf+0xaa>
    15f6:	80 33       	cpi	r24, 0x30	; 48
    15f8:	39 f4       	brne	.+14     	; 0x1608 <vfprintf+0xae>
    15fa:	21 60       	ori	r18, 0x01	; 1
    15fc:	26 c0       	rjmp	.+76     	; 0x164a <vfprintf+0xf0>
    15fe:	22 60       	ori	r18, 0x02	; 2
    1600:	24 60       	ori	r18, 0x04	; 4
    1602:	23 c0       	rjmp	.+70     	; 0x164a <vfprintf+0xf0>
    1604:	28 60       	ori	r18, 0x08	; 8
    1606:	21 c0       	rjmp	.+66     	; 0x164a <vfprintf+0xf0>
    1608:	27 fd       	sbrc	r18, 7
    160a:	27 c0       	rjmp	.+78     	; 0x165a <vfprintf+0x100>
    160c:	30 ed       	ldi	r19, 0xD0	; 208
    160e:	38 0f       	add	r19, r24
    1610:	3a 30       	cpi	r19, 0x0A	; 10
    1612:	78 f4       	brcc	.+30     	; 0x1632 <vfprintf+0xd8>
    1614:	26 ff       	sbrs	r18, 6
    1616:	06 c0       	rjmp	.+12     	; 0x1624 <vfprintf+0xca>
    1618:	fa e0       	ldi	r31, 0x0A	; 10
    161a:	5f 9e       	mul	r5, r31
    161c:	30 0d       	add	r19, r0
    161e:	11 24       	eor	r1, r1
    1620:	53 2e       	mov	r5, r19
    1622:	13 c0       	rjmp	.+38     	; 0x164a <vfprintf+0xf0>
    1624:	8a e0       	ldi	r24, 0x0A	; 10
    1626:	38 9e       	mul	r3, r24
    1628:	30 0d       	add	r19, r0
    162a:	11 24       	eor	r1, r1
    162c:	33 2e       	mov	r3, r19
    162e:	20 62       	ori	r18, 0x20	; 32
    1630:	0c c0       	rjmp	.+24     	; 0x164a <vfprintf+0xf0>
    1632:	8e 32       	cpi	r24, 0x2E	; 46
    1634:	21 f4       	brne	.+8      	; 0x163e <vfprintf+0xe4>
    1636:	26 fd       	sbrc	r18, 6
    1638:	5f c1       	rjmp	.+702    	; 0x18f8 <vfprintf+0x39e>
    163a:	20 64       	ori	r18, 0x40	; 64
    163c:	06 c0       	rjmp	.+12     	; 0x164a <vfprintf+0xf0>
    163e:	8c 36       	cpi	r24, 0x6C	; 108
    1640:	11 f4       	brne	.+4      	; 0x1646 <vfprintf+0xec>
    1642:	20 68       	ori	r18, 0x80	; 128
    1644:	02 c0       	rjmp	.+4      	; 0x164a <vfprintf+0xf0>
    1646:	88 36       	cpi	r24, 0x68	; 104
    1648:	41 f4       	brne	.+16     	; 0x165a <vfprintf+0x100>
    164a:	f6 01       	movw	r30, r12
    164c:	93 fd       	sbrc	r25, 3
    164e:	85 91       	lpm	r24, Z+
    1650:	93 ff       	sbrs	r25, 3
    1652:	81 91       	ld	r24, Z+
    1654:	6f 01       	movw	r12, r30
    1656:	81 11       	cpse	r24, r1
    1658:	c1 cf       	rjmp	.-126    	; 0x15dc <vfprintf+0x82>
    165a:	98 2f       	mov	r25, r24
    165c:	9f 7d       	andi	r25, 0xDF	; 223
    165e:	95 54       	subi	r25, 0x45	; 69
    1660:	93 30       	cpi	r25, 0x03	; 3
    1662:	28 f4       	brcc	.+10     	; 0x166e <vfprintf+0x114>
    1664:	0c 5f       	subi	r16, 0xFC	; 252
    1666:	1f 4f       	sbci	r17, 0xFF	; 255
    1668:	ff e3       	ldi	r31, 0x3F	; 63
    166a:	f9 83       	std	Y+1, r31	; 0x01
    166c:	0d c0       	rjmp	.+26     	; 0x1688 <vfprintf+0x12e>
    166e:	83 36       	cpi	r24, 0x63	; 99
    1670:	31 f0       	breq	.+12     	; 0x167e <vfprintf+0x124>
    1672:	83 37       	cpi	r24, 0x73	; 115
    1674:	71 f0       	breq	.+28     	; 0x1692 <vfprintf+0x138>
    1676:	83 35       	cpi	r24, 0x53	; 83
    1678:	09 f0       	breq	.+2      	; 0x167c <vfprintf+0x122>
    167a:	57 c0       	rjmp	.+174    	; 0x172a <vfprintf+0x1d0>
    167c:	21 c0       	rjmp	.+66     	; 0x16c0 <vfprintf+0x166>
    167e:	f8 01       	movw	r30, r16
    1680:	80 81       	ld	r24, Z
    1682:	89 83       	std	Y+1, r24	; 0x01
    1684:	0e 5f       	subi	r16, 0xFE	; 254
    1686:	1f 4f       	sbci	r17, 0xFF	; 255
    1688:	44 24       	eor	r4, r4
    168a:	43 94       	inc	r4
    168c:	51 2c       	mov	r5, r1
    168e:	54 01       	movw	r10, r8
    1690:	14 c0       	rjmp	.+40     	; 0x16ba <vfprintf+0x160>
    1692:	38 01       	movw	r6, r16
    1694:	f2 e0       	ldi	r31, 0x02	; 2
    1696:	6f 0e       	add	r6, r31
    1698:	71 1c       	adc	r7, r1
    169a:	f8 01       	movw	r30, r16
    169c:	a0 80       	ld	r10, Z
    169e:	b1 80       	ldd	r11, Z+1	; 0x01
    16a0:	26 ff       	sbrs	r18, 6
    16a2:	03 c0       	rjmp	.+6      	; 0x16aa <vfprintf+0x150>
    16a4:	65 2d       	mov	r22, r5
    16a6:	70 e0       	ldi	r23, 0x00	; 0
    16a8:	02 c0       	rjmp	.+4      	; 0x16ae <vfprintf+0x154>
    16aa:	6f ef       	ldi	r22, 0xFF	; 255
    16ac:	7f ef       	ldi	r23, 0xFF	; 255
    16ae:	c5 01       	movw	r24, r10
    16b0:	2c 87       	std	Y+12, r18	; 0x0c
    16b2:	4c d1       	rcall	.+664    	; 0x194c <strnlen>
    16b4:	2c 01       	movw	r4, r24
    16b6:	83 01       	movw	r16, r6
    16b8:	2c 85       	ldd	r18, Y+12	; 0x0c
    16ba:	2f 77       	andi	r18, 0x7F	; 127
    16bc:	22 2e       	mov	r2, r18
    16be:	16 c0       	rjmp	.+44     	; 0x16ec <vfprintf+0x192>
    16c0:	38 01       	movw	r6, r16
    16c2:	f2 e0       	ldi	r31, 0x02	; 2
    16c4:	6f 0e       	add	r6, r31
    16c6:	71 1c       	adc	r7, r1
    16c8:	f8 01       	movw	r30, r16
    16ca:	a0 80       	ld	r10, Z
    16cc:	b1 80       	ldd	r11, Z+1	; 0x01
    16ce:	26 ff       	sbrs	r18, 6
    16d0:	03 c0       	rjmp	.+6      	; 0x16d8 <vfprintf+0x17e>
    16d2:	65 2d       	mov	r22, r5
    16d4:	70 e0       	ldi	r23, 0x00	; 0
    16d6:	02 c0       	rjmp	.+4      	; 0x16dc <vfprintf+0x182>
    16d8:	6f ef       	ldi	r22, 0xFF	; 255
    16da:	7f ef       	ldi	r23, 0xFF	; 255
    16dc:	c5 01       	movw	r24, r10
    16de:	2c 87       	std	Y+12, r18	; 0x0c
    16e0:	2a d1       	rcall	.+596    	; 0x1936 <strnlen_P>
    16e2:	2c 01       	movw	r4, r24
    16e4:	2c 85       	ldd	r18, Y+12	; 0x0c
    16e6:	20 68       	ori	r18, 0x80	; 128
    16e8:	22 2e       	mov	r2, r18
    16ea:	83 01       	movw	r16, r6
    16ec:	23 fc       	sbrc	r2, 3
    16ee:	19 c0       	rjmp	.+50     	; 0x1722 <vfprintf+0x1c8>
    16f0:	83 2d       	mov	r24, r3
    16f2:	90 e0       	ldi	r25, 0x00	; 0
    16f4:	48 16       	cp	r4, r24
    16f6:	59 06       	cpc	r5, r25
    16f8:	a0 f4       	brcc	.+40     	; 0x1722 <vfprintf+0x1c8>
    16fa:	b7 01       	movw	r22, r14
    16fc:	80 e2       	ldi	r24, 0x20	; 32
    16fe:	90 e0       	ldi	r25, 0x00	; 0
    1700:	30 d1       	rcall	.+608    	; 0x1962 <fputc>
    1702:	3a 94       	dec	r3
    1704:	f5 cf       	rjmp	.-22     	; 0x16f0 <vfprintf+0x196>
    1706:	f5 01       	movw	r30, r10
    1708:	27 fc       	sbrc	r2, 7
    170a:	85 91       	lpm	r24, Z+
    170c:	27 fe       	sbrs	r2, 7
    170e:	81 91       	ld	r24, Z+
    1710:	5f 01       	movw	r10, r30
    1712:	b7 01       	movw	r22, r14
    1714:	90 e0       	ldi	r25, 0x00	; 0
    1716:	25 d1       	rcall	.+586    	; 0x1962 <fputc>
    1718:	31 10       	cpse	r3, r1
    171a:	3a 94       	dec	r3
    171c:	f1 e0       	ldi	r31, 0x01	; 1
    171e:	4f 1a       	sub	r4, r31
    1720:	51 08       	sbc	r5, r1
    1722:	41 14       	cp	r4, r1
    1724:	51 04       	cpc	r5, r1
    1726:	79 f7       	brne	.-34     	; 0x1706 <vfprintf+0x1ac>
    1728:	de c0       	rjmp	.+444    	; 0x18e6 <vfprintf+0x38c>
    172a:	84 36       	cpi	r24, 0x64	; 100
    172c:	11 f0       	breq	.+4      	; 0x1732 <vfprintf+0x1d8>
    172e:	89 36       	cpi	r24, 0x69	; 105
    1730:	31 f5       	brne	.+76     	; 0x177e <vfprintf+0x224>
    1732:	f8 01       	movw	r30, r16
    1734:	27 ff       	sbrs	r18, 7
    1736:	07 c0       	rjmp	.+14     	; 0x1746 <vfprintf+0x1ec>
    1738:	60 81       	ld	r22, Z
    173a:	71 81       	ldd	r23, Z+1	; 0x01
    173c:	82 81       	ldd	r24, Z+2	; 0x02
    173e:	93 81       	ldd	r25, Z+3	; 0x03
    1740:	0c 5f       	subi	r16, 0xFC	; 252
    1742:	1f 4f       	sbci	r17, 0xFF	; 255
    1744:	08 c0       	rjmp	.+16     	; 0x1756 <vfprintf+0x1fc>
    1746:	60 81       	ld	r22, Z
    1748:	71 81       	ldd	r23, Z+1	; 0x01
    174a:	88 27       	eor	r24, r24
    174c:	77 fd       	sbrc	r23, 7
    174e:	80 95       	com	r24
    1750:	98 2f       	mov	r25, r24
    1752:	0e 5f       	subi	r16, 0xFE	; 254
    1754:	1f 4f       	sbci	r17, 0xFF	; 255
    1756:	2f 76       	andi	r18, 0x6F	; 111
    1758:	b2 2e       	mov	r11, r18
    175a:	97 ff       	sbrs	r25, 7
    175c:	09 c0       	rjmp	.+18     	; 0x1770 <vfprintf+0x216>
    175e:	90 95       	com	r25
    1760:	80 95       	com	r24
    1762:	70 95       	com	r23
    1764:	61 95       	neg	r22
    1766:	7f 4f       	sbci	r23, 0xFF	; 255
    1768:	8f 4f       	sbci	r24, 0xFF	; 255
    176a:	9f 4f       	sbci	r25, 0xFF	; 255
    176c:	20 68       	ori	r18, 0x80	; 128
    176e:	b2 2e       	mov	r11, r18
    1770:	2a e0       	ldi	r18, 0x0A	; 10
    1772:	30 e0       	ldi	r19, 0x00	; 0
    1774:	a4 01       	movw	r20, r8
    1776:	27 d1       	rcall	.+590    	; 0x19c6 <__ultoa_invert>
    1778:	a8 2e       	mov	r10, r24
    177a:	a8 18       	sub	r10, r8
    177c:	43 c0       	rjmp	.+134    	; 0x1804 <vfprintf+0x2aa>
    177e:	85 37       	cpi	r24, 0x75	; 117
    1780:	29 f4       	brne	.+10     	; 0x178c <vfprintf+0x232>
    1782:	2f 7e       	andi	r18, 0xEF	; 239
    1784:	b2 2e       	mov	r11, r18
    1786:	2a e0       	ldi	r18, 0x0A	; 10
    1788:	30 e0       	ldi	r19, 0x00	; 0
    178a:	25 c0       	rjmp	.+74     	; 0x17d6 <vfprintf+0x27c>
    178c:	f2 2f       	mov	r31, r18
    178e:	f9 7f       	andi	r31, 0xF9	; 249
    1790:	bf 2e       	mov	r11, r31
    1792:	8f 36       	cpi	r24, 0x6F	; 111
    1794:	c1 f0       	breq	.+48     	; 0x17c6 <vfprintf+0x26c>
    1796:	18 f4       	brcc	.+6      	; 0x179e <vfprintf+0x244>
    1798:	88 35       	cpi	r24, 0x58	; 88
    179a:	79 f0       	breq	.+30     	; 0x17ba <vfprintf+0x260>
    179c:	ad c0       	rjmp	.+346    	; 0x18f8 <vfprintf+0x39e>
    179e:	80 37       	cpi	r24, 0x70	; 112
    17a0:	19 f0       	breq	.+6      	; 0x17a8 <vfprintf+0x24e>
    17a2:	88 37       	cpi	r24, 0x78	; 120
    17a4:	21 f0       	breq	.+8      	; 0x17ae <vfprintf+0x254>
    17a6:	a8 c0       	rjmp	.+336    	; 0x18f8 <vfprintf+0x39e>
    17a8:	2f 2f       	mov	r18, r31
    17aa:	20 61       	ori	r18, 0x10	; 16
    17ac:	b2 2e       	mov	r11, r18
    17ae:	b4 fe       	sbrs	r11, 4
    17b0:	0d c0       	rjmp	.+26     	; 0x17cc <vfprintf+0x272>
    17b2:	8b 2d       	mov	r24, r11
    17b4:	84 60       	ori	r24, 0x04	; 4
    17b6:	b8 2e       	mov	r11, r24
    17b8:	09 c0       	rjmp	.+18     	; 0x17cc <vfprintf+0x272>
    17ba:	24 ff       	sbrs	r18, 4
    17bc:	0a c0       	rjmp	.+20     	; 0x17d2 <vfprintf+0x278>
    17be:	9f 2f       	mov	r25, r31
    17c0:	96 60       	ori	r25, 0x06	; 6
    17c2:	b9 2e       	mov	r11, r25
    17c4:	06 c0       	rjmp	.+12     	; 0x17d2 <vfprintf+0x278>
    17c6:	28 e0       	ldi	r18, 0x08	; 8
    17c8:	30 e0       	ldi	r19, 0x00	; 0
    17ca:	05 c0       	rjmp	.+10     	; 0x17d6 <vfprintf+0x27c>
    17cc:	20 e1       	ldi	r18, 0x10	; 16
    17ce:	30 e0       	ldi	r19, 0x00	; 0
    17d0:	02 c0       	rjmp	.+4      	; 0x17d6 <vfprintf+0x27c>
    17d2:	20 e1       	ldi	r18, 0x10	; 16
    17d4:	32 e0       	ldi	r19, 0x02	; 2
    17d6:	f8 01       	movw	r30, r16
    17d8:	b7 fe       	sbrs	r11, 7
    17da:	07 c0       	rjmp	.+14     	; 0x17ea <vfprintf+0x290>
    17dc:	60 81       	ld	r22, Z
    17de:	71 81       	ldd	r23, Z+1	; 0x01
    17e0:	82 81       	ldd	r24, Z+2	; 0x02
    17e2:	93 81       	ldd	r25, Z+3	; 0x03
    17e4:	0c 5f       	subi	r16, 0xFC	; 252
    17e6:	1f 4f       	sbci	r17, 0xFF	; 255
    17e8:	06 c0       	rjmp	.+12     	; 0x17f6 <vfprintf+0x29c>
    17ea:	60 81       	ld	r22, Z
    17ec:	71 81       	ldd	r23, Z+1	; 0x01
    17ee:	80 e0       	ldi	r24, 0x00	; 0
    17f0:	90 e0       	ldi	r25, 0x00	; 0
    17f2:	0e 5f       	subi	r16, 0xFE	; 254
    17f4:	1f 4f       	sbci	r17, 0xFF	; 255
    17f6:	a4 01       	movw	r20, r8
    17f8:	e6 d0       	rcall	.+460    	; 0x19c6 <__ultoa_invert>
    17fa:	a8 2e       	mov	r10, r24
    17fc:	a8 18       	sub	r10, r8
    17fe:	fb 2d       	mov	r31, r11
    1800:	ff 77       	andi	r31, 0x7F	; 127
    1802:	bf 2e       	mov	r11, r31
    1804:	b6 fe       	sbrs	r11, 6
    1806:	0b c0       	rjmp	.+22     	; 0x181e <vfprintf+0x2c4>
    1808:	2b 2d       	mov	r18, r11
    180a:	2e 7f       	andi	r18, 0xFE	; 254
    180c:	a5 14       	cp	r10, r5
    180e:	50 f4       	brcc	.+20     	; 0x1824 <vfprintf+0x2ca>
    1810:	b4 fe       	sbrs	r11, 4
    1812:	0a c0       	rjmp	.+20     	; 0x1828 <vfprintf+0x2ce>
    1814:	b2 fc       	sbrc	r11, 2
    1816:	08 c0       	rjmp	.+16     	; 0x1828 <vfprintf+0x2ce>
    1818:	2b 2d       	mov	r18, r11
    181a:	2e 7e       	andi	r18, 0xEE	; 238
    181c:	05 c0       	rjmp	.+10     	; 0x1828 <vfprintf+0x2ce>
    181e:	7a 2c       	mov	r7, r10
    1820:	2b 2d       	mov	r18, r11
    1822:	03 c0       	rjmp	.+6      	; 0x182a <vfprintf+0x2d0>
    1824:	7a 2c       	mov	r7, r10
    1826:	01 c0       	rjmp	.+2      	; 0x182a <vfprintf+0x2d0>
    1828:	75 2c       	mov	r7, r5
    182a:	24 ff       	sbrs	r18, 4
    182c:	0d c0       	rjmp	.+26     	; 0x1848 <vfprintf+0x2ee>
    182e:	fe 01       	movw	r30, r28
    1830:	ea 0d       	add	r30, r10
    1832:	f1 1d       	adc	r31, r1
    1834:	80 81       	ld	r24, Z
    1836:	80 33       	cpi	r24, 0x30	; 48
    1838:	11 f4       	brne	.+4      	; 0x183e <vfprintf+0x2e4>
    183a:	29 7e       	andi	r18, 0xE9	; 233
    183c:	09 c0       	rjmp	.+18     	; 0x1850 <vfprintf+0x2f6>
    183e:	22 ff       	sbrs	r18, 2
    1840:	06 c0       	rjmp	.+12     	; 0x184e <vfprintf+0x2f4>
    1842:	73 94       	inc	r7
    1844:	73 94       	inc	r7
    1846:	04 c0       	rjmp	.+8      	; 0x1850 <vfprintf+0x2f6>
    1848:	82 2f       	mov	r24, r18
    184a:	86 78       	andi	r24, 0x86	; 134
    184c:	09 f0       	breq	.+2      	; 0x1850 <vfprintf+0x2f6>
    184e:	73 94       	inc	r7
    1850:	23 fd       	sbrc	r18, 3
    1852:	12 c0       	rjmp	.+36     	; 0x1878 <vfprintf+0x31e>
    1854:	20 ff       	sbrs	r18, 0
    1856:	06 c0       	rjmp	.+12     	; 0x1864 <vfprintf+0x30a>
    1858:	5a 2c       	mov	r5, r10
    185a:	73 14       	cp	r7, r3
    185c:	18 f4       	brcc	.+6      	; 0x1864 <vfprintf+0x30a>
    185e:	53 0c       	add	r5, r3
    1860:	57 18       	sub	r5, r7
    1862:	73 2c       	mov	r7, r3
    1864:	73 14       	cp	r7, r3
    1866:	60 f4       	brcc	.+24     	; 0x1880 <vfprintf+0x326>
    1868:	b7 01       	movw	r22, r14
    186a:	80 e2       	ldi	r24, 0x20	; 32
    186c:	90 e0       	ldi	r25, 0x00	; 0
    186e:	2c 87       	std	Y+12, r18	; 0x0c
    1870:	78 d0       	rcall	.+240    	; 0x1962 <fputc>
    1872:	73 94       	inc	r7
    1874:	2c 85       	ldd	r18, Y+12	; 0x0c
    1876:	f6 cf       	rjmp	.-20     	; 0x1864 <vfprintf+0x30a>
    1878:	73 14       	cp	r7, r3
    187a:	10 f4       	brcc	.+4      	; 0x1880 <vfprintf+0x326>
    187c:	37 18       	sub	r3, r7
    187e:	01 c0       	rjmp	.+2      	; 0x1882 <vfprintf+0x328>
    1880:	31 2c       	mov	r3, r1
    1882:	24 ff       	sbrs	r18, 4
    1884:	11 c0       	rjmp	.+34     	; 0x18a8 <vfprintf+0x34e>
    1886:	b7 01       	movw	r22, r14
    1888:	80 e3       	ldi	r24, 0x30	; 48
    188a:	90 e0       	ldi	r25, 0x00	; 0
    188c:	2c 87       	std	Y+12, r18	; 0x0c
    188e:	69 d0       	rcall	.+210    	; 0x1962 <fputc>
    1890:	2c 85       	ldd	r18, Y+12	; 0x0c
    1892:	22 ff       	sbrs	r18, 2
    1894:	16 c0       	rjmp	.+44     	; 0x18c2 <vfprintf+0x368>
    1896:	21 ff       	sbrs	r18, 1
    1898:	03 c0       	rjmp	.+6      	; 0x18a0 <vfprintf+0x346>
    189a:	88 e5       	ldi	r24, 0x58	; 88
    189c:	90 e0       	ldi	r25, 0x00	; 0
    189e:	02 c0       	rjmp	.+4      	; 0x18a4 <vfprintf+0x34a>
    18a0:	88 e7       	ldi	r24, 0x78	; 120
    18a2:	90 e0       	ldi	r25, 0x00	; 0
    18a4:	b7 01       	movw	r22, r14
    18a6:	0c c0       	rjmp	.+24     	; 0x18c0 <vfprintf+0x366>
    18a8:	82 2f       	mov	r24, r18
    18aa:	86 78       	andi	r24, 0x86	; 134
    18ac:	51 f0       	breq	.+20     	; 0x18c2 <vfprintf+0x368>
    18ae:	21 fd       	sbrc	r18, 1
    18b0:	02 c0       	rjmp	.+4      	; 0x18b6 <vfprintf+0x35c>
    18b2:	80 e2       	ldi	r24, 0x20	; 32
    18b4:	01 c0       	rjmp	.+2      	; 0x18b8 <vfprintf+0x35e>
    18b6:	8b e2       	ldi	r24, 0x2B	; 43
    18b8:	27 fd       	sbrc	r18, 7
    18ba:	8d e2       	ldi	r24, 0x2D	; 45
    18bc:	b7 01       	movw	r22, r14
    18be:	90 e0       	ldi	r25, 0x00	; 0
    18c0:	50 d0       	rcall	.+160    	; 0x1962 <fputc>
    18c2:	a5 14       	cp	r10, r5
    18c4:	30 f4       	brcc	.+12     	; 0x18d2 <vfprintf+0x378>
    18c6:	b7 01       	movw	r22, r14
    18c8:	80 e3       	ldi	r24, 0x30	; 48
    18ca:	90 e0       	ldi	r25, 0x00	; 0
    18cc:	4a d0       	rcall	.+148    	; 0x1962 <fputc>
    18ce:	5a 94       	dec	r5
    18d0:	f8 cf       	rjmp	.-16     	; 0x18c2 <vfprintf+0x368>
    18d2:	aa 94       	dec	r10
    18d4:	f4 01       	movw	r30, r8
    18d6:	ea 0d       	add	r30, r10
    18d8:	f1 1d       	adc	r31, r1
    18da:	80 81       	ld	r24, Z
    18dc:	b7 01       	movw	r22, r14
    18de:	90 e0       	ldi	r25, 0x00	; 0
    18e0:	40 d0       	rcall	.+128    	; 0x1962 <fputc>
    18e2:	a1 10       	cpse	r10, r1
    18e4:	f6 cf       	rjmp	.-20     	; 0x18d2 <vfprintf+0x378>
    18e6:	33 20       	and	r3, r3
    18e8:	09 f4       	brne	.+2      	; 0x18ec <vfprintf+0x392>
    18ea:	5d ce       	rjmp	.-838    	; 0x15a6 <vfprintf+0x4c>
    18ec:	b7 01       	movw	r22, r14
    18ee:	80 e2       	ldi	r24, 0x20	; 32
    18f0:	90 e0       	ldi	r25, 0x00	; 0
    18f2:	37 d0       	rcall	.+110    	; 0x1962 <fputc>
    18f4:	3a 94       	dec	r3
    18f6:	f7 cf       	rjmp	.-18     	; 0x18e6 <vfprintf+0x38c>
    18f8:	f7 01       	movw	r30, r14
    18fa:	86 81       	ldd	r24, Z+6	; 0x06
    18fc:	97 81       	ldd	r25, Z+7	; 0x07
    18fe:	02 c0       	rjmp	.+4      	; 0x1904 <vfprintf+0x3aa>
    1900:	8f ef       	ldi	r24, 0xFF	; 255
    1902:	9f ef       	ldi	r25, 0xFF	; 255
    1904:	2c 96       	adiw	r28, 0x0c	; 12
    1906:	0f b6       	in	r0, 0x3f	; 63
    1908:	f8 94       	cli
    190a:	de bf       	out	0x3e, r29	; 62
    190c:	0f be       	out	0x3f, r0	; 63
    190e:	cd bf       	out	0x3d, r28	; 61
    1910:	df 91       	pop	r29
    1912:	cf 91       	pop	r28
    1914:	1f 91       	pop	r17
    1916:	0f 91       	pop	r16
    1918:	ff 90       	pop	r15
    191a:	ef 90       	pop	r14
    191c:	df 90       	pop	r13
    191e:	cf 90       	pop	r12
    1920:	bf 90       	pop	r11
    1922:	af 90       	pop	r10
    1924:	9f 90       	pop	r9
    1926:	8f 90       	pop	r8
    1928:	7f 90       	pop	r7
    192a:	6f 90       	pop	r6
    192c:	5f 90       	pop	r5
    192e:	4f 90       	pop	r4
    1930:	3f 90       	pop	r3
    1932:	2f 90       	pop	r2
    1934:	08 95       	ret

00001936 <strnlen_P>:
    1936:	fc 01       	movw	r30, r24
    1938:	05 90       	lpm	r0, Z+
    193a:	61 50       	subi	r22, 0x01	; 1
    193c:	70 40       	sbci	r23, 0x00	; 0
    193e:	01 10       	cpse	r0, r1
    1940:	d8 f7       	brcc	.-10     	; 0x1938 <strnlen_P+0x2>
    1942:	80 95       	com	r24
    1944:	90 95       	com	r25
    1946:	8e 0f       	add	r24, r30
    1948:	9f 1f       	adc	r25, r31
    194a:	08 95       	ret

0000194c <strnlen>:
    194c:	fc 01       	movw	r30, r24
    194e:	61 50       	subi	r22, 0x01	; 1
    1950:	70 40       	sbci	r23, 0x00	; 0
    1952:	01 90       	ld	r0, Z+
    1954:	01 10       	cpse	r0, r1
    1956:	d8 f7       	brcc	.-10     	; 0x194e <strnlen+0x2>
    1958:	80 95       	com	r24
    195a:	90 95       	com	r25
    195c:	8e 0f       	add	r24, r30
    195e:	9f 1f       	adc	r25, r31
    1960:	08 95       	ret

00001962 <fputc>:
    1962:	0f 93       	push	r16
    1964:	1f 93       	push	r17
    1966:	cf 93       	push	r28
    1968:	df 93       	push	r29
    196a:	18 2f       	mov	r17, r24
    196c:	09 2f       	mov	r16, r25
    196e:	eb 01       	movw	r28, r22
    1970:	8b 81       	ldd	r24, Y+3	; 0x03
    1972:	81 fd       	sbrc	r24, 1
    1974:	03 c0       	rjmp	.+6      	; 0x197c <fputc+0x1a>
    1976:	8f ef       	ldi	r24, 0xFF	; 255
    1978:	9f ef       	ldi	r25, 0xFF	; 255
    197a:	20 c0       	rjmp	.+64     	; 0x19bc <fputc+0x5a>
    197c:	82 ff       	sbrs	r24, 2
    197e:	10 c0       	rjmp	.+32     	; 0x19a0 <fputc+0x3e>
    1980:	4e 81       	ldd	r20, Y+6	; 0x06
    1982:	5f 81       	ldd	r21, Y+7	; 0x07
    1984:	2c 81       	ldd	r18, Y+4	; 0x04
    1986:	3d 81       	ldd	r19, Y+5	; 0x05
    1988:	42 17       	cp	r20, r18
    198a:	53 07       	cpc	r21, r19
    198c:	7c f4       	brge	.+30     	; 0x19ac <fputc+0x4a>
    198e:	e8 81       	ld	r30, Y
    1990:	f9 81       	ldd	r31, Y+1	; 0x01
    1992:	9f 01       	movw	r18, r30
    1994:	2f 5f       	subi	r18, 0xFF	; 255
    1996:	3f 4f       	sbci	r19, 0xFF	; 255
    1998:	39 83       	std	Y+1, r19	; 0x01
    199a:	28 83       	st	Y, r18
    199c:	10 83       	st	Z, r17
    199e:	06 c0       	rjmp	.+12     	; 0x19ac <fputc+0x4a>
    19a0:	e8 85       	ldd	r30, Y+8	; 0x08
    19a2:	f9 85       	ldd	r31, Y+9	; 0x09
    19a4:	81 2f       	mov	r24, r17
    19a6:	09 95       	icall
    19a8:	89 2b       	or	r24, r25
    19aa:	29 f7       	brne	.-54     	; 0x1976 <fputc+0x14>
    19ac:	2e 81       	ldd	r18, Y+6	; 0x06
    19ae:	3f 81       	ldd	r19, Y+7	; 0x07
    19b0:	2f 5f       	subi	r18, 0xFF	; 255
    19b2:	3f 4f       	sbci	r19, 0xFF	; 255
    19b4:	3f 83       	std	Y+7, r19	; 0x07
    19b6:	2e 83       	std	Y+6, r18	; 0x06
    19b8:	81 2f       	mov	r24, r17
    19ba:	90 2f       	mov	r25, r16
    19bc:	df 91       	pop	r29
    19be:	cf 91       	pop	r28
    19c0:	1f 91       	pop	r17
    19c2:	0f 91       	pop	r16
    19c4:	08 95       	ret

000019c6 <__ultoa_invert>:
    19c6:	fa 01       	movw	r30, r20
    19c8:	aa 27       	eor	r26, r26
    19ca:	28 30       	cpi	r18, 0x08	; 8
    19cc:	51 f1       	breq	.+84     	; 0x1a22 <__ultoa_invert+0x5c>
    19ce:	20 31       	cpi	r18, 0x10	; 16
    19d0:	81 f1       	breq	.+96     	; 0x1a32 <__ultoa_invert+0x6c>
    19d2:	e8 94       	clt
    19d4:	6f 93       	push	r22
    19d6:	6e 7f       	andi	r22, 0xFE	; 254
    19d8:	6e 5f       	subi	r22, 0xFE	; 254
    19da:	7f 4f       	sbci	r23, 0xFF	; 255
    19dc:	8f 4f       	sbci	r24, 0xFF	; 255
    19de:	9f 4f       	sbci	r25, 0xFF	; 255
    19e0:	af 4f       	sbci	r26, 0xFF	; 255
    19e2:	b1 e0       	ldi	r27, 0x01	; 1
    19e4:	3e d0       	rcall	.+124    	; 0x1a62 <__ultoa_invert+0x9c>
    19e6:	b4 e0       	ldi	r27, 0x04	; 4
    19e8:	3c d0       	rcall	.+120    	; 0x1a62 <__ultoa_invert+0x9c>
    19ea:	67 0f       	add	r22, r23
    19ec:	78 1f       	adc	r23, r24
    19ee:	89 1f       	adc	r24, r25
    19f0:	9a 1f       	adc	r25, r26
    19f2:	a1 1d       	adc	r26, r1
    19f4:	68 0f       	add	r22, r24
    19f6:	79 1f       	adc	r23, r25
    19f8:	8a 1f       	adc	r24, r26
    19fa:	91 1d       	adc	r25, r1
    19fc:	a1 1d       	adc	r26, r1
    19fe:	6a 0f       	add	r22, r26
    1a00:	71 1d       	adc	r23, r1
    1a02:	81 1d       	adc	r24, r1
    1a04:	91 1d       	adc	r25, r1
    1a06:	a1 1d       	adc	r26, r1
    1a08:	20 d0       	rcall	.+64     	; 0x1a4a <__ultoa_invert+0x84>
    1a0a:	09 f4       	brne	.+2      	; 0x1a0e <__ultoa_invert+0x48>
    1a0c:	68 94       	set
    1a0e:	3f 91       	pop	r19
    1a10:	2a e0       	ldi	r18, 0x0A	; 10
    1a12:	26 9f       	mul	r18, r22
    1a14:	11 24       	eor	r1, r1
    1a16:	30 19       	sub	r19, r0
    1a18:	30 5d       	subi	r19, 0xD0	; 208
    1a1a:	31 93       	st	Z+, r19
    1a1c:	de f6       	brtc	.-74     	; 0x19d4 <__ultoa_invert+0xe>
    1a1e:	cf 01       	movw	r24, r30
    1a20:	08 95       	ret
    1a22:	46 2f       	mov	r20, r22
    1a24:	47 70       	andi	r20, 0x07	; 7
    1a26:	40 5d       	subi	r20, 0xD0	; 208
    1a28:	41 93       	st	Z+, r20
    1a2a:	b3 e0       	ldi	r27, 0x03	; 3
    1a2c:	0f d0       	rcall	.+30     	; 0x1a4c <__ultoa_invert+0x86>
    1a2e:	c9 f7       	brne	.-14     	; 0x1a22 <__ultoa_invert+0x5c>
    1a30:	f6 cf       	rjmp	.-20     	; 0x1a1e <__ultoa_invert+0x58>
    1a32:	46 2f       	mov	r20, r22
    1a34:	4f 70       	andi	r20, 0x0F	; 15
    1a36:	40 5d       	subi	r20, 0xD0	; 208
    1a38:	4a 33       	cpi	r20, 0x3A	; 58
    1a3a:	18 f0       	brcs	.+6      	; 0x1a42 <__ultoa_invert+0x7c>
    1a3c:	49 5d       	subi	r20, 0xD9	; 217
    1a3e:	31 fd       	sbrc	r19, 1
    1a40:	40 52       	subi	r20, 0x20	; 32
    1a42:	41 93       	st	Z+, r20
    1a44:	02 d0       	rcall	.+4      	; 0x1a4a <__ultoa_invert+0x84>
    1a46:	a9 f7       	brne	.-22     	; 0x1a32 <__ultoa_invert+0x6c>
    1a48:	ea cf       	rjmp	.-44     	; 0x1a1e <__ultoa_invert+0x58>
    1a4a:	b4 e0       	ldi	r27, 0x04	; 4
    1a4c:	a6 95       	lsr	r26
    1a4e:	97 95       	ror	r25
    1a50:	87 95       	ror	r24
    1a52:	77 95       	ror	r23
    1a54:	67 95       	ror	r22
    1a56:	ba 95       	dec	r27
    1a58:	c9 f7       	brne	.-14     	; 0x1a4c <__ultoa_invert+0x86>
    1a5a:	00 97       	sbiw	r24, 0x00	; 0
    1a5c:	61 05       	cpc	r22, r1
    1a5e:	71 05       	cpc	r23, r1
    1a60:	08 95       	ret
    1a62:	9b 01       	movw	r18, r22
    1a64:	ac 01       	movw	r20, r24
    1a66:	0a 2e       	mov	r0, r26
    1a68:	06 94       	lsr	r0
    1a6a:	57 95       	ror	r21
    1a6c:	47 95       	ror	r20
    1a6e:	37 95       	ror	r19
    1a70:	27 95       	ror	r18
    1a72:	ba 95       	dec	r27
    1a74:	c9 f7       	brne	.-14     	; 0x1a68 <__ultoa_invert+0xa2>
    1a76:	62 0f       	add	r22, r18
    1a78:	73 1f       	adc	r23, r19
    1a7a:	84 1f       	adc	r24, r20
    1a7c:	95 1f       	adc	r25, r21
    1a7e:	a0 1d       	adc	r26, r0
    1a80:	08 95       	ret

00001a82 <_exit>:
    1a82:	f8 94       	cli

00001a84 <__stop_program>:
    1a84:	ff cf       	rjmp	.-2      	; 0x1a84 <__stop_program>
