
Mouse.elf:     file format elf32-avr

Sections:
Idx Name          Size      VMA       LMA       File off  Algn
  0 .data         00000010  00800100  00001098  0000112c  2**0
                  CONTENTS, ALLOC, LOAD, DATA
  1 .text         00001098  00000000  00000000  00000094  2**1
                  CONTENTS, ALLOC, LOAD, READONLY, CODE
  2 .bss          00000010  00800110  00800110  0000113c  2**0
                  ALLOC
  3 .stab         00000a98  00000000  00000000  0000113c  2**2
                  CONTENTS, READONLY, DEBUGGING
  4 .stabstr      0000016f  00000000  00000000  00001bd4  2**0
                  CONTENTS, READONLY, DEBUGGING
  5 .comment      00000011  00000000  00000000  00001d43  2**0
                  CONTENTS, READONLY
  6 .debug_aranges 00000660  00000000  00000000  00001d54  2**0
                  CONTENTS, READONLY, DEBUGGING
  7 .debug_info   0000a474  00000000  00000000  000023b4  2**0
                  CONTENTS, READONLY, DEBUGGING
  8 .debug_abbrev 00002afc  00000000  00000000  0000c828  2**0
                  CONTENTS, READONLY, DEBUGGING
  9 .debug_line   0000400d  00000000  00000000  0000f324  2**0
                  CONTENTS, READONLY, DEBUGGING
 10 .debug_frame  00000ef8  00000000  00000000  00013334  2**2
                  CONTENTS, READONLY, DEBUGGING
 11 .debug_str    00003cce  00000000  00000000  0001422c  2**0
                  CONTENTS, READONLY, DEBUGGING
 12 .debug_loc    000066ee  00000000  00000000  00017efa  2**0
                  CONTENTS, READONLY, DEBUGGING
 13 .debug_ranges 00000700  00000000  00000000  0001e5e8  2**0
                  CONTENTS, READONLY, DEBUGGING

Disassembly of section .text:

00000000 <__vectors>:
#include "HIDParser.h"

uint8_t USB_ProcessHIDReport(const uint8_t* ReportData,
                             uint16_t ReportSize,
                             HID_ReportInfo_t* const ParserData)
{
       0:	a2 c0       	rjmp	.+324    	; 0x146 <__ctors_end>
       2:	00 00       	nop
       4:	bd c0       	rjmp	.+378    	; 0x180 <__bad_interrupt>
       6:	00 00       	nop
       8:	bb c0       	rjmp	.+374    	; 0x180 <__bad_interrupt>
       a:	00 00       	nop
       c:	b9 c0       	rjmp	.+370    	; 0x180 <__bad_interrupt>
       e:	00 00       	nop
      10:	b7 c0       	rjmp	.+366    	; 0x180 <__bad_interrupt>
      12:	00 00       	nop
      14:	b5 c0       	rjmp	.+362    	; 0x180 <__bad_interrupt>
      16:	00 00       	nop
      18:	b3 c0       	rjmp	.+358    	; 0x180 <__bad_interrupt>
      1a:	00 00       	nop
      1c:	b1 c0       	rjmp	.+354    	; 0x180 <__bad_interrupt>
      1e:	00 00       	nop
      20:	af c0       	rjmp	.+350    	; 0x180 <__bad_interrupt>
      22:	00 00       	nop
      24:	ad c0       	rjmp	.+346    	; 0x180 <__bad_interrupt>
      26:	00 00       	nop
      28:	de c3       	rjmp	.+1980   	; 0x7e6 <__vector_10>
      2a:	00 00       	nop
      2c:	a9 c0       	rjmp	.+338    	; 0x180 <__bad_interrupt>
      2e:	00 00       	nop
      30:	a7 c0       	rjmp	.+334    	; 0x180 <__bad_interrupt>
      32:	00 00       	nop
      34:	a5 c0       	rjmp	.+330    	; 0x180 <__bad_interrupt>
      36:	00 00       	nop
	HID_StateTable_t      StateTable[HID_STATETABLE_STACK_DEPTH];
	HID_StateTable_t*     CurrStateTable     = &StateTable[0];
	HID_CollectionPath_t* CurrCollectionPath = NULL;
	HID_ReportSizeInfo_t* CurrReportIDInfo   = &ParserData->ReportIDSizes[0];
      38:	a3 c0       	rjmp	.+326    	; 0x180 <__bad_interrupt>
      3a:	00 00       	nop
      3c:	a1 c0       	rjmp	.+322    	; 0x180 <__bad_interrupt>
      3e:	00 00       	nop
      40:	9f c0       	rjmp	.+318    	; 0x180 <__bad_interrupt>
      42:	00 00       	nop
      44:	9d c0       	rjmp	.+314    	; 0x180 <__bad_interrupt>
	uint16_t              UsageList[HID_USAGE_STACK_DEPTH];
	uint8_t               UsageListSize      = 0;
	HID_MinMax_t          UsageMinMax        = {0, 0};

	memset(ParserData,       0x00, sizeof(HID_ReportInfo_t));
      46:	00 00       	nop
      48:	9b c0       	rjmp	.+310    	; 0x180 <__bad_interrupt>
      4a:	00 00       	nop
      4c:	99 c0       	rjmp	.+306    	; 0x180 <__bad_interrupt>
      4e:	00 00       	nop
      50:	97 c0       	rjmp	.+302    	; 0x180 <__bad_interrupt>
      52:	00 00       	nop
	memset(CurrStateTable,   0x00, sizeof(HID_StateTable_t));
      54:	95 c0       	rjmp	.+298    	; 0x180 <__bad_interrupt>
      56:	00 00       	nop
      58:	93 c0       	rjmp	.+294    	; 0x180 <__bad_interrupt>
      5a:	00 00       	nop
      5c:	91 c0       	rjmp	.+290    	; 0x180 <__bad_interrupt>
      5e:	00 00       	nop
      60:	8f c0       	rjmp	.+286    	; 0x180 <__bad_interrupt>
	memset(CurrReportIDInfo, 0x00, sizeof(HID_ReportSizeInfo_t));
      62:	00 00       	nop
      64:	8d c0       	rjmp	.+282    	; 0x180 <__bad_interrupt>
      66:	00 00       	nop
      68:	8b c0       	rjmp	.+278    	; 0x180 <__bad_interrupt>
      6a:	00 00       	nop

	ParserData->TotalDeviceReports = 1;
      6c:	89 c0       	rjmp	.+274    	; 0x180 <__bad_interrupt>
      6e:	00 00       	nop
      70:	87 c0       	rjmp	.+270    	; 0x180 <__bad_interrupt>
      72:	00 00       	nop
      74:	85 c0       	rjmp	.+266    	; 0x180 <__bad_interrupt>
      76:	00 00       	nop
      78:	83 c0       	rjmp	.+262    	; 0x180 <__bad_interrupt>
      7a:	00 00       	nop
      7c:	81 c0       	rjmp	.+258    	; 0x180 <__bad_interrupt>
      7e:	00 00       	nop
	HID_StateTable_t*     CurrStateTable     = &StateTable[0];
	HID_CollectionPath_t* CurrCollectionPath = NULL;
	HID_ReportSizeInfo_t* CurrReportIDInfo   = &ParserData->ReportIDSizes[0];
	uint16_t              UsageList[HID_USAGE_STACK_DEPTH];
	uint8_t               UsageListSize      = 0;
	HID_MinMax_t          UsageMinMax        = {0, 0};
      80:	7f c0       	rjmp	.+254    	; 0x180 <__bad_interrupt>
      82:	00 00       	nop
      84:	7d c0       	rjmp	.+250    	; 0x180 <__bad_interrupt>
      86:	00 00       	nop
      88:	7b c0       	rjmp	.+246    	; 0x180 <__bad_interrupt>
      8a:	00 00       	nop
	HID_StateTable_t      StateTable[HID_STATETABLE_STACK_DEPTH];
	HID_StateTable_t*     CurrStateTable     = &StateTable[0];
	HID_CollectionPath_t* CurrCollectionPath = NULL;
	HID_ReportSizeInfo_t* CurrReportIDInfo   = &ParserData->ReportIDSizes[0];
	uint16_t              UsageList[HID_USAGE_STACK_DEPTH];
	uint8_t               UsageListSize      = 0;
      8c:	79 c0       	rjmp	.+242    	; 0x180 <__bad_interrupt>
      8e:	00 00       	nop
      90:	77 c0       	rjmp	.+238    	; 0x180 <__bad_interrupt>
                             uint16_t ReportSize,
                             HID_ReportInfo_t* const ParserData)
{
	HID_StateTable_t      StateTable[HID_STATETABLE_STACK_DEPTH];
	HID_StateTable_t*     CurrStateTable     = &StateTable[0];
	HID_CollectionPath_t* CurrCollectionPath = NULL;
      92:	00 00       	nop
      94:	75 c0       	rjmp	.+234    	; 0x180 <__bad_interrupt>
      96:	00 00       	nop

00000098 <ProductString>:
      98:	20 03 4c 00 55 00 46 00 41 00 20 00 4d 00 6f 00      .L.U.F.A. .M.o.

					NewReportItem.BitOffset = CurrReportIDInfo->ReportSizeBits[NewReportItem.ItemType];

					CurrReportIDInfo->ReportSizeBits[NewReportItem.ItemType] += CurrStateTable->Attributes.BitSize;

					ParserData->LargestReportSizeBits = MAX(ParserData->LargestReportSizeBits, CurrReportIDInfo->ReportSizeBits[NewReportItem.ItemType]);
      a8:	75 00 73 00 65 00 20 00 44 00 65 00 6d 00 6f 00     u.s.e. .D.e.m.o.

					CurrCollectionPath = &ParserData->CollectionPaths[1];

					while (CurrCollectionPath->Parent != NULL)
					{
						if (CurrCollectionPath == &ParserData->CollectionPaths[HID_MAX_COLLECTIONS - 1])
      b8:	00 00                                               ..

000000ba <ManufacturerString>:
      ba:	18 03 44 00 65 00 61 00 6e 00 20 00 43 00 61 00     ..D.e.a.n. .C.a.

				if (ParserData->UsingReportIDs)
				{
					CurrReportIDInfo = NULL;

					for (uint8_t i = 0; i < ParserData->TotalDeviceReports; i++)
      ca:	6d 00 65 00 72 00 61 00 00 00                       m.e.r.a...

000000d4 <LanguageString>:
      d4:	04 03 09 04                                         ....

000000d8 <ConfigurationDescriptor>:
	memset(CurrStateTable,   0x00, sizeof(HID_StateTable_t));
	memset(CurrReportIDInfo, 0x00, sizeof(HID_ReportSizeInfo_t));

	ParserData->TotalDeviceReports = 1;

	while (ReportSize)
      d8:	09 02 22 00 01 01 00 c0 32 09 04 00 00 01 03 01     ..".....2.......
		uint32_t ReportItemData;

		ReportData++;
		ReportSize--;

		switch (HIDReportItem & HID_RI_DATA_SIZE_MASK)
      e8:	02 00 09 21 11 01 00 01 22 3a 00 07 05 81 03 08     ...!....":......
	while (ReportSize)
	{
		uint8_t  HIDReportItem  = *ReportData;
		uint32_t ReportItemData;

		ReportData++;
      f8:	00 05                                               ..

000000fa <DeviceDescriptor>:
      fa:	12 01 10 01 00 00 00 08 eb 03 41 20 01 00 01 02     ..........A ....
		ReportSize--;

		switch (HIDReportItem & HID_RI_DATA_SIZE_MASK)
		{
			case HID_RI_DATA_BITS_32:
				ReportItemData  = (((uint32_t)ReportData[3] << 24) | ((uint32_t)ReportData[2] << 16) |
     10a:	00 01                                               ..

0000010c <MouseReport>:
     10c:	05 01 09 02 a1 01 09 01 a1 00 05 09 19 01 29 03     ..............).
     11c:	15 00 25 01 95 03 75 01 81 02 95 01 75 05 81 01     ..%...u.....u...
     12c:	05 01 09 30 09 31 16 ff ff 26 01 00 36 ff ff 46     ...0.1...&..6..F
     13c:	01 00 95 02 75 08 81 06 c0 c0                       ....u.....

00000146 <__ctors_end>:
			                       ((uint16_t)ReportData[1] << 8)  | ReportData[0]);
				ReportSize     -= 4;
     146:	11 24       	eor	r1, r1
				ReportData     += 4;
     148:	1f be       	out	0x3f, r1	; 63
     14a:	cf ef       	ldi	r28, 0xFF	; 255
     14c:	d0 e2       	ldi	r29, 0x20	; 32
				break;
     14e:	de bf       	out	0x3e, r29	; 62

			case HID_RI_DATA_BITS_16:
				ReportItemData  = (((uint16_t)ReportData[1] << 8) | (ReportData[0]));
     150:	cd bf       	out	0x3d, r28	; 61

00000152 <__do_copy_data>:
     152:	11 e0       	ldi	r17, 0x01	; 1
     154:	a0 e0       	ldi	r26, 0x00	; 0
     156:	b1 e0       	ldi	r27, 0x01	; 1
     158:	e8 e9       	ldi	r30, 0x98	; 152
     15a:	f0 e1       	ldi	r31, 0x10	; 16
     15c:	00 e0       	ldi	r16, 0x00	; 0
     15e:	0b bf       	out	0x3b, r16	; 59
     160:	02 c0       	rjmp	.+4      	; 0x166 <__do_copy_data+0x14>
				ReportSize     -= 2;
     162:	07 90       	elpm	r0, Z+
     164:	0d 92       	st	X+, r0
				ReportData     += 2;
     166:	a0 31       	cpi	r26, 0x10	; 16
     168:	b1 07       	cpc	r27, r17
     16a:	d9 f7       	brne	.-10     	; 0x162 <__do_copy_data+0x10>

0000016c <__do_clear_bss>:
				break;
     16c:	11 e0       	ldi	r17, 0x01	; 1

			case HID_RI_DATA_BITS_8:
				ReportItemData  = ReportData[0];
     16e:	a0 e1       	ldi	r26, 0x10	; 16
     170:	b1 e0       	ldi	r27, 0x01	; 1
     172:	01 c0       	rjmp	.+2      	; 0x176 <.do_clear_bss_start>

00000174 <.do_clear_bss_loop>:
     174:	1d 92       	st	X+, r1

00000176 <.do_clear_bss_start>:
     176:	a0 32       	cpi	r26, 0x20	; 32
     178:	b1 07       	cpc	r27, r17
				ReportSize     -= 1;
     17a:	e1 f7       	brne	.-8      	; 0x174 <.do_clear_bss_loop>
     17c:	30 d0       	rcall	.+96     	; 0x1de <main>
				ReportData     += 1;
     17e:	8a c7       	rjmp	.+3860   	; 0x1094 <_exit>

00000180 <__bad_interrupt>:
     180:	3f cf       	rjmp	.-386    	; 0x0 <__vectors>

00000182 <LEDs_SetAllLEDs>:
     182:	9b b1       	in	r25, 0x0b	; 11
			default:
				ReportItemData  = 0;
				break;
		}

		switch (HIDReportItem & (HID_RI_TYPE_MASK | HID_RI_TAG_MASK))
     184:	9f 70       	andi	r25, 0x0F	; 15
     186:	98 2b       	or	r25, r24
     188:	9b b9       	out	0x0b, r25	; 11
     18a:	08 95       	ret

0000018c <SetupHardware>:
     18c:	84 b7       	in	r24, 0x34	; 52
     18e:	87 7f       	andi	r24, 0xF7	; 247
     190:	84 bf       	out	0x34, r24	; 52
     192:	88 e1       	ldi	r24, 0x18	; 24
     194:	0f b6       	in	r0, 0x3f	; 63
     196:	f8 94       	cli
     198:	80 93 60 00 	sts	0x0060, r24
     19c:	10 92 60 00 	sts	0x0060, r1
     1a0:	0f be       	out	0x3f, r0	; 63
     1a2:	90 e0       	ldi	r25, 0x00	; 0
     1a4:	80 e8       	ldi	r24, 0x80	; 128
     1a6:	0f b6       	in	r0, 0x3f	; 63
     1a8:	f8 94       	cli

			case HID_RI_USAGE_PAGE(0):
				if ((HIDReportItem & HID_RI_DATA_SIZE_MASK) == HID_RI_DATA_BITS_32)
				  CurrStateTable->Attributes.Usage.Page = (ReportItemData >> 16);

				CurrStateTable->Attributes.Usage.Page       = ReportItemData;
     1aa:	80 93 61 00 	sts	0x0061, r24
     1ae:	90 93 61 00 	sts	0x0061, r25
     1b2:	0f be       	out	0x3f, r0	; 63
				break;
     1b4:	84 b1       	in	r24, 0x04	; 4
			default:
				ReportItemData  = 0;
				break;
		}

		switch (HIDReportItem & (HID_RI_TYPE_MASK | HID_RI_TAG_MASK))
     1b6:	8f 71       	andi	r24, 0x1F	; 31
     1b8:	84 b9       	out	0x04, r24	; 4
     1ba:	8d b1       	in	r24, 0x0d	; 13
     1bc:	8f 7c       	andi	r24, 0xCF	; 207
     1be:	8d b9       	out	0x0d, r24	; 13
     1c0:	85 b1       	in	r24, 0x05	; 5
     1c2:	80 6e       	ori	r24, 0xE0	; 224
     1c4:	85 b9       	out	0x05, r24	; 5
     1c6:	8e b1       	in	r24, 0x0e	; 14
     1c8:	80 63       	ori	r24, 0x30	; 48
     1ca:	8e b9       	out	0x0e, r24	; 14
     1cc:	8a b1       	in	r24, 0x0a	; 10
     1ce:	80 6f       	ori	r24, 0xF0	; 240
     1d0:	8a b9       	out	0x0a, r24	; 10
     1d2:	8b b1       	in	r24, 0x0b	; 11
     1d4:	8f 70       	andi	r24, 0x0F	; 15
				UsageMinMax.Minimum = ReportItemData;
				break;

			case HID_RI_USAGE_MAXIMUM(0):
				UsageMinMax.Maximum = ReportItemData;
				break;
     1d6:	8b b9       	out	0x0b, r24	; 11
     1d8:	6a 98       	cbi	0x0d, 2	; 13
     1da:	72 9a       	sbi	0x0e, 2	; 14
			default:
				ReportItemData  = 0;
				break;
		}

		switch (HIDReportItem & (HID_RI_TYPE_MASK | HID_RI_TAG_MASK))
     1dc:	e9 c2       	rjmp	.+1490   	; 0x7b0 <USB_Init>

000001de <main>:
     1de:	d6 df       	rcall	.-84     	; 0x18c <SetupHardware>
     1e0:	80 e1       	ldi	r24, 0x10	; 16
     1e2:	cf df       	rcall	.-98     	; 0x182 <LEDs_SetAllLEDs>
     1e4:	78 94       	sei
     1e6:	80 e0       	ldi	r24, 0x00	; 0
			case HID_RI_PHYSICAL_MAXIMUM(0):
				CurrStateTable->Attributes.Physical.Maximum = ReportItemData;
				break;

			case HID_RI_UNIT_EXPONENT(0):
				CurrStateTable->Attributes.Unit.Exponent    = ReportItemData;
     1e8:	91 e0       	ldi	r25, 0x01	; 1
     1ea:	7a d6       	rcall	.+3316   	; 0xee0 <HID_Device_USBTask>
				break;
     1ec:	18 d5       	rcall	.+2608   	; 0xc1e <USB_USBTask>
			default:
				ReportItemData  = 0;
				break;
		}

		switch (HIDReportItem & (HID_RI_TYPE_MASK | HID_RI_TAG_MASK))
     1ee:	fb cf       	rjmp	.-10     	; 0x1e6 <main+0x8>

000001f0 <EVENT_USB_Device_Connect>:
     1f0:	80 ea       	ldi	r24, 0xA0	; 160
     1f2:	c7 cf       	rjmp	.-114    	; 0x182 <LEDs_SetAllLEDs>

000001f4 <EVENT_USB_Device_Disconnect>:
     1f4:	80 e1       	ldi	r24, 0x10	; 16
     1f6:	c5 cf       	rjmp	.-118    	; 0x182 <LEDs_SetAllLEDs>

000001f8 <EVENT_USB_Device_ConfigurationChanged>:
     1f8:	80 e0       	ldi	r24, 0x00	; 0
     1fa:	91 e0       	ldi	r25, 0x01	; 1
     1fc:	5e d6       	rcall	.+3260   	; 0xeba <HID_Device_ConfigureEndpoints>
     1fe:	90 91 e2 00 	lds	r25, 0x00E2
			case HID_RI_UNIT(0):
				CurrStateTable->Attributes.Unit.Type        = ReportItemData;
				break;

			case HID_RI_REPORT_SIZE(0):
				CurrStateTable->Attributes.BitSize          = ReportItemData;
     202:	94 60       	ori	r25, 0x04	; 4
     204:	90 93 e2 00 	sts	0x00E2, r25
			default:
				ReportItemData  = 0;
				break;
		}

		switch (HIDReportItem & (HID_RI_TYPE_MASK | HID_RI_TAG_MASK))
     208:	88 23       	and	r24, r24
     20a:	11 f0       	breq	.+4      	; 0x210 <EVENT_USB_Device_ConfigurationChanged+0x18>
     20c:	80 e6       	ldi	r24, 0x60	; 96
     20e:	01 c0       	rjmp	.+2      	; 0x212 <EVENT_USB_Device_ConfigurationChanged+0x1a>
     210:	80 e9       	ldi	r24, 0x90	; 144
     212:	b7 cf       	rjmp	.-146    	; 0x182 <LEDs_SetAllLEDs>

00000214 <EVENT_USB_Device_ControlRequest>:
     214:	80 e0       	ldi	r24, 0x00	; 0
     216:	91 e0       	ldi	r25, 0x01	; 1
     218:	1e c5       	rjmp	.+2620   	; 0xc56 <HID_Device_ProcessControlRequest>

0000021a <EVENT_USB_Device_StartOfFrame>:
     21a:	80 91 0e 01 	lds	r24, 0x010E
     21e:	90 91 0f 01 	lds	r25, 0x010F
     222:	00 97       	sbiw	r24, 0x00	; 0
     224:	29 f0       	breq	.+10     	; 0x230 <EVENT_USB_Device_StartOfFrame+0x16>
     226:	01 97       	sbiw	r24, 0x01	; 1
     228:	90 93 0f 01 	sts	0x010F, r25
     22c:	80 93 0e 01 	sts	0x010E, r24
     230:	08 95       	ret

00000232 <CALLBACK_HID_Device_CreateHIDReport>:
     232:	0f 93       	push	r16
					  return HID_PARSE_InsufficientReportItems;

					memcpy(&ParserData->ReportItems[ParserData->TotalReportItems],
					       &NewReportItem, sizeof(HID_ReportItem_t));

					if (!(ReportItemData & HID_IOF_CONSTANT) && CALLBACK_HIDParser_FilterHIDReportItem(&NewReportItem))
     234:	1f 93       	push	r17
     236:	f9 01       	movw	r30, r18
     238:	93 b1       	in	r25, 0x03	; 3
     23a:	8c b1       	in	r24, 0x0c	; 12
     23c:	80 95       	com	r24
     23e:	80 73       	andi	r24, 0x30	; 48
     240:	86 95       	lsr	r24
     242:	90 95       	com	r25
     244:	90 7e       	andi	r25, 0xE0	; 224
     246:	89 2b       	or	r24, r25
     248:	9c b1       	in	r25, 0x0c	; 12
     24a:	90 95       	com	r25
     24c:	87 ff       	sbrs	r24, 7
     24e:	02 c0       	rjmp	.+4      	; 0x254 <CALLBACK_HID_Device_CreateHIDReport+0x22>
     250:	2f ef       	ldi	r18, 0xFF	; 255
		}

		switch (HIDReportItem & (HID_RI_TYPE_MASK | HID_RI_TAG_MASK))
		{
			case HID_RI_PUSH(0):
				if (CurrStateTable == &StateTable[HID_STATETABLE_STACK_DEPTH - 1])
     252:	03 c0       	rjmp	.+6      	; 0x25a <CALLBACK_HID_Device_CreateHIDReport+0x28>
     254:	84 ff       	sbrs	r24, 4
     256:	02 c0       	rjmp	.+4      	; 0x25c <CALLBACK_HID_Device_CreateHIDReport+0x2a>
     258:	21 e0       	ldi	r18, 0x01	; 1
     25a:	22 83       	std	Z+2, r18	; 0x02
     25c:	86 ff       	sbrs	r24, 6
				  return HID_PARSE_HIDStackOverflow;

				memcpy((CurrStateTable + 1),
     25e:	02 c0       	rjmp	.+4      	; 0x264 <CALLBACK_HID_Device_CreateHIDReport+0x32>
     260:	2f ef       	ldi	r18, 0xFF	; 255
     262:	03 c0       	rjmp	.+6      	; 0x26a <CALLBACK_HID_Device_CreateHIDReport+0x38>
     264:	83 ff       	sbrs	r24, 3
     266:	02 c0       	rjmp	.+4      	; 0x26c <CALLBACK_HID_Device_CreateHIDReport+0x3a>
     268:	21 e0       	ldi	r18, 0x01	; 1
     26a:	21 83       	std	Z+1, r18	; 0x01
     26c:	85 ff       	sbrs	r24, 5
     26e:	03 c0       	rjmp	.+6      	; 0x276 <CALLBACK_HID_Device_CreateHIDReport+0x44>
				       CurrStateTable,
				       sizeof(HID_ReportItem_t));

				CurrStateTable++;
     270:	80 81       	ld	r24, Z
				break;
     272:	81 60       	ori	r24, 0x01	; 1

			case HID_RI_POP(0):
				if (CurrStateTable == &StateTable[0])
     274:	80 83       	st	Z, r24
     276:	92 ff       	sbrs	r25, 2
     278:	03 c0       	rjmp	.+6      	; 0x280 <CALLBACK_HID_Device_CreateHIDReport+0x4e>
     27a:	80 81       	ld	r24, Z
     27c:	82 60       	ori	r24, 0x02	; 2
     27e:	80 83       	st	Z, r24
				  return HID_PARSE_HIDStackUnderflow;

				CurrStateTable--;
     280:	83 e0       	ldi	r24, 0x03	; 3
     282:	90 e0       	ldi	r25, 0x00	; 0
				break;
     284:	f8 01       	movw	r30, r16

				CurrStateTable->Attributes.Usage.Page       = ReportItemData;
				break;

			case HID_RI_LOGICAL_MINIMUM(0):
				CurrStateTable->Attributes.Logical.Minimum  = ReportItemData;
     286:	91 83       	std	Z+1, r25	; 0x01
     288:	80 83       	st	Z, r24
     28a:	81 e0       	ldi	r24, 0x01	; 1
     28c:	1f 91       	pop	r17
     28e:	0f 91       	pop	r16
				break;
     290:	08 95       	ret

00000292 <CALLBACK_HID_Device_ProcessHIDReport>:

			case HID_RI_LOGICAL_MAXIMUM(0):
				CurrStateTable->Attributes.Logical.Maximum  = ReportItemData;
     292:	08 95       	ret

00000294 <CALLBACK_USB_GetDescriptor>:
     294:	29 2f       	mov	r18, r25
     296:	33 27       	eor	r19, r19
     298:	23 30       	cpi	r18, 0x03	; 3
     29a:	31 05       	cpc	r19, r1
     29c:	b9 f0       	breq	.+46     	; 0x2cc <CALLBACK_USB_GetDescriptor+0x38>
     29e:	5c f4       	brge	.+22     	; 0x2b6 <CALLBACK_USB_GetDescriptor+0x22>
				break;
     2a0:	21 30       	cpi	r18, 0x01	; 1

			case HID_RI_PHYSICAL_MINIMUM(0):
				CurrStateTable->Attributes.Physical.Minimum = ReportItemData;
     2a2:	31 05       	cpc	r19, r1
     2a4:	69 f1       	breq	.+90     	; 0x300 <CALLBACK_USB_GetDescriptor+0x6c>
     2a6:	22 30       	cpi	r18, 0x02	; 2
     2a8:	31 05       	cpc	r19, r1
     2aa:	79 f5       	brne	.+94     	; 0x30a <CALLBACK_USB_GetDescriptor+0x76>
				break;
     2ac:	82 e2       	ldi	r24, 0x22	; 34

			case HID_RI_PHYSICAL_MAXIMUM(0):
				CurrStateTable->Attributes.Physical.Maximum = ReportItemData;
     2ae:	90 e0       	ldi	r25, 0x00	; 0
     2b0:	28 ed       	ldi	r18, 0xD8	; 216
     2b2:	30 e0       	ldi	r19, 0x00	; 0
     2b4:	2e c0       	rjmp	.+92     	; 0x312 <CALLBACK_USB_GetDescriptor+0x7e>
     2b6:	21 32       	cpi	r18, 0x21	; 33
     2b8:	31 05       	cpc	r19, r1
     2ba:	e9 f0       	breq	.+58     	; 0x2f6 <CALLBACK_USB_GetDescriptor+0x62>
				break;
     2bc:	22 32       	cpi	r18, 0x22	; 34
			case HID_RI_UNIT_EXPONENT(0):
				CurrStateTable->Attributes.Unit.Exponent    = ReportItemData;
				break;

			case HID_RI_UNIT(0):
				CurrStateTable->Attributes.Unit.Type        = ReportItemData;
     2be:	31 05       	cpc	r19, r1
     2c0:	21 f5       	brne	.+72     	; 0x30a <CALLBACK_USB_GetDescriptor+0x76>
     2c2:	8a e3       	ldi	r24, 0x3A	; 58
     2c4:	90 e0       	ldi	r25, 0x00	; 0
     2c6:	2c e0       	ldi	r18, 0x0C	; 12
     2c8:	31 e0       	ldi	r19, 0x01	; 1
     2ca:	23 c0       	rjmp	.+70     	; 0x312 <CALLBACK_USB_GetDescriptor+0x7e>
				break;
     2cc:	99 27       	eor	r25, r25
			case HID_RI_REPORT_SIZE(0):
				CurrStateTable->Attributes.BitSize          = ReportItemData;
				break;

			case HID_RI_REPORT_COUNT(0):
				CurrStateTable->ReportCount                 = ReportItemData;
     2ce:	81 30       	cpi	r24, 0x01	; 1
     2d0:	91 05       	cpc	r25, r1
     2d2:	41 f0       	breq	.+16     	; 0x2e4 <CALLBACK_USB_GetDescriptor+0x50>
				break;
     2d4:	82 30       	cpi	r24, 0x02	; 2

			case HID_RI_REPORT_ID(0):
				CurrStateTable->ReportID                    = ReportItemData;
     2d6:	91 05       	cpc	r25, r1
     2d8:	41 f0       	breq	.+16     	; 0x2ea <CALLBACK_USB_GetDescriptor+0x56>
     2da:	89 2b       	or	r24, r25

				if (ParserData->UsingReportIDs)
     2dc:	b1 f4       	brne	.+44     	; 0x30a <CALLBACK_USB_GetDescriptor+0x76>
     2de:	e4 ed       	ldi	r30, 0xD4	; 212
     2e0:	f0 e0       	ldi	r31, 0x00	; 0
     2e2:	05 c0       	rjmp	.+10     	; 0x2ee <CALLBACK_USB_GetDescriptor+0x5a>
     2e4:	ea eb       	ldi	r30, 0xBA	; 186
     2e6:	f0 e0       	ldi	r31, 0x00	; 0
     2e8:	02 c0       	rjmp	.+4      	; 0x2ee <CALLBACK_USB_GetDescriptor+0x5a>
     2ea:	e8 e9       	ldi	r30, 0x98	; 152
				{
					CurrReportIDInfo = NULL;

					for (uint8_t i = 0; i < ParserData->TotalDeviceReports; i++)
     2ec:	f0 e0       	ldi	r31, 0x00	; 0
     2ee:	84 91       	lpm	r24, Z
     2f0:	90 e0       	ldi	r25, 0x00	; 0
     2f2:	9f 01       	movw	r18, r30
     2f4:	0e c0       	rjmp	.+28     	; 0x312 <CALLBACK_USB_GetDescriptor+0x7e>
     2f6:	89 e0       	ldi	r24, 0x09	; 9
     2f8:	90 e0       	ldi	r25, 0x00	; 0
     2fa:	2a ee       	ldi	r18, 0xEA	; 234
     2fc:	30 e0       	ldi	r19, 0x00	; 0
     2fe:	09 c0       	rjmp	.+18     	; 0x312 <CALLBACK_USB_GetDescriptor+0x7e>
     300:	82 e1       	ldi	r24, 0x12	; 18
     302:	90 e0       	ldi	r25, 0x00	; 0
					{
						if (ParserData->ReportIDSizes[i].ReportID == CurrStateTable->ReportID)
     304:	2a ef       	ldi	r18, 0xFA	; 250
     306:	30 e0       	ldi	r19, 0x00	; 0
     308:	04 c0       	rjmp	.+8      	; 0x312 <CALLBACK_USB_GetDescriptor+0x7e>
     30a:	80 e0       	ldi	r24, 0x00	; 0
     30c:	90 e0       	ldi	r25, 0x00	; 0
     30e:	20 e0       	ldi	r18, 0x00	; 0
     310:	30 e0       	ldi	r19, 0x00	; 0
     312:	fa 01       	movw	r30, r20
     314:	31 83       	std	Z+1, r19	; 0x01
     316:	20 83       	st	Z, r18
						{
							CurrReportIDInfo = &ParserData->ReportIDSizes[i];
     318:	08 95       	ret

0000031a <Endpoint_Write_Stream_LE>:
     31a:	cf 92       	push	r12
     31c:	df 92       	push	r13
     31e:	ef 92       	push	r14
     320:	ff 92       	push	r15
     322:	0f 93       	push	r16
     324:	1f 93       	push	r17
     326:	cf 93       	push	r28
     328:	df 93       	push	r29
     32a:	7c 01       	movw	r14, r24
     32c:	8b 01       	movw	r16, r22
     32e:	ea 01       	movw	r28, r20
     330:	ca d1       	rcall	.+916    	; 0x6c6 <Endpoint_WaitUntilReady>
     332:	81 11       	cpse	r24, r1
     334:	31 c0       	rjmp	.+98     	; 0x398 <Endpoint_Write_Stream_LE+0x7e>
     336:	20 97       	sbiw	r28, 0x00	; 0
						}
					}

					if (CurrReportIDInfo == NULL)
					{
						if (ParserData->TotalDeviceReports == HID_MAX_REPORT_IDS)
     338:	31 f0       	breq	.+12     	; 0x346 <Endpoint_Write_Stream_LE+0x2c>
     33a:	88 81       	ld	r24, Y
     33c:	99 81       	ldd	r25, Y+1	; 0x01
						  return HID_PARSE_InsufficientReportIDItems;

						CurrReportIDInfo = &ParserData->ReportIDSizes[ParserData->TotalDeviceReports++];
     33e:	08 1b       	sub	r16, r24
     340:	19 0b       	sbc	r17, r25
     342:	e8 0e       	add	r14, r24
     344:	f9 1e       	adc	r15, r25
     346:	c1 2c       	mov	r12, r1
     348:	d1 2c       	mov	r13, r1
     34a:	01 15       	cp	r16, r1
     34c:	11 05       	cpc	r17, r1
     34e:	19 f1       	breq	.+70     	; 0x396 <Endpoint_Write_Stream_LE+0x7c>
     350:	80 91 e8 00 	lds	r24, 0x00E8
     354:	85 fd       	sbrc	r24, 5
     356:	14 c0       	rjmp	.+40     	; 0x380 <Endpoint_Write_Stream_LE+0x66>
     358:	80 91 e8 00 	lds	r24, 0x00E8
     35c:	8e 77       	andi	r24, 0x7E	; 126
     35e:	80 93 e8 00 	sts	0x00E8, r24
     362:	5d d4       	rcall	.+2234   	; 0xc1e <USB_USBTask>
						memset(CurrReportIDInfo, 0x00, sizeof(HID_ReportSizeInfo_t));
     364:	20 97       	sbiw	r28, 0x00	; 0
     366:	41 f0       	breq	.+16     	; 0x378 <Endpoint_Write_Stream_LE+0x5e>
     368:	88 81       	ld	r24, Y
     36a:	99 81       	ldd	r25, Y+1	; 0x01
					}
				}

				ParserData->UsingReportIDs = true;
     36c:	8c 0d       	add	r24, r12
     36e:	9d 1d       	adc	r25, r13
     370:	99 83       	std	Y+1, r25	; 0x01
     372:	88 83       	st	Y, r24
     374:	85 e0       	ldi	r24, 0x05	; 5
     376:	10 c0       	rjmp	.+32     	; 0x398 <Endpoint_Write_Stream_LE+0x7e>

				CurrReportIDInfo->ReportID = CurrStateTable->ReportID;
     378:	a6 d1       	rcall	.+844    	; 0x6c6 <Endpoint_WaitUntilReady>
     37a:	88 23       	and	r24, r24
     37c:	31 f3       	breq	.-52     	; 0x34a <Endpoint_Write_Stream_LE+0x30>
     37e:	0c c0       	rjmp	.+24     	; 0x398 <Endpoint_Write_Stream_LE+0x7e>
     380:	f7 01       	movw	r30, r14
     382:	81 91       	ld	r24, Z+
     384:	7f 01       	movw	r14, r30
     386:	80 93 f1 00 	sts	0x00F1, r24
				break;

			case HID_RI_USAGE(0):
				if (UsageListSize == HID_USAGE_STACK_DEPTH)
     38a:	01 50       	subi	r16, 0x01	; 1
     38c:	11 09       	sbc	r17, r1
     38e:	ff ef       	ldi	r31, 0xFF	; 255
     390:	cf 1a       	sub	r12, r31
     392:	df 0a       	sbc	r13, r31
     394:	da cf       	rjmp	.-76     	; 0x34a <Endpoint_Write_Stream_LE+0x30>
				  return HID_PARSE_UsageListOverflow;

				UsageList[UsageListSize++] = ReportItemData;
     396:	80 e0       	ldi	r24, 0x00	; 0
     398:	df 91       	pop	r29
     39a:	cf 91       	pop	r28
     39c:	1f 91       	pop	r17
     39e:	0f 91       	pop	r16
     3a0:	ff 90       	pop	r15
     3a2:	ef 90       	pop	r14
     3a4:	df 90       	pop	r13
     3a6:	cf 90       	pop	r12
     3a8:	08 95       	ret

000003aa <Endpoint_Write_Control_Stream_LE>:
     3aa:	20 91 1e 01 	lds	r18, 0x011E
     3ae:	30 91 1f 01 	lds	r19, 0x011F
			case HID_RI_USAGE_MAXIMUM(0):
				UsageMinMax.Maximum = ReportItemData;
				break;

			case HID_RI_COLLECTION(0):
				if (CurrCollectionPath == NULL)
     3b2:	26 17       	cp	r18, r22
     3b4:	37 07       	cpc	r19, r23
     3b6:	48 f0       	brcs	.+18     	; 0x3ca <Endpoint_Write_Control_Stream_LE+0x20>
     3b8:	61 15       	cp	r22, r1
     3ba:	71 05       	cpc	r23, r1
     3bc:	39 f4       	brne	.+14     	; 0x3cc <Endpoint_Write_Control_Stream_LE+0x22>
				{
					CurrCollectionPath = &ParserData->CollectionPaths[0];
     3be:	20 91 e8 00 	lds	r18, 0x00E8
     3c2:	2e 77       	andi	r18, 0x7E	; 126
     3c4:	20 93 e8 00 	sts	0x00E8, r18
     3c8:	01 c0       	rjmp	.+2      	; 0x3cc <Endpoint_Write_Control_Stream_LE+0x22>
     3ca:	b9 01       	movw	r22, r18
     3cc:	fc 01       	movw	r30, r24
				}
				else
				{
					HID_CollectionPath_t* ParentCollectionPath = CurrCollectionPath;

					CurrCollectionPath = &ParserData->CollectionPaths[1];
     3ce:	20 e0       	ldi	r18, 0x00	; 0
     3d0:	61 15       	cp	r22, r1
     3d2:	71 05       	cpc	r23, r1

					while (CurrCollectionPath->Parent != NULL)
     3d4:	99 f1       	breq	.+102    	; 0x43c <Endpoint_Write_Control_Stream_LE+0x92>
     3d6:	80 91 17 01 	lds	r24, 0x0117
     3da:	88 23       	and	r24, r24
					{
						if (CurrCollectionPath == &ParserData->CollectionPaths[HID_MAX_COLLECTIONS - 1])
     3dc:	e9 f1       	breq	.+122    	; 0x458 <Endpoint_Write_Control_Stream_LE+0xae>
     3de:	85 30       	cpi	r24, 0x05	; 5
     3e0:	e9 f1       	breq	.+122    	; 0x45c <Endpoint_Write_Control_Stream_LE+0xb2>
     3e2:	80 91 e8 00 	lds	r24, 0x00E8
     3e6:	83 fd       	sbrc	r24, 3
     3e8:	3b c0       	rjmp	.+118    	; 0x460 <Endpoint_Write_Control_Stream_LE+0xb6>
     3ea:	80 91 e8 00 	lds	r24, 0x00E8
     3ee:	82 ff       	sbrs	r24, 2
						  return HID_PARSE_InsufficientCollectionPaths;

						CurrCollectionPath++;
     3f0:	06 c0       	rjmp	.+12     	; 0x3fe <Endpoint_Write_Control_Stream_LE+0x54>
     3f2:	80 91 e8 00 	lds	r24, 0x00E8
					}

					CurrCollectionPath->Parent = ParentCollectionPath;
     3f6:	82 ff       	sbrs	r24, 2
     3f8:	24 c0       	rjmp	.+72     	; 0x442 <Endpoint_Write_Control_Stream_LE+0x98>
     3fa:	80 e0       	ldi	r24, 0x00	; 0
     3fc:	08 95       	ret
     3fe:	80 91 e8 00 	lds	r24, 0x00E8
     402:	80 ff       	sbrs	r24, 0
     404:	e5 cf       	rjmp	.-54     	; 0x3d0 <Endpoint_Write_Control_Stream_LE+0x26>
     406:	80 91 f2 00 	lds	r24, 0x00F2
				}

				CurrCollectionPath->Type       = ReportItemData;
     40a:	90 91 f3 00 	lds	r25, 0x00F3
     40e:	61 15       	cp	r22, r1
     410:	71 05       	cpc	r23, r1
				CurrCollectionPath->Usage.Page = CurrStateTable->Attributes.Usage.Page;
     412:	51 f0       	breq	.+20     	; 0x428 <Endpoint_Write_Control_Stream_LE+0x7e>
     414:	88 30       	cpi	r24, 0x08	; 8
     416:	91 05       	cpc	r25, r1
     418:	38 f4       	brcc	.+14     	; 0x428 <Endpoint_Write_Control_Stream_LE+0x7e>
     41a:	21 91       	ld	r18, Z+
     41c:	20 93 f1 00 	sts	0x00F1, r18

				if (UsageListSize)
     420:	61 50       	subi	r22, 0x01	; 1
     422:	71 09       	sbc	r23, r1
     424:	01 96       	adiw	r24, 0x01	; 1
     426:	f3 cf       	rjmp	.-26     	; 0x40e <Endpoint_Write_Control_Stream_LE+0x64>
     428:	21 e0       	ldi	r18, 0x01	; 1
				{
					CurrCollectionPath->Usage.Usage = UsageList[0];
     42a:	08 97       	sbiw	r24, 0x08	; 8
     42c:	09 f0       	breq	.+2      	; 0x430 <Endpoint_Write_Control_Stream_LE+0x86>
     42e:	20 e0       	ldi	r18, 0x00	; 0
     430:	80 91 e8 00 	lds	r24, 0x00E8
     434:	8e 77       	andi	r24, 0x7E	; 126
     436:	80 93 e8 00 	sts	0x00E8, r24
     43a:	ca cf       	rjmp	.-108    	; 0x3d0 <Endpoint_Write_Control_Stream_LE+0x26>
     43c:	21 11       	cpse	r18, r1
     43e:	cb cf       	rjmp	.-106    	; 0x3d6 <Endpoint_Write_Control_Stream_LE+0x2c>

					for (uint8_t i = 1; i < UsageListSize; i++)
     440:	d8 cf       	rjmp	.-80     	; 0x3f2 <Endpoint_Write_Control_Stream_LE+0x48>
     442:	80 91 17 01 	lds	r24, 0x0117
     446:	88 23       	and	r24, r24
     448:	39 f0       	breq	.+14     	; 0x458 <Endpoint_Write_Control_Stream_LE+0xae>
     44a:	85 30       	cpi	r24, 0x05	; 5
					  UsageList[i - 1] = UsageList[i];
     44c:	39 f0       	breq	.+14     	; 0x45c <Endpoint_Write_Control_Stream_LE+0xb2>
     44e:	80 91 e8 00 	lds	r24, 0x00E8
     452:	83 ff       	sbrs	r24, 3

				if (UsageListSize)
				{
					CurrCollectionPath->Usage.Usage = UsageList[0];

					for (uint8_t i = 1; i < UsageListSize; i++)
     454:	ce cf       	rjmp	.-100    	; 0x3f2 <Endpoint_Write_Control_Stream_LE+0x48>
     456:	04 c0       	rjmp	.+8      	; 0x460 <Endpoint_Write_Control_Stream_LE+0xb6>
					  UsageList[i - 1] = UsageList[i];

					UsageListSize--;
     458:	82 e0       	ldi	r24, 0x02	; 2
     45a:	08 95       	ret
     45c:	83 e0       	ldi	r24, 0x03	; 3
     45e:	08 95       	ret
     460:	81 e0       	ldi	r24, 0x01	; 1
				}
				else if (UsageMinMax.Minimum <= UsageMinMax.Maximum)
     462:	08 95       	ret

00000464 <Endpoint_Read_Control_Stream_LE>:
     464:	61 15       	cp	r22, r1
     466:	71 05       	cpc	r23, r1
     468:	29 f4       	brne	.+10     	; 0x474 <Endpoint_Read_Control_Stream_LE+0x10>
     46a:	20 91 e8 00 	lds	r18, 0x00E8
				{
					CurrCollectionPath->Usage.Usage = UsageMinMax.Minimum++;
     46e:	2b 77       	andi	r18, 0x7B	; 123
     470:	20 93 e8 00 	sts	0x00E8, r18
     474:	61 15       	cp	r22, r1
     476:	71 05       	cpc	r23, r1
     478:	31 f1       	breq	.+76     	; 0x4c6 <Endpoint_Read_Control_Stream_LE+0x62>
     47a:	20 91 17 01 	lds	r18, 0x0117
     47e:	22 23       	and	r18, r18
     480:	59 f1       	breq	.+86     	; 0x4d8 <Endpoint_Read_Control_Stream_LE+0x74>
     482:	25 30       	cpi	r18, 0x05	; 5
     484:	59 f1       	breq	.+86     	; 0x4dc <Endpoint_Read_Control_Stream_LE+0x78>
     486:	20 91 e8 00 	lds	r18, 0x00E8
				}

				break;

			case HID_RI_END_COLLECTION(0):
				if (CurrCollectionPath == NULL)
     48a:	23 fd       	sbrc	r18, 3
     48c:	21 c0       	rjmp	.+66     	; 0x4d0 <Endpoint_Read_Control_Stream_LE+0x6c>
     48e:	20 91 e8 00 	lds	r18, 0x00E8
     492:	22 ff       	sbrs	r18, 2
     494:	f2 cf       	rjmp	.-28     	; 0x47a <Endpoint_Read_Control_Stream_LE+0x16>
     496:	fc 01       	movw	r30, r24
     498:	cf 01       	movw	r24, r30
				  return HID_PARSE_UnexpectedEndCollection;

				CurrCollectionPath = CurrCollectionPath->Parent;
     49a:	20 91 f2 00 	lds	r18, 0x00F2
     49e:	30 91 f3 00 	lds	r19, 0x00F3
     4a2:	23 2b       	or	r18, r19
     4a4:	11 f3       	breq	.-60     	; 0x46a <Endpoint_Read_Control_Stream_LE+0x6>
     4a6:	80 91 f1 00 	lds	r24, 0x00F1
     4aa:	81 93       	st	Z+, r24
				break;
     4ac:	cf 01       	movw	r24, r30
					ParserData->LargestReportSizeBits = MAX(ParserData->LargestReportSizeBits, CurrReportIDInfo->ReportSizeBits[NewReportItem.ItemType]);

					if (ParserData->TotalReportItems == HID_MAX_REPORTITEMS)
					  return HID_PARSE_InsufficientReportItems;

					memcpy(&ParserData->ReportItems[ParserData->TotalReportItems],
     4ae:	61 50       	subi	r22, 0x01	; 1
     4b0:	71 09       	sbc	r23, r1
     4b2:	61 15       	cp	r22, r1
     4b4:	71 05       	cpc	r23, r1
     4b6:	81 f7       	brne	.-32     	; 0x498 <Endpoint_Read_Control_Stream_LE+0x34>
     4b8:	d8 cf       	rjmp	.-80     	; 0x46a <Endpoint_Read_Control_Stream_LE+0x6>
     4ba:	80 91 17 01 	lds	r24, 0x0117
     4be:	88 23       	and	r24, r24
     4c0:	59 f0       	breq	.+22     	; 0x4d8 <Endpoint_Read_Control_Stream_LE+0x74>
     4c2:	85 30       	cpi	r24, 0x05	; 5
     4c4:	59 f0       	breq	.+22     	; 0x4dc <Endpoint_Read_Control_Stream_LE+0x78>
     4c6:	80 91 e8 00 	lds	r24, 0x00E8
					       &NewReportItem, sizeof(HID_ReportItem_t));

					if (!(ReportItemData & HID_IOF_CONSTANT) && CALLBACK_HIDParser_FilterHIDReportItem(&NewReportItem))
     4ca:	80 ff       	sbrs	r24, 0
     4cc:	f6 cf       	rjmp	.-20     	; 0x4ba <Endpoint_Read_Control_Stream_LE+0x56>
     4ce:	02 c0       	rjmp	.+4      	; 0x4d4 <Endpoint_Read_Control_Stream_LE+0x70>
     4d0:	81 e0       	ldi	r24, 0x01	; 1
     4d2:	08 95       	ret
     4d4:	80 e0       	ldi	r24, 0x00	; 0
     4d6:	08 95       	ret
     4d8:	82 e0       	ldi	r24, 0x02	; 2
     4da:	08 95       	ret
     4dc:	83 e0       	ldi	r24, 0x03	; 3
     4de:	08 95       	ret

000004e0 <Endpoint_Write_Control_PStream_LE>:
     4e0:	20 91 1e 01 	lds	r18, 0x011E
				break;

			case HID_RI_INPUT(0):
			case HID_RI_OUTPUT(0):
			case HID_RI_FEATURE(0):
				for (uint8_t ReportItemNum = 0; ReportItemNum < CurrStateTable->ReportCount; ReportItemNum++)
     4e4:	30 91 1f 01 	lds	r19, 0x011F
     4e8:	26 17       	cp	r18, r22
     4ea:	37 07       	cpc	r19, r23
     4ec:	48 f0       	brcs	.+18     	; 0x500 <Endpoint_Write_Control_PStream_LE+0x20>
     4ee:	61 15       	cp	r22, r1
				{
					HID_ReportItem_t NewReportItem;

					memcpy(&NewReportItem.Attributes,
     4f0:	71 05       	cpc	r23, r1
     4f2:	39 f4       	brne	.+14     	; 0x502 <Endpoint_Write_Control_PStream_LE+0x22>
     4f4:	20 91 e8 00 	lds	r18, 0x00E8
     4f8:	2e 77       	andi	r18, 0x7E	; 126
     4fa:	20 93 e8 00 	sts	0x00E8, r18
     4fe:	01 c0       	rjmp	.+2      	; 0x502 <Endpoint_Write_Control_PStream_LE+0x22>
     500:	b9 01       	movw	r22, r18
					       &CurrStateTable->Attributes,
					       sizeof(HID_ReportItem_Attributes_t));

					NewReportItem.ItemFlags      = ReportItemData;
     502:	fc 01       	movw	r30, r24
     504:	20 e0       	ldi	r18, 0x00	; 0
					NewReportItem.CollectionPath = CurrCollectionPath;
     506:	61 15       	cp	r22, r1
     508:	71 05       	cpc	r23, r1
     50a:	b1 f1       	breq	.+108    	; 0x578 <Endpoint_Write_Control_PStream_LE+0x98>
     50c:	80 91 17 01 	lds	r24, 0x0117
     510:	88 23       	and	r24, r24
     512:	09 f4       	brne	.+2      	; 0x516 <Endpoint_Write_Control_PStream_LE+0x36>
     514:	3f c0       	rjmp	.+126    	; 0x594 <Endpoint_Write_Control_PStream_LE+0xb4>
					NewReportItem.ReportID       = CurrStateTable->ReportID;
     516:	85 30       	cpi	r24, 0x05	; 5
     518:	09 f4       	brne	.+2      	; 0x51c <Endpoint_Write_Control_PStream_LE+0x3c>
     51a:	3e c0       	rjmp	.+124    	; 0x598 <Endpoint_Write_Control_PStream_LE+0xb8>
     51c:	80 91 e8 00 	lds	r24, 0x00E8

					if (UsageListSize)
     520:	83 fd       	sbrc	r24, 3
     522:	3c c0       	rjmp	.+120    	; 0x59c <Endpoint_Write_Control_PStream_LE+0xbc>
     524:	80 91 e8 00 	lds	r24, 0x00E8
					{
						NewReportItem.Attributes.Usage.Usage = UsageList[0];
     528:	82 ff       	sbrs	r24, 2
     52a:	06 c0       	rjmp	.+12     	; 0x538 <Endpoint_Write_Control_PStream_LE+0x58>
     52c:	80 91 e8 00 	lds	r24, 0x00E8
     530:	82 ff       	sbrs	r24, 2
     532:	25 c0       	rjmp	.+74     	; 0x57e <Endpoint_Write_Control_PStream_LE+0x9e>
     534:	80 e0       	ldi	r24, 0x00	; 0
     536:	08 95       	ret
     538:	80 91 e8 00 	lds	r24, 0x00E8
     53c:	80 ff       	sbrs	r24, 0

						for (uint8_t i = 1; i < UsageListSize; i++)
     53e:	e3 cf       	rjmp	.-58     	; 0x506 <Endpoint_Write_Control_PStream_LE+0x26>
     540:	80 91 f2 00 	lds	r24, 0x00F2
     544:	90 91 f3 00 	lds	r25, 0x00F3
     548:	61 15       	cp	r22, r1
						  UsageList[i - 1] = UsageList[i];
     54a:	71 05       	cpc	r23, r1
     54c:	59 f0       	breq	.+22     	; 0x564 <Endpoint_Write_Control_PStream_LE+0x84>
     54e:	88 30       	cpi	r24, 0x08	; 8
     550:	91 05       	cpc	r25, r1

					if (UsageListSize)
					{
						NewReportItem.Attributes.Usage.Usage = UsageList[0];

						for (uint8_t i = 1; i < UsageListSize; i++)
     552:	40 f4       	brcc	.+16     	; 0x564 <Endpoint_Write_Control_PStream_LE+0x84>
     554:	24 91       	lpm	r18, Z
						  UsageList[i - 1] = UsageList[i];

						UsageListSize--;
     556:	20 93 f1 00 	sts	0x00F1, r18
     55a:	31 96       	adiw	r30, 0x01	; 1
     55c:	61 50       	subi	r22, 0x01	; 1
     55e:	71 09       	sbc	r23, r1
					}
					else if (UsageMinMax.Minimum <= UsageMinMax.Maximum)
     560:	01 96       	adiw	r24, 0x01	; 1
     562:	f2 cf       	rjmp	.-28     	; 0x548 <Endpoint_Write_Control_PStream_LE+0x68>
     564:	21 e0       	ldi	r18, 0x01	; 1
     566:	08 97       	sbiw	r24, 0x08	; 8
     568:	09 f0       	breq	.+2      	; 0x56c <Endpoint_Write_Control_PStream_LE+0x8c>
					{
						NewReportItem.Attributes.Usage.Usage = UsageMinMax.Minimum++;
     56a:	20 e0       	ldi	r18, 0x00	; 0
     56c:	80 91 e8 00 	lds	r24, 0x00E8
     570:	8e 77       	andi	r24, 0x7E	; 126
     572:	80 93 e8 00 	sts	0x00E8, r24
     576:	c7 cf       	rjmp	.-114    	; 0x506 <Endpoint_Write_Control_PStream_LE+0x26>
     578:	21 11       	cpse	r18, r1
     57a:	c8 cf       	rjmp	.-112    	; 0x50c <Endpoint_Write_Control_PStream_LE+0x2c>
					}

					uint8_t ItemTypeTag = (HIDReportItem & (HID_RI_TYPE_MASK | HID_RI_TAG_MASK));

					if (ItemTypeTag == HID_RI_INPUT(0))
     57c:	d7 cf       	rjmp	.-82     	; 0x52c <Endpoint_Write_Control_PStream_LE+0x4c>
     57e:	80 91 17 01 	lds	r24, 0x0117
					  NewReportItem.ItemType = HID_REPORT_ITEM_In;
     582:	88 23       	and	r24, r24
					else if (ItemTypeTag == HID_RI_OUTPUT(0))
     584:	39 f0       	breq	.+14     	; 0x594 <Endpoint_Write_Control_PStream_LE+0xb4>
     586:	85 30       	cpi	r24, 0x05	; 5
					  NewReportItem.ItemType = HID_REPORT_ITEM_Out;
     588:	39 f0       	breq	.+14     	; 0x598 <Endpoint_Write_Control_PStream_LE+0xb8>
     58a:	80 91 e8 00 	lds	r24, 0x00E8
					else
					  NewReportItem.ItemType = HID_REPORT_ITEM_Feature;
     58e:	83 ff       	sbrs	r24, 3
     590:	cd cf       	rjmp	.-102    	; 0x52c <Endpoint_Write_Control_PStream_LE+0x4c>

					NewReportItem.BitOffset = CurrReportIDInfo->ReportSizeBits[NewReportItem.ItemType];
     592:	04 c0       	rjmp	.+8      	; 0x59c <Endpoint_Write_Control_PStream_LE+0xbc>
     594:	82 e0       	ldi	r24, 0x02	; 2
     596:	08 95       	ret
     598:	83 e0       	ldi	r24, 0x03	; 3
     59a:	08 95       	ret
     59c:	81 e0       	ldi	r24, 0x01	; 1
     59e:	08 95       	ret

000005a0 <Endpoint_ConfigureEndpoint_Prv>:
     5a0:	98 2f       	mov	r25, r24
     5a2:	97 30       	cpi	r25, 0x07	; 7
     5a4:	58 f5       	brcc	.+86     	; 0x5fc <Endpoint_ConfigureEndpoint_Prv+0x5c>
     5a6:	90 93 e9 00 	sts	0x00E9, r25
     5aa:	98 17       	cp	r25, r24

					CurrReportIDInfo->ReportSizeBits[NewReportItem.ItemType] += CurrStateTable->Attributes.BitSize;
     5ac:	39 f0       	breq	.+14     	; 0x5bc <Endpoint_ConfigureEndpoint_Prv+0x1c>
     5ae:	70 91 ec 00 	lds	r23, 0x00EC
     5b2:	20 91 ed 00 	lds	r18, 0x00ED
     5b6:	50 91 f0 00 	lds	r21, 0x00F0
     5ba:	03 c0       	rjmp	.+6      	; 0x5c2 <Endpoint_ConfigureEndpoint_Prv+0x22>

					ParserData->LargestReportSizeBits = MAX(ParserData->LargestReportSizeBits, CurrReportIDInfo->ReportSizeBits[NewReportItem.ItemType]);
     5bc:	24 2f       	mov	r18, r20
     5be:	76 2f       	mov	r23, r22
     5c0:	50 e0       	ldi	r21, 0x00	; 0
     5c2:	21 ff       	sbrs	r18, 1
     5c4:	19 c0       	rjmp	.+50     	; 0x5f8 <Endpoint_ConfigureEndpoint_Prv+0x58>
     5c6:	30 91 eb 00 	lds	r19, 0x00EB
     5ca:	3e 7f       	andi	r19, 0xFE	; 254
     5cc:	30 93 eb 00 	sts	0x00EB, r19
     5d0:	30 91 ed 00 	lds	r19, 0x00ED
     5d4:	3d 7f       	andi	r19, 0xFD	; 253
     5d6:	30 93 ed 00 	sts	0x00ED, r19
     5da:	30 91 eb 00 	lds	r19, 0x00EB
     5de:	31 60       	ori	r19, 0x01	; 1
     5e0:	30 93 eb 00 	sts	0x00EB, r19
     5e4:	70 93 ec 00 	sts	0x00EC, r23
     5e8:	20 93 ed 00 	sts	0x00ED, r18
     5ec:	50 93 f0 00 	sts	0x00F0, r21
     5f0:	20 91 ee 00 	lds	r18, 0x00EE

					if (ParserData->TotalReportItems == HID_MAX_REPORTITEMS)
     5f4:	27 ff       	sbrs	r18, 7
     5f6:	07 c0       	rjmp	.+14     	; 0x606 <Endpoint_ConfigureEndpoint_Prv+0x66>
     5f8:	9f 5f       	subi	r25, 0xFF	; 255
     5fa:	d3 cf       	rjmp	.-90     	; 0x5a2 <Endpoint_ConfigureEndpoint_Prv+0x2>
     5fc:	8f 70       	andi	r24, 0x0F	; 15
					  return HID_PARSE_InsufficientReportItems;
     5fe:	80 93 e9 00 	sts	0x00E9, r24

					memcpy(&ParserData->ReportItems[ParserData->TotalReportItems],
					       &NewReportItem, sizeof(HID_ReportItem_t));

					if (!(ReportItemData & HID_IOF_CONSTANT) && CALLBACK_HIDParser_FilterHIDReportItem(&NewReportItem))
     602:	81 e0       	ldi	r24, 0x01	; 1
     604:	08 95       	ret
     606:	80 e0       	ldi	r24, 0x00	; 0
     608:	08 95       	ret

0000060a <Endpoint_ConfigureEndpointTable>:
     60a:	0f 93       	push	r16
     60c:	1f 93       	push	r17
     60e:	cf 93       	push	r28
     610:	df 93       	push	r29
     612:	06 2f       	mov	r16, r22
     614:	ec 01       	movw	r28, r24
     616:	10 e0       	ldi	r17, 0x00	; 0
     618:	10 17       	cp	r17, r16
     61a:	71 f1       	breq	.+92     	; 0x678 <Endpoint_ConfigureEndpointTable+0x6e>
     61c:	98 81       	ld	r25, Y
     61e:	99 23       	and	r25, r25
     620:	41 f1       	breq	.+80     	; 0x672 <Endpoint_ConfigureEndpointTable+0x68>
     622:	2c 81       	ldd	r18, Y+4	; 0x04
     624:	e9 81       	ldd	r30, Y+1	; 0x01
     626:	fa 81       	ldd	r31, Y+2	; 0x02
     628:	7b 81       	ldd	r23, Y+3	; 0x03
     62a:	89 2f       	mov	r24, r25
     62c:	8f 70       	andi	r24, 0x0F	; 15
     62e:	87 30       	cpi	r24, 0x07	; 7
     630:	10 f0       	brcs	.+4      	; 0x636 <Endpoint_ConfigureEndpointTable+0x2c>
     632:	80 e0       	ldi	r24, 0x00	; 0
     634:	22 c0       	rjmp	.+68     	; 0x67a <Endpoint_ConfigureEndpointTable+0x70>
     636:	22 30       	cpi	r18, 0x02	; 2
     638:	10 f0       	brcs	.+4      	; 0x63e <Endpoint_ConfigureEndpointTable+0x34>
     63a:	56 e0       	ldi	r21, 0x06	; 6
     63c:	01 c0       	rjmp	.+2      	; 0x640 <Endpoint_ConfigureEndpointTable+0x36>
     63e:	52 e0       	ldi	r21, 0x02	; 2
     640:	28 e0       	ldi	r18, 0x08	; 8
     642:	30 e0       	ldi	r19, 0x00	; 0
     644:	40 e0       	ldi	r20, 0x00	; 0
     646:	2e 17       	cp	r18, r30
     648:	3f 07       	cpc	r19, r31
     64a:	20 f4       	brcc	.+8      	; 0x654 <Endpoint_ConfigureEndpointTable+0x4a>
     64c:	4f 5f       	subi	r20, 0xFF	; 255
     64e:	22 0f       	add	r18, r18
     650:	33 1f       	adc	r19, r19
     652:	f9 cf       	rjmp	.-14     	; 0x646 <Endpoint_ConfigureEndpointTable+0x3c>
     654:	42 95       	swap	r20
     656:	40 7f       	andi	r20, 0xF0	; 240
     658:	45 2b       	or	r20, r21
     65a:	69 2f       	mov	r22, r25
     65c:	66 1f       	adc	r22, r22
     65e:	66 27       	eor	r22, r22
     660:	66 1f       	adc	r22, r22
     662:	90 e4       	ldi	r25, 0x40	; 64
     664:	79 9f       	mul	r23, r25
     666:	90 01       	movw	r18, r0
     668:	11 24       	eor	r1, r1
     66a:	62 2b       	or	r22, r18
     66c:	99 df       	rcall	.-206    	; 0x5a0 <Endpoint_ConfigureEndpoint_Prv>
     66e:	88 23       	and	r24, r24
     670:	01 f3       	breq	.-64     	; 0x632 <Endpoint_ConfigureEndpointTable+0x28>
     672:	1f 5f       	subi	r17, 0xFF	; 255
     674:	25 96       	adiw	r28, 0x05	; 5
     676:	d0 cf       	rjmp	.-96     	; 0x618 <Endpoint_ConfigureEndpointTable+0xe>
     678:	81 e0       	ldi	r24, 0x01	; 1
     67a:	df 91       	pop	r29
     67c:	cf 91       	pop	r28
     67e:	1f 91       	pop	r17
     680:	0f 91       	pop	r16
     682:	08 95       	ret

00000684 <Endpoint_ClearStatusStage>:
     684:	80 91 18 01 	lds	r24, 0x0118
					  ParserData->TotalReportItems++;
     688:	87 fd       	sbrc	r24, 7
     68a:	05 c0       	rjmp	.+10     	; 0x696 <Endpoint_ClearStatusStage+0x12>
     68c:	80 91 e8 00 	lds	r24, 0x00E8
     690:	80 ff       	sbrs	r24, 0

			default:
				break;
		}

		if ((HIDReportItem & HID_RI_TYPE_MASK) == HID_RI_TYPE_MAIN)
     692:	0e c0       	rjmp	.+28     	; 0x6b0 <Endpoint_ClearStatusStage+0x2c>
     694:	12 c0       	rjmp	.+36     	; 0x6ba <Endpoint_ClearStatusStage+0x36>
     696:	80 91 e8 00 	lds	r24, 0x00E8
     69a:	82 fd       	sbrc	r24, 2
     69c:	05 c0       	rjmp	.+10     	; 0x6a8 <Endpoint_ClearStatusStage+0x24>
		{
			UsageMinMax.Minimum = 0;
			UsageMinMax.Maximum = 0;
     69e:	80 91 17 01 	lds	r24, 0x0117
     6a2:	81 11       	cpse	r24, r1
				break;
		}

		if ((HIDReportItem & HID_RI_TYPE_MASK) == HID_RI_TYPE_MAIN)
		{
			UsageMinMax.Minimum = 0;
     6a4:	f8 cf       	rjmp	.-16     	; 0x696 <Endpoint_ClearStatusStage+0x12>
     6a6:	08 95       	ret
     6a8:	80 91 e8 00 	lds	r24, 0x00E8
			UsageMinMax.Maximum = 0;
			UsageListSize       = 0;
     6ac:	8b 77       	andi	r24, 0x7B	; 123
     6ae:	08 c0       	rjmp	.+16     	; 0x6c0 <Endpoint_ClearStatusStage+0x3c>
     6b0:	80 91 17 01 	lds	r24, 0x0117
		}
	}

	if (!(ParserData->TotalReportItems))
     6b4:	81 11       	cpse	r24, r1
     6b6:	ea cf       	rjmp	.-44     	; 0x68c <Endpoint_ClearStatusStage+0x8>
     6b8:	08 95       	ret
	  return HID_PARSE_NoUnfilteredReportItems;
     6ba:	80 91 e8 00 	lds	r24, 0x00E8

		switch (HIDReportItem & (HID_RI_TYPE_MASK | HID_RI_TAG_MASK))
		{
			case HID_RI_PUSH(0):
				if (CurrStateTable == &StateTable[HID_STATETABLE_STACK_DEPTH - 1])
				  return HID_PARSE_HIDStackOverflow;
     6be:	8e 77       	andi	r24, 0x7E	; 126
     6c0:	80 93 e8 00 	sts	0x00E8, r24
				CurrStateTable++;
				break;

			case HID_RI_POP(0):
				if (CurrStateTable == &StateTable[0])
				  return HID_PARSE_HIDStackUnderflow;
     6c4:	08 95       	ret

000006c6 <Endpoint_WaitUntilReady>:
				CurrReportIDInfo->ReportID = CurrStateTable->ReportID;
				break;

			case HID_RI_USAGE(0):
				if (UsageListSize == HID_USAGE_STACK_DEPTH)
				  return HID_PARSE_UsageListOverflow;
     6c6:	80 91 e4 00 	lds	r24, 0x00E4
					CurrCollectionPath = &ParserData->CollectionPaths[1];

					while (CurrCollectionPath->Parent != NULL)
					{
						if (CurrCollectionPath == &ParserData->CollectionPaths[HID_MAX_COLLECTIONS - 1])
						  return HID_PARSE_InsufficientCollectionPaths;
     6ca:	90 91 e5 00 	lds	r25, 0x00E5

				break;

			case HID_RI_END_COLLECTION(0):
				if (CurrCollectionPath == NULL)
				  return HID_PARSE_UnexpectedEndCollection;
     6ce:	45 e6       	ldi	r20, 0x65	; 101
     6d0:	20 91 ec 00 	lds	r18, 0x00EC
	}

	if (!(ParserData->TotalReportItems))
	  return HID_PARSE_NoUnfilteredReportItems;

	return HID_PARSE_Successful;
     6d4:	20 ff       	sbrs	r18, 0
					}

					if (CurrReportIDInfo == NULL)
					{
						if (ParserData->TotalDeviceReports == HID_MAX_REPORT_IDS)
						  return HID_PARSE_InsufficientReportIDItems;
     6d6:	21 c0       	rjmp	.+66     	; 0x71a <Endpoint_WaitUntilReady+0x54>

	if (!(ParserData->TotalReportItems))
	  return HID_PARSE_NoUnfilteredReportItems;

	return HID_PARSE_Successful;
}
     6d8:	20 91 e8 00 	lds	r18, 0x00E8
     6dc:	20 fd       	sbrc	r18, 0
     6de:	21 c0       	rjmp	.+66     	; 0x722 <Endpoint_WaitUntilReady+0x5c>
     6e0:	20 91 17 01 	lds	r18, 0x0117
     6e4:	22 23       	and	r18, r18
     6e6:	89 f0       	breq	.+34     	; 0x70a <Endpoint_WaitUntilReady+0x44>
     6e8:	25 30       	cpi	r18, 0x05	; 5
     6ea:	89 f0       	breq	.+34     	; 0x70e <Endpoint_WaitUntilReady+0x48>
     6ec:	20 91 eb 00 	lds	r18, 0x00EB
     6f0:	25 fd       	sbrc	r18, 5
     6f2:	0f c0       	rjmp	.+30     	; 0x712 <Endpoint_WaitUntilReady+0x4c>
     6f4:	20 91 e4 00 	lds	r18, 0x00E4
     6f8:	30 91 e5 00 	lds	r19, 0x00E5
     6fc:	28 17       	cp	r18, r24
     6fe:	39 07       	cpc	r19, r25
     700:	39 f3       	breq	.-50     	; 0x6d0 <Endpoint_WaitUntilReady+0xa>
     702:	41 50       	subi	r20, 0x01	; 1
     704:	41 f0       	breq	.+16     	; 0x716 <Endpoint_WaitUntilReady+0x50>
     706:	c9 01       	movw	r24, r18
     708:	e3 cf       	rjmp	.-58     	; 0x6d0 <Endpoint_WaitUntilReady+0xa>
     70a:	82 e0       	ldi	r24, 0x02	; 2
		}

		uint8_t USB_DeviceState_LCL = USB_DeviceState;

		if (USB_DeviceState_LCL == DEVICE_STATE_Unattached)
		  return ENDPOINT_READYWAIT_DeviceDisconnected;
     70c:	08 95       	ret
		else if (USB_DeviceState_LCL == DEVICE_STATE_Suspended)
		  return ENDPOINT_READYWAIT_BusSuspended;
     70e:	83 e0       	ldi	r24, 0x03	; 3
     710:	08 95       	ret
		else if (Endpoint_IsStalled())
		  return ENDPOINT_READYWAIT_EndpointStalled;
     712:	81 e0       	ldi	r24, 0x01	; 1
     714:	08 95       	ret
		if (CurrentFrameNumber != PreviousFrameNumber)
		{
			PreviousFrameNumber = CurrentFrameNumber;

			if (!(TimeoutMSRem--))
			  return ENDPOINT_READYWAIT_Timeout;
     716:	84 e0       	ldi	r24, 0x04	; 4
     718:	08 95       	ret
			 *  \return Boolean \c true if current endpoint is has received an OUT packet, \c false otherwise.
			 */
			static inline bool Endpoint_IsOUTReceived(void) ATTR_WARN_UNUSED_RESULT ATTR_ALWAYS_INLINE;
			static inline bool Endpoint_IsOUTReceived(void)
			{
				return ((UEINTX & (1 << RXOUTI)) ? true : false);
     71a:	20 91 e8 00 	lds	r18, 0x00E8
			if (Endpoint_IsINReady())
			  return ENDPOINT_READYWAIT_NoError;
		}
		else
		{
			if (Endpoint_IsOUTReceived())
     71e:	22 ff       	sbrs	r18, 2
     720:	df cf       	rjmp	.-66     	; 0x6e0 <Endpoint_WaitUntilReady+0x1a>
	for (;;)
	{
		if (Endpoint_GetEndpointDirection() == ENDPOINT_DIR_IN)
		{
			if (Endpoint_IsINReady())
			  return ENDPOINT_READYWAIT_NoError;
     722:	80 e0       	ldi	r24, 0x00	; 0
     724:	08 95       	ret

00000726 <USB_ResetInterface>:

	USB_IsInitialized = false;
}

void USB_ResetInterface(void)
{
     726:	0f 93       	push	r16
     728:	1f 93       	push	r17
     72a:	cf 93       	push	r28
     72c:	df 93       	push	r29
	#if defined(USB_CAN_BE_BOTH)
	bool UIDModeSelectEnabled = ((UHWCON & (1 << UIDE)) != 0);
	#endif

	USB_INT_DisableAllInterrupts();
     72e:	4e d0       	rcall	.+156    	; 0x7cc <USB_INT_DisableAllInterrupts>
     730:	55 d0       	rcall	.+170    	; 0x7dc <USB_INT_ClearAllInterrupts>
	USB_INT_ClearAllInterrupts();
     732:	c8 ed       	ldi	r28, 0xD8	; 216
     734:	d0 e0       	ldi	r29, 0x00	; 0
			}

			static inline void USB_Controller_Reset(void) ATTR_ALWAYS_INLINE;
			static inline void USB_Controller_Reset(void)
			{
				USBCON &= ~(1 << USBE);
     736:	88 81       	ld	r24, Y
     738:	8f 77       	andi	r24, 0x7F	; 127
     73a:	88 83       	st	Y, r24
     73c:	88 81       	ld	r24, Y
     73e:	80 68       	ori	r24, 0x80	; 128
				USBCON |=  (1 << USBE);
     740:	88 83       	st	Y, r24
     742:	88 81       	ld	r24, Y
     744:	8f 7d       	andi	r24, 0xDF	; 223
			}

			static inline void USB_CLK_Unfreeze(void) ATTR_ALWAYS_INLINE;
			static inline void USB_CLK_Unfreeze(void)
			{
				USBCON &= ~(1 << FRZCLK);
     746:	88 83       	st	Y, r24
     748:	e7 ed       	ldi	r30, 0xD7	; 215
     74a:	f0 e0       	ldi	r31, 0x00	; 0

	if (USB_CurrentMode == USB_MODE_Device)
	{
		#if defined(USB_CAN_BE_DEVICE)
		#if (defined(USB_SERIES_6_AVR) || defined(USB_SERIES_7_AVR))
		UHWCON |=  (1 << UIMOD);
     74c:	80 81       	ld	r24, Z
     74e:	80 68       	ori	r24, 0x80	; 128
     750:	80 83       	st	Z, r24
     752:	19 bc       	out	0x29, r1	; 41
     754:	10 92 17 01 	sts	0x0117, r1
}

#if defined(USB_CAN_BE_DEVICE)
static void USB_Init_Device(void)
{
	USB_DeviceState                 = DEVICE_STATE_Unattached;
     758:	10 92 13 01 	sts	0x0113, r1
	USB_Device_ConfigurationNumber  = 0;
     75c:	10 92 15 01 	sts	0x0115, r1

	#if !defined(NO_DEVICE_REMOTE_WAKEUP)
	USB_Device_RemoteWakeupEnabled  = false;
     760:	10 92 14 01 	sts	0x0114, r1
	#endif

	#if !defined(NO_DEVICE_SELF_POWER)
	USB_Device_CurrentlySelfPowered = false;
     764:	00 ee       	ldi	r16, 0xE0	; 224
     766:	10 e0       	ldi	r17, 0x00	; 0
			}

			static inline void USB_Device_SetFullSpeed(void) ATTR_ALWAYS_INLINE;
			static inline void USB_Device_SetFullSpeed(void)
			{
				UDCON &= ~(1 << LSM);
     768:	f8 01       	movw	r30, r16
     76a:	80 81       	ld	r24, Z
     76c:	8b 7f       	andi	r24, 0xFB	; 251
     76e:	80 83       	st	Z, r24
     770:	88 81       	ld	r24, Y
     772:	81 60       	ori	r24, 0x01	; 1
			{
				switch (Interrupt)
				{
					#if (defined(USB_SERIES_4_AVR) || defined(USB_SERIES_6_AVR) || defined(USB_SERIES_7_AVR))
					case USB_INT_VBUSTI:
						USBCON |= (1 << VBUSTE);
     774:	88 83       	st	Y, r24
     776:	42 e0       	ldi	r20, 0x02	; 2
     778:	60 e0       	ldi	r22, 0x00	; 0
				uint8_t Number = (Address & ENDPOINT_EPNUM_MASK);

				if (Number >= ENDPOINT_TOTAL_ENDPOINTS)
				  return false;

				return Endpoint_ConfigureEndpoint_Prv(Number,
     77a:	80 e0       	ldi	r24, 0x00	; 0
     77c:	11 df       	rcall	.-478    	; 0x5a0 <Endpoint_ConfigureEndpoint_Prv>
     77e:	e1 ee       	ldi	r30, 0xE1	; 225
     780:	f0 e0       	ldi	r31, 0x00	; 0
     782:	80 81       	ld	r24, Z
					#if defined(USB_CAN_BE_DEVICE)
					case USB_INT_WAKEUPI:
						UDINT  &= ~(1 << WAKEUPI);
						break;
					case USB_INT_SUSPI:
						UDINT  &= ~(1 << SUSPI);
     784:	8e 7f       	andi	r24, 0xFE	; 254
     786:	80 83       	st	Z, r24
     788:	e2 ee       	ldi	r30, 0xE2	; 226
     78a:	f0 e0       	ldi	r31, 0x00	; 0
     78c:	80 81       	ld	r24, Z
					#if defined(USB_CAN_BE_DEVICE)
					case USB_INT_WAKEUPI:
						UDIEN  |= (1 << WAKEUPE);
						break;
					case USB_INT_SUSPI:
						UDIEN  |= (1 << SUSPE);
     78e:	81 60       	ori	r24, 0x01	; 1
     790:	80 83       	st	Z, r24
     792:	80 81       	ld	r24, Z
     794:	88 60       	ori	r24, 0x08	; 8
     796:	80 83       	st	Z, r24
						break;
					case USB_INT_EORSTI:
						UDIEN  |= (1 << EORSTE);
     798:	f8 01       	movw	r30, r16
     79a:	80 81       	ld	r24, Z
     79c:	8e 7f       	andi	r24, 0xFE	; 254
			 *  register and despite the datasheet making no mention of its requirement in host mode.
			 */
			static inline void USB_Attach(void) ATTR_ALWAYS_INLINE;
			static inline void USB_Attach(void)
			{
				UDCON  &= ~(1 << DETACH);
     79e:	80 83       	st	Z, r24
     7a0:	88 81       	ld	r24, Y
     7a2:	80 61       	ori	r24, 0x10	; 16
     7a4:	88 83       	st	Y, r24

			#if defined(USB_SERIES_4_AVR) || defined(USB_SERIES_6_AVR) || defined(USB_SERIES_7_AVR)
			static inline void USB_OTGPAD_On(void) ATTR_ALWAYS_INLINE;
			static inline void USB_OTGPAD_On(void)
			{
				USBCON |=  (1 << OTGPADE);
     7a6:	df 91       	pop	r29
     7a8:	cf 91       	pop	r28
     7aa:	1f 91       	pop	r17
	}

	#if (defined(USB_SERIES_4_AVR) || defined(USB_SERIES_6_AVR) || defined(USB_SERIES_7_AVR))
	USB_OTGPAD_On();
	#endif
}
     7ac:	0f 91       	pop	r16
     7ae:	08 95       	ret

000007b0 <USB_Init>:
     7b0:	e8 ed       	ldi	r30, 0xD8	; 216
     7b2:	f0 e0       	ldi	r31, 0x00	; 0
     7b4:	80 81       	ld	r24, Z
			}

			static inline void USB_OTGPAD_Off(void) ATTR_ALWAYS_INLINE;
			static inline void USB_OTGPAD_Off(void)
			{
				USBCON &= ~(1 << OTGPADE);
     7b6:	8f 7e       	andi	r24, 0xEF	; 239
     7b8:	80 83       	st	Z, r24

			static inline void USB_REG_On(void) ATTR_ALWAYS_INLINE;
			static inline void USB_REG_On(void)
			{
			#if defined(USB_SERIES_4_AVR) || defined(USB_SERIES_6_AVR) || defined(USB_SERIES_7_AVR)
				UHWCON |=  (1 << UVREGE);
     7ba:	e7 ed       	ldi	r30, 0xD7	; 215
     7bc:	f0 e0       	ldi	r31, 0x00	; 0
     7be:	80 81       	ld	r24, Z
     7c0:	81 60       	ori	r24, 0x01	; 1
     7c2:	80 83       	st	Z, r24
		UHWCON &= ~(1 << UIDE);
		USB_CurrentMode = Mode;
	}
	#endif

	USB_IsInitialized = true;
     7c4:	81 e0       	ldi	r24, 0x01	; 1
     7c6:	80 93 16 01 	sts	0x0116, r24

	USB_ResetInterface();
     7ca:	ad cf       	rjmp	.-166    	; 0x726 <USB_ResetInterface>

000007cc <USB_INT_DisableAllInterrupts>:
     7cc:	e8 ed       	ldi	r30, 0xD8	; 216
#include "../USBInterrupt.h"

void USB_INT_DisableAllInterrupts(void)
{
	#if defined(USB_SERIES_6_AVR) || defined(USB_SERIES_7_AVR)
	USBCON &= ~((1 << VBUSTE) | (1 << IDTE));
     7ce:	f0 e0       	ldi	r31, 0x00	; 0
     7d0:	80 81       	ld	r24, Z
     7d2:	8c 7f       	andi	r24, 0xFC	; 252
     7d4:	80 83       	st	Z, r24
	#if defined(USB_CAN_BE_HOST)
	UHIEN   = 0;
	#endif

	#if defined(USB_CAN_BE_DEVICE)
	UDIEN   = 0;
     7d6:	10 92 e2 00 	sts	0x00E2, r1
     7da:	08 95       	ret

000007dc <USB_INT_ClearAllInterrupts>:
}

void USB_INT_ClearAllInterrupts(void)
{
	#if defined(USB_SERIES_4_AVR) || defined(USB_SERIES_6_AVR) || defined(USB_SERIES_7_AVR)
	USBINT = 0;
     7dc:	10 92 da 00 	sts	0x00DA, r1
	#if defined(USB_CAN_BE_HOST)
	UHINT  = 0;
	#endif

	#if defined(USB_CAN_BE_DEVICE)
	UDINT  = 0;
     7e0:	10 92 e1 00 	sts	0x00E1, r1
     7e4:	08 95       	ret

000007e6 <__vector_10>:
	#endif
}

ISR(USB_GEN_vect, ISR_BLOCK)
{
     7e6:	1f 92       	push	r1
     7e8:	0f 92       	push	r0
     7ea:	0f b6       	in	r0, 0x3f	; 63
     7ec:	0f 92       	push	r0
     7ee:	11 24       	eor	r1, r1
     7f0:	0b b6       	in	r0, 0x3b	; 59
     7f2:	0f 92       	push	r0
     7f4:	2f 93       	push	r18
     7f6:	3f 93       	push	r19
     7f8:	4f 93       	push	r20
     7fa:	5f 93       	push	r21
     7fc:	6f 93       	push	r22
     7fe:	7f 93       	push	r23
     800:	8f 93       	push	r24
     802:	9f 93       	push	r25
     804:	af 93       	push	r26
     806:	bf 93       	push	r27
     808:	ef 93       	push	r30
     80a:	ff 93       	push	r31
					case USB_INT_SUSPI:
						return (UDINT  & (1 << SUSPI));
					case USB_INT_EORSTI:
						return (UDINT  & (1 << EORSTI));
					case USB_INT_SOFI:
						return (UDINT  & (1 << SOFI));
     80c:	80 91 e1 00 	lds	r24, 0x00E1
	#if defined(USB_CAN_BE_DEVICE)
	#if !defined(NO_SOF_EVENTS)
	if (USB_INT_HasOccurred(USB_INT_SOFI) && USB_INT_IsEnabled(USB_INT_SOFI))
     810:	82 ff       	sbrs	r24, 2
     812:	0a c0       	rjmp	.+20     	; 0x828 <__vector_10+0x42>
					case USB_INT_SUSPI:
						return (UDIEN  & (1 << SUSPE));
					case USB_INT_EORSTI:
						return (UDIEN  & (1 << EORSTE));
					case USB_INT_SOFI:
						return (UDIEN  & (1 << SOFE));
     814:	80 91 e2 00 	lds	r24, 0x00E2
     818:	82 ff       	sbrs	r24, 2
     81a:	06 c0       	rjmp	.+12     	; 0x828 <__vector_10+0x42>
						break;
					case USB_INT_EORSTI:
						UDINT  &= ~(1 << EORSTI);
						break;
					case USB_INT_SOFI:
						UDINT  &= ~(1 << SOFI);
     81c:	80 91 e1 00 	lds	r24, 0x00E1
     820:	8b 7f       	andi	r24, 0xFB	; 251
     822:	80 93 e1 00 	sts	0x00E1, r24
	{
		USB_INT_Clear(USB_INT_SOFI);

		EVENT_USB_Device_StartOfFrame();
     826:	f9 dc       	rcall	.-1550   	; 0x21a <EVENT_USB_Device_StartOfFrame>
     828:	80 91 da 00 	lds	r24, 0x00DA
			{
				switch (Interrupt)
				{
					#if (defined(USB_SERIES_4_AVR) || defined(USB_SERIES_6_AVR) || defined(USB_SERIES_7_AVR))
					case USB_INT_VBUSTI:
						return (USBINT & (1 << VBUSTI));
     82c:	80 ff       	sbrs	r24, 0
	}
	#endif

	#if defined(USB_SERIES_4_AVR) || defined(USB_SERIES_6_AVR) || defined(USB_SERIES_7_AVR)
	if (USB_INT_HasOccurred(USB_INT_VBUSTI) && USB_INT_IsEnabled(USB_INT_VBUSTI))
     82e:	1d c0       	rjmp	.+58     	; 0x86a <__vector_10+0x84>
     830:	80 91 d8 00 	lds	r24, 0x00D8
			{
				switch (Interrupt)
				{
					#if (defined(USB_SERIES_4_AVR) || defined(USB_SERIES_6_AVR) || defined(USB_SERIES_7_AVR))
					case USB_INT_VBUSTI:
						return (USBCON & (1 << VBUSTE));
     834:	80 ff       	sbrs	r24, 0
     836:	19 c0       	rjmp	.+50     	; 0x86a <__vector_10+0x84>
     838:	80 91 da 00 	lds	r24, 0x00DA
			{
				switch (Interrupt)
				{
					#if (defined(USB_SERIES_4_AVR) || defined(USB_SERIES_6_AVR) || defined(USB_SERIES_7_AVR))
					case USB_INT_VBUSTI:
						USBINT &= ~(1 << VBUSTI);
     83c:	8e 7f       	andi	r24, 0xFE	; 254
     83e:	80 93 da 00 	sts	0x00DA, r24
     842:	80 91 d9 00 	lds	r24, 0x00D9
				 *  \return Boolean \c true if the VBUS line is currently detecting power from a host, \c false otherwise.
				 */
				static inline bool USB_VBUS_GetStatus(void) ATTR_WARN_UNUSED_RESULT ATTR_ALWAYS_INLINE;
				static inline bool USB_VBUS_GetStatus(void)
				{
					return ((USBSTA & (1 << VBUS)) ? true : false);
     846:	80 ff       	sbrs	r24, 0
	{
		USB_INT_Clear(USB_INT_VBUSTI);

		if (USB_VBUS_GetStatus())
     848:	0c c0       	rjmp	.+24     	; 0x862 <__vector_10+0x7c>
     84a:	8c e0       	ldi	r24, 0x0C	; 12

		/* Inline Functions: */
			static inline void USB_PLL_On(void) ATTR_ALWAYS_INLINE;
			static inline void USB_PLL_On(void)
			{
				PLLCSR = USB_PLL_PSC;
     84c:	89 bd       	out	0x29, r24	; 41
     84e:	8e e0       	ldi	r24, 0x0E	; 14
				PLLCSR = (USB_PLL_PSC | (1 << PLLE));
     850:	89 bd       	out	0x29, r24	; 41
     852:	09 b4       	in	r0, 0x29	; 41
		{
			if (!(USB_Options & USB_OPT_MANUAL_PLL))
			{
				USB_PLL_On();
				while (!(USB_PLL_IsReady()));
     854:	00 fe       	sbrs	r0, 0
     856:	fd cf       	rjmp	.-6      	; 0x852 <__vector_10+0x6c>
     858:	81 e0       	ldi	r24, 0x01	; 1
			}

			USB_DeviceState = DEVICE_STATE_Powered;
     85a:	80 93 17 01 	sts	0x0117, r24
     85e:	c8 dc       	rcall	.-1648   	; 0x1f0 <EVENT_USB_Device_Connect>
			EVENT_USB_Device_Connect();
     860:	04 c0       	rjmp	.+8      	; 0x86a <__vector_10+0x84>
     862:	19 bc       	out	0x29, r1	; 41
     864:	10 92 17 01 	sts	0x0117, r1
		else
		{
			if (!(USB_Options & USB_OPT_MANUAL_PLL))
			  USB_PLL_Off();

			USB_DeviceState = DEVICE_STATE_Unattached;
     868:	c5 dc       	rcall	.-1654   	; 0x1f4 <EVENT_USB_Device_Disconnect>
     86a:	80 91 e1 00 	lds	r24, 0x00E1
			EVENT_USB_Device_Disconnect();
     86e:	80 ff       	sbrs	r24, 0
					#endif
					#if defined(USB_CAN_BE_DEVICE)
					case USB_INT_WAKEUPI:
						return (UDINT  & (1 << WAKEUPI));
					case USB_INT_SUSPI:
						return (UDINT  & (1 << SUSPI));
     870:	18 c0       	rjmp	.+48     	; 0x8a2 <__vector_10+0xbc>
     872:	80 91 e2 00 	lds	r24, 0x00E2
		}
	}
	#endif

	if (USB_INT_HasOccurred(USB_INT_SUSPI) && USB_INT_IsEnabled(USB_INT_SUSPI))
     876:	80 ff       	sbrs	r24, 0
					#endif
					#if defined(USB_CAN_BE_DEVICE)
					case USB_INT_WAKEUPI:
						return (UDIEN  & (1 << WAKEUPE));
					case USB_INT_SUSPI:
						return (UDIEN  & (1 << SUSPE));
     878:	14 c0       	rjmp	.+40     	; 0x8a2 <__vector_10+0xbc>
     87a:	80 91 e2 00 	lds	r24, 0x00E2
     87e:	8e 7f       	andi	r24, 0xFE	; 254
					#if defined(USB_CAN_BE_DEVICE)
					case USB_INT_WAKEUPI:
						UDIEN  &= ~(1 << WAKEUPE);
						break;
					case USB_INT_SUSPI:
						UDIEN  &= ~(1 << SUSPE);
     880:	80 93 e2 00 	sts	0x00E2, r24
     884:	80 91 e2 00 	lds	r24, 0x00E2
     888:	80 61       	ori	r24, 0x10	; 16
						USBCON |= (1 << IDTE);
						break;
					#endif
					#if defined(USB_CAN_BE_DEVICE)
					case USB_INT_WAKEUPI:
						UDIEN  |= (1 << WAKEUPE);
     88a:	80 93 e2 00 	sts	0x00E2, r24
     88e:	80 91 d8 00 	lds	r24, 0x00D8
     892:	80 62       	ori	r24, 0x20	; 32
			#endif

			static inline void USB_CLK_Freeze(void) ATTR_ALWAYS_INLINE;
			static inline void USB_CLK_Freeze(void)
			{
				USBCON |=  (1 << FRZCLK);
     894:	80 93 d8 00 	sts	0x00D8, r24
     898:	19 bc       	out	0x29, r1	; 41
     89a:	85 e0       	ldi	r24, 0x05	; 5
     89c:	80 93 17 01 	sts	0x0117, r24

		#if defined(USB_SERIES_2_AVR) && !defined(NO_LIMITED_CONTROLLER_CONNECT)
		USB_DeviceState = DEVICE_STATE_Unattached;
		EVENT_USB_Device_Disconnect();
		#else
		USB_DeviceState = DEVICE_STATE_Suspended;
     8a0:	bd d1       	rcall	.+890    	; 0xc1c <USB_Event_Stub>
     8a2:	80 91 e1 00 	lds	r24, 0x00E1
		EVENT_USB_Device_Suspend();
     8a6:	84 ff       	sbrs	r24, 4
     8a8:	2f c0       	rjmp	.+94     	; 0x908 <__vector_10+0x122>
					case USB_INT_IDTI:
						return (USBINT & (1 << IDTI));
					#endif
					#if defined(USB_CAN_BE_DEVICE)
					case USB_INT_WAKEUPI:
						return (UDINT  & (1 << WAKEUPI));
     8aa:	80 91 e2 00 	lds	r24, 0x00E2
		#endif
	}

	if (USB_INT_HasOccurred(USB_INT_WAKEUPI) && USB_INT_IsEnabled(USB_INT_WAKEUPI))
     8ae:	84 ff       	sbrs	r24, 4
     8b0:	2b c0       	rjmp	.+86     	; 0x908 <__vector_10+0x122>
					case USB_INT_IDTI:
						return (USBCON & (1 << IDTE));
					#endif
					#if defined(USB_CAN_BE_DEVICE)
					case USB_INT_WAKEUPI:
						return (UDIEN  & (1 << WAKEUPE));
     8b2:	8c e0       	ldi	r24, 0x0C	; 12
     8b4:	89 bd       	out	0x29, r24	; 41
     8b6:	8e e0       	ldi	r24, 0x0E	; 14
     8b8:	89 bd       	out	0x29, r24	; 41

		/* Inline Functions: */
			static inline void USB_PLL_On(void) ATTR_ALWAYS_INLINE;
			static inline void USB_PLL_On(void)
			{
				PLLCSR = USB_PLL_PSC;
     8ba:	09 b4       	in	r0, 0x29	; 41
     8bc:	00 fe       	sbrs	r0, 0
				PLLCSR = (USB_PLL_PSC | (1 << PLLE));
     8be:	fd cf       	rjmp	.-6      	; 0x8ba <__vector_10+0xd4>
     8c0:	80 91 d8 00 	lds	r24, 0x00D8
	{
		if (!(USB_Options & USB_OPT_MANUAL_PLL))
		{
			USB_PLL_On();
			while (!(USB_PLL_IsReady()));
     8c4:	8f 7d       	andi	r24, 0xDF	; 223
     8c6:	80 93 d8 00 	sts	0x00D8, r24
			}

			static inline void USB_CLK_Unfreeze(void) ATTR_ALWAYS_INLINE;
			static inline void USB_CLK_Unfreeze(void)
			{
				USBCON &= ~(1 << FRZCLK);
     8ca:	80 91 e1 00 	lds	r24, 0x00E1
     8ce:	8f 7e       	andi	r24, 0xEF	; 239
     8d0:	80 93 e1 00 	sts	0x00E1, r24
						USBINT &= ~(1 << IDTI);
						break;
					#endif
					#if defined(USB_CAN_BE_DEVICE)
					case USB_INT_WAKEUPI:
						UDINT  &= ~(1 << WAKEUPI);
     8d4:	80 91 e2 00 	lds	r24, 0x00E2
     8d8:	8f 7e       	andi	r24, 0xEF	; 239
     8da:	80 93 e2 00 	sts	0x00E2, r24
						USBCON &= ~(1 << IDTE);
						break;
					#endif
					#if defined(USB_CAN_BE_DEVICE)
					case USB_INT_WAKEUPI:
						UDIEN  &= ~(1 << WAKEUPE);
     8de:	80 91 e2 00 	lds	r24, 0x00E2
     8e2:	81 60       	ori	r24, 0x01	; 1
     8e4:	80 93 e2 00 	sts	0x00E2, r24
					#if defined(USB_CAN_BE_DEVICE)
					case USB_INT_WAKEUPI:
						UDIEN  |= (1 << WAKEUPE);
						break;
					case USB_INT_SUSPI:
						UDIEN  |= (1 << SUSPE);
     8e8:	80 91 13 01 	lds	r24, 0x0113
     8ec:	88 23       	and	r24, r24
     8ee:	11 f0       	breq	.+4      	; 0x8f4 <__vector_10+0x10e>
		USB_INT_Clear(USB_INT_WAKEUPI);

		USB_INT_Disable(USB_INT_WAKEUPI);
		USB_INT_Enable(USB_INT_SUSPI);

		if (USB_Device_ConfigurationNumber)
     8f0:	84 e0       	ldi	r24, 0x04	; 4
     8f2:	07 c0       	rjmp	.+14     	; 0x902 <__vector_10+0x11c>
     8f4:	80 91 e3 00 	lds	r24, 0x00E3
		  USB_DeviceState = DEVICE_STATE_Configured;
     8f8:	87 ff       	sbrs	r24, 7
     8fa:	02 c0       	rjmp	.+4      	; 0x900 <__vector_10+0x11a>
			}

			static inline bool USB_Device_IsAddressSet(void) ATTR_ALWAYS_INLINE ATTR_WARN_UNUSED_RESULT;
			static inline bool USB_Device_IsAddressSet(void)
			{
				return (UDADDR & (1 << ADDEN));
     8fc:	83 e0       	ldi	r24, 0x03	; 3
     8fe:	01 c0       	rjmp	.+2      	; 0x902 <__vector_10+0x11c>
		else
		  USB_DeviceState = (USB_Device_IsAddressSet()) ? DEVICE_STATE_Addressed : DEVICE_STATE_Powered;
     900:	81 e0       	ldi	r24, 0x01	; 1
     902:	80 93 17 01 	sts	0x0117, r24
     906:	8a d1       	rcall	.+788    	; 0xc1c <USB_Event_Stub>
     908:	80 91 e1 00 	lds	r24, 0x00E1
     90c:	83 ff       	sbrs	r24, 3

		#if defined(USB_SERIES_2_AVR) && !defined(NO_LIMITED_CONTROLLER_CONNECT)
		EVENT_USB_Device_Connect();
		#else
		EVENT_USB_Device_WakeUp();
     90e:	22 c0       	rjmp	.+68     	; 0x954 <__vector_10+0x16e>
     910:	80 91 e2 00 	lds	r24, 0x00E2
					case USB_INT_WAKEUPI:
						return (UDINT  & (1 << WAKEUPI));
					case USB_INT_SUSPI:
						return (UDINT  & (1 << SUSPI));
					case USB_INT_EORSTI:
						return (UDINT  & (1 << EORSTI));
     914:	83 ff       	sbrs	r24, 3
		#endif
	}

	if (USB_INT_HasOccurred(USB_INT_EORSTI) && USB_INT_IsEnabled(USB_INT_EORSTI))
     916:	1e c0       	rjmp	.+60     	; 0x954 <__vector_10+0x16e>
     918:	80 91 e1 00 	lds	r24, 0x00E1
					case USB_INT_WAKEUPI:
						return (UDIEN  & (1 << WAKEUPE));
					case USB_INT_SUSPI:
						return (UDIEN  & (1 << SUSPE));
					case USB_INT_EORSTI:
						return (UDIEN  & (1 << EORSTE));
     91c:	87 7f       	andi	r24, 0xF7	; 247
     91e:	80 93 e1 00 	sts	0x00E1, r24
						break;
					case USB_INT_SUSPI:
						UDINT  &= ~(1 << SUSPI);
						break;
					case USB_INT_EORSTI:
						UDINT  &= ~(1 << EORSTI);
     922:	82 e0       	ldi	r24, 0x02	; 2
     924:	80 93 17 01 	sts	0x0117, r24
     928:	10 92 13 01 	sts	0x0113, r1
	{
		USB_INT_Clear(USB_INT_EORSTI);

		USB_DeviceState                = DEVICE_STATE_Default;
     92c:	80 91 e1 00 	lds	r24, 0x00E1
     930:	8e 7f       	andi	r24, 0xFE	; 254
		USB_Device_ConfigurationNumber = 0;
     932:	80 93 e1 00 	sts	0x00E1, r24
					#if defined(USB_CAN_BE_DEVICE)
					case USB_INT_WAKEUPI:
						UDINT  &= ~(1 << WAKEUPI);
						break;
					case USB_INT_SUSPI:
						UDINT  &= ~(1 << SUSPI);
     936:	80 91 e2 00 	lds	r24, 0x00E2
     93a:	8e 7f       	andi	r24, 0xFE	; 254
     93c:	80 93 e2 00 	sts	0x00E2, r24
					#if defined(USB_CAN_BE_DEVICE)
					case USB_INT_WAKEUPI:
						UDIEN  &= ~(1 << WAKEUPE);
						break;
					case USB_INT_SUSPI:
						UDIEN  &= ~(1 << SUSPE);
     940:	80 91 e2 00 	lds	r24, 0x00E2
     944:	80 61       	ori	r24, 0x10	; 16
     946:	80 93 e2 00 	sts	0x00E2, r24
						USBCON |= (1 << IDTE);
						break;
					#endif
					#if defined(USB_CAN_BE_DEVICE)
					case USB_INT_WAKEUPI:
						UDIEN  |= (1 << WAKEUPE);
     94a:	42 e0       	ldi	r20, 0x02	; 2
     94c:	60 e0       	ldi	r22, 0x00	; 0
     94e:	80 e0       	ldi	r24, 0x00	; 0
     950:	27 de       	rcall	.-946    	; 0x5a0 <Endpoint_ConfigureEndpoint_Prv>
     952:	64 d1       	rcall	.+712    	; 0xc1c <USB_Event_Stub>
				uint8_t Number = (Address & ENDPOINT_EPNUM_MASK);

				if (Number >= ENDPOINT_TOTAL_ENDPOINTS)
				  return false;

				return Endpoint_ConfigureEndpoint_Prv(Number,
     954:	ff 91       	pop	r31
     956:	ef 91       	pop	r30
     958:	bf 91       	pop	r27
     95a:	af 91       	pop	r26
     95c:	9f 91       	pop	r25

		#if defined(INTERRUPT_CONTROL_ENDPOINT)
		USB_INT_Enable(USB_INT_RXSTPI);
		#endif

		EVENT_USB_Device_Reset();
     95e:	8f 91       	pop	r24
     960:	7f 91       	pop	r23
		USB_ResetInterface();

		EVENT_USB_UIDChange();
	}
	#endif
}
     962:	6f 91       	pop	r22
     964:	5f 91       	pop	r21
     966:	4f 91       	pop	r20
     968:	3f 91       	pop	r19
     96a:	2f 91       	pop	r18
     96c:	0f 90       	pop	r0
     96e:	0b be       	out	0x3b, r0	; 59
     970:	0f 90       	pop	r0
     972:	0f be       	out	0x3f, r0	; 63
     974:	0f 90       	pop	r0
     976:	1f 90       	pop	r1
     978:	18 95       	reti

0000097a <USB_Device_ProcessControlRequest>:
     97a:	1f 93       	push	r17
     97c:	cf 93       	push	r28
     97e:	df 93       	push	r29
     980:	cd b7       	in	r28, 0x3d	; 61
     982:	de b7       	in	r29, 0x3e	; 62
     984:	aa 97       	sbiw	r28, 0x2a	; 42
     986:	0f b6       	in	r0, 0x3f	; 63
#if !defined(NO_DEVICE_REMOTE_WAKEUP)
bool    USB_Device_RemoteWakeupEnabled;
#endif

void USB_Device_ProcessControlRequest(void)
{
     988:	f8 94       	cli
     98a:	de bf       	out	0x3e, r29	; 62
     98c:	0f be       	out	0x3f, r0	; 63
     98e:	cd bf       	out	0x3d, r28	; 61
     990:	e8 e1       	ldi	r30, 0x18	; 24
     992:	f1 e0       	ldi	r31, 0x01	; 1
			 *  \return Next byte in the currently selected endpoint's FIFO buffer.
			 */
			static inline uint8_t Endpoint_Read_8(void) ATTR_WARN_UNUSED_RESULT ATTR_ALWAYS_INLINE;
			static inline uint8_t Endpoint_Read_8(void)
			{
				return UEDATX;
     994:	80 91 f1 00 	lds	r24, 0x00F1
	USB_ControlRequest.wLength       = Endpoint_Read_16_LE();
	#else
	uint8_t* RequestHeader = (uint8_t*)&USB_ControlRequest;

	for (uint8_t RequestHeaderByte = 0; RequestHeaderByte < sizeof(USB_Request_Header_t); RequestHeaderByte++)
	  *(RequestHeader++) = Endpoint_Read_8();
     998:	81 93       	st	Z+, r24
	USB_ControlRequest.wIndex        = Endpoint_Read_16_LE();
	USB_ControlRequest.wLength       = Endpoint_Read_16_LE();
	#else
	uint8_t* RequestHeader = (uint8_t*)&USB_ControlRequest;

	for (uint8_t RequestHeaderByte = 0; RequestHeaderByte < sizeof(USB_Request_Header_t); RequestHeaderByte++)
     99a:	21 e0       	ldi	r18, 0x01	; 1
     99c:	e0 32       	cpi	r30, 0x20	; 32
     99e:	f2 07       	cpc	r31, r18
     9a0:	c9 f7       	brne	.-14     	; 0x994 <USB_Device_ProcessControlRequest+0x1a>
	  *(RequestHeader++) = Endpoint_Read_8();
	#endif

	EVENT_USB_Device_ControlRequest();
     9a2:	38 dc       	rcall	.-1936   	; 0x214 <EVENT_USB_Device_ControlRequest>
     9a4:	80 91 e8 00 	lds	r24, 0x00E8
			 *  \return Boolean \c true if the selected endpoint has received a SETUP packet, \c false otherwise.
			 */
			static inline bool Endpoint_IsSETUPReceived(void) ATTR_WARN_UNUSED_RESULT ATTR_ALWAYS_INLINE;
			static inline bool Endpoint_IsSETUPReceived(void)
			{
				return ((UEINTX & (1 << RXSTPI)) ? true : false);
     9a8:	83 ff       	sbrs	r24, 3

	if (Endpoint_IsSETUPReceived())
     9aa:	20 c1       	rjmp	.+576    	; 0xbec <USB_Device_ProcessControlRequest+0x272>
     9ac:	90 91 18 01 	lds	r25, 0x0118
	{
		uint8_t bmRequestType = USB_ControlRequest.bmRequestType;
     9b0:	80 91 19 01 	lds	r24, 0x0119

		switch (USB_ControlRequest.bRequest)
     9b4:	85 30       	cpi	r24, 0x05	; 5
     9b6:	09 f4       	brne	.+2      	; 0x9ba <USB_Device_ProcessControlRequest+0x40>
     9b8:	77 c0       	rjmp	.+238    	; 0xaa8 <USB_Device_ProcessControlRequest+0x12e>
     9ba:	30 f4       	brcc	.+12     	; 0x9c8 <USB_Device_ProcessControlRequest+0x4e>
     9bc:	81 30       	cpi	r24, 0x01	; 1
     9be:	81 f1       	breq	.+96     	; 0xa20 <USB_Device_ProcessControlRequest+0xa6>
     9c0:	68 f0       	brcs	.+26     	; 0x9dc <USB_Device_ProcessControlRequest+0x62>
     9c2:	83 30       	cpi	r24, 0x03	; 3
     9c4:	69 f1       	breq	.+90     	; 0xa20 <USB_Device_ProcessControlRequest+0xa6>
     9c6:	12 c1       	rjmp	.+548    	; 0xbec <USB_Device_ProcessControlRequest+0x272>
     9c8:	88 30       	cpi	r24, 0x08	; 8
     9ca:	09 f4       	brne	.+2      	; 0x9ce <USB_Device_ProcessControlRequest+0x54>
     9cc:	e1 c0       	rjmp	.+450    	; 0xb90 <USB_Device_ProcessControlRequest+0x216>
     9ce:	89 30       	cpi	r24, 0x09	; 9
     9d0:	09 f4       	brne	.+2      	; 0x9d4 <USB_Device_ProcessControlRequest+0x5a>
     9d2:	f0 c0       	rjmp	.+480    	; 0xbb4 <USB_Device_ProcessControlRequest+0x23a>
     9d4:	86 30       	cpi	r24, 0x06	; 6
     9d6:	09 f0       	breq	.+2      	; 0x9da <USB_Device_ProcessControlRequest+0x60>
     9d8:	09 c1       	rjmp	.+530    	; 0xbec <USB_Device_ProcessControlRequest+0x272>
     9da:	88 c0       	rjmp	.+272    	; 0xaec <USB_Device_ProcessControlRequest+0x172>
     9dc:	90 38       	cpi	r25, 0x80	; 128
		{
			case REQ_GetStatus:
				if ((bmRequestType == (REQDIR_DEVICETOHOST | REQTYPE_STANDARD | REQREC_DEVICE)) ||
     9de:	81 f0       	breq	.+32     	; 0xa00 <USB_Device_ProcessControlRequest+0x86>
     9e0:	92 38       	cpi	r25, 0x82	; 130
     9e2:	09 f0       	breq	.+2      	; 0x9e6 <USB_Device_ProcessControlRequest+0x6c>
     9e4:	03 c1       	rjmp	.+518    	; 0xbec <USB_Device_ProcessControlRequest+0x272>
     9e6:	80 91 1c 01 	lds	r24, 0x011C
			 */
			static inline void Endpoint_SelectEndpoint(const uint8_t Address) ATTR_ALWAYS_INLINE;
			static inline void Endpoint_SelectEndpoint(const uint8_t Address)
			{
				#if !defined(CONTROL_ONLY_DEVICE)
					UENUM = (Address & ENDPOINT_EPNUM_MASK);
     9ea:	8f 70       	andi	r24, 0x0F	; 15
     9ec:	80 93 e9 00 	sts	0x00E9, r24
     9f0:	80 91 eb 00 	lds	r24, 0x00EB
			 *  \return Boolean \c true if the currently selected endpoint is stalled, \c false otherwise.
			 */
			static inline bool Endpoint_IsStalled(void) ATTR_WARN_UNUSED_RESULT ATTR_ALWAYS_INLINE;
			static inline bool Endpoint_IsStalled(void)
			{
				return ((UECONX & (1 << STALLRQ)) ? true : false);
     9f4:	85 fb       	bst	r24, 5
     9f6:	88 27       	eor	r24, r24
     9f8:	80 f9       	bld	r24, 0
     9fa:	10 92 e9 00 	sts	0x00E9, r1
			 */
			static inline void Endpoint_SelectEndpoint(const uint8_t Address) ATTR_ALWAYS_INLINE;
			static inline void Endpoint_SelectEndpoint(const uint8_t Address)
			{
				#if !defined(CONTROL_ONLY_DEVICE)
					UENUM = (Address & ENDPOINT_EPNUM_MASK);
     9fe:	06 c0       	rjmp	.+12     	; 0xa0c <USB_Device_ProcessControlRequest+0x92>
     a00:	80 91 14 01 	lds	r24, 0x0114
	Endpoint_ClearOUT();
}

static void USB_Device_GetStatus(void)
{
	uint8_t CurrentStatus = 0;
     a04:	90 91 15 01 	lds	r25, 0x0115
			if (USB_Device_CurrentlySelfPowered)
			  CurrentStatus |= FEATURE_SELFPOWERED_ENABLED;
			#endif

			#if !defined(NO_DEVICE_REMOTE_WAKEUP)
			if (USB_Device_RemoteWakeupEnabled)
     a08:	91 11       	cpse	r25, r1
     a0a:	82 60       	ori	r24, 0x02	; 2
			  CurrentStatus |= FEATURE_REMOTE_WAKEUP_ENABLED;
     a0c:	90 91 e8 00 	lds	r25, 0x00E8
			 *  \note This is not applicable for non CONTROL type endpoints.
			 */
			static inline void Endpoint_ClearSETUP(void) ATTR_ALWAYS_INLINE;
			static inline void Endpoint_ClearSETUP(void)
			{
				UEINTX &= ~(1 << RXSTPI);
     a10:	97 7f       	andi	r25, 0xF7	; 247
     a12:	90 93 e8 00 	sts	0x00E8, r25
     a16:	80 93 f1 00 	sts	0x00F1, r24
			 *  \param[in] Data  Data to write to the currently selected endpoint's FIFO buffer.
			 */
			static inline void Endpoint_Write_16_LE(const uint16_t Data) ATTR_ALWAYS_INLINE;
			static inline void Endpoint_Write_16_LE(const uint16_t Data)
			{
				UEDATX = (Data & 0xFF);
     a1a:	10 92 f1 00 	sts	0x00F1, r1
				UEDATX = (Data >> 8);
     a1e:	c3 c0       	rjmp	.+390    	; 0xba6 <USB_Device_ProcessControlRequest+0x22c>
     a20:	29 2f       	mov	r18, r25
				}

				break;
			case REQ_ClearFeature:
			case REQ_SetFeature:
				if ((bmRequestType == (REQDIR_HOSTTODEVICE | REQTYPE_STANDARD | REQREC_DEVICE)) ||
     a22:	2d 7f       	andi	r18, 0xFD	; 253
     a24:	09 f0       	breq	.+2      	; 0xa28 <USB_Device_ProcessControlRequest+0xae>
     a26:	e2 c0       	rjmp	.+452    	; 0xbec <USB_Device_ProcessControlRequest+0x272>
     a28:	99 23       	and	r25, r25
	Endpoint_ClearStatusStage();
}

static void USB_Device_ClearSetFeature(void)
{
	switch (USB_ControlRequest.bmRequestType & CONTROL_REQTYPE_RECIPIENT)
     a2a:	19 f0       	breq	.+6      	; 0xa32 <USB_Device_ProcessControlRequest+0xb8>
     a2c:	92 30       	cpi	r25, 0x02	; 2
     a2e:	61 f0       	breq	.+24     	; 0xa48 <USB_Device_ProcessControlRequest+0xce>
     a30:	dd c0       	rjmp	.+442    	; 0xbec <USB_Device_ProcessControlRequest+0x272>
     a32:	90 91 1a 01 	lds	r25, 0x011A
	{
		#if !defined(NO_DEVICE_REMOTE_WAKEUP)
		case REQREC_DEVICE:
			if ((uint8_t)USB_ControlRequest.wValue == FEATURE_SEL_DeviceRemoteWakeup)
     a36:	91 30       	cpi	r25, 0x01	; 1
     a38:	09 f0       	breq	.+2      	; 0xa3c <USB_Device_ProcessControlRequest+0xc2>
     a3a:	d8 c0       	rjmp	.+432    	; 0xbec <USB_Device_ProcessControlRequest+0x272>
     a3c:	83 30       	cpi	r24, 0x03	; 3
			  USB_Device_RemoteWakeupEnabled = (USB_ControlRequest.bRequest == REQ_SetFeature);
     a3e:	09 f0       	breq	.+2      	; 0xa42 <USB_Device_ProcessControlRequest+0xc8>
     a40:	90 e0       	ldi	r25, 0x00	; 0
     a42:	90 93 15 01 	sts	0x0115, r25
     a46:	2a c0       	rjmp	.+84     	; 0xa9c <USB_Device_ProcessControlRequest+0x122>
     a48:	90 91 1a 01 	lds	r25, 0x011A

			break;
		#endif
		#if !defined(CONTROL_ONLY_DEVICE)
		case REQREC_ENDPOINT:
			if ((uint8_t)USB_ControlRequest.wValue == FEATURE_SEL_EndpointHalt)
     a4c:	91 11       	cpse	r25, r1
     a4e:	26 c0       	rjmp	.+76     	; 0xa9c <USB_Device_ProcessControlRequest+0x122>
     a50:	20 91 1c 01 	lds	r18, 0x011C
			{
				uint8_t EndpointIndex = ((uint8_t)USB_ControlRequest.wIndex & ENDPOINT_EPNUM_MASK);
     a54:	2f 70       	andi	r18, 0x0F	; 15
     a56:	09 f4       	brne	.+2      	; 0xa5a <USB_Device_ProcessControlRequest+0xe0>

				if (EndpointIndex == ENDPOINT_CONTROLEP)
     a58:	c9 c0       	rjmp	.+402    	; 0xbec <USB_Device_ProcessControlRequest+0x272>
     a5a:	20 93 e9 00 	sts	0x00E9, r18
			 */
			static inline void Endpoint_SelectEndpoint(const uint8_t Address) ATTR_ALWAYS_INLINE;
			static inline void Endpoint_SelectEndpoint(const uint8_t Address)
			{
				#if !defined(CONTROL_ONLY_DEVICE)
					UENUM = (Address & ENDPOINT_EPNUM_MASK);
     a5e:	90 91 eb 00 	lds	r25, 0x00EB
			 * \return Boolean \c true if the currently selected endpoint is enabled, \c false otherwise.
			 */
			static inline bool Endpoint_IsEnabled(void) ATTR_WARN_UNUSED_RESULT ATTR_ALWAYS_INLINE;
			static inline bool Endpoint_IsEnabled(void)
			{
				return ((UECONX & (1 << EPEN)) ? true : false);
     a62:	90 ff       	sbrs	r25, 0
				  return;

				Endpoint_SelectEndpoint(EndpointIndex);

				if (Endpoint_IsEnabled())
     a64:	1b c0       	rjmp	.+54     	; 0xa9c <USB_Device_ProcessControlRequest+0x122>
     a66:	83 30       	cpi	r24, 0x03	; 3
				{
					if (USB_ControlRequest.bRequest == REQ_SetFeature)
     a68:	21 f4       	brne	.+8      	; 0xa72 <USB_Device_ProcessControlRequest+0xf8>
     a6a:	80 91 eb 00 	lds	r24, 0x00EB
			 *  \ingroup Group_EndpointPacketManagement_AVR8
			 */
			static inline void Endpoint_StallTransaction(void) ATTR_ALWAYS_INLINE;
			static inline void Endpoint_StallTransaction(void)
			{
				UECONX |= (1 << STALLRQ);
     a6e:	80 62       	ori	r24, 0x20	; 32
     a70:	13 c0       	rjmp	.+38     	; 0xa98 <USB_Device_ProcessControlRequest+0x11e>
     a72:	80 91 eb 00 	lds	r24, 0x00EB
			 *  \ingroup Group_EndpointPacketManagement_AVR8
			 */
			static inline void Endpoint_ClearStall(void) ATTR_ALWAYS_INLINE;
			static inline void Endpoint_ClearStall(void)
			{
				UECONX |= (1 << STALLRQC);
     a76:	80 61       	ori	r24, 0x10	; 16
     a78:	80 93 eb 00 	sts	0x00EB, r24
     a7c:	81 e0       	ldi	r24, 0x01	; 1
			 *  \param[in] Address  Endpoint address whose FIFO buffers are to be reset.
			 */
			static inline void Endpoint_ResetEndpoint(const uint8_t Address) ATTR_ALWAYS_INLINE;
			static inline void Endpoint_ResetEndpoint(const uint8_t Address)
			{
				UERST = (1 << (Address & ENDPOINT_EPNUM_MASK));
     a7e:	90 e0       	ldi	r25, 0x00	; 0
     a80:	02 2e       	mov	r0, r18
     a82:	01 c0       	rjmp	.+2      	; 0xa86 <USB_Device_ProcessControlRequest+0x10c>
     a84:	88 0f       	add	r24, r24
     a86:	0a 94       	dec	r0
     a88:	ea f7       	brpl	.-6      	; 0xa84 <USB_Device_ProcessControlRequest+0x10a>
     a8a:	80 93 ea 00 	sts	0x00EA, r24
     a8e:	10 92 ea 00 	sts	0x00EA, r1
				UERST = 0;
     a92:	80 91 eb 00 	lds	r24, 0x00EB

			/** Resets the data toggle of the currently selected endpoint. */
			static inline void Endpoint_ResetDataToggle(void) ATTR_ALWAYS_INLINE;
			static inline void Endpoint_ResetDataToggle(void)
			{
				UECONX |= (1 << RSTDT);
     a96:	88 60       	ori	r24, 0x08	; 8
     a98:	80 93 eb 00 	sts	0x00EB, r24
     a9c:	10 92 e9 00 	sts	0x00E9, r1
			 */
			static inline void Endpoint_SelectEndpoint(const uint8_t Address) ATTR_ALWAYS_INLINE;
			static inline void Endpoint_SelectEndpoint(const uint8_t Address)
			{
				#if !defined(CONTROL_ONLY_DEVICE)
					UENUM = (Address & ENDPOINT_EPNUM_MASK);
     aa0:	80 91 e8 00 	lds	r24, 0x00E8
			 *  \note This is not applicable for non CONTROL type endpoints.
			 */
			static inline void Endpoint_ClearSETUP(void) ATTR_ALWAYS_INLINE;
			static inline void Endpoint_ClearSETUP(void)
			{
				UEINTX &= ~(1 << RXSTPI);
     aa4:	87 7f       	andi	r24, 0xF7	; 247
     aa6:	82 c0       	rjmp	.+260    	; 0xbac <USB_Device_ProcessControlRequest+0x232>
     aa8:	91 11       	cpse	r25, r1
					USB_Device_ClearSetFeature();
				}

				break;
			case REQ_SetAddress:
				if (bmRequestType == (REQDIR_HOSTTODEVICE | REQTYPE_STANDARD | REQREC_DEVICE))
     aaa:	a0 c0       	rjmp	.+320    	; 0xbec <USB_Device_ProcessControlRequest+0x272>
     aac:	10 91 1a 01 	lds	r17, 0x011A
	}
}

static void USB_Device_SetAddress(void)
{
	uint8_t DeviceAddress = (USB_ControlRequest.wValue & 0x7F);
     ab0:	1f 77       	andi	r17, 0x7F	; 127
     ab2:	80 91 e3 00 	lds	r24, 0x00E3
			#endif

			static inline void USB_Device_SetDeviceAddress(const uint8_t Address) ATTR_ALWAYS_INLINE;
			static inline void USB_Device_SetDeviceAddress(const uint8_t Address)
			{
				UDADDR = (UDADDR & (1 << ADDEN)) | (Address & 0x7F);
     ab6:	80 78       	andi	r24, 0x80	; 128
     ab8:	81 2b       	or	r24, r17
     aba:	80 93 e3 00 	sts	0x00E3, r24
     abe:	80 91 e8 00 	lds	r24, 0x00E8
     ac2:	87 7f       	andi	r24, 0xF7	; 247
     ac4:	80 93 e8 00 	sts	0x00E8, r24
     ac8:	dd dd       	rcall	.-1094   	; 0x684 <Endpoint_ClearStatusStage>

	USB_Device_SetDeviceAddress(DeviceAddress);

	Endpoint_ClearSETUP();

	Endpoint_ClearStatusStage();
     aca:	80 91 e8 00 	lds	r24, 0x00E8
			 *  \return Boolean \c true if the current endpoint is ready for an IN packet, \c false otherwise.
			 */
			static inline bool Endpoint_IsINReady(void) ATTR_WARN_UNUSED_RESULT ATTR_ALWAYS_INLINE;
			static inline bool Endpoint_IsINReady(void)
			{
				return ((UEINTX & (1 << TXINI)) ? true : false);
     ace:	80 ff       	sbrs	r24, 0
     ad0:	fc cf       	rjmp	.-8      	; 0xaca <USB_Device_ProcessControlRequest+0x150>

	while (!(Endpoint_IsINReady()));
     ad2:	80 91 e3 00 	lds	r24, 0x00E3
			static inline void USB_Device_EnableDeviceAddress(const uint8_t Address) ATTR_ALWAYS_INLINE;
			static inline void USB_Device_EnableDeviceAddress(const uint8_t Address)
			{
				(void)Address;

				UDADDR |= (1 << ADDEN);
     ad6:	80 68       	ori	r24, 0x80	; 128
     ad8:	80 93 e3 00 	sts	0x00E3, r24
     adc:	11 23       	and	r17, r17
     ade:	11 f0       	breq	.+4      	; 0xae4 <USB_Device_ProcessControlRequest+0x16a>

	USB_Device_EnableDeviceAddress(DeviceAddress);

	USB_DeviceState = (DeviceAddress) ? DEVICE_STATE_Addressed : DEVICE_STATE_Default;
     ae0:	83 e0       	ldi	r24, 0x03	; 3
     ae2:	01 c0       	rjmp	.+2      	; 0xae6 <USB_Device_ProcessControlRequest+0x16c>
     ae4:	82 e0       	ldi	r24, 0x02	; 2
     ae6:	80 93 17 01 	sts	0x0117, r24
     aea:	80 c0       	rjmp	.+256    	; 0xbec <USB_Device_ProcessControlRequest+0x272>
     aec:	90 58       	subi	r25, 0x80	; 128
     aee:	92 30       	cpi	r25, 0x02	; 2
				if (bmRequestType == (REQDIR_HOSTTODEVICE | REQTYPE_STANDARD | REQREC_DEVICE))
				  USB_Device_SetAddress();

				break;
			case REQ_GetDescriptor:
				if ((bmRequestType == (REQDIR_DEVICETOHOST | REQTYPE_STANDARD | REQREC_DEVICE)) ||
     af0:	08 f0       	brcs	.+2      	; 0xaf4 <USB_Device_ProcessControlRequest+0x17a>
     af2:	7c c0       	rjmp	.+248    	; 0xbec <USB_Device_ProcessControlRequest+0x272>
     af4:	80 91 1a 01 	lds	r24, 0x011A
	    !(defined(USE_FLASH_DESCRIPTORS) || defined(USE_EEPROM_DESCRIPTORS) || defined(USE_RAM_DESCRIPTORS))
	uint8_t DescriptorAddressSpace;
	#endif

	#if !defined(NO_INTERNAL_SERIAL) && (USE_INTERNAL_SERIAL != NO_DESCRIPTOR)
	if (USB_ControlRequest.wValue == ((DTYPE_String << 8) | USE_INTERNAL_SERIAL))
     af8:	90 91 1b 01 	lds	r25, 0x011B
     afc:	8c 3d       	cpi	r24, 0xDC	; 220
     afe:	23 e0       	ldi	r18, 0x03	; 3
     b00:	92 07       	cpc	r25, r18
     b02:	71 f5       	brne	.+92     	; 0xb60 <USB_Device_ProcessControlRequest+0x1e6>
     b04:	83 e0       	ldi	r24, 0x03	; 3
     b06:	8a 83       	std	Y+2, r24	; 0x02
	{
		USB_Descriptor_Header_t Header;
		uint16_t                UnicodeString[INTERNAL_SERIAL_LENGTH_BITS / 4];
	} SignatureDescriptor;

	SignatureDescriptor.Header.Type = DTYPE_String;
     b08:	8a e2       	ldi	r24, 0x2A	; 42
     b0a:	89 83       	std	Y+1, r24	; 0x01
	SignatureDescriptor.Header.Size = USB_STRING_LEN(INTERNAL_SERIAL_LENGTH_BITS / 4);
     b0c:	4f b7       	in	r20, 0x3f	; 63
     b0e:	f8 94       	cli
			static inline uint_reg_t GetGlobalInterruptMask(void)
			{
				GCC_MEMORY_BARRIER();

				#if (ARCH == ARCH_AVR8)
				return SREG;
     b10:	de 01       	movw	r26, r28
			static inline void GlobalInterruptDisable(void)
			{
				GCC_MEMORY_BARRIER();

				#if (ARCH == ARCH_AVR8)
				cli();
     b12:	13 96       	adiw	r26, 0x03	; 3
				__builtin_ssrf(AVR32_SR_GM_OFFSET);
				#elif (ARCH == ARCH_XMEGA)
				cli();
				#endif

				GCC_MEMORY_BARRIER();
     b14:	20 e0       	ldi	r18, 0x00	; 0
     b16:	3e e0       	ldi	r19, 0x0E	; 14
				uint_reg_t CurrentGlobalInt = GetGlobalInterruptMask();
				GlobalInterruptDisable();

				uint8_t SigReadAddress = INTERNAL_SERIAL_START_ADDRESS;

				for (uint8_t SerialCharNum = 0; SerialCharNum < (INTERNAL_SERIAL_LENGTH_BITS / 4); SerialCharNum++)
     b18:	51 e2       	ldi	r21, 0x21	; 33
			static inline void USB_Device_GetSerialString(uint16_t* const UnicodeString)
			{
				uint_reg_t CurrentGlobalInt = GetGlobalInterruptMask();
				GlobalInterruptDisable();

				uint8_t SigReadAddress = INTERNAL_SERIAL_START_ADDRESS;
     b1a:	e3 2f       	mov	r30, r19

				for (uint8_t SerialCharNum = 0; SerialCharNum < (INTERNAL_SERIAL_LENGTH_BITS / 4); SerialCharNum++)
				{
					uint8_t SerialByte = boot_signature_byte_get(SigReadAddress);
     b1c:	f0 e0       	ldi	r31, 0x00	; 0
     b1e:	50 93 57 00 	sts	0x0057, r21
     b22:	e4 91       	lpm	r30, Z
     b24:	20 ff       	sbrs	r18, 0
     b26:	03 c0       	rjmp	.+6      	; 0xb2e <USB_Device_ProcessControlRequest+0x1b4>

					if (SerialCharNum & 0x01)
     b28:	e2 95       	swap	r30
     b2a:	ef 70       	andi	r30, 0x0F	; 15
					{
						SerialByte >>= 4;
     b2c:	3f 5f       	subi	r19, 0xFF	; 255
     b2e:	ef 70       	andi	r30, 0x0F	; 15
						SigReadAddress++;
     b30:	8e 2f       	mov	r24, r30
					}

					SerialByte &= 0x0F;
     b32:	90 e0       	ldi	r25, 0x00	; 0
     b34:	ea 30       	cpi	r30, 0x0A	; 10
     b36:	10 f0       	brcs	.+4      	; 0xb3c <USB_Device_ProcessControlRequest+0x1c2>

					UnicodeString[SerialCharNum] = cpu_to_le16((SerialByte >= 10) ?
     b38:	c7 96       	adiw	r24, 0x37	; 55
     b3a:	01 c0       	rjmp	.+2      	; 0xb3e <USB_Device_ProcessControlRequest+0x1c4>
     b3c:	c0 96       	adiw	r24, 0x30	; 48
     b3e:	8d 93       	st	X+, r24
     b40:	9d 93       	st	X+, r25
     b42:	2f 5f       	subi	r18, 0xFF	; 255
     b44:	24 31       	cpi	r18, 0x14	; 20
				uint_reg_t CurrentGlobalInt = GetGlobalInterruptMask();
				GlobalInterruptDisable();

				uint8_t SigReadAddress = INTERNAL_SERIAL_START_ADDRESS;

				for (uint8_t SerialCharNum = 0; SerialCharNum < (INTERNAL_SERIAL_LENGTH_BITS / 4); SerialCharNum++)
     b46:	49 f7       	brne	.-46     	; 0xb1a <USB_Device_ProcessControlRequest+0x1a0>
     b48:	4f bf       	out	0x3f, r20	; 63
     b4a:	80 91 e8 00 	lds	r24, 0x00E8
			 *  \note This is not applicable for non CONTROL type endpoints.
			 */
			static inline void Endpoint_ClearSETUP(void) ATTR_ALWAYS_INLINE;
			static inline void Endpoint_ClearSETUP(void)
			{
				UEINTX &= ~(1 << RXSTPI);
     b4e:	87 7f       	andi	r24, 0xF7	; 247
     b50:	80 93 e8 00 	sts	0x00E8, r24
     b54:	6a e2       	ldi	r22, 0x2A	; 42
     b56:	70 e0       	ldi	r23, 0x00	; 0

	USB_Device_GetSerialString(SignatureDescriptor.UnicodeString);

	Endpoint_ClearSETUP();

	Endpoint_Write_Control_Stream_LE(&SignatureDescriptor, sizeof(SignatureDescriptor));
     b58:	ce 01       	movw	r24, r28
     b5a:	01 96       	adiw	r24, 0x01	; 1
     b5c:	26 dc       	rcall	.-1972   	; 0x3aa <Endpoint_Write_Control_Stream_LE>
     b5e:	12 c0       	rjmp	.+36     	; 0xb84 <USB_Device_ProcessControlRequest+0x20a>
     b60:	ae 01       	movw	r20, r28
     b62:	4f 5f       	subi	r20, 0xFF	; 255
     b64:	5f 4f       	sbci	r21, 0xFF	; 255
		USB_Device_GetInternalSerialDescriptor();
		return;
	}
	#endif

	if ((DescriptorSize = CALLBACK_USB_GetDescriptor(USB_ControlRequest.wValue, USB_ControlRequest.wIndex,
     b66:	60 91 1c 01 	lds	r22, 0x011C
     b6a:	94 db       	rcall	.-2264   	; 0x294 <CALLBACK_USB_GetDescriptor>
     b6c:	00 97       	sbiw	r24, 0x00	; 0
     b6e:	09 f4       	brne	.+2      	; 0xb72 <USB_Device_ProcessControlRequest+0x1f8>
     b70:	3d c0       	rjmp	.+122    	; 0xbec <USB_Device_ProcessControlRequest+0x272>
     b72:	20 91 e8 00 	lds	r18, 0x00E8
     b76:	27 7f       	andi	r18, 0xF7	; 247
     b78:	20 93 e8 00 	sts	0x00E8, r18
     b7c:	bc 01       	movw	r22, r24
     b7e:	89 81       	ldd	r24, Y+1	; 0x01
     b80:	9a 81       	ldd	r25, Y+2	; 0x02
     b82:	ae dc       	rcall	.-1700   	; 0x4e0 <Endpoint_Write_Control_PStream_LE>
	#if defined(USE_RAM_DESCRIPTORS) || !defined(ARCH_HAS_MULTI_ADDRESS_SPACE)
	Endpoint_Write_Control_Stream_LE(DescriptorPointer, DescriptorSize);
	#elif defined(USE_EEPROM_DESCRIPTORS)
	Endpoint_Write_Control_EStream_LE(DescriptorPointer, DescriptorSize);
	#elif defined(USE_FLASH_DESCRIPTORS)
	Endpoint_Write_Control_PStream_LE(DescriptorPointer, DescriptorSize);
     b84:	80 91 e8 00 	lds	r24, 0x00E8
     b88:	8b 77       	andi	r24, 0x7B	; 123
     b8a:	80 93 e8 00 	sts	0x00E8, r24
			 */
			static inline void Endpoint_ClearOUT(void) ATTR_ALWAYS_INLINE;
			static inline void Endpoint_ClearOUT(void)
			{
				#if !defined(CONTROL_ONLY_DEVICE)
					UEINTX &= ~((1 << RXOUTI) | (1 << FIFOCON));
     b8e:	2e c0       	rjmp	.+92     	; 0xbec <USB_Device_ProcessControlRequest+0x272>
     b90:	90 38       	cpi	r25, 0x80	; 128
     b92:	61 f5       	brne	.+88     	; 0xbec <USB_Device_ProcessControlRequest+0x272>
     b94:	80 91 e8 00 	lds	r24, 0x00E8
     b98:	87 7f       	andi	r24, 0xF7	; 247
					USB_Device_GetDescriptor();
				}

				break;
			case REQ_GetConfiguration:
				if (bmRequestType == (REQDIR_DEVICETOHOST | REQTYPE_STANDARD | REQREC_DEVICE))
     b9a:	80 93 e8 00 	sts	0x00E8, r24
			 *  \note This is not applicable for non CONTROL type endpoints.
			 */
			static inline void Endpoint_ClearSETUP(void) ATTR_ALWAYS_INLINE;
			static inline void Endpoint_ClearSETUP(void)
			{
				UEINTX &= ~(1 << RXSTPI);
     b9e:	80 91 13 01 	lds	r24, 0x0113
     ba2:	80 93 f1 00 	sts	0x00F1, r24
     ba6:	80 91 e8 00 	lds	r24, 0x00E8

static void USB_Device_GetConfiguration(void)
{
	Endpoint_ClearSETUP();

	Endpoint_Write_8(USB_Device_ConfigurationNumber);
     baa:	8e 77       	andi	r24, 0x7E	; 126
			 *  \param[in] Data  Data to write into the the currently selected endpoint's FIFO buffer.
			 */
			static inline void Endpoint_Write_8(const uint8_t Data) ATTR_ALWAYS_INLINE;
			static inline void Endpoint_Write_8(const uint8_t Data)
			{
				UEDATX = Data;
     bac:	80 93 e8 00 	sts	0x00E8, r24
			 */
			static inline void Endpoint_ClearIN(void) ATTR_ALWAYS_INLINE;
			static inline void Endpoint_ClearIN(void)
			{
				#if !defined(CONTROL_ONLY_DEVICE)
					UEINTX &= ~((1 << TXINI) | (1 << FIFOCON));
     bb0:	69 dd       	rcall	.-1326   	; 0x684 <Endpoint_ClearStatusStage>
     bb2:	1c c0       	rjmp	.+56     	; 0xbec <USB_Device_ProcessControlRequest+0x272>
     bb4:	91 11       	cpse	r25, r1
     bb6:	1a c0       	rjmp	.+52     	; 0xbec <USB_Device_ProcessControlRequest+0x272>
     bb8:	90 91 1a 01 	lds	r25, 0x011A
	Endpoint_ClearIN();

	Endpoint_ClearStatusStage();
     bbc:	92 30       	cpi	r25, 0x02	; 2
     bbe:	b0 f4       	brcc	.+44     	; 0xbec <USB_Device_ProcessControlRequest+0x272>
				if (bmRequestType == (REQDIR_DEVICETOHOST | REQTYPE_STANDARD | REQREC_DEVICE))
				  USB_Device_GetConfiguration();

				break;
			case REQ_SetConfiguration:
				if (bmRequestType == (REQDIR_HOSTTODEVICE | REQTYPE_STANDARD | REQREC_DEVICE))
     bc0:	80 91 e8 00 	lds	r24, 0x00E8
}

static void USB_Device_SetConfiguration(void)
{
	#if defined(FIXED_NUM_CONFIGURATIONS)
	if ((uint8_t)USB_ControlRequest.wValue > FIXED_NUM_CONFIGURATIONS)
     bc4:	87 7f       	andi	r24, 0xF7	; 247
     bc6:	80 93 e8 00 	sts	0x00E8, r24
     bca:	90 93 13 01 	sts	0x0113, r25
			 *  \note This is not applicable for non CONTROL type endpoints.
			 */
			static inline void Endpoint_ClearSETUP(void) ATTR_ALWAYS_INLINE;
			static inline void Endpoint_ClearSETUP(void)
			{
				UEINTX &= ~(1 << RXSTPI);
     bce:	5a dd       	rcall	.-1356   	; 0x684 <Endpoint_ClearStatusStage>
     bd0:	80 91 13 01 	lds	r24, 0x0113
     bd4:	81 11       	cpse	r24, r1
	#endif
	#endif

	Endpoint_ClearSETUP();

	USB_Device_ConfigurationNumber = (uint8_t)USB_ControlRequest.wValue;
     bd6:	04 c0       	rjmp	.+8      	; 0xbe0 <USB_Device_ProcessControlRequest+0x266>
     bd8:	80 91 e3 00 	lds	r24, 0x00E3

	Endpoint_ClearStatusStage();
     bdc:	87 ff       	sbrs	r24, 7

	if (USB_Device_ConfigurationNumber)
     bde:	02 c0       	rjmp	.+4      	; 0xbe4 <USB_Device_ProcessControlRequest+0x26a>
     be0:	84 e0       	ldi	r24, 0x04	; 4
     be2:	01 c0       	rjmp	.+2      	; 0xbe6 <USB_Device_ProcessControlRequest+0x26c>
     be4:	81 e0       	ldi	r24, 0x01	; 1
			}

			static inline bool USB_Device_IsAddressSet(void) ATTR_ALWAYS_INLINE ATTR_WARN_UNUSED_RESULT;
			static inline bool USB_Device_IsAddressSet(void)
			{
				return (UDADDR & (1 << ADDEN));
     be6:	80 93 17 01 	sts	0x0117, r24
	  USB_DeviceState = DEVICE_STATE_Configured;
	else
	  USB_DeviceState = (USB_Device_IsAddressSet()) ? DEVICE_STATE_Configured : DEVICE_STATE_Powered;
     bea:	06 db       	rcall	.-2548   	; 0x1f8 <EVENT_USB_Device_ConfigurationChanged>
     bec:	80 91 e8 00 	lds	r24, 0x00E8
     bf0:	83 ff       	sbrs	r24, 3
     bf2:	0a c0       	rjmp	.+20     	; 0xc08 <USB_Device_ProcessControlRequest+0x28e>
     bf4:	80 91 e8 00 	lds	r24, 0x00E8

	EVENT_USB_Device_ConfigurationChanged();
     bf8:	87 7f       	andi	r24, 0xF7	; 247
     bfa:	80 93 e8 00 	sts	0x00E8, r24
			 *  \return Boolean \c true if the selected endpoint has received a SETUP packet, \c false otherwise.
			 */
			static inline bool Endpoint_IsSETUPReceived(void) ATTR_WARN_UNUSED_RESULT ATTR_ALWAYS_INLINE;
			static inline bool Endpoint_IsSETUPReceived(void)
			{
				return ((UEINTX & (1 << RXSTPI)) ? true : false);
     bfe:	80 91 eb 00 	lds	r24, 0x00EB
			default:
				break;
		}
	}

	if (Endpoint_IsSETUPReceived())
     c02:	80 62       	ori	r24, 0x20	; 32
			 *  \note This is not applicable for non CONTROL type endpoints.
			 */
			static inline void Endpoint_ClearSETUP(void) ATTR_ALWAYS_INLINE;
			static inline void Endpoint_ClearSETUP(void)
			{
				UEINTX &= ~(1 << RXSTPI);
     c04:	80 93 eb 00 	sts	0x00EB, r24
     c08:	aa 96       	adiw	r28, 0x2a	; 42
     c0a:	0f b6       	in	r0, 0x3f	; 63
     c0c:	f8 94       	cli
			 *  \ingroup Group_EndpointPacketManagement_AVR8
			 */
			static inline void Endpoint_StallTransaction(void) ATTR_ALWAYS_INLINE;
			static inline void Endpoint_StallTransaction(void)
			{
				UECONX |= (1 << STALLRQ);
     c0e:	de bf       	out	0x3e, r29	; 62
     c10:	0f be       	out	0x3f, r0	; 63
     c12:	cd bf       	out	0x3d, r28	; 61
     c14:	df 91       	pop	r29
     c16:	cf 91       	pop	r28
	{
		Endpoint_ClearSETUP();
		Endpoint_StallTransaction();
	}
}
     c18:	1f 91       	pop	r17
     c1a:	08 95       	ret

00000c1c <USB_Event_Stub>:
     c1c:	08 95       	ret

00000c1e <USB_USBTask>:
     c1e:	cf 93       	push	r28
     c20:	80 91 17 01 	lds	r24, 0x0117
     c24:	88 23       	and	r24, r24
     c26:	a9 f0       	breq	.+42     	; 0xc52 <USB_USBTask+0x34>
     c28:	80 91 e9 00 	lds	r24, 0x00E9
			 */
			static inline uint8_t Endpoint_GetCurrentEndpoint(void) ATTR_WARN_UNUSED_RESULT ATTR_ALWAYS_INLINE;
			static inline uint8_t Endpoint_GetCurrentEndpoint(void)
			{
				#if !defined(CONTROL_ONLY_DEVICE)
					return ((UENUM & ENDPOINT_EPNUM_MASK) | Endpoint_GetEndpointDirection());
     c2c:	8f 70       	andi	r24, 0x0F	; 15
			 *  \return The currently selected endpoint's direction, as a \c ENDPOINT_DIR_* mask.
			 */
			static inline uint8_t Endpoint_GetEndpointDirection(void) ATTR_WARN_UNUSED_RESULT ATTR_ALWAYS_INLINE;
			static inline uint8_t Endpoint_GetEndpointDirection(void)
			{
				return (UECFG0X & (1 << EPDIR)) ? ENDPOINT_DIR_IN : ENDPOINT_DIR_OUT;
     c2e:	90 91 ec 00 	lds	r25, 0x00EC
     c32:	90 ff       	sbrs	r25, 0
     c34:	02 c0       	rjmp	.+4      	; 0xc3a <USB_USBTask+0x1c>
     c36:	90 e8       	ldi	r25, 0x80	; 128
     c38:	01 c0       	rjmp	.+2      	; 0xc3c <USB_USBTask+0x1e>
     c3a:	90 e0       	ldi	r25, 0x00	; 0
			 */
			static inline uint8_t Endpoint_GetCurrentEndpoint(void) ATTR_WARN_UNUSED_RESULT ATTR_ALWAYS_INLINE;
			static inline uint8_t Endpoint_GetCurrentEndpoint(void)
			{
				#if !defined(CONTROL_ONLY_DEVICE)
					return ((UENUM & ENDPOINT_EPNUM_MASK) | Endpoint_GetEndpointDirection());
     c3c:	c9 2f       	mov	r28, r25
     c3e:	c8 2b       	or	r28, r24
			 */
			static inline void Endpoint_SelectEndpoint(const uint8_t Address) ATTR_ALWAYS_INLINE;
			static inline void Endpoint_SelectEndpoint(const uint8_t Address)
			{
				#if !defined(CONTROL_ONLY_DEVICE)
					UENUM = (Address & ENDPOINT_EPNUM_MASK);
     c40:	10 92 e9 00 	sts	0x00E9, r1
			 *  \return Boolean \c true if the selected endpoint has received a SETUP packet, \c false otherwise.
			 */
			static inline bool Endpoint_IsSETUPReceived(void) ATTR_WARN_UNUSED_RESULT ATTR_ALWAYS_INLINE;
			static inline bool Endpoint_IsSETUPReceived(void)
			{
				return ((UEINTX & (1 << RXSTPI)) ? true : false);
     c44:	80 91 e8 00 	lds	r24, 0x00E8

	uint8_t PrevEndpoint = Endpoint_GetCurrentEndpoint();

	Endpoint_SelectEndpoint(ENDPOINT_CONTROLEP);

	if (Endpoint_IsSETUPReceived())
     c48:	83 fd       	sbrc	r24, 3
	  USB_Device_ProcessControlRequest();
     c4a:	97 de       	rcall	.-722    	; 0x97a <USB_Device_ProcessControlRequest>
     c4c:	cf 70       	andi	r28, 0x0F	; 15
			 */
			static inline void Endpoint_SelectEndpoint(const uint8_t Address) ATTR_ALWAYS_INLINE;
			static inline void Endpoint_SelectEndpoint(const uint8_t Address)
			{
				#if !defined(CONTROL_ONLY_DEVICE)
					UENUM = (Address & ENDPOINT_EPNUM_MASK);
     c4e:	c0 93 e9 00 	sts	0x00E9, r28
     c52:	cf 91       	pop	r28
	#elif defined(USB_CAN_BE_HOST)
		USB_HostTask();
	#elif defined(USB_CAN_BE_DEVICE)
		USB_DeviceTask();
	#endif
}
     c54:	08 95       	ret

00000c56 <HID_Device_ProcessControlRequest>:
     c56:	6f 92       	push	r6
#define  __INCLUDE_FROM_HID_DRIVER
#define  __INCLUDE_FROM_HID_DEVICE_C
#include "HIDClassDevice.h"

void HID_Device_ProcessControlRequest(USB_ClassInfo_HID_Device_t* const HIDInterfaceInfo)
{
     c58:	7f 92       	push	r7
     c5a:	8f 92       	push	r8
     c5c:	9f 92       	push	r9
     c5e:	af 92       	push	r10
     c60:	bf 92       	push	r11
     c62:	cf 92       	push	r12
     c64:	df 92       	push	r13
     c66:	ef 92       	push	r14
     c68:	ff 92       	push	r15
     c6a:	0f 93       	push	r16
     c6c:	1f 93       	push	r17
     c6e:	cf 93       	push	r28
     c70:	df 93       	push	r29
     c72:	00 d0       	rcall	.+0      	; 0xc74 <HID_Device_ProcessControlRequest+0x1e>
     c74:	1f 92       	push	r1
     c76:	cd b7       	in	r28, 0x3d	; 61
     c78:	de b7       	in	r29, 0x3e	; 62
     c7a:	7c 01       	movw	r14, r24
				Endpoint_ClearStatusStage();
			}

			break;
	}
}
     c7c:	ad b6       	in	r10, 0x3d	; 61
     c7e:	be b6       	in	r11, 0x3e	; 62
			 *  \return Boolean \c true if the selected endpoint has received a SETUP packet, \c false otherwise.
			 */
			static inline bool Endpoint_IsSETUPReceived(void) ATTR_WARN_UNUSED_RESULT ATTR_ALWAYS_INLINE;
			static inline bool Endpoint_IsSETUPReceived(void)
			{
				return ((UEINTX & (1 << RXSTPI)) ? true : false);
     c80:	80 91 e8 00 	lds	r24, 0x00E8
#define  __INCLUDE_FROM_HID_DEVICE_C
#include "HIDClassDevice.h"

void HID_Device_ProcessControlRequest(USB_ClassInfo_HID_Device_t* const HIDInterfaceInfo)
{
	if (!(Endpoint_IsSETUPReceived()))
     c84:	83 ff       	sbrs	r24, 3
     c86:	02 c1       	rjmp	.+516    	; 0xe8c <HID_Device_ProcessControlRequest+0x236>
	  return;

	if (USB_ControlRequest.wIndex != HIDInterfaceInfo->Config.InterfaceNumber)
     c88:	f7 01       	movw	r30, r14
     c8a:	80 81       	ld	r24, Z
     c8c:	90 e0       	ldi	r25, 0x00	; 0
     c8e:	20 91 1c 01 	lds	r18, 0x011C
     c92:	30 91 1d 01 	lds	r19, 0x011D
     c96:	28 17       	cp	r18, r24
     c98:	39 07       	cpc	r19, r25
     c9a:	09 f0       	breq	.+2      	; 0xc9e <HID_Device_ProcessControlRequest+0x48>
     c9c:	f7 c0       	rjmp	.+494    	; 0xe8c <HID_Device_ProcessControlRequest+0x236>
	  return;

	switch (USB_ControlRequest.bRequest)
     c9e:	80 91 19 01 	lds	r24, 0x0119
     ca2:	83 30       	cpi	r24, 0x03	; 3
     ca4:	09 f4       	brne	.+2      	; 0xca8 <HID_Device_ProcessControlRequest+0x52>
     ca6:	99 c0       	rjmp	.+306    	; 0xdda <HID_Device_ProcessControlRequest+0x184>
     ca8:	30 f4       	brcc	.+12     	; 0xcb6 <HID_Device_ProcessControlRequest+0x60>
     caa:	81 30       	cpi	r24, 0x01	; 1
     cac:	71 f0       	breq	.+28     	; 0xcca <HID_Device_ProcessControlRequest+0x74>
     cae:	82 30       	cpi	r24, 0x02	; 2
     cb0:	09 f4       	brne	.+2      	; 0xcb4 <HID_Device_ProcessControlRequest+0x5e>
     cb2:	d0 c0       	rjmp	.+416    	; 0xe54 <HID_Device_ProcessControlRequest+0x1fe>
     cb4:	eb c0       	rjmp	.+470    	; 0xe8c <HID_Device_ProcessControlRequest+0x236>
     cb6:	8a 30       	cpi	r24, 0x0A	; 10
     cb8:	09 f4       	brne	.+2      	; 0xcbc <HID_Device_ProcessControlRequest+0x66>
     cba:	b4 c0       	rjmp	.+360    	; 0xe24 <HID_Device_ProcessControlRequest+0x1ce>
     cbc:	8b 30       	cpi	r24, 0x0B	; 11
     cbe:	09 f4       	brne	.+2      	; 0xcc2 <HID_Device_ProcessControlRequest+0x6c>
     cc0:	9d c0       	rjmp	.+314    	; 0xdfc <HID_Device_ProcessControlRequest+0x1a6>
     cc2:	89 30       	cpi	r24, 0x09	; 9
     cc4:	09 f0       	breq	.+2      	; 0xcc8 <HID_Device_ProcessControlRequest+0x72>
     cc6:	e2 c0       	rjmp	.+452    	; 0xe8c <HID_Device_ProcessControlRequest+0x236>
     cc8:	4b c0       	rjmp	.+150    	; 0xd60 <HID_Device_ProcessControlRequest+0x10a>
	{
		case HID_REQ_GetReport:
			if (USB_ControlRequest.bmRequestType == (REQDIR_DEVICETOHOST | REQTYPE_CLASS | REQREC_INTERFACE))
     cca:	80 91 18 01 	lds	r24, 0x0118
     cce:	81 3a       	cpi	r24, 0xA1	; 161
     cd0:	09 f0       	breq	.+2      	; 0xcd4 <HID_Device_ProcessControlRequest+0x7e>
     cd2:	dc c0       	rjmp	.+440    	; 0xe8c <HID_Device_ProcessControlRequest+0x236>
     cd4:	8d b6       	in	r8, 0x3d	; 61
     cd6:	9e b6       	in	r9, 0x3e	; 62
			{
				uint16_t ReportSize = 0;
     cd8:	1a 82       	std	Y+2, r1	; 0x02
     cda:	19 82       	std	Y+1, r1	; 0x01
				uint8_t  ReportID   = (USB_ControlRequest.wValue & 0xFF);
     cdc:	80 91 1a 01 	lds	r24, 0x011A
     ce0:	10 91 1b 01 	lds	r17, 0x011B
     ce4:	8b 83       	std	Y+3, r24	; 0x03
				uint8_t  ReportType = (USB_ControlRequest.wValue >> 8) - 1;
				uint8_t  ReportData[HIDInterfaceInfo->Config.PrevReportINBufferSize];
     ce6:	f7 01       	movw	r30, r14
     ce8:	40 85       	ldd	r20, Z+8	; 0x08
     cea:	50 e0       	ldi	r21, 0x00	; 0
     cec:	8d b7       	in	r24, 0x3d	; 61
     cee:	9e b7       	in	r25, 0x3e	; 62
     cf0:	84 1b       	sub	r24, r20
     cf2:	95 0b       	sbc	r25, r21
     cf4:	0f b6       	in	r0, 0x3f	; 63
     cf6:	f8 94       	cli
     cf8:	9e bf       	out	0x3e, r25	; 62
     cfa:	0f be       	out	0x3f, r0	; 63
     cfc:	8d bf       	out	0x3d, r24	; 61
     cfe:	ed b7       	in	r30, 0x3d	; 61
     d00:	fe b7       	in	r31, 0x3e	; 62
     d02:	31 96       	adiw	r30, 0x01	; 1
     d04:	6f 01       	movw	r12, r30

				memset(ReportData, 0, sizeof(ReportData));
     d06:	60 e0       	ldi	r22, 0x00	; 0
     d08:	70 e0       	ldi	r23, 0x00	; 0
     d0a:	cf 01       	movw	r24, r30
     d0c:	bc d1       	rcall	.+888    	; 0x1086 <memset>
     d0e:	4f ef       	ldi	r20, 0xFF	; 255
		case HID_REQ_GetReport:
			if (USB_ControlRequest.bmRequestType == (REQDIR_DEVICETOHOST | REQTYPE_CLASS | REQREC_INTERFACE))
			{
				uint16_t ReportSize = 0;
				uint8_t  ReportID   = (USB_ControlRequest.wValue & 0xFF);
				uint8_t  ReportType = (USB_ControlRequest.wValue >> 8) - 1;
     d10:	41 0f       	add	r20, r17
     d12:	8e 01       	movw	r16, r28
				uint8_t  ReportData[HIDInterfaceInfo->Config.PrevReportINBufferSize];

				memset(ReportData, 0, sizeof(ReportData));

				CALLBACK_HID_Device_CreateHIDReport(HIDInterfaceInfo, &ReportID, ReportType, ReportData, &ReportSize);
     d14:	0f 5f       	subi	r16, 0xFF	; 255
     d16:	1f 4f       	sbci	r17, 0xFF	; 255
     d18:	96 01       	movw	r18, r12
     d1a:	be 01       	movw	r22, r28
     d1c:	6d 5f       	subi	r22, 0xFD	; 253
     d1e:	7f 4f       	sbci	r23, 0xFF	; 255
     d20:	c7 01       	movw	r24, r14
     d22:	87 da       	rcall	.-2802   	; 0x232 <CALLBACK_HID_Device_CreateHIDReport>
     d24:	f7 01       	movw	r30, r14
     d26:	86 81       	ldd	r24, Z+6	; 0x06

				if (HIDInterfaceInfo->Config.PrevReportINBuffer != NULL)
     d28:	97 81       	ldd	r25, Z+7	; 0x07
     d2a:	00 97       	sbiw	r24, 0x00	; 0
     d2c:	21 f0       	breq	.+8      	; 0xd36 <HID_Device_ProcessControlRequest+0xe0>
     d2e:	40 85       	ldd	r20, Z+8	; 0x08
     d30:	50 e0       	ldi	r21, 0x00	; 0
				{
					memcpy(HIDInterfaceInfo->Config.PrevReportINBuffer, ReportData,
     d32:	b6 01       	movw	r22, r12
     d34:	9f d1       	rcall	.+830    	; 0x1074 <memcpy>
     d36:	10 92 e9 00 	sts	0x00E9, r1
     d3a:	80 91 e8 00 	lds	r24, 0x00E8
			 */
			static inline void Endpoint_SelectEndpoint(const uint8_t Address) ATTR_ALWAYS_INLINE;
			static inline void Endpoint_SelectEndpoint(const uint8_t Address)
			{
				#if !defined(CONTROL_ONLY_DEVICE)
					UENUM = (Address & ENDPOINT_EPNUM_MASK);
     d3e:	87 7f       	andi	r24, 0xF7	; 247
			 *  \note This is not applicable for non CONTROL type endpoints.
			 */
			static inline void Endpoint_ClearSETUP(void) ATTR_ALWAYS_INLINE;
			static inline void Endpoint_ClearSETUP(void)
			{
				UEINTX &= ~(1 << RXSTPI);
     d40:	80 93 e8 00 	sts	0x00E8, r24
     d44:	8b 81       	ldd	r24, Y+3	; 0x03
     d46:	81 11       	cpse	r24, r1
     d48:	80 93 f1 00 	sts	0x00F1, r24

				Endpoint_SelectEndpoint(ENDPOINT_CONTROLEP);

				Endpoint_ClearSETUP();

				if (ReportID)
     d4c:	69 81       	ldd	r22, Y+1	; 0x01
			 *  \param[in] Data  Data to write into the the currently selected endpoint's FIFO buffer.
			 */
			static inline void Endpoint_Write_8(const uint8_t Data) ATTR_ALWAYS_INLINE;
			static inline void Endpoint_Write_8(const uint8_t Data)
			{
				UEDATX = Data;
     d4e:	7a 81       	ldd	r23, Y+2	; 0x02
     d50:	c6 01       	movw	r24, r12
				  Endpoint_Write_8(ReportID);

				Endpoint_Write_Control_Stream_LE(ReportData, ReportSize);
     d52:	2b db       	rcall	.-2474   	; 0x3aa <Endpoint_Write_Control_Stream_LE>
     d54:	80 91 e8 00 	lds	r24, 0x00E8
     d58:	8b 77       	andi	r24, 0x7B	; 123
     d5a:	80 93 e8 00 	sts	0x00E8, r24
			 */
			static inline void Endpoint_ClearOUT(void) ATTR_ALWAYS_INLINE;
			static inline void Endpoint_ClearOUT(void)
			{
				#if !defined(CONTROL_ONLY_DEVICE)
					UEINTX &= ~((1 << RXOUTI) | (1 << FIFOCON));
     d5e:	37 c0       	rjmp	.+110    	; 0xdce <HID_Device_ProcessControlRequest+0x178>
     d60:	80 91 18 01 	lds	r24, 0x0118
     d64:	81 32       	cpi	r24, 0x21	; 33
     d66:	09 f0       	breq	.+2      	; 0xd6a <HID_Device_ProcessControlRequest+0x114>
				Endpoint_ClearOUT();
			}

			break;
		case HID_REQ_SetReport:
			if (USB_ControlRequest.bmRequestType == (REQDIR_HOSTTODEVICE | REQTYPE_CLASS | REQREC_INTERFACE))
     d68:	91 c0       	rjmp	.+290    	; 0xe8c <HID_Device_ProcessControlRequest+0x236>
     d6a:	8d b6       	in	r8, 0x3d	; 61
     d6c:	9e b6       	in	r9, 0x3e	; 62
     d6e:	00 91 1e 01 	lds	r16, 0x011E
     d72:	10 91 1f 01 	lds	r17, 0x011F
			{
				uint16_t ReportSize = USB_ControlRequest.wLength;
     d76:	70 90 1a 01 	lds	r7, 0x011A
     d7a:	60 90 1b 01 	lds	r6, 0x011B
				uint8_t  ReportID   = (USB_ControlRequest.wValue & 0xFF);
     d7e:	8d b7       	in	r24, 0x3d	; 61
     d80:	9e b7       	in	r25, 0x3e	; 62
     d82:	80 1b       	sub	r24, r16
     d84:	91 0b       	sbc	r25, r17
				uint8_t  ReportType = (USB_ControlRequest.wValue >> 8) - 1;
				uint8_t  ReportData[ReportSize];
     d86:	0f b6       	in	r0, 0x3f	; 63
     d88:	f8 94       	cli
     d8a:	9e bf       	out	0x3e, r25	; 62
     d8c:	0f be       	out	0x3f, r0	; 63
     d8e:	8d bf       	out	0x3d, r24	; 61
     d90:	ed b7       	in	r30, 0x3d	; 61
     d92:	fe b7       	in	r31, 0x3e	; 62
     d94:	31 96       	adiw	r30, 0x01	; 1
     d96:	6f 01       	movw	r12, r30
     d98:	80 91 e8 00 	lds	r24, 0x00E8
     d9c:	87 7f       	andi	r24, 0xF7	; 247
     d9e:	80 93 e8 00 	sts	0x00E8, r24
			 *  \note This is not applicable for non CONTROL type endpoints.
			 */
			static inline void Endpoint_ClearSETUP(void) ATTR_ALWAYS_INLINE;
			static inline void Endpoint_ClearSETUP(void)
			{
				UEINTX &= ~(1 << RXSTPI);
     da2:	b8 01       	movw	r22, r16
     da4:	cf 01       	movw	r24, r30
     da6:	5e db       	rcall	.-2372   	; 0x464 <Endpoint_Read_Control_Stream_LE>
     da8:	80 91 e8 00 	lds	r24, 0x00E8

				Endpoint_ClearSETUP();
				Endpoint_Read_Control_Stream_LE(ReportData, ReportSize);
     dac:	8e 77       	andi	r24, 0x7E	; 126
     dae:	80 93 e8 00 	sts	0x00E8, r24
			 */
			static inline void Endpoint_ClearIN(void) ATTR_ALWAYS_INLINE;
			static inline void Endpoint_ClearIN(void)
			{
				#if !defined(CONTROL_ONLY_DEVICE)
					UEINTX &= ~((1 << TXINI) | (1 << FIFOCON));
     db2:	21 e0       	ldi	r18, 0x01	; 1
     db4:	71 10       	cpse	r7, r1
     db6:	01 c0       	rjmp	.+2      	; 0xdba <HID_Device_ProcessControlRequest+0x164>
     db8:	20 e0       	ldi	r18, 0x00	; 0
     dba:	30 e0       	ldi	r19, 0x00	; 0
				Endpoint_ClearIN();

				CALLBACK_HID_Device_ProcessHIDReport(HIDInterfaceInfo, ReportID, ReportType,
     dbc:	02 1b       	sub	r16, r18
     dbe:	13 0b       	sbc	r17, r19
     dc0:	2c 0d       	add	r18, r12
     dc2:	3d 1d       	adc	r19, r13
     dc4:	4f ef       	ldi	r20, 0xFF	; 255
     dc6:	46 0d       	add	r20, r6
     dc8:	67 2d       	mov	r22, r7
				                                     &ReportData[ReportID ? 1 : 0], ReportSize - (ReportID ? 1 : 0));
     dca:	c7 01       	movw	r24, r14
     dcc:	62 da       	rcall	.-2876   	; 0x292 <CALLBACK_HID_Device_ProcessHIDReport>
		case HID_REQ_SetReport:
			if (USB_ControlRequest.bmRequestType == (REQDIR_HOSTTODEVICE | REQTYPE_CLASS | REQREC_INTERFACE))
			{
				uint16_t ReportSize = USB_ControlRequest.wLength;
				uint8_t  ReportID   = (USB_ControlRequest.wValue & 0xFF);
				uint8_t  ReportType = (USB_ControlRequest.wValue >> 8) - 1;
     dce:	0f b6       	in	r0, 0x3f	; 63
     dd0:	f8 94       	cli

				Endpoint_ClearSETUP();
				Endpoint_Read_Control_Stream_LE(ReportData, ReportSize);
				Endpoint_ClearIN();

				CALLBACK_HID_Device_ProcessHIDReport(HIDInterfaceInfo, ReportID, ReportType,
     dd2:	9e be       	out	0x3e, r9	; 62
     dd4:	0f be       	out	0x3f, r0	; 63
     dd6:	8d be       	out	0x3d, r8	; 61
     dd8:	59 c0       	rjmp	.+178    	; 0xe8c <HID_Device_ProcessControlRequest+0x236>
     dda:	80 91 18 01 	lds	r24, 0x0118
     dde:	81 3a       	cpi	r24, 0xA1	; 161
     de0:	09 f0       	breq	.+2      	; 0xde4 <HID_Device_ProcessControlRequest+0x18e>
     de2:	54 c0       	rjmp	.+168    	; 0xe8c <HID_Device_ProcessControlRequest+0x236>
     de4:	80 91 e8 00 	lds	r24, 0x00E8
				                                     &ReportData[ReportID ? 1 : 0], ReportSize - (ReportID ? 1 : 0));
			}

			break;
		case HID_REQ_GetProtocol:
			if (USB_ControlRequest.bmRequestType == (REQDIR_DEVICETOHOST | REQTYPE_CLASS | REQREC_INTERFACE))
     de8:	87 7f       	andi	r24, 0xF7	; 247
     dea:	80 93 e8 00 	sts	0x00E8, r24
     dee:	80 91 e8 00 	lds	r24, 0x00E8
			 *  \note This is not applicable for non CONTROL type endpoints.
			 */
			static inline void Endpoint_ClearSETUP(void) ATTR_ALWAYS_INLINE;
			static inline void Endpoint_ClearSETUP(void)
			{
				UEINTX &= ~(1 << RXSTPI);
     df2:	80 ff       	sbrs	r24, 0
     df4:	fc cf       	rjmp	.-8      	; 0xdee <HID_Device_ProcessControlRequest+0x198>
     df6:	f7 01       	movw	r30, r14
     df8:	81 85       	ldd	r24, Z+9	; 0x09
			 *  \return Boolean \c true if the current endpoint is ready for an IN packet, \c false otherwise.
			 */
			static inline bool Endpoint_IsINReady(void) ATTR_WARN_UNUSED_RESULT ATTR_ALWAYS_INLINE;
			static inline bool Endpoint_IsINReady(void)
			{
				return ((UEINTX & (1 << TXINI)) ? true : false);
     dfa:	40 c0       	rjmp	.+128    	; 0xe7c <HID_Device_ProcessControlRequest+0x226>
     dfc:	80 91 18 01 	lds	r24, 0x0118
			{
				Endpoint_ClearSETUP();
				while (!(Endpoint_IsINReady()));
     e00:	81 32       	cpi	r24, 0x21	; 33
				Endpoint_Write_8(HIDInterfaceInfo->State.UsingReportProtocol);
     e02:	09 f0       	breq	.+2      	; 0xe06 <HID_Device_ProcessControlRequest+0x1b0>
     e04:	43 c0       	rjmp	.+134    	; 0xe8c <HID_Device_ProcessControlRequest+0x236>
     e06:	80 91 e8 00 	lds	r24, 0x00E8
				Endpoint_ClearStatusStage();
			}

			break;
		case HID_REQ_SetProtocol:
			if (USB_ControlRequest.bmRequestType == (REQDIR_HOSTTODEVICE | REQTYPE_CLASS | REQREC_INTERFACE))
     e0a:	87 7f       	andi	r24, 0xF7	; 247
     e0c:	80 93 e8 00 	sts	0x00E8, r24
     e10:	39 dc       	rcall	.-1934   	; 0x684 <Endpoint_ClearStatusStage>
			 *  \note This is not applicable for non CONTROL type endpoints.
			 */
			static inline void Endpoint_ClearSETUP(void) ATTR_ALWAYS_INLINE;
			static inline void Endpoint_ClearSETUP(void)
			{
				UEINTX &= ~(1 << RXSTPI);
     e12:	90 91 1a 01 	lds	r25, 0x011A
     e16:	81 e0       	ldi	r24, 0x01	; 1
     e18:	91 11       	cpse	r25, r1
     e1a:	01 c0       	rjmp	.+2      	; 0xe1e <HID_Device_ProcessControlRequest+0x1c8>
			{
				Endpoint_ClearSETUP();
				Endpoint_ClearStatusStage();
     e1c:	80 e0       	ldi	r24, 0x00	; 0
     e1e:	f7 01       	movw	r30, r14

				HIDInterfaceInfo->State.UsingReportProtocol = ((USB_ControlRequest.wValue & 0xFF) != 0x00);
     e20:	81 87       	std	Z+9, r24	; 0x09
     e22:	34 c0       	rjmp	.+104    	; 0xe8c <HID_Device_ProcessControlRequest+0x236>
     e24:	80 91 18 01 	lds	r24, 0x0118
     e28:	81 32       	cpi	r24, 0x21	; 33
     e2a:	81 f5       	brne	.+96     	; 0xe8c <HID_Device_ProcessControlRequest+0x236>
     e2c:	80 91 e8 00 	lds	r24, 0x00E8
     e30:	87 7f       	andi	r24, 0xF7	; 247
			}

			break;
		case HID_REQ_SetIdle:
			if (USB_ControlRequest.bmRequestType == (REQDIR_HOSTTODEVICE | REQTYPE_CLASS | REQREC_INTERFACE))
     e32:	80 93 e8 00 	sts	0x00E8, r24
     e36:	26 dc       	rcall	.-1972   	; 0x684 <Endpoint_ClearStatusStage>
     e38:	80 91 1a 01 	lds	r24, 0x011A
     e3c:	90 91 1b 01 	lds	r25, 0x011B
     e40:	88 27       	eor	r24, r24
     e42:	36 e0       	ldi	r19, 0x06	; 6
			{
				Endpoint_ClearSETUP();
				Endpoint_ClearStatusStage();
     e44:	96 95       	lsr	r25
     e46:	87 95       	ror	r24

				HIDInterfaceInfo->State.IdleCount = ((USB_ControlRequest.wValue & 0xFF00) >> 6);
     e48:	3a 95       	dec	r19
     e4a:	e1 f7       	brne	.-8      	; 0xe44 <HID_Device_ProcessControlRequest+0x1ee>
     e4c:	f7 01       	movw	r30, r14
     e4e:	95 87       	std	Z+13, r25	; 0x0d
     e50:	84 87       	std	Z+12, r24	; 0x0c
     e52:	1c c0       	rjmp	.+56     	; 0xe8c <HID_Device_ProcessControlRequest+0x236>
     e54:	80 91 18 01 	lds	r24, 0x0118
     e58:	81 3a       	cpi	r24, 0xA1	; 161
     e5a:	c1 f4       	brne	.+48     	; 0xe8c <HID_Device_ProcessControlRequest+0x236>
     e5c:	80 91 e8 00 	lds	r24, 0x00E8
     e60:	87 7f       	andi	r24, 0xF7	; 247
     e62:	80 93 e8 00 	sts	0x00E8, r24
			}

			break;
		case HID_REQ_GetIdle:
			if (USB_ControlRequest.bmRequestType == (REQDIR_DEVICETOHOST | REQTYPE_CLASS | REQREC_INTERFACE))
     e66:	80 91 e8 00 	lds	r24, 0x00E8
     e6a:	80 ff       	sbrs	r24, 0
     e6c:	fc cf       	rjmp	.-8      	; 0xe66 <HID_Device_ProcessControlRequest+0x210>
     e6e:	f7 01       	movw	r30, r14
     e70:	84 85       	ldd	r24, Z+12	; 0x0c
     e72:	95 85       	ldd	r25, Z+13	; 0x0d
     e74:	96 95       	lsr	r25
			 *  \return Boolean \c true if the current endpoint is ready for an IN packet, \c false otherwise.
			 */
			static inline bool Endpoint_IsINReady(void) ATTR_WARN_UNUSED_RESULT ATTR_ALWAYS_INLINE;
			static inline bool Endpoint_IsINReady(void)
			{
				return ((UEINTX & (1 << TXINI)) ? true : false);
     e76:	87 95       	ror	r24
     e78:	96 95       	lsr	r25
			{
				Endpoint_ClearSETUP();
				while (!(Endpoint_IsINReady()));
     e7a:	87 95       	ror	r24
     e7c:	80 93 f1 00 	sts	0x00F1, r24
				Endpoint_Write_8(HIDInterfaceInfo->State.IdleCount >> 2);
     e80:	80 91 e8 00 	lds	r24, 0x00E8
     e84:	8e 77       	andi	r24, 0x7E	; 126
     e86:	80 93 e8 00 	sts	0x00E8, r24
     e8a:	fc db       	rcall	.-2056   	; 0x684 <Endpoint_ClearStatusStage>
			 *  \param[in] Data  Data to write into the the currently selected endpoint's FIFO buffer.
			 */
			static inline void Endpoint_Write_8(const uint8_t Data) ATTR_ALWAYS_INLINE;
			static inline void Endpoint_Write_8(const uint8_t Data)
			{
				UEDATX = Data;
     e8c:	0f b6       	in	r0, 0x3f	; 63
     e8e:	f8 94       	cli
			 */
			static inline void Endpoint_ClearIN(void) ATTR_ALWAYS_INLINE;
			static inline void Endpoint_ClearIN(void)
			{
				#if !defined(CONTROL_ONLY_DEVICE)
					UEINTX &= ~((1 << TXINI) | (1 << FIFOCON));
     e90:	be be       	out	0x3e, r11	; 62
     e92:	0f be       	out	0x3f, r0	; 63
     e94:	ad be       	out	0x3d, r10	; 61
     e96:	0f 90       	pop	r0
     e98:	0f 90       	pop	r0
				Endpoint_ClearIN();
				Endpoint_ClearStatusStage();
     e9a:	0f 90       	pop	r0
     e9c:	df 91       	pop	r29
			}

			break;
	}
}
     e9e:	cf 91       	pop	r28
     ea0:	1f 91       	pop	r17
     ea2:	0f 91       	pop	r16
     ea4:	ff 90       	pop	r15
     ea6:	ef 90       	pop	r14
     ea8:	df 90       	pop	r13
     eaa:	cf 90       	pop	r12
     eac:	bf 90       	pop	r11
     eae:	af 90       	pop	r10
     eb0:	9f 90       	pop	r9
     eb2:	8f 90       	pop	r8
     eb4:	7f 90       	pop	r7
     eb6:	6f 90       	pop	r6
     eb8:	08 95       	ret

00000eba <HID_Device_ConfigureEndpoints>:
     eba:	fc 01       	movw	r30, r24
     ebc:	39 96       	adiw	r30, 0x09	; 9
     ebe:	27 e0       	ldi	r18, 0x07	; 7
     ec0:	df 01       	movw	r26, r30
     ec2:	1d 92       	st	X+, r1
     ec4:	2a 95       	dec	r18
     ec6:	e9 f7       	brne	.-6      	; 0xec2 <HID_Device_ConfigureEndpoints+0x8>
     ec8:	21 e0       	ldi	r18, 0x01	; 1
     eca:	fc 01       	movw	r30, r24

bool HID_Device_ConfigureEndpoints(USB_ClassInfo_HID_Device_t* const HIDInterfaceInfo)
{
	memset(&HIDInterfaceInfo->State, 0x00, sizeof(HIDInterfaceInfo->State));
	HIDInterfaceInfo->State.UsingReportProtocol = true;
     ecc:	21 87       	std	Z+9, r18	; 0x09
	HIDInterfaceInfo->State.IdleCount           = 500;
     ece:	24 ef       	ldi	r18, 0xF4	; 244
     ed0:	31 e0       	ldi	r19, 0x01	; 1
     ed2:	35 87       	std	Z+13, r19	; 0x0d
     ed4:	24 87       	std	Z+12, r18	; 0x0c

	HIDInterfaceInfo->Config.ReportINEndpoint.Type = EP_TYPE_INTERRUPT;
     ed6:	23 e0       	ldi	r18, 0x03	; 3
     ed8:	24 83       	std	Z+4, r18	; 0x04

	if (!(Endpoint_ConfigureEndpointTable(&HIDInterfaceInfo->Config.ReportINEndpoint, 1)))
     eda:	61 e0       	ldi	r22, 0x01	; 1
     edc:	01 96       	adiw	r24, 0x01	; 1
     ede:	95 cb       	rjmp	.-2262   	; 0x60a <Endpoint_ConfigureEndpointTable>

00000ee0 <HID_Device_USBTask>:
     ee0:	5f 92       	push	r5

	return true;
}

void HID_Device_USBTask(USB_ClassInfo_HID_Device_t* const HIDInterfaceInfo)
{
     ee2:	6f 92       	push	r6
     ee4:	7f 92       	push	r7
     ee6:	8f 92       	push	r8
     ee8:	9f 92       	push	r9
     eea:	af 92       	push	r10
     eec:	bf 92       	push	r11
     eee:	cf 92       	push	r12
     ef0:	df 92       	push	r13
     ef2:	ef 92       	push	r14
     ef4:	ff 92       	push	r15
     ef6:	0f 93       	push	r16
     ef8:	1f 93       	push	r17
     efa:	cf 93       	push	r28
     efc:	df 93       	push	r29
     efe:	00 d0       	rcall	.+0      	; 0xf00 <HID_Device_USBTask+0x20>
     f00:	1f 92       	push	r1
     f02:	cd b7       	in	r28, 0x3d	; 61
     f04:	de b7       	in	r29, 0x3e	; 62
     f06:	7c 01       	movw	r14, r24
			Endpoint_ClearIN();
		}

		HIDInterfaceInfo->State.PrevFrameNum = USB_Device_GetFrameNumber();
	}
}
     f08:	ad b6       	in	r10, 0x3d	; 61
     f0a:	be b6       	in	r11, 0x3e	; 62
	return true;
}

void HID_Device_USBTask(USB_ClassInfo_HID_Device_t* const HIDInterfaceInfo)
{
	if (USB_DeviceState != DEVICE_STATE_Configured)
     f0c:	80 91 17 01 	lds	r24, 0x0117
     f10:	84 30       	cpi	r24, 0x04	; 4
     f12:	09 f0       	breq	.+2      	; 0xf16 <HID_Device_USBTask+0x36>
     f14:	8a c0       	rjmp	.+276    	; 0x102a <HID_Device_USBTask+0x14a>
			 *  \return Current USB frame number from the USB controller.
			 */
			static inline uint16_t USB_Device_GetFrameNumber(void) ATTR_ALWAYS_INLINE ATTR_WARN_UNUSED_RESULT;
			static inline uint16_t USB_Device_GetFrameNumber(void)
			{
				return UDFNUM;
     f16:	80 91 e4 00 	lds	r24, 0x00E4
     f1a:	90 91 e5 00 	lds	r25, 0x00E5
	  return;

	if (HIDInterfaceInfo->State.PrevFrameNum == USB_Device_GetFrameNumber())
     f1e:	f7 01       	movw	r30, r14
     f20:	22 85       	ldd	r18, Z+10	; 0x0a
     f22:	33 85       	ldd	r19, Z+11	; 0x0b
     f24:	28 17       	cp	r18, r24
     f26:	39 07       	cpc	r19, r25
     f28:	09 f4       	brne	.+2      	; 0xf2c <HID_Device_USBTask+0x4c>
     f2a:	7f c0       	rjmp	.+254    	; 0x102a <HID_Device_USBTask+0x14a>
			 */
			static inline void Endpoint_SelectEndpoint(const uint8_t Address) ATTR_ALWAYS_INLINE;
			static inline void Endpoint_SelectEndpoint(const uint8_t Address)
			{
				#if !defined(CONTROL_ONLY_DEVICE)
					UENUM = (Address & ENDPOINT_EPNUM_MASK);
     f2c:	81 81       	ldd	r24, Z+1	; 0x01
     f2e:	8f 70       	andi	r24, 0x0F	; 15
     f30:	80 93 e9 00 	sts	0x00E9, r24
			 *          on its direction.
			 */
			static inline bool Endpoint_IsReadWriteAllowed(void) ATTR_WARN_UNUSED_RESULT ATTR_ALWAYS_INLINE;
			static inline bool Endpoint_IsReadWriteAllowed(void)
			{
				return ((UEINTX & (1 << RWAL)) ? true : false);
     f34:	80 91 e8 00 	lds	r24, 0x00E8
		#endif
	}

	Endpoint_SelectEndpoint(HIDInterfaceInfo->Config.ReportINEndpoint.Address);

	if (Endpoint_IsReadWriteAllowed())
     f38:	85 ff       	sbrs	r24, 5
     f3a:	77 c0       	rjmp	.+238    	; 0x102a <HID_Device_USBTask+0x14a>
     f3c:	8d b6       	in	r8, 0x3d	; 61
     f3e:	9e b6       	in	r9, 0x3e	; 62
	{
		uint8_t  ReportINData[HIDInterfaceInfo->Config.PrevReportINBufferSize];
     f40:	40 85       	ldd	r20, Z+8	; 0x08
     f42:	50 e0       	ldi	r21, 0x00	; 0
     f44:	8d b7       	in	r24, 0x3d	; 61
     f46:	9e b7       	in	r25, 0x3e	; 62
     f48:	84 1b       	sub	r24, r20
     f4a:	95 0b       	sbc	r25, r21
     f4c:	0f b6       	in	r0, 0x3f	; 63
     f4e:	f8 94       	cli
     f50:	9e bf       	out	0x3e, r25	; 62
     f52:	0f be       	out	0x3f, r0	; 63
     f54:	8d bf       	out	0x3d, r24	; 61
     f56:	ed b7       	in	r30, 0x3d	; 61
     f58:	fe b7       	in	r31, 0x3e	; 62
     f5a:	31 96       	adiw	r30, 0x01	; 1
     f5c:	6f 01       	movw	r12, r30
		uint8_t  ReportID     = 0;
     f5e:	1b 82       	std	Y+3, r1	; 0x03
		uint16_t ReportINSize = 0;
     f60:	1a 82       	std	Y+2, r1	; 0x02
     f62:	19 82       	std	Y+1, r1	; 0x01

		memset(ReportINData, 0, sizeof(ReportINData));
     f64:	60 e0       	ldi	r22, 0x00	; 0
     f66:	70 e0       	ldi	r23, 0x00	; 0
     f68:	cf 01       	movw	r24, r30
     f6a:	8d d0       	rcall	.+282    	; 0x1086 <memset>
     f6c:	8e 01       	movw	r16, r28

		bool ForceSend         = CALLBACK_HID_Device_CreateHIDReport(HIDInterfaceInfo, &ReportID, HID_REPORT_ITEM_In,
     f6e:	0f 5f       	subi	r16, 0xFF	; 255
     f70:	1f 4f       	sbci	r17, 0xFF	; 255
     f72:	96 01       	movw	r18, r12
     f74:	40 e0       	ldi	r20, 0x00	; 0
     f76:	be 01       	movw	r22, r28
     f78:	6d 5f       	subi	r22, 0xFD	; 253
     f7a:	7f 4f       	sbci	r23, 0xFF	; 255
     f7c:	c7 01       	movw	r24, r14
     f7e:	59 d9       	rcall	.-3406   	; 0x232 <CALLBACK_HID_Device_CreateHIDReport>
     f80:	68 2e       	mov	r6, r24
     f82:	f7 01       	movw	r30, r14
     f84:	84 85       	ldd	r24, Z+12	; 0x0c
		                                                             ReportINData, &ReportINSize);
		bool StatesChanged     = false;
		bool IdlePeriodElapsed = (HIDInterfaceInfo->State.IdleCount && !(HIDInterfaceInfo->State.IdleMSRemaining));
     f86:	95 85       	ldd	r25, Z+13	; 0x0d
     f88:	89 2b       	or	r24, r25
     f8a:	41 f0       	breq	.+16     	; 0xf9c <HID_Device_USBTask+0xbc>
     f8c:	21 e0       	ldi	r18, 0x01	; 1
     f8e:	86 85       	ldd	r24, Z+14	; 0x0e
     f90:	97 85       	ldd	r25, Z+15	; 0x0f
     f92:	89 2b       	or	r24, r25
     f94:	09 f0       	breq	.+2      	; 0xf98 <HID_Device_USBTask+0xb8>
     f96:	20 e0       	ldi	r18, 0x00	; 0
     f98:	72 2e       	mov	r7, r18
     f9a:	01 c0       	rjmp	.+2      	; 0xf9e <HID_Device_USBTask+0xbe>
     f9c:	71 2c       	mov	r7, r1
     f9e:	f7 01       	movw	r30, r14
     fa0:	06 81       	ldd	r16, Z+6	; 0x06

		if (HIDInterfaceInfo->Config.PrevReportINBuffer != NULL)
     fa2:	17 81       	ldd	r17, Z+7	; 0x07
     fa4:	01 15       	cp	r16, r1
     fa6:	11 05       	cpc	r17, r1
     fa8:	89 f0       	breq	.+34     	; 0xfcc <HID_Device_USBTask+0xec>
     faa:	49 81       	ldd	r20, Y+1	; 0x01
     fac:	5a 81       	ldd	r21, Y+2	; 0x02
		{
			StatesChanged = (memcmp(ReportINData, HIDInterfaceInfo->Config.PrevReportINBuffer, ReportINSize) != 0);
     fae:	b8 01       	movw	r22, r16
     fb0:	c6 01       	movw	r24, r12
     fb2:	53 d0       	rcall	.+166    	; 0x105a <memcmp>
     fb4:	55 24       	eor	r5, r5
     fb6:	53 94       	inc	r5
     fb8:	89 2b       	or	r24, r25
     fba:	09 f4       	brne	.+2      	; 0xfbe <HID_Device_USBTask+0xde>
     fbc:	51 2c       	mov	r5, r1
     fbe:	f7 01       	movw	r30, r14
     fc0:	40 85       	ldd	r20, Z+8	; 0x08
     fc2:	50 e0       	ldi	r21, 0x00	; 0
			memcpy(HIDInterfaceInfo->Config.PrevReportINBuffer, ReportINData, HIDInterfaceInfo->Config.PrevReportINBufferSize);
     fc4:	b6 01       	movw	r22, r12
     fc6:	c8 01       	movw	r24, r16
     fc8:	55 d0       	rcall	.+170    	; 0x1074 <memcpy>
     fca:	01 c0       	rjmp	.+2      	; 0xfce <HID_Device_USBTask+0xee>
     fcc:	51 2c       	mov	r5, r1
     fce:	29 81       	ldd	r18, Y+1	; 0x01
     fd0:	3a 81       	ldd	r19, Y+2	; 0x02
     fd2:	23 2b       	or	r18, r19

		memset(ReportINData, 0, sizeof(ReportINData));

		bool ForceSend         = CALLBACK_HID_Device_CreateHIDReport(HIDInterfaceInfo, &ReportID, HID_REPORT_ITEM_In,
		                                                             ReportINData, &ReportINSize);
		bool StatesChanged     = false;
     fd4:	f1 f0       	breq	.+60     	; 0x1012 <HID_Device_USBTask+0x132>
		{
			StatesChanged = (memcmp(ReportINData, HIDInterfaceInfo->Config.PrevReportINBuffer, ReportINSize) != 0);
			memcpy(HIDInterfaceInfo->Config.PrevReportINBuffer, ReportINData, HIDInterfaceInfo->Config.PrevReportINBufferSize);
		}

		if (ReportINSize && (ForceSend || StatesChanged || IdlePeriodElapsed))
     fd6:	61 10       	cpse	r6, r1
     fd8:	04 c0       	rjmp	.+8      	; 0xfe2 <HID_Device_USBTask+0x102>
     fda:	51 10       	cpse	r5, r1
     fdc:	02 c0       	rjmp	.+4      	; 0xfe2 <HID_Device_USBTask+0x102>
     fde:	70 fe       	sbrs	r7, 0
     fe0:	18 c0       	rjmp	.+48     	; 0x1012 <HID_Device_USBTask+0x132>
     fe2:	f7 01       	movw	r30, r14
     fe4:	84 85       	ldd	r24, Z+12	; 0x0c
     fe6:	95 85       	ldd	r25, Z+13	; 0x0d
     fe8:	97 87       	std	Z+15, r25	; 0x0f
		{
			HIDInterfaceInfo->State.IdleMSRemaining = HIDInterfaceInfo->State.IdleCount;
     fea:	86 87       	std	Z+14, r24	; 0x0e
     fec:	81 81       	ldd	r24, Z+1	; 0x01
     fee:	8f 70       	andi	r24, 0x0F	; 15
     ff0:	80 93 e9 00 	sts	0x00E9, r24
			 */
			static inline void Endpoint_SelectEndpoint(const uint8_t Address) ATTR_ALWAYS_INLINE;
			static inline void Endpoint_SelectEndpoint(const uint8_t Address)
			{
				#if !defined(CONTROL_ONLY_DEVICE)
					UENUM = (Address & ENDPOINT_EPNUM_MASK);
     ff4:	8b 81       	ldd	r24, Y+3	; 0x03
     ff6:	81 11       	cpse	r24, r1
     ff8:	80 93 f1 00 	sts	0x00F1, r24

			Endpoint_SelectEndpoint(HIDInterfaceInfo->Config.ReportINEndpoint.Address);

			if (ReportID)
     ffc:	69 81       	ldd	r22, Y+1	; 0x01
     ffe:	7a 81       	ldd	r23, Y+2	; 0x02
			 *  \param[in] Data  Data to write into the the currently selected endpoint's FIFO buffer.
			 */
			static inline void Endpoint_Write_8(const uint8_t Data) ATTR_ALWAYS_INLINE;
			static inline void Endpoint_Write_8(const uint8_t Data)
			{
				UEDATX = Data;
    1000:	40 e0       	ldi	r20, 0x00	; 0
    1002:	50 e0       	ldi	r21, 0x00	; 0
			  Endpoint_Write_8(ReportID);

			Endpoint_Write_Stream_LE(ReportINData, ReportINSize, NULL);
    1004:	c6 01       	movw	r24, r12
    1006:	89 d9       	rcall	.-3310   	; 0x31a <Endpoint_Write_Stream_LE>
    1008:	80 91 e8 00 	lds	r24, 0x00E8
    100c:	8e 77       	andi	r24, 0x7E	; 126
    100e:	80 93 e8 00 	sts	0x00E8, r24
			 */
			static inline void Endpoint_ClearIN(void) ATTR_ALWAYS_INLINE;
			static inline void Endpoint_ClearIN(void)
			{
				#if !defined(CONTROL_ONLY_DEVICE)
					UEINTX &= ~((1 << TXINI) | (1 << FIFOCON));
    1012:	80 91 e4 00 	lds	r24, 0x00E4
    1016:	90 91 e5 00 	lds	r25, 0x00E5
    101a:	f7 01       	movw	r30, r14
    101c:	93 87       	std	Z+11, r25	; 0x0b
    101e:	82 87       	std	Z+10, r24	; 0x0a
    1020:	0f b6       	in	r0, 0x3f	; 63
    1022:	f8 94       	cli

			Endpoint_ClearIN();
		}

		HIDInterfaceInfo->State.PrevFrameNum = USB_Device_GetFrameNumber();
    1024:	9e be       	out	0x3e, r9	; 62
    1026:	0f be       	out	0x3f, r0	; 63
    1028:	8d be       	out	0x3d, r8	; 61
    102a:	0f b6       	in	r0, 0x3f	; 63
    102c:	f8 94       	cli
    102e:	be be       	out	0x3e, r11	; 62
    1030:	0f be       	out	0x3f, r0	; 63
    1032:	ad be       	out	0x3d, r10	; 61
	}
}
    1034:	0f 90       	pop	r0
    1036:	0f 90       	pop	r0
    1038:	0f 90       	pop	r0
    103a:	df 91       	pop	r29
    103c:	cf 91       	pop	r28
    103e:	1f 91       	pop	r17
    1040:	0f 91       	pop	r16
    1042:	ff 90       	pop	r15
    1044:	ef 90       	pop	r14
    1046:	df 90       	pop	r13
    1048:	cf 90       	pop	r12
    104a:	bf 90       	pop	r11
    104c:	af 90       	pop	r10
    104e:	9f 90       	pop	r9
    1050:	8f 90       	pop	r8
    1052:	7f 90       	pop	r7
    1054:	6f 90       	pop	r6
    1056:	5f 90       	pop	r5
    1058:	08 95       	ret

0000105a <memcmp>:
    105a:	fb 01       	movw	r30, r22
    105c:	dc 01       	movw	r26, r24
    105e:	04 c0       	rjmp	.+8      	; 0x1068 <memcmp+0xe>
    1060:	8d 91       	ld	r24, X+
    1062:	01 90       	ld	r0, Z+
    1064:	80 19       	sub	r24, r0
    1066:	21 f4       	brne	.+8      	; 0x1070 <memcmp+0x16>
    1068:	41 50       	subi	r20, 0x01	; 1
    106a:	50 40       	sbci	r21, 0x00	; 0
    106c:	c8 f7       	brcc	.-14     	; 0x1060 <memcmp+0x6>
    106e:	88 1b       	sub	r24, r24
    1070:	99 0b       	sbc	r25, r25
    1072:	08 95       	ret

00001074 <memcpy>:
    1074:	fb 01       	movw	r30, r22
    1076:	dc 01       	movw	r26, r24
    1078:	02 c0       	rjmp	.+4      	; 0x107e <memcpy+0xa>
    107a:	01 90       	ld	r0, Z+
    107c:	0d 92       	st	X+, r0
    107e:	41 50       	subi	r20, 0x01	; 1
    1080:	50 40       	sbci	r21, 0x00	; 0
    1082:	d8 f7       	brcc	.-10     	; 0x107a <memcpy+0x6>
    1084:	08 95       	ret

00001086 <memset>:
    1086:	dc 01       	movw	r26, r24
    1088:	01 c0       	rjmp	.+2      	; 0x108c <memset+0x6>
    108a:	6d 93       	st	X+, r22
    108c:	41 50       	subi	r20, 0x01	; 1
    108e:	50 40       	sbci	r21, 0x00	; 0
    1090:	e0 f7       	brcc	.-8      	; 0x108a <memset+0x4>
    1092:	08 95       	ret

00001094 <_exit>:
    1094:	f8 94       	cli

00001096 <__stop_program>:
    1096:	ff cf       	rjmp	.-2      	; 0x1096 <__stop_program>
