
KeyboardHost.elf:     file format elf32-avr

Sections:
Idx Name          Size      VMA       LMA       File off  Algn
  0 .data         0000001a  00800100  00001816  000018aa  2**0
                  CONTENTS, ALLOC, LOAD, DATA
  1 .text         00001816  00000000  00000000  00000094  2**1
                  CONTENTS, ALLOC, LOAD, READONLY, CODE
  2 .bss          00000022  0080011a  0080011a  000018c4  2**0
                  ALLOC
  3 .stab         00002820  00000000  00000000  000018c4  2**2
                  CONTENTS, READONLY, DEBUGGING
  4 .stabstr      000010b2  00000000  00000000  000040e4  2**0
                  CONTENTS, READONLY, DEBUGGING
  5 .comment      00000011  00000000  00000000  00005196  2**0
                  CONTENTS, READONLY
  6 .debug_aranges 000003b0  00000000  00000000  000051a7  2**0
                  CONTENTS, READONLY, DEBUGGING
  7 .debug_info   00005878  00000000  00000000  00005557  2**0
                  CONTENTS, READONLY, DEBUGGING
  8 .debug_abbrev 00001ab4  00000000  00000000  0000adcf  2**0
                  CONTENTS, READONLY, DEBUGGING
  9 .debug_line   00002658  00000000  00000000  0000c883  2**0
                  CONTENTS, READONLY, DEBUGGING
 10 .debug_frame  000009ec  00000000  00000000  0000eedc  2**2
                  CONTENTS, READONLY, DEBUGGING
 11 .debug_str    00002681  00000000  00000000  0000f8c8  2**0
                  CONTENTS, READONLY, DEBUGGING
 12 .debug_loc    00003dab  00000000  00000000  00011f49  2**0
                  CONTENTS, READONLY, DEBUGGING
 13 .debug_ranges 00000400  00000000  00000000  00015cf4  2**0
                  CONTENTS, READONLY, DEBUGGING

Disassembly of section .text:

00000000 <__vectors>:
#include "HIDParser.h"

uint8_t USB_ProcessHIDReport(const uint8_t* ReportData,
                             uint16_t ReportSize,
                             HID_ReportInfo_t* const ParserData)
{
       0:	47 c1       	rjmp	.+654    	; 0x290 <__ctors_end>
       2:	00 00       	nop
       4:	63 c1       	rjmp	.+710    	; 0x2cc <__bad_interrupt>
       6:	00 00       	nop
       8:	61 c1       	rjmp	.+706    	; 0x2cc <__bad_interrupt>
       a:	00 00       	nop
       c:	5f c1       	rjmp	.+702    	; 0x2cc <__bad_interrupt>
       e:	00 00       	nop
      10:	5d c1       	rjmp	.+698    	; 0x2cc <__bad_interrupt>
      12:	00 00       	nop
      14:	5b c1       	rjmp	.+694    	; 0x2cc <__bad_interrupt>
      16:	00 00       	nop
      18:	59 c1       	rjmp	.+690    	; 0x2cc <__bad_interrupt>
      1a:	00 00       	nop
      1c:	57 c1       	rjmp	.+686    	; 0x2cc <__bad_interrupt>
      1e:	00 00       	nop
      20:	55 c1       	rjmp	.+682    	; 0x2cc <__bad_interrupt>
      22:	00 00       	nop
      24:	53 c1       	rjmp	.+678    	; 0x2cc <__bad_interrupt>
      26:	00 00       	nop
      28:	43 c6       	rjmp	.+3206   	; 0xcb0 <__vector_10>
      2a:	00 00       	nop
      2c:	4f c1       	rjmp	.+670    	; 0x2cc <__bad_interrupt>
      2e:	00 00       	nop
      30:	4d c1       	rjmp	.+666    	; 0x2cc <__bad_interrupt>
      32:	00 00       	nop
      34:	4b c1       	rjmp	.+662    	; 0x2cc <__bad_interrupt>
      36:	00 00       	nop
	HID_StateTable_t      StateTable[HID_STATETABLE_STACK_DEPTH];
	HID_StateTable_t*     CurrStateTable     = &StateTable[0];
	HID_CollectionPath_t* CurrCollectionPath = NULL;
	HID_ReportSizeInfo_t* CurrReportIDInfo   = &ParserData->ReportIDSizes[0];
      38:	49 c1       	rjmp	.+658    	; 0x2cc <__bad_interrupt>
      3a:	00 00       	nop
      3c:	47 c1       	rjmp	.+654    	; 0x2cc <__bad_interrupt>
      3e:	00 00       	nop
      40:	45 c1       	rjmp	.+650    	; 0x2cc <__bad_interrupt>
      42:	00 00       	nop
      44:	43 c1       	rjmp	.+646    	; 0x2cc <__bad_interrupt>
	uint16_t              UsageList[HID_USAGE_STACK_DEPTH];
	uint8_t               UsageListSize      = 0;
	HID_MinMax_t          UsageMinMax        = {0, 0};

	memset(ParserData,       0x00, sizeof(HID_ReportInfo_t));
      46:	00 00       	nop
      48:	41 c1       	rjmp	.+642    	; 0x2cc <__bad_interrupt>
      4a:	00 00       	nop
      4c:	3f c1       	rjmp	.+638    	; 0x2cc <__bad_interrupt>
      4e:	00 00       	nop
      50:	3d c1       	rjmp	.+634    	; 0x2cc <__bad_interrupt>
      52:	00 00       	nop
	memset(CurrStateTable,   0x00, sizeof(HID_StateTable_t));
      54:	3b c1       	rjmp	.+630    	; 0x2cc <__bad_interrupt>
      56:	00 00       	nop
      58:	39 c1       	rjmp	.+626    	; 0x2cc <__bad_interrupt>
      5a:	00 00       	nop
      5c:	37 c1       	rjmp	.+622    	; 0x2cc <__bad_interrupt>
      5e:	00 00       	nop
      60:	35 c1       	rjmp	.+618    	; 0x2cc <__bad_interrupt>
	memset(CurrReportIDInfo, 0x00, sizeof(HID_ReportSizeInfo_t));
      62:	00 00       	nop
      64:	33 c1       	rjmp	.+614    	; 0x2cc <__bad_interrupt>
      66:	00 00       	nop
      68:	31 c1       	rjmp	.+610    	; 0x2cc <__bad_interrupt>
      6a:	00 00       	nop

	ParserData->TotalDeviceReports = 1;
      6c:	2f c1       	rjmp	.+606    	; 0x2cc <__bad_interrupt>
      6e:	00 00       	nop
      70:	2d c1       	rjmp	.+602    	; 0x2cc <__bad_interrupt>
      72:	00 00       	nop
      74:	2b c1       	rjmp	.+598    	; 0x2cc <__bad_interrupt>
      76:	00 00       	nop
      78:	29 c1       	rjmp	.+594    	; 0x2cc <__bad_interrupt>
      7a:	00 00       	nop
      7c:	27 c1       	rjmp	.+590    	; 0x2cc <__bad_interrupt>
      7e:	00 00       	nop
	HID_StateTable_t*     CurrStateTable     = &StateTable[0];
	HID_CollectionPath_t* CurrCollectionPath = NULL;
	HID_ReportSizeInfo_t* CurrReportIDInfo   = &ParserData->ReportIDSizes[0];
	uint16_t              UsageList[HID_USAGE_STACK_DEPTH];
	uint8_t               UsageListSize      = 0;
	HID_MinMax_t          UsageMinMax        = {0, 0};
      80:	25 c1       	rjmp	.+586    	; 0x2cc <__bad_interrupt>
      82:	00 00       	nop
      84:	23 c1       	rjmp	.+582    	; 0x2cc <__bad_interrupt>
      86:	00 00       	nop
      88:	21 c1       	rjmp	.+578    	; 0x2cc <__bad_interrupt>
      8a:	00 00       	nop
	HID_StateTable_t      StateTable[HID_STATETABLE_STACK_DEPTH];
	HID_StateTable_t*     CurrStateTable     = &StateTable[0];
	HID_CollectionPath_t* CurrCollectionPath = NULL;
	HID_ReportSizeInfo_t* CurrReportIDInfo   = &ParserData->ReportIDSizes[0];
	uint16_t              UsageList[HID_USAGE_STACK_DEPTH];
	uint8_t               UsageListSize      = 0;
      8c:	1f c1       	rjmp	.+574    	; 0x2cc <__bad_interrupt>
      8e:	00 00       	nop
      90:	1d c1       	rjmp	.+570    	; 0x2cc <__bad_interrupt>
                             uint16_t ReportSize,
                             HID_ReportInfo_t* const ParserData)
{
	HID_StateTable_t      StateTable[HID_STATETABLE_STACK_DEPTH];
	HID_StateTable_t*     CurrStateTable     = &StateTable[0];
	HID_CollectionPath_t* CurrCollectionPath = NULL;
      92:	00 00       	nop
      94:	1b c1       	rjmp	.+566    	; 0x2cc <__bad_interrupt>
      96:	00 00       	nop

00000098 <__c.4565>:
      98:	1b 5b 33 31 6d 44 65 76 20 45 6e 75 6d 20 45 72     .[31mDev Enum Er

					NewReportItem.BitOffset = CurrReportIDInfo->ReportSizeBits[NewReportItem.ItemType];

					CurrReportIDInfo->ReportSizeBits[NewReportItem.ItemType] += CurrStateTable->Attributes.BitSize;

					ParserData->LargestReportSizeBits = MAX(ParserData->LargestReportSizeBits, CurrReportIDInfo->ReportSizeBits[NewReportItem.ItemType]);
      a8:	72 6f 72 0d 0a 20 2d 2d 20 45 72 72 6f 72 20 43     ror.. -- Error C

					CurrCollectionPath = &ParserData->CollectionPaths[1];

					while (CurrCollectionPath->Parent != NULL)
					{
						if (CurrCollectionPath == &ParserData->CollectionPaths[HID_MAX_COLLECTIONS - 1])
      b8:	6f 64 65 20 25 64 0d 0a 20 2d 2d 20 53 75 62 20     ode %d.. -- Sub 
				break;

			case HID_RI_REPORT_ID(0):
				CurrStateTable->ReportID                    = ReportItemData;

				if (ParserData->UsingReportIDs)
      c8:	45 72 72 6f 72 20 43 6f 64 65 20 25 64 0d 0a 20     Error Code %d.. 
	memset(CurrStateTable,   0x00, sizeof(HID_StateTable_t));
	memset(CurrReportIDInfo, 0x00, sizeof(HID_ReportSizeInfo_t));

	ParserData->TotalDeviceReports = 1;

	while (ReportSize)
      d8:	2d 2d 20 49 6e 20 53 74 61 74 65 20 25 64 0d 0a     -- In State %d..
		uint32_t ReportItemData;

		ReportData++;
		ReportSize--;

		switch (HIDReportItem & HID_RI_DATA_SIZE_MASK)
      e8:	1b 5b 33 37 6d 00                                   .[37m.

000000ee <__c.4558>:
      ee:	1b 5b 33 31 6d 48 6f 73 74 20 4d 6f 64 65 20 45     .[31mHost Mode E
	{
		uint8_t  HIDReportItem  = *ReportData;
		uint32_t ReportItemData;

		ReportData++;
		ReportSize--;
      fe:	72 72 6f 72 0d 0a 20 2d 2d 20 45 72 72 6f 72 20     rror.. -- Error 

		switch (HIDReportItem & HID_RI_DATA_SIZE_MASK)
		{
			case HID_RI_DATA_BITS_32:
				ReportItemData  = (((uint32_t)ReportData[3] << 24) | ((uint32_t)ReportData[2] << 16) |
     10e:	43 6f 64 65 20 25 64 0d 0a 1b 5b 33 37 6d 00        Code %d...[37m.

0000011d <__c.4553>:
     11d:	4b 65 79 62 6f 61 72 64 20 45 6e 75 6d 65 72 61     Keyboard Enumera
     12d:	74 65 64 2e 0d 0a 00                                ted....

00000134 <__c.4551>:
			                       ((uint16_t)ReportData[1] << 8)  | ReportData[0]);
     134:	1b 5b 33 31 6d 43 6f 6e 74 72 6f 6c 20 45 72 72     .[31mControl Err
				ReportSize     -= 4;
     144:	6f 72 20 28 53 65 74 20 50 72 6f 74 6f 63 6f 6c     or (Set Protocol
				ReportData     += 4;
				break;

			case HID_RI_DATA_BITS_16:
				ReportItemData  = (((uint16_t)ReportData[1] << 8) | (ReportData[0]));
     154:	29 2e 0d 0a 20 2d 2d 20 45 72 72 6f 72 20 43 6f     )... -- Error Co
				ReportSize     -= 2;
     164:	64 65 3a 20 25 64 0d 0a 1b 5b 33 37 6d 00           de: %d...[37m.

00000172 <__c.4548>:
				ReportData     += 2;
				break;

			case HID_RI_DATA_BITS_8:
				ReportItemData  = ReportData[0];
     172:	1b 5b 33 31 6d 43 6f 6e 74 72 6f 6c 20 45 72 72     .[31mControl Err
				ReportSize     -= 1;
				ReportData     += 1;
     182:	6f 72 20 28 53 65 74 20 43 6f 6e 66 69 67 75 72     or (Set Configur
			default:
				ReportItemData  = 0;
				break;
		}

		switch (HIDReportItem & (HID_RI_TYPE_MASK | HID_RI_TAG_MASK))
     192:	61 74 69 6f 6e 29 2e 0d 0a 20 2d 2d 20 45 72 72     ation)... -- Err
     1a2:	6f 72 20 43 6f 64 65 3a 20 25 64 0d 0a 1b 5b 33     or Code: %d...[3

			case HID_RI_USAGE_PAGE(0):
				if ((HIDReportItem & HID_RI_DATA_SIZE_MASK) == HID_RI_DATA_BITS_32)
				  CurrStateTable->Attributes.Usage.Page = (ReportItemData >> 16);

				CurrStateTable->Attributes.Usage.Page       = ReportItemData;
     1b2:	37 6d 00                                            7m.

000001b5 <__c.4546>:
				break;
     1b5:	20 2d 2d 20 45 72 72 6f 72 20 43 6f 64 65 3a 20      -- Error Code: 
			default:
				ReportItemData  = 0;
				break;
		}

		switch (HIDReportItem & (HID_RI_TYPE_MASK | HID_RI_TAG_MASK))
     1c5:	25 64 0d 0a 1b 5b 33 37 6d 00                       %d...[37m.

000001cf <__c.4544>:
     1cf:	1b 5b 33 31 6d 49 6e 76 61 6c 69 64 20 44 65 76     .[31mInvalid Dev
     1df:	69 63 65 2e 0d 0a 00                                ice....

000001e6 <__c.4542>:
     1e6:	1b 5b 33 31 6d 43 6f 6e 74 72 6f 6c 20 45 72 72     .[31mControl Err
     1f6:	6f 72 20 28 47 65 74 20 43 6f 6e 66 69 67 75 72     or (Get Configur
				CurrStateTable->Attributes.Unit.Type        = ReportItemData;
				break;

			case HID_RI_REPORT_SIZE(0):
				CurrStateTable->Attributes.BitSize          = ReportItemData;
				break;
     206:	61 74 69 6f 6e 29 2e 0d 0a 00                       ation)....

00000210 <__c.4539>:
			default:
				ReportItemData  = 0;
				break;
		}

		switch (HIDReportItem & (HID_RI_TYPE_MASK | HID_RI_TAG_MASK))
     210:	47 65 74 74 69 6e 67 20 43 6f 6e 66 69 67 20 44     Getting Config D
     220:	61 74 61 2e 0d 0a 00                                ata....

00000227 <__c.4534>:
     227:	1b 5b 33 32 6d 44 65 76 69 63 65 20 55 6e 61 74     .[32mDevice Unat
					  return HID_PARSE_InsufficientReportItems;

					memcpy(&ParserData->ReportItems[ParserData->TotalReportItems],
					       &NewReportItem, sizeof(HID_ReportItem_t));

					if (!(ReportItemData & HID_IOF_CONSTANT) && CALLBACK_HIDParser_FilterHIDReportItem(&NewReportItem))
     237:	74 61 63 68 65 64 2e 0d 0a 1b 5b 33 37 6d 00        tached....[37m.

00000246 <__c.4529>:
     246:	1b 5b 33 32 6d 44 65 76 69 63 65 20 41 74 74 61     .[32mDevice Atta
		}

		switch (HIDReportItem & (HID_RI_TYPE_MASK | HID_RI_TAG_MASK))
		{
			case HID_RI_PUSH(0):
				if (CurrStateTable == &StateTable[HID_STATETABLE_STACK_DEPTH - 1])
     256:	63 68 65 64 2e 0d 0a 1b 5b 33 37 6d 00              ched....[37m.

00000263 <__c.4520>:
				  return HID_PARSE_HIDStackOverflow;

				memcpy((CurrStateTable + 1),
     263:	1b 5b 33 36 6d 4b 65 79 62 6f 61 72 64 20 48 49     .[36mKeyboard HI
				       CurrStateTable,
				       sizeof(HID_ReportItem_t));

				CurrStateTable++;
				break;
     273:	44 20 48 6f 73 74 20 44 65 6d 6f 20 72 75 6e 6e     D Host Demo runn

			case HID_RI_POP(0):
				if (CurrStateTable == &StateTable[0])
				  return HID_PARSE_HIDStackUnderflow;

				CurrStateTable--;
     283:	69 6e 67 2e 0d 0a 1b 5b 33 37 6d 00 00              ing....[37m..

00000290 <__ctors_end>:
				CurrStateTable->Attributes.Usage.Page       = ReportItemData;
				break;

			case HID_RI_LOGICAL_MINIMUM(0):
				CurrStateTable->Attributes.Logical.Minimum  = ReportItemData;
				break;
     290:	11 24       	eor	r1, r1

			case HID_RI_LOGICAL_MAXIMUM(0):
				CurrStateTable->Attributes.Logical.Maximum  = ReportItemData;
     292:	1f be       	out	0x3f, r1	; 63
     294:	cf ef       	ldi	r28, 0xFF	; 255
     296:	d0 e2       	ldi	r29, 0x20	; 32
     298:	de bf       	out	0x3e, r29	; 62
     29a:	cd bf       	out	0x3d, r28	; 61

0000029c <__do_copy_data>:
     29c:	11 e0       	ldi	r17, 0x01	; 1
     29e:	a0 e0       	ldi	r26, 0x00	; 0
				break;
     2a0:	b1 e0       	ldi	r27, 0x01	; 1

			case HID_RI_PHYSICAL_MINIMUM(0):
				CurrStateTable->Attributes.Physical.Minimum = ReportItemData;
     2a2:	e6 e1       	ldi	r30, 0x16	; 22
     2a4:	f8 e1       	ldi	r31, 0x18	; 24
     2a6:	00 e0       	ldi	r16, 0x00	; 0
     2a8:	0b bf       	out	0x3b, r16	; 59
     2aa:	02 c0       	rjmp	.+4      	; 0x2b0 <__do_copy_data+0x14>
				break;
     2ac:	07 90       	elpm	r0, Z+

			case HID_RI_PHYSICAL_MAXIMUM(0):
				CurrStateTable->Attributes.Physical.Maximum = ReportItemData;
     2ae:	0d 92       	st	X+, r0
     2b0:	aa 31       	cpi	r26, 0x1A	; 26
     2b2:	b1 07       	cpc	r27, r17
     2b4:	d9 f7       	brne	.-10     	; 0x2ac <__do_copy_data+0x10>

000002b6 <__do_clear_bss>:
     2b6:	11 e0       	ldi	r17, 0x01	; 1
     2b8:	aa e1       	ldi	r26, 0x1A	; 26
     2ba:	b1 e0       	ldi	r27, 0x01	; 1
				break;
     2bc:	01 c0       	rjmp	.+2      	; 0x2c0 <.do_clear_bss_start>

000002be <.do_clear_bss_loop>:
			case HID_RI_UNIT_EXPONENT(0):
				CurrStateTable->Attributes.Unit.Exponent    = ReportItemData;
				break;

			case HID_RI_UNIT(0):
				CurrStateTable->Attributes.Unit.Type        = ReportItemData;
     2be:	1d 92       	st	X+, r1

000002c0 <.do_clear_bss_start>:
     2c0:	ac 33       	cpi	r26, 0x3C	; 60
     2c2:	b1 07       	cpc	r27, r17
     2c4:	e1 f7       	brne	.-8      	; 0x2be <.do_clear_bss_loop>
     2c6:	20 d1       	rcall	.+576    	; 0x508 <main>
     2c8:	0c 94 09 0c 	jmp	0x1812	; 0x1812 <_exit>

000002cc <__bad_interrupt>:
				break;
     2cc:	99 ce       	rjmp	.-718    	; 0x0 <__vectors>

000002ce <LEDs_SetAllLEDs>:
			case HID_RI_REPORT_SIZE(0):
				CurrStateTable->Attributes.BitSize          = ReportItemData;
				break;

			case HID_RI_REPORT_COUNT(0):
				CurrStateTable->ReportCount                 = ReportItemData;
     2ce:	9b b1       	in	r25, 0x0b	; 11
     2d0:	9f 70       	andi	r25, 0x0F	; 15
     2d2:	98 2b       	or	r25, r24
				break;
     2d4:	9b b9       	out	0x0b, r25	; 11

			case HID_RI_REPORT_ID(0):
				CurrStateTable->ReportID                    = ReportItemData;
     2d6:	08 95       	ret

000002d8 <SetupHardware>:
     2d8:	84 b7       	in	r24, 0x34	; 52
     2da:	87 7f       	andi	r24, 0xF7	; 247

				if (ParserData->UsingReportIDs)
     2dc:	84 bf       	out	0x34, r24	; 52
     2de:	88 e1       	ldi	r24, 0x18	; 24
     2e0:	0f b6       	in	r0, 0x3f	; 63
     2e2:	f8 94       	cli
     2e4:	80 93 60 00 	sts	0x0060, r24
     2e8:	10 92 60 00 	sts	0x0060, r1
				{
					CurrReportIDInfo = NULL;

					for (uint8_t i = 0; i < ParserData->TotalDeviceReports; i++)
     2ec:	0f be       	out	0x3f, r0	; 63
     2ee:	90 e0       	ldi	r25, 0x00	; 0
     2f0:	80 e8       	ldi	r24, 0x80	; 128
     2f2:	0f b6       	in	r0, 0x3f	; 63
     2f4:	f8 94       	cli
     2f6:	80 93 61 00 	sts	0x0061, r24
     2fa:	90 93 61 00 	sts	0x0061, r25
     2fe:	0f be       	out	0x3f, r0	; 63
     300:	83 e3       	ldi	r24, 0x33	; 51
     302:	90 e0       	ldi	r25, 0x00	; 0
					{
						if (ParserData->ReportIDSizes[i].ReportID == CurrStateTable->ReportID)
     304:	90 93 cd 00 	sts	0x00CD, r25
     308:	80 93 cc 00 	sts	0x00CC, r24
     30c:	86 e0       	ldi	r24, 0x06	; 6
     30e:	80 93 ca 00 	sts	0x00CA, r24
     312:	10 92 c8 00 	sts	0x00C8, r1
     316:	88 e1       	ldi	r24, 0x18	; 24
						{
							CurrReportIDInfo = &ParserData->ReportIDSizes[i];
     318:	80 93 c9 00 	sts	0x00C9, r24
     31c:	53 9a       	sbi	0x0a, 3	; 10
     31e:	5a 9a       	sbi	0x0b, 2	; 11
     320:	8a b1       	in	r24, 0x0a	; 10
     322:	80 6f       	ori	r24, 0xF0	; 240
     324:	8a b9       	out	0x0a, r24	; 10
     326:	8b b1       	in	r24, 0x0b	; 11
     328:	8f 70       	andi	r24, 0x0F	; 15
     32a:	8b b9       	out	0x0b, r24	; 11
     32c:	a6 d4       	rcall	.+2380   	; 0xc7a <USB_Init>
     32e:	80 e0       	ldi	r24, 0x00	; 0
     330:	90 e0       	ldi	r25, 0x00	; 0
     332:	6b c7       	rjmp	.+3798   	; 0x120a <Serial_CreateStream>

00000334 <EVENT_USB_Host_DeviceAttached>:
     334:	86 e4       	ldi	r24, 0x46	; 70
     336:	92 e0       	ldi	r25, 0x02	; 2
						}
					}

					if (CurrReportIDInfo == NULL)
					{
						if (ParserData->TotalDeviceReports == HID_MAX_REPORT_IDS)
     338:	db d7       	rcall	.+4022   	; 0x12f0 <puts_P>
     33a:	80 ea       	ldi	r24, 0xA0	; 160
     33c:	c8 cf       	rjmp	.-112    	; 0x2ce <LEDs_SetAllLEDs>

0000033e <EVENT_USB_Host_DeviceUnattached>:
						  return HID_PARSE_InsufficientReportIDItems;

						CurrReportIDInfo = &ParserData->ReportIDSizes[ParserData->TotalDeviceReports++];
     33e:	87 e2       	ldi	r24, 0x27	; 39
     340:	92 e0       	ldi	r25, 0x02	; 2
     342:	d6 d7       	rcall	.+4012   	; 0x12f0 <puts_P>
     344:	80 e1       	ldi	r24, 0x10	; 16
     346:	c3 cf       	rjmp	.-122    	; 0x2ce <LEDs_SetAllLEDs>

00000348 <EVENT_USB_Host_DeviceEnumerationComplete>:
     348:	cf 93       	push	r28
     34a:	80 e1       	ldi	r24, 0x10	; 16
     34c:	92 e0       	ldi	r25, 0x02	; 2
     34e:	d0 d7       	rcall	.+4000   	; 0x12f0 <puts_P>
     350:	ff d0       	rcall	.+510    	; 0x550 <ProcessConfigurationDescriptor>
     352:	c8 2f       	mov	r28, r24
     354:	88 23       	and	r24, r24
     356:	a9 f0       	breq	.+42     	; 0x382 <EVENT_USB_Host_DeviceEnumerationComplete+0x3a>
     358:	81 30       	cpi	r24, 0x01	; 1
     35a:	19 f4       	brne	.+6      	; 0x362 <EVENT_USB_Host_DeviceEnumerationComplete+0x1a>
     35c:	86 ee       	ldi	r24, 0xE6	; 230
     35e:	91 e0       	ldi	r25, 0x01	; 1
     360:	02 c0       	rjmp	.+4      	; 0x366 <EVENT_USB_Host_DeviceEnumerationComplete+0x1e>
     362:	8f ec       	ldi	r24, 0xCF	; 207
						memset(CurrReportIDInfo, 0x00, sizeof(HID_ReportSizeInfo_t));
     364:	91 e0       	ldi	r25, 0x01	; 1
     366:	c4 d7       	rcall	.+3976   	; 0x12f0 <puts_P>
     368:	1f 92       	push	r1
     36a:	cf 93       	push	r28
					}
				}

				ParserData->UsingReportIDs = true;
     36c:	85 eb       	ldi	r24, 0xB5	; 181
     36e:	91 e0       	ldi	r25, 0x01	; 1
     370:	9f 93       	push	r25
     372:	8f 93       	push	r24
     374:	9a d7       	rcall	.+3892   	; 0x12aa <printf_P>
     376:	0f 90       	pop	r0

				CurrReportIDInfo->ReportID = CurrStateTable->ReportID;
     378:	0f 90       	pop	r0
     37a:	0f 90       	pop	r0
     37c:	0f 90       	pop	r0
     37e:	80 e9       	ldi	r24, 0x90	; 144
     380:	2d c0       	rjmp	.+90     	; 0x3dc <EVENT_USB_Host_DeviceEnumerationComplete+0x94>
     382:	81 e0       	ldi	r24, 0x01	; 1
     384:	f3 d6       	rcall	.+3558   	; 0x116c <USB_Host_SetDeviceConfiguration>
     386:	88 23       	and	r24, r24
				break;
     388:	29 f0       	breq	.+10     	; 0x394 <EVENT_USB_Host_DeviceEnumerationComplete+0x4c>

			case HID_RI_USAGE(0):
				if (UsageListSize == HID_USAGE_STACK_DEPTH)
     38a:	1f 92       	push	r1
     38c:	8f 93       	push	r24
     38e:	82 e7       	ldi	r24, 0x72	; 114
     390:	91 e0       	ldi	r25, 0x01	; 1
     392:	ee cf       	rjmp	.-36     	; 0x370 <EVENT_USB_Host_DeviceEnumerationComplete+0x28>
     394:	88 e0       	ldi	r24, 0x08	; 8
				  return HID_PARSE_UsageListOverflow;

				UsageList[UsageListSize++] = ReportItemData;
     396:	e1 e0       	ldi	r30, 0x01	; 1
     398:	f1 e0       	ldi	r31, 0x01	; 1
     39a:	af e1       	ldi	r26, 0x1F	; 31
     39c:	b1 e0       	ldi	r27, 0x01	; 1
     39e:	01 90       	ld	r0, Z+
     3a0:	0d 92       	st	X+, r0
     3a2:	8a 95       	dec	r24
     3a4:	e1 f7       	brne	.-8      	; 0x39e <EVENT_USB_Host_DeviceEnumerationComplete+0x56>
     3a6:	10 92 a7 00 	sts	0x00A7, r1
     3aa:	80 e0       	ldi	r24, 0x00	; 0
     3ac:	90 e0       	ldi	r25, 0x00	; 0
     3ae:	e3 d5       	rcall	.+3014   	; 0xf76 <USB_Host_SendControlRequest>
				break;
     3b0:	88 23       	and	r24, r24
			case HID_RI_USAGE_MAXIMUM(0):
				UsageMinMax.Maximum = ReportItemData;
				break;

			case HID_RI_COLLECTION(0):
				if (CurrCollectionPath == NULL)
     3b2:	81 f0       	breq	.+32     	; 0x3d4 <EVENT_USB_Host_DeviceEnumerationComplete+0x8c>
     3b4:	1f 92       	push	r1
     3b6:	8f 93       	push	r24
     3b8:	84 e3       	ldi	r24, 0x34	; 52
     3ba:	91 e0       	ldi	r25, 0x01	; 1
     3bc:	9f 93       	push	r25
				{
					CurrCollectionPath = &ParserData->CollectionPaths[0];
     3be:	8f 93       	push	r24
     3c0:	74 d7       	rcall	.+3816   	; 0x12aa <printf_P>
     3c2:	80 e9       	ldi	r24, 0x90	; 144
     3c4:	84 df       	rcall	.-248    	; 0x2ce <LEDs_SetAllLEDs>
     3c6:	0f 90       	pop	r0
     3c8:	0f 90       	pop	r0
     3ca:	0f 90       	pop	r0
     3cc:	0f 90       	pop	r0
				}
				else
				{
					HID_CollectionPath_t* ParentCollectionPath = CurrCollectionPath;

					CurrCollectionPath = &ParserData->CollectionPaths[1];
     3ce:	80 e0       	ldi	r24, 0x00	; 0
     3d0:	cf 91       	pop	r28
     3d2:	cc c6       	rjmp	.+3480   	; 0x116c <USB_Host_SetDeviceConfiguration>

					while (CurrCollectionPath->Parent != NULL)
     3d4:	8d e1       	ldi	r24, 0x1D	; 29
     3d6:	91 e0       	ldi	r25, 0x01	; 1
     3d8:	8b d7       	rcall	.+3862   	; 0x12f0 <puts_P>
     3da:	80 e6       	ldi	r24, 0x60	; 96
					{
						if (CurrCollectionPath == &ParserData->CollectionPaths[HID_MAX_COLLECTIONS - 1])
     3dc:	cf 91       	pop	r28
     3de:	77 cf       	rjmp	.-274    	; 0x2ce <LEDs_SetAllLEDs>

000003e0 <EVENT_USB_Host_HostError>:
     3e0:	cf 93       	push	r28
     3e2:	df 93       	push	r29
     3e4:	1f 92       	push	r1
     3e6:	cd b7       	in	r28, 0x3d	; 61
     3e8:	de b7       	in	r29, 0x3e	; 62
     3ea:	89 83       	std	Y+1, r24	; 0x01
     3ec:	de d3       	rcall	.+1980   	; 0xbaa <USB_Disable>
     3ee:	1f 92       	push	r1
						  return HID_PARSE_InsufficientCollectionPaths;

						CurrCollectionPath++;
     3f0:	89 81       	ldd	r24, Y+1	; 0x01
     3f2:	8f 93       	push	r24
					}

					CurrCollectionPath->Parent = ParentCollectionPath;
     3f4:	8e ee       	ldi	r24, 0xEE	; 238
     3f6:	90 e0       	ldi	r25, 0x00	; 0
     3f8:	9f 93       	push	r25
     3fa:	8f 93       	push	r24
     3fc:	56 d7       	rcall	.+3756   	; 0x12aa <printf_P>
     3fe:	80 e9       	ldi	r24, 0x90	; 144
     400:	66 df       	rcall	.-308    	; 0x2ce <LEDs_SetAllLEDs>
     402:	0f 90       	pop	r0
     404:	0f 90       	pop	r0
     406:	0f 90       	pop	r0
				}

				CurrCollectionPath->Type       = ReportItemData;
     408:	0f 90       	pop	r0
     40a:	ff cf       	rjmp	.-2      	; 0x40a <EVENT_USB_Host_HostError+0x2a>

0000040c <EVENT_USB_Host_DeviceEnumerationFailed>:
     40c:	90 91 27 01 	lds	r25, 0x0127
     410:	1f 92       	push	r1
				CurrCollectionPath->Usage.Page = CurrStateTable->Attributes.Usage.Page;
     412:	9f 93       	push	r25
     414:	1f 92       	push	r1
     416:	6f 93       	push	r22
     418:	1f 92       	push	r1
     41a:	8f 93       	push	r24
     41c:	88 e9       	ldi	r24, 0x98	; 152
     41e:	90 e0       	ldi	r25, 0x00	; 0

				if (UsageListSize)
     420:	9f 93       	push	r25
     422:	8f 93       	push	r24
     424:	42 d7       	rcall	.+3716   	; 0x12aa <printf_P>
     426:	8d b7       	in	r24, 0x3d	; 61
     428:	9e b7       	in	r25, 0x3e	; 62
				{
					CurrCollectionPath->Usage.Usage = UsageList[0];
     42a:	08 96       	adiw	r24, 0x08	; 8
     42c:	0f b6       	in	r0, 0x3f	; 63
     42e:	f8 94       	cli
     430:	9e bf       	out	0x3e, r25	; 62
     432:	0f be       	out	0x3f, r0	; 63
     434:	8d bf       	out	0x3d, r24	; 61
     436:	80 e9       	ldi	r24, 0x90	; 144
     438:	4a cf       	rjmp	.-364    	; 0x2ce <LEDs_SetAllLEDs>

0000043a <KeyboardHost_Task>:
     43a:	cf 93       	push	r28
     43c:	df 93       	push	r29
     43e:	cd b7       	in	r28, 0x3d	; 61

					for (uint8_t i = 1; i < UsageListSize; i++)
     440:	de b7       	in	r29, 0x3e	; 62
     442:	28 97       	sbiw	r28, 0x08	; 8
     444:	0f b6       	in	r0, 0x3f	; 63
     446:	f8 94       	cli
     448:	de bf       	out	0x3e, r29	; 62
     44a:	0f be       	out	0x3f, r0	; 63
					  UsageList[i - 1] = UsageList[i];
     44c:	cd bf       	out	0x3d, r28	; 61
     44e:	80 91 27 01 	lds	r24, 0x0127
     452:	8b 30       	cpi	r24, 0x0B	; 11

				if (UsageListSize)
				{
					CurrCollectionPath->Usage.Usage = UsageList[0];

					for (uint8_t i = 1; i < UsageListSize; i++)
     454:	09 f0       	breq	.+2      	; 0x458 <KeyboardHost_Task+0x1e>
     456:	4f c0       	rjmp	.+158    	; 0x4f6 <KeyboardHost_Task+0xbc>
					  UsageList[i - 1] = UsageList[i];

					UsageListSize--;
     458:	81 e0       	ldi	r24, 0x01	; 1
     45a:	80 93 a7 00 	sts	0x00A7, r24
     45e:	80 91 a9 00 	lds	r24, 0x00A9
				}
				else if (UsageMinMax.Minimum <= UsageMinMax.Maximum)
     462:	8f 7b       	andi	r24, 0xBF	; 191
     464:	80 93 a9 00 	sts	0x00A9, r24
     468:	80 91 a6 00 	lds	r24, 0x00A6
     46c:	80 ff       	sbrs	r24, 0
				{
					CurrCollectionPath->Usage.Usage = UsageMinMax.Minimum++;
     46e:	31 c0       	rjmp	.+98     	; 0x4d2 <KeyboardHost_Task+0x98>
     470:	80 91 a6 00 	lds	r24, 0x00A6
     474:	85 ff       	sbrs	r24, 5
     476:	28 c0       	rjmp	.+80     	; 0x4c8 <KeyboardHost_Task+0x8e>
     478:	40 e0       	ldi	r20, 0x00	; 0
     47a:	50 e0       	ldi	r21, 0x00	; 0
     47c:	68 e0       	ldi	r22, 0x08	; 8
     47e:	70 e0       	ldi	r23, 0x00	; 0
     480:	ce 01       	movw	r24, r28
     482:	01 96       	adiw	r24, 0x01	; 1
     484:	9b d2       	rcall	.+1334   	; 0x9bc <Pipe_Read_Stream_LE>
     486:	89 81       	ldd	r24, Y+1	; 0x01
     488:	88 23       	and	r24, r24
				}

				break;

			case HID_RI_END_COLLECTION(0):
				if (CurrCollectionPath == NULL)
     48a:	11 f0       	breq	.+4      	; 0x490 <KeyboardHost_Task+0x56>
     48c:	90 e1       	ldi	r25, 0x10	; 16
     48e:	01 c0       	rjmp	.+2      	; 0x492 <KeyboardHost_Task+0x58>
     490:	90 e0       	ldi	r25, 0x00	; 0
     492:	8b b1       	in	r24, 0x0b	; 11
     494:	8f 7e       	andi	r24, 0xEF	; 239
     496:	89 2b       	or	r24, r25
     498:	8b b9       	out	0x0b, r24	; 11
				  return HID_PARSE_UnexpectedEndCollection;

				CurrCollectionPath = CurrCollectionPath->Parent;
     49a:	8b 81       	ldd	r24, Y+3	; 0x03
     49c:	88 23       	and	r24, r24
     49e:	a1 f0       	breq	.+40     	; 0x4c8 <KeyboardHost_Task+0x8e>
     4a0:	90 e2       	ldi	r25, 0x20	; 32
     4a2:	99 b9       	out	0x09, r25	; 9
     4a4:	9c ef       	ldi	r25, 0xFC	; 252
     4a6:	98 0f       	add	r25, r24
     4a8:	9a 31       	cpi	r25, 0x1A	; 26
     4aa:	10 f4       	brcc	.+4      	; 0x4b0 <KeyboardHost_Task+0x76>
				break;
     4ac:	83 5c       	subi	r24, 0xC3	; 195
					ParserData->LargestReportSizeBits = MAX(ParserData->LargestReportSizeBits, CurrReportIDInfo->ReportSizeBits[NewReportItem.ItemType]);

					if (ParserData->TotalReportItems == HID_MAX_REPORTITEMS)
					  return HID_PARSE_InsufficientReportItems;

					memcpy(&ParserData->ReportItems[ParserData->TotalReportItems],
     4ae:	1c c0       	rjmp	.+56     	; 0x4e8 <KeyboardHost_Task+0xae>
     4b0:	92 ee       	ldi	r25, 0xE2	; 226
     4b2:	98 0f       	add	r25, r24
     4b4:	99 30       	cpi	r25, 0x09	; 9
     4b6:	10 f4       	brcc	.+4      	; 0x4bc <KeyboardHost_Task+0x82>
     4b8:	8d 5e       	subi	r24, 0xED	; 237
     4ba:	16 c0       	rjmp	.+44     	; 0x4e8 <KeyboardHost_Task+0xae>
     4bc:	87 32       	cpi	r24, 0x27	; 39
     4be:	79 f0       	breq	.+30     	; 0x4de <KeyboardHost_Task+0xa4>
     4c0:	8c 32       	cpi	r24, 0x2C	; 44
     4c2:	79 f0       	breq	.+30     	; 0x4e2 <KeyboardHost_Task+0xa8>
     4c4:	88 32       	cpi	r24, 0x28	; 40
     4c6:	79 f0       	breq	.+30     	; 0x4e6 <KeyboardHost_Task+0xac>
     4c8:	80 91 a6 00 	lds	r24, 0x00A6
					       &NewReportItem, sizeof(HID_ReportItem_t));

					if (!(ReportItemData & HID_IOF_CONSTANT) && CALLBACK_HIDParser_FilterHIDReportItem(&NewReportItem))
     4cc:	8e 77       	andi	r24, 0x7E	; 126
     4ce:	80 93 a6 00 	sts	0x00A6, r24
     4d2:	80 91 a9 00 	lds	r24, 0x00A9
     4d6:	80 64       	ori	r24, 0x40	; 64
     4d8:	80 93 a9 00 	sts	0x00A9, r24
     4dc:	0c c0       	rjmp	.+24     	; 0x4f6 <KeyboardHost_Task+0xbc>
     4de:	80 e3       	ldi	r24, 0x30	; 48
     4e0:	03 c0       	rjmp	.+6      	; 0x4e8 <KeyboardHost_Task+0xae>
     4e2:	80 e2       	ldi	r24, 0x20	; 32
				break;

			case HID_RI_INPUT(0):
			case HID_RI_OUTPUT(0):
			case HID_RI_FEATURE(0):
				for (uint8_t ReportItemNum = 0; ReportItemNum < CurrStateTable->ReportCount; ReportItemNum++)
     4e4:	01 c0       	rjmp	.+2      	; 0x4e8 <KeyboardHost_Task+0xae>
     4e6:	8a e0       	ldi	r24, 0x0A	; 10
     4e8:	60 91 38 01 	lds	r22, 0x0138
     4ec:	70 91 39 01 	lds	r23, 0x0139
				{
					HID_ReportItem_t NewReportItem;

					memcpy(&NewReportItem.Attributes,
     4f0:	90 e0       	ldi	r25, 0x00	; 0
     4f2:	a9 d6       	rcall	.+3410   	; 0x1246 <fputc>
     4f4:	e9 cf       	rjmp	.-46     	; 0x4c8 <KeyboardHost_Task+0x8e>
     4f6:	28 96       	adiw	r28, 0x08	; 8
     4f8:	0f b6       	in	r0, 0x3f	; 63
     4fa:	f8 94       	cli
     4fc:	de bf       	out	0x3e, r29	; 62
     4fe:	0f be       	out	0x3f, r0	; 63
     500:	cd bf       	out	0x3d, r28	; 61
					       &CurrStateTable->Attributes,
					       sizeof(HID_ReportItem_Attributes_t));

					NewReportItem.ItemFlags      = ReportItemData;
     502:	df 91       	pop	r29
     504:	cf 91       	pop	r28
					NewReportItem.CollectionPath = CurrCollectionPath;
     506:	08 95       	ret

00000508 <main>:
     508:	e7 de       	rcall	.-562    	; 0x2d8 <SetupHardware>
     50a:	83 e6       	ldi	r24, 0x63	; 99
     50c:	92 e0       	ldi	r25, 0x02	; 2
     50e:	f0 d6       	rcall	.+3552   	; 0x12f0 <puts_P>
     510:	80 e1       	ldi	r24, 0x10	; 16
     512:	dd de       	rcall	.-582    	; 0x2ce <LEDs_SetAllLEDs>
     514:	78 94       	sei
					NewReportItem.ReportID       = CurrStateTable->ReportID;
     516:	91 df       	rcall	.-222    	; 0x43a <KeyboardHost_Task>
     518:	50 d6       	rcall	.+3232   	; 0x11ba <USB_USBTask>
     51a:	fd cf       	rjmp	.-6      	; 0x516 <main+0xe>

0000051c <DComp_NextKeyboardInterface>:
     51c:	fc 01       	movw	r30, r24

					if (UsageListSize)
     51e:	81 81       	ldd	r24, Z+1	; 0x01
     520:	84 30       	cpi	r24, 0x04	; 4
     522:	41 f4       	brne	.+16     	; 0x534 <DComp_NextKeyboardInterface+0x18>
     524:	85 81       	ldd	r24, Z+5	; 0x05
     526:	83 30       	cpi	r24, 0x03	; 3
					{
						NewReportItem.Attributes.Usage.Usage = UsageList[0];
     528:	29 f4       	brne	.+10     	; 0x534 <DComp_NextKeyboardInterface+0x18>
     52a:	87 81       	ldd	r24, Z+7	; 0x07
     52c:	81 30       	cpi	r24, 0x01	; 1
     52e:	11 f4       	brne	.+4      	; 0x534 <DComp_NextKeyboardInterface+0x18>
     530:	80 e0       	ldi	r24, 0x00	; 0
     532:	08 95       	ret
     534:	82 e0       	ldi	r24, 0x02	; 2
     536:	08 95       	ret

00000538 <DComp_NextKeyboardInterfaceDataEndpoint>:
     538:	fc 01       	movw	r30, r24
     53a:	81 81       	ldd	r24, Z+1	; 0x01
     53c:	85 30       	cpi	r24, 0x05	; 5

						for (uint8_t i = 1; i < UsageListSize; i++)
     53e:	21 f0       	breq	.+8      	; 0x548 <DComp_NextKeyboardInterfaceDataEndpoint+0x10>
     540:	84 30       	cpi	r24, 0x04	; 4
     542:	21 f4       	brne	.+8      	; 0x54c <DComp_NextKeyboardInterfaceDataEndpoint+0x14>
     544:	81 e0       	ldi	r24, 0x01	; 1
     546:	08 95       	ret
     548:	80 e0       	ldi	r24, 0x00	; 0
						  UsageList[i - 1] = UsageList[i];
     54a:	08 95       	ret
     54c:	82 e0       	ldi	r24, 0x02	; 2
     54e:	08 95       	ret

00000550 <ProcessConfigurationDescriptor>:
     550:	ef 92       	push	r14

					if (UsageListSize)
					{
						NewReportItem.Attributes.Usage.Usage = UsageList[0];

						for (uint8_t i = 1; i < UsageListSize; i++)
     552:	ff 92       	push	r15
     554:	0f 93       	push	r16
						  UsageList[i - 1] = UsageList[i];

						UsageListSize--;
     556:	1f 93       	push	r17
     558:	cf 93       	push	r28
     55a:	df 93       	push	r29
     55c:	cd b7       	in	r28, 0x3d	; 61
     55e:	de b7       	in	r29, 0x3e	; 62
					}
					else if (UsageMinMax.Minimum <= UsageMinMax.Maximum)
     560:	c4 50       	subi	r28, 0x04	; 4
     562:	d2 40       	sbci	r29, 0x02	; 2
     564:	0f b6       	in	r0, 0x3f	; 63
     566:	f8 94       	cli
     568:	de bf       	out	0x3e, r29	; 62
					{
						NewReportItem.Attributes.Usage.Usage = UsageMinMax.Minimum++;
     56a:	0f be       	out	0x3f, r0	; 63
     56c:	cd bf       	out	0x3d, r28	; 61
     56e:	ae 01       	movw	r20, r28
     570:	4f 5f       	subi	r20, 0xFF	; 255
     572:	5f 4f       	sbci	r21, 0xFF	; 255
     574:	cd 5f       	subi	r28, 0xFD	; 253
     576:	dd 4f       	sbci	r29, 0xFD	; 253
     578:	59 83       	std	Y+1, r21	; 0x01
     57a:	48 83       	st	Y, r20
					}

					uint8_t ItemTypeTag = (HIDReportItem & (HID_RI_TYPE_MASK | HID_RI_TAG_MASK));

					if (ItemTypeTag == HID_RI_INPUT(0))
     57c:	c3 50       	subi	r28, 0x03	; 3
     57e:	d2 40       	sbci	r29, 0x02	; 2
					  NewReportItem.ItemType = HID_REPORT_ITEM_In;
     580:	20 e0       	ldi	r18, 0x00	; 0
     582:	32 e0       	ldi	r19, 0x02	; 2
					else if (ItemTypeTag == HID_RI_OUTPUT(0))
     584:	be 01       	movw	r22, r28
     586:	6f 5f       	subi	r22, 0xFF	; 255
					  NewReportItem.ItemType = HID_REPORT_ITEM_Out;
     588:	7d 4f       	sbci	r23, 0xFD	; 253
     58a:	81 e0       	ldi	r24, 0x01	; 1
     58c:	40 d4       	rcall	.+2176   	; 0xe0e <USB_Host_GetDeviceConfigDescriptor>
					else
					  NewReportItem.ItemType = HID_REPORT_ITEM_Feature;
     58e:	85 30       	cpi	r24, 0x05	; 5
     590:	09 f4       	brne	.+2      	; 0x594 <ProcessConfigurationDescriptor+0x44>

					NewReportItem.BitOffset = CurrReportIDInfo->ReportSizeBits[NewReportItem.ItemType];
     592:	43 c0       	rjmp	.+134    	; 0x61a <ProcessConfigurationDescriptor+0xca>
     594:	86 30       	cpi	r24, 0x06	; 6
     596:	21 f0       	breq	.+8      	; 0x5a0 <ProcessConfigurationDescriptor+0x50>
     598:	88 23       	and	r24, r24
     59a:	21 f0       	breq	.+8      	; 0x5a4 <ProcessConfigurationDescriptor+0x54>
     59c:	81 e0       	ldi	r24, 0x01	; 1
     59e:	40 c0       	rjmp	.+128    	; 0x620 <ProcessConfigurationDescriptor+0xd0>
     5a0:	83 e0       	ldi	r24, 0x03	; 3
     5a2:	3e c0       	rjmp	.+124    	; 0x620 <ProcessConfigurationDescriptor+0xd0>
     5a4:	00 e0       	ldi	r16, 0x00	; 0
     5a6:	10 e0       	ldi	r17, 0x00	; 0
     5a8:	01 15       	cp	r16, r1
     5aa:	11 05       	cpc	r17, r1

					CurrReportIDInfo->ReportSizeBits[NewReportItem.ItemType] += CurrStateTable->Attributes.BitSize;
     5ac:	91 f4       	brne	.+36     	; 0x5d2 <ProcessConfigurationDescriptor+0x82>
     5ae:	4e e8       	ldi	r20, 0x8E	; 142
     5b0:	52 e0       	ldi	r21, 0x02	; 2
     5b2:	be 01       	movw	r22, r28
     5b4:	6d 5f       	subi	r22, 0xFD	; 253
     5b6:	7d 4f       	sbci	r23, 0xFD	; 253
     5b8:	ce 01       	movw	r24, r28
     5ba:	8f 5f       	subi	r24, 0xFF	; 255

					ParserData->LargestReportSizeBits = MAX(ParserData->LargestReportSizeBits, CurrReportIDInfo->ReportSizeBits[NewReportItem.ItemType]);
     5bc:	9d 4f       	sbci	r25, 0xFD	; 253
     5be:	81 d4       	rcall	.+2306   	; 0xec2 <USB_GetNextDescriptorComp>
     5c0:	81 11       	cpse	r24, r1
     5c2:	2d c0       	rjmp	.+90     	; 0x61e <ProcessConfigurationDescriptor+0xce>
     5c4:	cd 5f       	subi	r28, 0xFD	; 253
     5c6:	dd 4f       	sbci	r29, 0xFD	; 253
     5c8:	08 81       	ld	r16, Y
     5ca:	19 81       	ldd	r17, Y+1	; 0x01
     5cc:	c3 50       	subi	r28, 0x03	; 3
     5ce:	d2 40       	sbci	r29, 0x02	; 2
     5d0:	eb cf       	rjmp	.-42     	; 0x5a8 <ProcessConfigurationDescriptor+0x58>
     5d2:	4c e9       	ldi	r20, 0x9C	; 156
     5d4:	52 e0       	ldi	r21, 0x02	; 2
     5d6:	be 01       	movw	r22, r28
     5d8:	6d 5f       	subi	r22, 0xFD	; 253
     5da:	7d 4f       	sbci	r23, 0xFD	; 253
     5dc:	ce 01       	movw	r24, r28
     5de:	8f 5f       	subi	r24, 0xFF	; 255
     5e0:	9d 4f       	sbci	r25, 0xFD	; 253
     5e2:	6f d4       	rcall	.+2270   	; 0xec2 <USB_GetNextDescriptorComp>
     5e4:	81 11       	cpse	r24, r1
     5e6:	e3 cf       	rjmp	.-58     	; 0x5ae <ProcessConfigurationDescriptor+0x5e>
     5e8:	cd 5f       	subi	r28, 0xFD	; 253
     5ea:	dd 4f       	sbci	r29, 0xFD	; 253
     5ec:	e8 80       	ld	r14, Y
     5ee:	f9 80       	ldd	r15, Y+1	; 0x01
     5f0:	c3 50       	subi	r28, 0x03	; 3
     5f2:	d2 40       	sbci	r29, 0x02	; 2

					if (ParserData->TotalReportItems == HID_MAX_REPORTITEMS)
     5f4:	f7 01       	movw	r30, r14
     5f6:	42 81       	ldd	r20, Z+2	; 0x02
     5f8:	47 ff       	sbrs	r20, 7
     5fa:	d6 cf       	rjmp	.-84     	; 0x5a8 <ProcessConfigurationDescriptor+0x58>
     5fc:	e1 14       	cp	r14, r1
					  return HID_PARSE_InsufficientReportItems;
     5fe:	f1 04       	cpc	r15, r1
     600:	99 f2       	breq	.-90     	; 0x5a8 <ProcessConfigurationDescriptor+0x58>

					memcpy(&ParserData->ReportItems[ParserData->TotalReportItems],
					       &NewReportItem, sizeof(HID_ReportItem_t));

					if (!(ReportItemData & HID_IOF_CONSTANT) && CALLBACK_HIDParser_FilterHIDReportItem(&NewReportItem))
     602:	24 81       	ldd	r18, Z+4	; 0x04
     604:	35 81       	ldd	r19, Z+5	; 0x05
     606:	01 e0       	ldi	r16, 0x01	; 1
     608:	63 e0       	ldi	r22, 0x03	; 3
     60a:	81 e8       	ldi	r24, 0x81	; 129
     60c:	24 d2       	rcall	.+1096   	; 0xa56 <Pipe_ConfigurePipe>
     60e:	f7 01       	movw	r30, r14
     610:	86 81       	ldd	r24, Z+6	; 0x06
     612:	80 93 ad 00 	sts	0x00AD, r24
     616:	80 e0       	ldi	r24, 0x00	; 0
     618:	03 c0       	rjmp	.+6      	; 0x620 <ProcessConfigurationDescriptor+0xd0>
     61a:	82 e0       	ldi	r24, 0x02	; 2
     61c:	01 c0       	rjmp	.+2      	; 0x620 <ProcessConfigurationDescriptor+0xd0>
     61e:	84 e0       	ldi	r24, 0x04	; 4
     620:	cc 5f       	subi	r28, 0xFC	; 252
     622:	dd 4f       	sbci	r29, 0xFD	; 253
     624:	0f b6       	in	r0, 0x3f	; 63
     626:	f8 94       	cli
     628:	de bf       	out	0x3e, r29	; 62
     62a:	0f be       	out	0x3f, r0	; 63
     62c:	cd bf       	out	0x3d, r28	; 61
     62e:	df 91       	pop	r29
     630:	cf 91       	pop	r28
     632:	1f 91       	pop	r17
     634:	0f 91       	pop	r16
     636:	ff 90       	pop	r15
     638:	ef 90       	pop	r14
     63a:	08 95       	ret

0000063c <USB_Host_ResetDevice>:
     63c:	80 91 9e 00 	lds	r24, 0x009E
     640:	81 70       	andi	r24, 0x01	; 1
     642:	90 91 a0 00 	lds	r25, 0x00A0
     646:	9d 7f       	andi	r25, 0xFD	; 253
     648:	90 93 a0 00 	sts	0x00A0, r25
     64c:	90 91 9e 00 	lds	r25, 0x009E
     650:	92 60       	ori	r25, 0x02	; 2
     652:	90 93 9e 00 	sts	0x009E, r25
     656:	90 91 9e 00 	lds	r25, 0x009E
     65a:	91 fd       	sbrc	r25, 1
     65c:	fc cf       	rjmp	.-8      	; 0x656 <USB_Host_ResetDevice+0x1a>
     65e:	90 91 9e 00 	lds	r25, 0x009E
     662:	91 60       	ori	r25, 0x01	; 1
     664:	90 93 9e 00 	sts	0x009E, r25
     668:	10 92 1d 01 	sts	0x011D, r1
     66c:	90 91 a0 00 	lds	r25, 0x00A0
     670:	90 72       	andi	r25, 0x20	; 32
     672:	20 91 a0 00 	lds	r18, 0x00A0
     676:	2f 7d       	andi	r18, 0xDF	; 223
     678:	20 93 a0 00 	sts	0x00A0, r18
     67c:	20 91 9f 00 	lds	r18, 0x009F
     680:	2f 7d       	andi	r18, 0xDF	; 223
     682:	20 93 9f 00 	sts	0x009F, r18
     686:	2a e0       	ldi	r18, 0x0A	; 10
					  ParserData->TotalReportItems++;
     688:	30 91 9f 00 	lds	r19, 0x009F
     68c:	35 ff       	sbrs	r19, 5
     68e:	0b c0       	rjmp	.+22     	; 0x6a6 <USB_Host_ResetDevice+0x6a>
     690:	20 91 9f 00 	lds	r18, 0x009F

			default:
				break;
		}

		if ((HIDReportItem & HID_RI_TYPE_MASK) == HID_RI_TYPE_MAIN)
     694:	2f 7d       	andi	r18, 0xDF	; 223
     696:	20 93 9f 00 	sts	0x009F, r18
     69a:	20 91 9f 00 	lds	r18, 0x009F
		{
			UsageMinMax.Minimum = 0;
			UsageMinMax.Maximum = 0;
     69e:	2d 7f       	andi	r18, 0xFD	; 253
     6a0:	20 93 9f 00 	sts	0x009F, r18
				break;
		}

		if ((HIDReportItem & HID_RI_TYPE_MASK) == HID_RI_TYPE_MAIN)
		{
			UsageMinMax.Minimum = 0;
     6a4:	08 c0       	rjmp	.+16     	; 0x6b6 <USB_Host_ResetDevice+0x7a>
     6a6:	ef ec       	ldi	r30, 0xCF	; 207
     6a8:	f7 e0       	ldi	r31, 0x07	; 7
			UsageMinMax.Maximum = 0;
			UsageListSize       = 0;
     6aa:	31 97       	sbiw	r30, 0x01	; 1
     6ac:	f1 f7       	brne	.-4      	; 0x6aa <USB_Host_ResetDevice+0x6e>
     6ae:	00 c0       	rjmp	.+0      	; 0x6b0 <USB_Host_ResetDevice+0x74>
     6b0:	00 00       	nop
		}
	}

	if (!(ParserData->TotalReportItems))
     6b2:	21 50       	subi	r18, 0x01	; 1
     6b4:	49 f7       	brne	.-46     	; 0x688 <USB_Host_ResetDevice+0x4c>
     6b6:	99 23       	and	r25, r25
     6b8:	29 f0       	breq	.+10     	; 0x6c4 <USB_Host_ResetDevice+0x88>
	  return HID_PARSE_NoUnfilteredReportItems;
     6ba:	90 91 a0 00 	lds	r25, 0x00A0

		switch (HIDReportItem & (HID_RI_TYPE_MASK | HID_RI_TAG_MASK))
		{
			case HID_RI_PUSH(0):
				if (CurrStateTable == &StateTable[HID_STATETABLE_STACK_DEPTH - 1])
				  return HID_PARSE_HIDStackOverflow;
     6be:	90 62       	ori	r25, 0x20	; 32
     6c0:	90 93 a0 00 	sts	0x00A0, r25
				CurrStateTable++;
				break;

			case HID_RI_POP(0):
				if (CurrStateTable == &StateTable[0])
				  return HID_PARSE_HIDStackUnderflow;
     6c4:	81 11       	cpse	r24, r1
				CurrReportIDInfo->ReportID = CurrStateTable->ReportID;
				break;

			case HID_RI_USAGE(0):
				if (UsageListSize == HID_USAGE_STACK_DEPTH)
				  return HID_PARSE_UsageListOverflow;
     6c6:	05 c0       	rjmp	.+10     	; 0x6d2 <USB_Host_ResetDevice+0x96>
     6c8:	80 91 9e 00 	lds	r24, 0x009E
					CurrCollectionPath = &ParserData->CollectionPaths[1];

					while (CurrCollectionPath->Parent != NULL)
					{
						if (CurrCollectionPath == &ParserData->CollectionPaths[HID_MAX_COLLECTIONS - 1])
						  return HID_PARSE_InsufficientCollectionPaths;
     6cc:	8e 7f       	andi	r24, 0xFE	; 254

				break;

			case HID_RI_END_COLLECTION(0):
				if (CurrCollectionPath == NULL)
				  return HID_PARSE_UnexpectedEndCollection;
     6ce:	80 93 9e 00 	sts	0x009E, r24
	}

	if (!(ParserData->TotalReportItems))
	  return HID_PARSE_NoUnfilteredReportItems;

	return HID_PARSE_Successful;
     6d2:	80 91 a0 00 	lds	r24, 0x00A0
					}

					if (CurrReportIDInfo == NULL)
					{
						if (ParserData->TotalDeviceReports == HID_MAX_REPORT_IDS)
						  return HID_PARSE_InsufficientReportIDItems;
     6d6:	82 60       	ori	r24, 0x02	; 2

	if (!(ParserData->TotalReportItems))
	  return HID_PARSE_NoUnfilteredReportItems;

	return HID_PARSE_Successful;
}
     6d8:	80 93 a0 00 	sts	0x00A0, r24
     6dc:	08 95       	ret

000006de <USB_Host_WaitMS>:
     6de:	20 91 9e 00 	lds	r18, 0x009E
     6e2:	21 70       	andi	r18, 0x01	; 1
     6e4:	90 91 a0 00 	lds	r25, 0x00A0
     6e8:	90 72       	andi	r25, 0x20	; 32
     6ea:	30 91 a0 00 	lds	r19, 0x00A0
     6ee:	3f 7d       	andi	r19, 0xDF	; 223
     6f0:	30 93 a0 00 	sts	0x00A0, r19
     6f4:	30 91 9f 00 	lds	r19, 0x009F
     6f8:	3f 7d       	andi	r19, 0xDF	; 223
     6fa:	30 93 9f 00 	sts	0x009F, r19
     6fe:	30 91 9e 00 	lds	r19, 0x009E
     702:	31 60       	ori	r19, 0x01	; 1
     704:	30 93 9e 00 	sts	0x009E, r19
     708:	88 23       	and	r24, r24
     70a:	39 f1       	breq	.+78     	; 0x75a <USB_Host_WaitMS+0x7c>
					case USB_INT_RXSTPI:
						return (UEINTX & (1 << RXSTPI));
					#endif
					#if defined(USB_CAN_BE_HOST)
					case USB_INT_HSOFI:
						return (UHINT  & (1 << HSOFI));
     70c:	30 91 9f 00 	lds	r19, 0x009F

	USB_Host_ResumeBus();

	while (MS)
	{
		if (USB_INT_HasOccurred(USB_INT_HSOFI))
     710:	35 ff       	sbrs	r19, 5
     712:	06 c0       	rjmp	.+12     	; 0x720 <USB_Host_WaitMS+0x42>
						UEINTX &= ~(1 << RXSTPI);
						break;
					#endif
					#if defined(USB_CAN_BE_HOST)
					case USB_INT_HSOFI:
						UHINT  &= ~(1 << HSOFI);
     714:	30 91 9f 00 	lds	r19, 0x009F
     718:	3f 7d       	andi	r19, 0xDF	; 223
     71a:	30 93 9f 00 	sts	0x009F, r19
		{
			USB_INT_Clear(USB_INT_HSOFI);
			MS--;
     71e:	81 50       	subi	r24, 0x01	; 1
		}

		if ((USB_HostState == HOST_STATE_Unattached) || (USB_CurrentMode != USB_MODE_Host))
     720:	30 91 27 01 	lds	r19, 0x0127
     724:	31 30       	cpi	r19, 0x01	; 1
     726:	c1 f0       	breq	.+48     	; 0x758 <USB_Host_WaitMS+0x7a>
			 *  \return Boolean \c true if an error has occurred on the selected pipe, \c false otherwise.
			 */
			static inline bool Pipe_IsError(void) ATTR_WARN_UNUSED_RESULT ATTR_ALWAYS_INLINE;
			static inline bool Pipe_IsError(void)
			{
				return ((UPINTX & (1 << PERRI)) ? true : false);
     728:	30 91 a6 00 	lds	r19, 0x00A6
			ErrorCode = HOST_WAITERROR_DeviceDisconnect;

			break;
		}

		if (Pipe_IsError())
     72c:	34 ff       	sbrs	r19, 4
     72e:	09 c0       	rjmp	.+18     	; 0x742 <USB_Host_WaitMS+0x64>

			/** Clears the error flags for the currently selected pipe. */
			static inline void Pipe_ClearError(void) ATTR_ALWAYS_INLINE;
			static inline void Pipe_ClearError(void)
			{
				UPERRX = 0;
     730:	10 92 f5 00 	sts	0x00F5, r1
				UPINTX &= ~(1 << PERRI);
     734:	80 91 a6 00 	lds	r24, 0x00A6
     738:	8f 7e       	andi	r24, 0xEF	; 239
     73a:	80 93 a6 00 	sts	0x00A6, r24
		{
			Pipe_ClearError();
			ErrorCode = HOST_WAITERROR_PipeError;
     73e:	82 e0       	ldi	r24, 0x02	; 2

			break;
     740:	0c c0       	rjmp	.+24     	; 0x75a <USB_Host_WaitMS+0x7c>
			 *  \return Boolean \c true if the current pipe has been stalled by the attached device, \c false otherwise.
			 */
			static inline bool Pipe_IsStalled(void) ATTR_WARN_UNUSED_RESULT ATTR_ALWAYS_INLINE;
			static inline bool Pipe_IsStalled(void)
			{
				return ((UPINTX & (1 << RXSTALLI)) ? true : false);
     742:	30 91 a6 00 	lds	r19, 0x00A6
		}

		if (Pipe_IsStalled())
     746:	31 ff       	sbrs	r19, 1
     748:	df cf       	rjmp	.-66     	; 0x708 <USB_Host_WaitMS+0x2a>
			 *  \ingroup Group_PipePacketManagement_AVR8
			 */
			static inline void Pipe_ClearStall(void) ATTR_ALWAYS_INLINE;
			static inline void Pipe_ClearStall(void)
			{
				UPINTX &= ~(1 << RXSTALLI);
     74a:	80 91 a6 00 	lds	r24, 0x00A6
     74e:	8d 7f       	andi	r24, 0xFD	; 253
     750:	80 93 a6 00 	sts	0x00A6, r24
		{
			Pipe_ClearStall();
			ErrorCode = HOST_WAITERROR_SetupStalled;
     754:	83 e0       	ldi	r24, 0x03	; 3

			break;
     756:	01 c0       	rjmp	.+2      	; 0x75a <USB_Host_WaitMS+0x7c>
			MS--;
		}

		if ((USB_HostState == HOST_STATE_Unattached) || (USB_CurrentMode != USB_MODE_Host))
		{
			ErrorCode = HOST_WAITERROR_DeviceDisconnect;
     758:	81 e0       	ldi	r24, 0x01	; 1

			break;
		}
	}

	if (BusSuspended)
     75a:	21 11       	cpse	r18, r1
     75c:	05 c0       	rjmp	.+10     	; 0x768 <USB_Host_WaitMS+0x8a>
			 *             some events (such as device disconnections) will not fire until the bus is resumed.
			 */
			static inline void USB_Host_SuspendBus(void) ATTR_ALWAYS_INLINE;
			static inline void USB_Host_SuspendBus(void)
			{
				UHCON &= ~(1 << SOFEN);
     75e:	20 91 9e 00 	lds	r18, 0x009E
     762:	2e 7f       	andi	r18, 0xFE	; 254
     764:	20 93 9e 00 	sts	0x009E, r18
	  USB_Host_SuspendBus();

	if (HSOFIEnabled)
     768:	99 23       	and	r25, r25
     76a:	29 f0       	breq	.+10     	; 0x776 <USB_Host_WaitMS+0x98>
						UEIENX |= (1 << RXSTPE);
						break;
					#endif
					#if defined(USB_CAN_BE_HOST)
					case USB_INT_HSOFI:
						UHIEN  |= (1 << HSOFE);
     76c:	90 91 a0 00 	lds	r25, 0x00A0
     770:	90 62       	ori	r25, 0x20	; 32
     772:	90 93 a0 00 	sts	0x00A0, r25
	  USB_INT_Enable(USB_INT_HSOFI);

	return ErrorCode;
}
     776:	08 95       	ret

00000778 <USB_Host_ProcessNextHostState>:

#define  __INCLUDE_FROM_HOST_C
#include "../Host.h"

void USB_Host_ProcessNextHostState(void)
{
     778:	0f 93       	push	r16
     77a:	1f 93       	push	r17
     77c:	cf 93       	push	r28
     77e:	df 93       	push	r29
     780:	cd b7       	in	r28, 0x3d	; 61
     782:	de b7       	in	r29, 0x3e	; 62
     784:	28 97       	sbiw	r28, 0x08	; 8
     786:	0f b6       	in	r0, 0x3f	; 63
     788:	f8 94       	cli
     78a:	de bf       	out	0x3e, r29	; 62
     78c:	0f be       	out	0x3f, r0	; 63
     78e:	cd bf       	out	0x3d, r28	; 61
	uint8_t SubErrorCode = HOST_ENUMERROR_NoError;

	static uint16_t WaitMSRemaining;
	static uint8_t  PostWaitState;

	switch (USB_HostState)
     790:	80 91 27 01 	lds	r24, 0x0127
     794:	85 30       	cpi	r24, 0x05	; 5
     796:	09 f4       	brne	.+2      	; 0x79a <USB_Host_ProcessNextHostState+0x22>
     798:	9c c0       	rjmp	.+312    	; 0x8d2 <USB_Host_ProcessNextHostState+0x15a>
     79a:	68 f4       	brcc	.+26     	; 0x7b6 <USB_Host_ProcessNextHostState+0x3e>
     79c:	82 30       	cpi	r24, 0x02	; 2
     79e:	e1 f1       	breq	.+120    	; 0x818 <USB_Host_ProcessNextHostState+0xa0>
     7a0:	18 f4       	brcc	.+6      	; 0x7a8 <USB_Host_ProcessNextHostState+0x30>
     7a2:	88 23       	and	r24, r24
     7a4:	d9 f0       	breq	.+54     	; 0x7dc <USB_Host_ProcessNextHostState+0x64>
     7a6:	ff c0       	rjmp	.+510    	; 0x9a6 <USB_Host_ProcessNextHostState+0x22e>
     7a8:	83 30       	cpi	r24, 0x03	; 3
     7aa:	09 f4       	brne	.+2      	; 0x7ae <USB_Host_ProcessNextHostState+0x36>
     7ac:	3f c0       	rjmp	.+126    	; 0x82c <USB_Host_ProcessNextHostState+0xb4>
     7ae:	84 30       	cpi	r24, 0x04	; 4
     7b0:	09 f4       	brne	.+2      	; 0x7b4 <USB_Host_ProcessNextHostState+0x3c>
     7b2:	67 c0       	rjmp	.+206    	; 0x882 <USB_Host_ProcessNextHostState+0x10a>
     7b4:	f8 c0       	rjmp	.+496    	; 0x9a6 <USB_Host_ProcessNextHostState+0x22e>
     7b6:	87 30       	cpi	r24, 0x07	; 7
     7b8:	09 f4       	brne	.+2      	; 0x7bc <USB_Host_ProcessNextHostState+0x44>
     7ba:	a6 c0       	rjmp	.+332    	; 0x908 <USB_Host_ProcessNextHostState+0x190>
     7bc:	08 f4       	brcc	.+2      	; 0x7c0 <USB_Host_ProcessNextHostState+0x48>
     7be:	96 c0       	rjmp	.+300    	; 0x8ec <USB_Host_ProcessNextHostState+0x174>
     7c0:	88 30       	cpi	r24, 0x08	; 8
     7c2:	09 f4       	brne	.+2      	; 0x7c6 <USB_Host_ProcessNextHostState+0x4e>
     7c4:	bf c0       	rjmp	.+382    	; 0x944 <USB_Host_ProcessNextHostState+0x1cc>
     7c6:	89 30       	cpi	r24, 0x09	; 9
     7c8:	09 f0       	breq	.+2      	; 0x7cc <USB_Host_ProcessNextHostState+0x54>
     7ca:	ed c0       	rjmp	.+474    	; 0x9a6 <USB_Host_ProcessNextHostState+0x22e>
			}

			static inline void USB_Host_SetDeviceAddress(const uint8_t Address) ATTR_ALWAYS_INLINE;
			static inline void USB_Host_SetDeviceAddress(const uint8_t Address)
			{
				UHADDR  =  (Address & 0x7F);
     7cc:	81 e0       	ldi	r24, 0x01	; 1
     7ce:	80 93 a1 00 	sts	0x00A1, r24
			HOST_TASK_NONBLOCK_WAIT(100, HOST_STATE_Default_PostAddressSet);
			break;
		case HOST_STATE_Default_PostAddressSet:
			USB_Host_SetDeviceAddress(USB_HOST_DEVICEADDRESS);

			USB_HostState = HOST_STATE_Addressed;
     7d2:	8a e0       	ldi	r24, 0x0A	; 10
     7d4:	80 93 27 01 	sts	0x0127, r24

			EVENT_USB_Host_DeviceEnumerationComplete();
     7d8:	b7 dd       	rcall	.-1170   	; 0x348 <EVENT_USB_Host_DeviceEnumerationComplete>
     7da:	e5 c0       	rjmp	.+458    	; 0x9a6 <USB_Host_ProcessNextHostState+0x22e>
			break;
     7dc:	00 91 1b 01 	lds	r16, 0x011B
	static uint8_t  PostWaitState;

	switch (USB_HostState)
	{
		case HOST_STATE_WaitForDevice:
			if (WaitMSRemaining)
     7e0:	10 91 1c 01 	lds	r17, 0x011C
     7e4:	01 15       	cp	r16, r1
     7e6:	11 05       	cpc	r17, r1
     7e8:	09 f4       	brne	.+2      	; 0x7ec <USB_Host_ProcessNextHostState+0x74>
     7ea:	dd c0       	rjmp	.+442    	; 0x9a6 <USB_Host_ProcessNextHostState+0x22e>
     7ec:	81 e0       	ldi	r24, 0x01	; 1
			{
				if ((SubErrorCode = USB_Host_WaitMS(1)) != HOST_WAITERROR_Successful)
     7ee:	77 df       	rcall	.-274    	; 0x6de <USB_Host_WaitMS>
     7f0:	88 23       	and	r24, r24
     7f2:	31 f0       	breq	.+12     	; 0x800 <USB_Host_ProcessNextHostState+0x88>
     7f4:	90 91 1a 01 	lds	r25, 0x011A
				{
					USB_HostState = PostWaitState;
     7f8:	90 93 27 01 	sts	0x0127, r25
     7fc:	91 e0       	ldi	r25, 0x01	; 1
     7fe:	c5 c0       	rjmp	.+394    	; 0x98a <USB_Host_ProcessNextHostState+0x212>
					ErrorCode     = HOST_ENUMERROR_WaitStage;
     800:	01 50       	subi	r16, 0x01	; 1
					break;
     802:	11 09       	sbc	r17, r1
				}

				if (!(--WaitMSRemaining))
     804:	10 93 1c 01 	sts	0x011C, r17
     808:	00 93 1b 01 	sts	0x011B, r16
     80c:	01 2b       	or	r16, r17
     80e:	09 f0       	breq	.+2      	; 0x812 <USB_Host_ProcessNextHostState+0x9a>
     810:	ca c0       	rjmp	.+404    	; 0x9a6 <USB_Host_ProcessNextHostState+0x22e>
     812:	80 91 1a 01 	lds	r24, 0x011A
				  USB_HostState = PostWaitState;
     816:	07 c0       	rjmp	.+14     	; 0x826 <USB_Host_ProcessNextHostState+0xae>
     818:	88 ee       	ldi	r24, 0xE8	; 232
     81a:	93 e0       	ldi	r25, 0x03	; 3
			}

			break;
		case HOST_STATE_Powered:
			WaitMSRemaining = HOST_DEVICE_SETTLE_DELAY_MS;
     81c:	90 93 1c 01 	sts	0x011C, r25
     820:	80 93 1b 01 	sts	0x011B, r24
     824:	83 e0       	ldi	r24, 0x03	; 3
     826:	80 93 27 01 	sts	0x0127, r24

			USB_HostState = HOST_STATE_Powered_WaitForDeviceSettle;
     82a:	bd c0       	rjmp	.+378    	; 0x9a6 <USB_Host_ProcessNextHostState+0x22e>
     82c:	80 91 1b 01 	lds	r24, 0x011B
			break;
		case HOST_STATE_Powered_WaitForDeviceSettle:
			if (WaitMSRemaining--)
     830:	90 91 1c 01 	lds	r25, 0x011C
     834:	9c 01       	movw	r18, r24
     836:	21 50       	subi	r18, 0x01	; 1
     838:	31 09       	sbc	r19, r1
     83a:	30 93 1c 01 	sts	0x011C, r19
     83e:	20 93 1b 01 	sts	0x011B, r18
     842:	89 2b       	or	r24, r25
     844:	39 f0       	breq	.+14     	; 0x854 <USB_Host_ProcessNextHostState+0xdc>
     846:	8f ec       	ldi	r24, 0xCF	; 207
     848:	97 e0       	ldi	r25, 0x07	; 7
	#else
		//round up by default
		__ticks_dc = (uint32_t)(ceil(fabs(__tmp)));
	#endif

	__builtin_avr_delay_cycles(__ticks_dc);
     84a:	01 97       	sbiw	r24, 0x01	; 1
     84c:	f1 f7       	brne	.-4      	; 0x84a <USB_Host_ProcessNextHostState+0xd2>
     84e:	00 c0       	rjmp	.+0      	; 0x850 <USB_Host_ProcessNextHostState+0xd8>
     850:	00 00       	nop
     852:	a9 c0       	rjmp	.+338    	; 0x9a6 <USB_Host_ProcessNextHostState+0x22e>
     854:	77 98       	cbi	0x0e, 7	; 14
     856:	80 91 d8 00 	lds	r24, 0x00D8

			#if defined(USB_SERIES_4_AVR) || defined(USB_SERIES_6_AVR) || defined(USB_SERIES_7_AVR)
			static inline void USB_OTGPAD_On(void) ATTR_ALWAYS_INLINE;
			static inline void USB_OTGPAD_On(void)
			{
				USBCON |=  (1 << OTGPADE);
     85a:	80 61       	ori	r24, 0x10	; 16
     85c:	80 93 d8 00 	sts	0x00D8, r24
     860:	80 91 dd 00 	lds	r24, 0x00DD
			}

			static inline void USB_Host_VBUS_Auto_Enable(void) ATTR_ALWAYS_INLINE;
			static inline void USB_Host_VBUS_Auto_Enable(void)
			{
				OTGCON &= ~(1 << VBUSHWC);
     864:	8b 7f       	andi	r24, 0xFB	; 251
     866:	80 93 dd 00 	sts	0x00DD, r24
     86a:	80 91 d7 00 	lds	r24, 0x00D7
				UHWCON |=  (1 << UVCONE);
     86e:	80 61       	ori	r24, 0x10	; 16
     870:	80 93 d7 00 	sts	0x00D7, r24
     874:	80 91 dd 00 	lds	r24, 0x00DD
			}

			static inline void USB_Host_VBUS_Auto_On(void) ATTR_ALWAYS_INLINE;
			static inline void USB_Host_VBUS_Auto_On(void)
			{
				OTGCON |=  (1 << VBUSREQ);
     878:	82 60       	ori	r24, 0x02	; 2
     87a:	80 93 dd 00 	sts	0x00DD, r24
     87e:	84 e0       	ldi	r24, 0x04	; 4
     880:	d2 cf       	rjmp	.-92     	; 0x826 <USB_Host_ProcessNextHostState+0xae>
				#if defined(NO_AUTO_VBUS_MANAGEMENT)
				USB_Host_VBUS_Manual_Enable();
				USB_Host_VBUS_Manual_On();
				#endif

				USB_HostState = HOST_STATE_Powered_WaitForConnect;
     882:	80 91 9f 00 	lds	r24, 0x009F
					#endif
					#if defined(USB_CAN_BE_HOST)
					case USB_INT_HSOFI:
						return (UHINT  & (1 << HSOFI));
					case USB_INT_DCONNI:
						return (UHINT  & (1 << DCONNI));
     886:	80 ff       	sbrs	r24, 0
     888:	8e c0       	rjmp	.+284    	; 0x9a6 <USB_Host_ProcessNextHostState+0x22e>
			}

			break;
		case HOST_STATE_Powered_WaitForConnect:
			if (USB_INT_HasOccurred(USB_INT_DCONNI))
     88a:	80 91 9f 00 	lds	r24, 0x009F
					#if defined(USB_CAN_BE_HOST)
					case USB_INT_HSOFI:
						UHINT  &= ~(1 << HSOFI);
						break;
					case USB_INT_DCONNI:
						UHINT  &= ~(1 << DCONNI);
     88e:	8e 7f       	andi	r24, 0xFE	; 254
     890:	80 93 9f 00 	sts	0x009F, r24
     894:	80 91 9f 00 	lds	r24, 0x009F
						break;
					case USB_INT_DDISCI:
						UHINT  &= ~(1 << DDISCI);
     898:	8d 7f       	andi	r24, 0xFD	; 253
     89a:	80 93 9f 00 	sts	0x009F, r24
     89e:	80 91 df 00 	lds	r24, 0x00DF
						break;
					case USB_INT_BCERRI:
						OTGINT &= ~(1 << BCERRI);
						break;
					case USB_INT_VBERRI:
						OTGINT &= ~(1 << VBERRI);
     8a2:	8d 7f       	andi	r24, 0xFD	; 253
     8a4:	80 93 df 00 	sts	0x00DF, r24
     8a8:	80 91 de 00 	lds	r24, 0x00DE
						break;
					case USB_INT_BCERRI:
						OTGIEN |= (1 << BCERRE);
						break;
					case USB_INT_VBERRI:
						OTGIEN |= (1 << VBERRE);
     8ac:	82 60       	ori	r24, 0x02	; 2
     8ae:	80 93 de 00 	sts	0x00DE, r24
     8b2:	80 91 9e 00 	lds	r24, 0x009E
			 *  host and attached device may occur.
			 */
			static inline void USB_Host_ResumeBus(void) ATTR_ALWAYS_INLINE;
			static inline void USB_Host_ResumeBus(void)
			{
				UHCON |=  (1 << SOFEN);
     8b6:	81 60       	ori	r24, 0x01	; 1
     8b8:	80 93 9e 00 	sts	0x009E, r24
     8bc:	34 d1       	rcall	.+616    	; 0xb26 <Pipe_ClearPipes>
     8be:	10 92 27 01 	sts	0x0127, r1

				USB_INT_Clear(USB_INT_VBERRI);
				USB_INT_Enable(USB_INT_VBERRI);

				USB_Host_ResumeBus();
				Pipe_ClearPipes();
     8c2:	84 e6       	ldi	r24, 0x64	; 100

				HOST_TASK_NONBLOCK_WAIT(100, HOST_STATE_Powered_DoReset);
     8c4:	90 e0       	ldi	r25, 0x00	; 0
     8c6:	90 93 1c 01 	sts	0x011C, r25
     8ca:	80 93 1b 01 	sts	0x011B, r24
     8ce:	85 e0       	ldi	r24, 0x05	; 5
     8d0:	0a c0       	rjmp	.+20     	; 0x8e6 <USB_Host_ProcessNextHostState+0x16e>
     8d2:	b4 de       	rcall	.-664    	; 0x63c <USB_Host_ResetDevice>
     8d4:	10 92 27 01 	sts	0x0127, r1
			}

			break;
		case HOST_STATE_Powered_DoReset:
			USB_Host_ResetDevice();
     8d8:	88 ec       	ldi	r24, 0xC8	; 200
     8da:	90 e0       	ldi	r25, 0x00	; 0

			HOST_TASK_NONBLOCK_WAIT(200, HOST_STATE_Powered_ConfigPipe);
     8dc:	90 93 1c 01 	sts	0x011C, r25
     8e0:	80 93 1b 01 	sts	0x011B, r24
     8e4:	86 e0       	ldi	r24, 0x06	; 6
     8e6:	80 93 1a 01 	sts	0x011A, r24
     8ea:	5d c0       	rjmp	.+186    	; 0x9a6 <USB_Host_ProcessNextHostState+0x22e>
     8ec:	01 e0       	ldi	r16, 0x01	; 1
     8ee:	20 e4       	ldi	r18, 0x40	; 64
     8f0:	30 e0       	ldi	r19, 0x00	; 0
			break;
     8f2:	40 e0       	ldi	r20, 0x00	; 0
		case HOST_STATE_Powered_ConfigPipe:
			if (!(Pipe_ConfigurePipe(PIPE_CONTROLPIPE, EP_TYPE_CONTROL, ENDPOINT_CONTROLEP, PIPE_CONTROLPIPE_DEFAULT_SIZE, 1)))
     8f4:	60 e0       	ldi	r22, 0x00	; 0
     8f6:	80 e0       	ldi	r24, 0x00	; 0
     8f8:	ae d0       	rcall	.+348    	; 0xa56 <Pipe_ConfigurePipe>
     8fa:	81 11       	cpse	r24, r1
     8fc:	03 c0       	rjmp	.+6      	; 0x904 <USB_Host_ProcessNextHostState+0x18c>
     8fe:	80 e0       	ldi	r24, 0x00	; 0
     900:	94 e0       	ldi	r25, 0x04	; 4
     902:	43 c0       	rjmp	.+134    	; 0x98a <USB_Host_ProcessNextHostState+0x212>
     904:	87 e0       	ldi	r24, 0x07	; 7
     906:	8f cf       	rjmp	.-226    	; 0x826 <USB_Host_ProcessNextHostState+0xae>
			{
				ErrorCode    = HOST_ENUMERROR_PipeConfigError;
				SubErrorCode = 0;
     908:	88 e0       	ldi	r24, 0x08	; 8
			HOST_TASK_NONBLOCK_WAIT(200, HOST_STATE_Powered_ConfigPipe);
			break;
		case HOST_STATE_Powered_ConfigPipe:
			if (!(Pipe_ConfigurePipe(PIPE_CONTROLPIPE, EP_TYPE_CONTROL, ENDPOINT_CONTROLEP, PIPE_CONTROLPIPE_DEFAULT_SIZE, 1)))
			{
				ErrorCode    = HOST_ENUMERROR_PipeConfigError;
     90a:	e9 e0       	ldi	r30, 0x09	; 9
     90c:	f1 e0       	ldi	r31, 0x01	; 1
				SubErrorCode = 0;
				break;
			}

			USB_HostState = HOST_STATE_Default;
     90e:	af e1       	ldi	r26, 0x1F	; 31
     910:	b1 e0       	ldi	r27, 0x01	; 1
			break;
		case HOST_STATE_Default:
			USB_ControlRequest = (USB_Request_Header_t)
     912:	01 90       	ld	r0, Z+
     914:	0d 92       	st	X+, r0
     916:	8a 95       	dec	r24
     918:	e1 f7       	brne	.-8      	; 0x912 <USB_Host_ProcessNextHostState+0x19a>
     91a:	10 92 a7 00 	sts	0x00A7, r1
     91e:	ce 01       	movw	r24, r28
     920:	01 96       	adiw	r24, 0x01	; 1
     922:	29 d3       	rcall	.+1618   	; 0xf76 <USB_Host_SendControlRequest>
			 *  \param[in] Address  Address of the pipe to select.
			 */
			static inline void Pipe_SelectPipe(const uint8_t Address) ATTR_ALWAYS_INLINE;
			static inline void Pipe_SelectPipe(const uint8_t Address)
			{
				UPNUM = (Address & PIPE_PIPENUM_MASK);
     924:	81 11       	cpse	r24, r1
     926:	30 c0       	rjmp	.+96     	; 0x988 <USB_Host_ProcessNextHostState+0x210>
				};

			uint8_t DataBuffer[8];

			Pipe_SelectPipe(PIPE_CONTROLPIPE);
			if ((SubErrorCode = USB_Host_SendControlRequest(DataBuffer)) != HOST_SENDCONTROL_Successful)
     928:	88 85       	ldd	r24, Y+8	; 0x08
     92a:	80 93 00 01 	sts	0x0100, r24
     92e:	86 de       	rcall	.-756    	; 0x63c <USB_Host_ResetDevice>
     930:	10 92 27 01 	sts	0x0127, r1
			{
				ErrorCode = HOST_ENUMERROR_ControlError;
				break;
			}

			USB_Host_ControlPipeSize = DataBuffer[offsetof(USB_Descriptor_Device_t, Endpoint0Size)];
     934:	88 ec       	ldi	r24, 0xC8	; 200
     936:	90 e0       	ldi	r25, 0x00	; 0
     938:	90 93 1c 01 	sts	0x011C, r25

			USB_Host_ResetDevice();
     93c:	80 93 1b 01 	sts	0x011B, r24

			HOST_TASK_NONBLOCK_WAIT(200, HOST_STATE_Default_PostReset);
     940:	88 e0       	ldi	r24, 0x08	; 8
     942:	d1 cf       	rjmp	.-94     	; 0x8e6 <USB_Host_ProcessNextHostState+0x16e>
     944:	20 91 00 01 	lds	r18, 0x0100
     948:	30 e0       	ldi	r19, 0x00	; 0
     94a:	01 e0       	ldi	r16, 0x01	; 1
     94c:	40 e0       	ldi	r20, 0x00	; 0
     94e:	60 e0       	ldi	r22, 0x00	; 0
     950:	80 e0       	ldi	r24, 0x00	; 0
			break;
		case HOST_STATE_Default_PostReset:
			if (!(Pipe_ConfigurePipe(PIPE_CONTROLPIPE, EP_TYPE_CONTROL, ENDPOINT_CONTROLEP, USB_Host_ControlPipeSize, 1)))
     952:	81 d0       	rcall	.+258    	; 0xa56 <Pipe_ConfigurePipe>
     954:	88 23       	and	r24, r24
     956:	99 f2       	breq	.-90     	; 0x8fe <USB_Host_ProcessNextHostState+0x186>
     958:	88 e0       	ldi	r24, 0x08	; 8
     95a:	e1 e1       	ldi	r30, 0x11	; 17
     95c:	f1 e0       	ldi	r31, 0x01	; 1
     95e:	af e1       	ldi	r26, 0x1F	; 31
     960:	b1 e0       	ldi	r27, 0x01	; 1
     962:	01 90       	ld	r0, Z+
     964:	0d 92       	st	X+, r0
     966:	8a 95       	dec	r24
				ErrorCode    = HOST_ENUMERROR_PipeConfigError;
				SubErrorCode = 0;
				break;
			}

			USB_ControlRequest = (USB_Request_Header_t)
     968:	e1 f7       	brne	.-8      	; 0x962 <USB_Host_ProcessNextHostState+0x1ea>
     96a:	80 e0       	ldi	r24, 0x00	; 0
     96c:	90 e0       	ldi	r25, 0x00	; 0
     96e:	03 d3       	rcall	.+1542   	; 0xf76 <USB_Host_SendControlRequest>
     970:	81 11       	cpse	r24, r1
     972:	0a c0       	rjmp	.+20     	; 0x988 <USB_Host_ProcessNextHostState+0x210>
     974:	10 92 27 01 	sts	0x0127, r1
     978:	84 e6       	ldi	r24, 0x64	; 100
					.wValue        = USB_HOST_DEVICEADDRESS,
					.wIndex        = 0,
					.wLength       = 0,
				};

			if ((SubErrorCode = USB_Host_SendControlRequest(NULL)) != HOST_SENDCONTROL_Successful)
     97a:	90 e0       	ldi	r25, 0x00	; 0
     97c:	90 93 1c 01 	sts	0x011C, r25
     980:	80 93 1b 01 	sts	0x011B, r24
     984:	89 e0       	ldi	r24, 0x09	; 9
			{
				ErrorCode = HOST_ENUMERROR_ControlError;
				break;
			}

			HOST_TASK_NONBLOCK_WAIT(100, HOST_STATE_Default_PostAddressSet);
     986:	af cf       	rjmp	.-162    	; 0x8e6 <USB_Host_ProcessNextHostState+0x16e>
     988:	93 e0       	ldi	r25, 0x03	; 3
     98a:	20 91 27 01 	lds	r18, 0x0127
     98e:	21 30       	cpi	r18, 0x01	; 1
     990:	51 f0       	breq	.+20     	; 0x9a6 <USB_Host_ProcessNextHostState+0x22e>
     992:	68 2f       	mov	r22, r24
     994:	89 2f       	mov	r24, r25
     996:	3a dd       	rcall	.-1420   	; 0x40c <EVENT_USB_Host_DeviceEnumerationFailed>
     998:	80 91 dd 00 	lds	r24, 0x00DD

		default:
			break;
	}

	if ((ErrorCode != HOST_ENUMERROR_NoError) && (USB_HostState != HOST_STATE_Unattached))
     99c:	81 60       	ori	r24, 0x01	; 1
     99e:	80 93 dd 00 	sts	0x00DD, r24
     9a2:	cd dc       	rcall	.-1638   	; 0x33e <EVENT_USB_Host_DeviceUnattached>
	{
		EVENT_USB_Host_DeviceEnumerationFailed(ErrorCode, SubErrorCode);
     9a4:	1a d1       	rcall	.+564    	; 0xbda <USB_ResetInterface>
     9a6:	28 96       	adiw	r28, 0x08	; 8
     9a8:	0f b6       	in	r0, 0x3f	; 63
     9aa:	f8 94       	cli
			}

			static inline void USB_Host_VBUS_Auto_Off(void) ATTR_ALWAYS_INLINE;
			static inline void USB_Host_VBUS_Auto_Off(void)
			{
				OTGCON |=  (1 << VBUSRQC);
     9ac:	de bf       	out	0x3e, r29	; 62
     9ae:	0f be       	out	0x3f, r0	; 63
     9b0:	cd bf       	out	0x3d, r28	; 61
     9b2:	df 91       	pop	r29
     9b4:	cf 91       	pop	r28

		USB_Host_VBUS_Auto_Off();

		EVENT_USB_Host_DeviceUnattached();
     9b6:	1f 91       	pop	r17
     9b8:	0f 91       	pop	r16

		USB_ResetInterface();
     9ba:	08 95       	ret

000009bc <Pipe_Read_Stream_LE>:
     9bc:	cf 92       	push	r12
	}
}
     9be:	df 92       	push	r13
     9c0:	ef 92       	push	r14
     9c2:	ff 92       	push	r15
     9c4:	0f 93       	push	r16
     9c6:	1f 93       	push	r17
     9c8:	cf 93       	push	r28
     9ca:	df 93       	push	r29
     9cc:	7c 01       	movw	r14, r24
     9ce:	8b 01       	movw	r16, r22
     9d0:	ea 01       	movw	r28, r20
     9d2:	80 91 aa 00 	lds	r24, 0x00AA
			 *  \param[in] Token  New pipe token to set the selected pipe to, as a \c PIPE_TOKEN_* mask.
			 */
			static inline void Pipe_SetPipeToken(const uint8_t Token) ATTR_ALWAYS_INLINE;
			static inline void Pipe_SetPipeToken(const uint8_t Token)
			{
				UPCFG0X = ((UPCFG0X & ~(0x03 << PTOKEN0)) | Token);
     9d6:	8f 7c       	andi	r24, 0xCF	; 207
     9d8:	80 61       	ori	r24, 0x10	; 16
     9da:	80 93 aa 00 	sts	0x00AA, r24
	uint16_t BytesInTransfer = 0;
	uint8_t  ErrorCode;

	Pipe_SetPipeToken(TEMPLATE_TOKEN);

	if ((ErrorCode = Pipe_WaitUntilReady()))
     9de:	b7 d0       	rcall	.+366    	; 0xb4e <Pipe_WaitUntilReady>
     9e0:	81 11       	cpse	r24, r1
     9e2:	30 c0       	rjmp	.+96     	; 0xa44 <Pipe_Read_Stream_LE+0x88>
     9e4:	20 97       	sbiw	r28, 0x00	; 0
	  return ErrorCode;

	if (BytesProcessed != NULL)
     9e6:	31 f0       	breq	.+12     	; 0x9f4 <Pipe_Read_Stream_LE+0x38>
     9e8:	88 81       	ld	r24, Y
	{
		Length -= *BytesProcessed;
     9ea:	99 81       	ldd	r25, Y+1	; 0x01
     9ec:	08 1b       	sub	r16, r24
     9ee:	19 0b       	sbc	r17, r25
     9f0:	e8 0e       	add	r14, r24
		TEMPLATE_BUFFER_MOVE(DataStream, *BytesProcessed);
     9f2:	f9 1e       	adc	r15, r25
     9f4:	c1 2c       	mov	r12, r1

uint8_t TEMPLATE_FUNC_NAME (TEMPLATE_BUFFER_TYPE const Buffer,
                            uint16_t Length,
                            uint16_t* const BytesProcessed)
{
	uint8_t* DataStream      = ((uint8_t*)Buffer + TEMPLATE_BUFFER_OFFSET(Length));
     9f6:	d1 2c       	mov	r13, r1
     9f8:	01 15       	cp	r16, r1
	{
		Length -= *BytesProcessed;
		TEMPLATE_BUFFER_MOVE(DataStream, *BytesProcessed);
	}

	while (Length)
     9fa:	11 05       	cpc	r17, r1
     9fc:	11 f1       	breq	.+68     	; 0xa42 <Pipe_Read_Stream_LE+0x86>
     9fe:	80 91 a6 00 	lds	r24, 0x00A6
			 *          on its direction.
			 */
			static inline bool Pipe_IsReadWriteAllowed(void) ATTR_WARN_UNUSED_RESULT ATTR_ALWAYS_INLINE;
			static inline bool Pipe_IsReadWriteAllowed(void)
			{
				return ((UPINTX & (1 << RWAL)) ? true : false);
     a02:	85 fd       	sbrc	r24, 5
	{
		if (!(Pipe_IsReadWriteAllowed()))
     a04:	13 c0       	rjmp	.+38     	; 0xa2c <Pipe_Read_Stream_LE+0x70>
     a06:	80 91 a6 00 	lds	r24, 0x00A6
			 *  \ingroup Group_PipePacketManagement_AVR8
			 */
			static inline void Pipe_ClearIN(void) ATTR_ALWAYS_INLINE;
			static inline void Pipe_ClearIN(void)
			{
				UPINTX &= ~((1 << RXINI) | (1 << FIFOCON));
     a0a:	8e 77       	andi	r24, 0x7E	; 126
     a0c:	80 93 a6 00 	sts	0x00A6, r24
     a10:	20 97       	sbiw	r28, 0x00	; 0
		{
			TEMPLATE_CLEAR_PIPE();

			if (BytesProcessed != NULL)
     a12:	41 f0       	breq	.+16     	; 0xa24 <Pipe_Read_Stream_LE+0x68>
     a14:	88 81       	ld	r24, Y
			{
				*BytesProcessed += BytesInTransfer;
     a16:	99 81       	ldd	r25, Y+1	; 0x01
     a18:	8c 0d       	add	r24, r12
     a1a:	9d 1d       	adc	r25, r13
     a1c:	99 83       	std	Y+1, r25	; 0x01
     a1e:	88 83       	st	Y, r24
     a20:	84 e0       	ldi	r24, 0x04	; 4
				return PIPE_RWSTREAM_IncompleteTransfer;
     a22:	10 c0       	rjmp	.+32     	; 0xa44 <Pipe_Read_Stream_LE+0x88>
     a24:	94 d0       	rcall	.+296    	; 0xb4e <Pipe_WaitUntilReady>
			}

			if ((ErrorCode = Pipe_WaitUntilReady()))
     a26:	88 23       	and	r24, r24
     a28:	39 f3       	breq	.-50     	; 0x9f8 <Pipe_Read_Stream_LE+0x3c>
     a2a:	0c c0       	rjmp	.+24     	; 0xa44 <Pipe_Read_Stream_LE+0x88>
     a2c:	80 91 af 00 	lds	r24, 0x00AF
			 *  \return Next byte in the currently selected pipe's FIFO buffer.
			 */
			static inline uint8_t Pipe_Read_8(void) ATTR_WARN_UNUSED_RESULT ATTR_ALWAYS_INLINE;
			static inline uint8_t Pipe_Read_8(void)
			{
				return UPDATX;
     a30:	f7 01       	movw	r30, r14
     a32:	81 93       	st	Z+, r24
			  return ErrorCode;
		}
		else
		{
			TEMPLATE_TRANSFER_BYTE(DataStream);
     a34:	7f 01       	movw	r14, r30
     a36:	01 50       	subi	r16, 0x01	; 1
     a38:	11 09       	sbc	r17, r1
			TEMPLATE_BUFFER_MOVE(DataStream, 1);
			Length--;
     a3a:	ff ef       	ldi	r31, 0xFF	; 255
     a3c:	cf 1a       	sub	r12, r31
			BytesInTransfer++;
     a3e:	df 0a       	sbc	r13, r31
     a40:	db cf       	rjmp	.-74     	; 0x9f8 <Pipe_Read_Stream_LE+0x3c>
     a42:	80 e0       	ldi	r24, 0x00	; 0
     a44:	df 91       	pop	r29
		}
	}

	return PIPE_RWSTREAM_NoError;
     a46:	cf 91       	pop	r28
}
     a48:	1f 91       	pop	r17
     a4a:	0f 91       	pop	r16
     a4c:	ff 90       	pop	r15
     a4e:	ef 90       	pop	r14
     a50:	df 90       	pop	r13
     a52:	cf 90       	pop	r12
     a54:	08 95       	ret

00000a56 <Pipe_ConfigurePipe>:
     a56:	0f 93       	push	r16
     a58:	e8 2f       	mov	r30, r24
                        const uint8_t Type,
                        const uint8_t EndpointAddress,
                        const uint16_t Size,
                        const uint8_t Banks)
{
	uint8_t Number = (Address & PIPE_EPNUM_MASK);
     a5a:	ef 70       	andi	r30, 0x0F	; 15
	uint8_t Token  = (Address & PIPE_DIR_IN) ? PIPE_TOKEN_IN : PIPE_TOKEN_OUT;
     a5c:	87 ff       	sbrs	r24, 7
     a5e:	02 c0       	rjmp	.+4      	; 0xa64 <Pipe_ConfigurePipe+0xe>
     a60:	80 e1       	ldi	r24, 0x10	; 16
     a62:	01 c0       	rjmp	.+2      	; 0xa66 <Pipe_ConfigurePipe+0x10>
     a64:	80 e2       	ldi	r24, 0x20	; 32

	if (Number >= PIPE_TOTAL_PIPES)
     a66:	e7 30       	cpi	r30, 0x07	; 7
     a68:	10 f0       	brcs	.+4      	; 0xa6e <Pipe_ConfigurePipe+0x18>
	  return false;
     a6a:	80 e0       	ldi	r24, 0x00	; 0
     a6c:	5a c0       	rjmp	.+180    	; 0xb22 <Pipe_ConfigurePipe+0xcc>

	if (Type == EP_TYPE_CONTROL)
     a6e:	61 11       	cpse	r22, r1
     a70:	01 c0       	rjmp	.+2      	; 0xa74 <Pipe_ConfigurePipe+0x1e>
	  Token = PIPE_TOKEN_SETUP;
     a72:	80 e0       	ldi	r24, 0x00	; 0

		Pipe_SelectPipe(PNum);

		if (PNum == Number)
		{
			UPCFG0XTemp = ((Type << EPTYPE0) | Token | ((EndpointAddress & PIPE_EPNUM_MASK) << PEPNUM0));
     a74:	90 e4       	ldi	r25, 0x40	; 64
     a76:	69 9f       	mul	r22, r25
     a78:	b0 01       	movw	r22, r0
     a7a:	11 24       	eor	r1, r1
     a7c:	4f 70       	andi	r20, 0x0F	; 15
     a7e:	46 2b       	or	r20, r22
     a80:	48 2b       	or	r20, r24
     a82:	5e 2f       	mov	r21, r30
			 *  \param[in] Address  Address of the pipe to select.
			 */
			static inline void Pipe_SelectPipe(const uint8_t Address) ATTR_ALWAYS_INLINE;
			static inline void Pipe_SelectPipe(const uint8_t Address)
			{
				UPNUM = (Address & PIPE_PIPENUM_MASK);
     a84:	50 93 a7 00 	sts	0x00A7, r21
		uint8_t UPCFG2XTemp;
		uint8_t UPIENXTemp;

		Pipe_SelectPipe(PNum);

		if (PNum == Number)
     a88:	5e 13       	cpse	r21, r30
     a8a:	19 c0       	rjmp	.+50     	; 0xabe <Pipe_ConfigurePipe+0x68>
		{
			UPCFG0XTemp = ((Type << EPTYPE0) | Token | ((EndpointAddress & PIPE_EPNUM_MASK) << PEPNUM0));
			UPCFG1XTemp = ((1 << ALLOC) | ((Banks > 1) ? (1 << EPBK0) : 0) | Pipe_BytesToEPSizeMask(Size));
     a8c:	02 30       	cpi	r16, 0x02	; 2
     a8e:	10 f0       	brcs	.+4      	; 0xa94 <Pipe_ConfigurePipe+0x3e>
     a90:	76 e0       	ldi	r23, 0x06	; 6
     a92:	01 c0       	rjmp	.+2      	; 0xa96 <Pipe_ConfigurePipe+0x40>
     a94:	72 e0       	ldi	r23, 0x02	; 2
		/* Inline Functions: */
			static inline uint8_t Pipe_BytesToEPSizeMask(const uint16_t Bytes) ATTR_WARN_UNUSED_RESULT ATTR_CONST ATTR_ALWAYS_INLINE;
			static inline uint8_t Pipe_BytesToEPSizeMask(const uint16_t Bytes)
			{
				uint8_t  MaskVal    = 0;
				uint16_t CheckBytes = 8;
     a96:	88 e0       	ldi	r24, 0x08	; 8
     a98:	90 e0       	ldi	r25, 0x00	; 0

		/* Inline Functions: */
			static inline uint8_t Pipe_BytesToEPSizeMask(const uint16_t Bytes) ATTR_WARN_UNUSED_RESULT ATTR_CONST ATTR_ALWAYS_INLINE;
			static inline uint8_t Pipe_BytesToEPSizeMask(const uint16_t Bytes)
			{
				uint8_t  MaskVal    = 0;
     a9a:	60 e0       	ldi	r22, 0x00	; 0
				uint16_t CheckBytes = 8;

				while ((CheckBytes < Bytes) && (CheckBytes < PIPE_MAX_SIZE))
     a9c:	82 17       	cp	r24, r18
     a9e:	93 07       	cpc	r25, r19
     aa0:	40 f0       	brcs	.+16     	; 0xab2 <Pipe_ConfigurePipe+0x5c>
				{
					MaskVal++;
					CheckBytes <<= 1;
				}

				return (MaskVal << EPSIZE0);
     aa2:	86 2f       	mov	r24, r22
     aa4:	82 95       	swap	r24
     aa6:	80 7f       	andi	r24, 0xF0	; 240
     aa8:	87 2b       	or	r24, r23

		Pipe_SelectPipe(PNum);

		if (PNum == Number)
		{
			UPCFG0XTemp = ((Type << EPTYPE0) | Token | ((EndpointAddress & PIPE_EPNUM_MASK) << PEPNUM0));
     aaa:	f4 2f       	mov	r31, r20
			UPCFG1XTemp = ((1 << ALLOC) | ((Banks > 1) ? (1 << EPBK0) : 0) | Pipe_BytesToEPSizeMask(Size));
			UPCFG2XTemp = 0;
			UPIENXTemp  = 0;
     aac:	60 e0       	ldi	r22, 0x00	; 0

		if (PNum == Number)
		{
			UPCFG0XTemp = ((Type << EPTYPE0) | Token | ((EndpointAddress & PIPE_EPNUM_MASK) << PEPNUM0));
			UPCFG1XTemp = ((1 << ALLOC) | ((Banks > 1) ? (1 << EPBK0) : 0) | Pipe_BytesToEPSizeMask(Size));
			UPCFG2XTemp = 0;
     aae:	70 e0       	ldi	r23, 0x00	; 0
     ab0:	0e c0       	rjmp	.+28     	; 0xace <Pipe_ConfigurePipe+0x78>
			static inline uint8_t Pipe_BytesToEPSizeMask(const uint16_t Bytes)
			{
				uint8_t  MaskVal    = 0;
				uint16_t CheckBytes = 8;

				while ((CheckBytes < Bytes) && (CheckBytes < PIPE_MAX_SIZE))
     ab2:	65 30       	cpi	r22, 0x05	; 5
     ab4:	b1 f3       	breq	.-20     	; 0xaa2 <Pipe_ConfigurePipe+0x4c>
				{
					MaskVal++;
     ab6:	6f 5f       	subi	r22, 0xFF	; 255
					CheckBytes <<= 1;
     ab8:	88 0f       	add	r24, r24
     aba:	99 1f       	adc	r25, r25
     abc:	ef cf       	rjmp	.-34     	; 0xa9c <Pipe_ConfigurePipe+0x46>
			UPIENXTemp  = 0;
		}
		else
		{
			UPCFG0XTemp = UPCFG0X;
     abe:	f0 91 aa 00 	lds	r31, 0x00AA
			UPCFG1XTemp = UPCFG1X;
     ac2:	80 91 ab 00 	lds	r24, 0x00AB
			UPCFG2XTemp = UPCFG2X;
     ac6:	70 91 ad 00 	lds	r23, 0x00AD
			UPIENXTemp  = UPIENX;
     aca:	60 91 ae 00 	lds	r22, 0x00AE
		}

		if (!(UPCFG1XTemp & (1 << ALLOC)))
     ace:	81 fd       	sbrc	r24, 1
     ad0:	07 c0       	rjmp	.+14     	; 0xae0 <Pipe_ConfigurePipe+0x8a>

	Pipe_SetInfiniteINRequests();

	return Pipe_IsConfigured();
#else
	for (uint8_t PNum = Number; PNum < PIPE_TOTAL_PIPES; PNum++)
     ad2:	5f 5f       	subi	r21, 0xFF	; 255
     ad4:	57 30       	cpi	r21, 0x07	; 7
     ad6:	b1 f6       	brne	.-84     	; 0xa84 <Pipe_ConfigurePipe+0x2e>
			 *  \param[in] Address  Address of the pipe to select.
			 */
			static inline void Pipe_SelectPipe(const uint8_t Address) ATTR_ALWAYS_INLINE;
			static inline void Pipe_SelectPipe(const uint8_t Address)
			{
				UPNUM = (Address & PIPE_PIPENUM_MASK);
     ad8:	e0 93 a7 00 	sts	0x00A7, r30
		if (!(Pipe_IsConfigured()))
		  return false;
	}

	Pipe_SelectPipe(Number);
	return true;
     adc:	81 e0       	ldi	r24, 0x01	; 1
     ade:	21 c0       	rjmp	.+66     	; 0xb22 <Pipe_ConfigurePipe+0xcc>
			 *  from an attached device.
			 */
			static inline void Pipe_DisablePipe(void) ATTR_ALWAYS_INLINE;
			static inline void Pipe_DisablePipe(void)
			{
				UPCONX &= ~(1 << PEN);
     ae0:	90 91 a9 00 	lds	r25, 0x00A9
     ae4:	9e 7f       	andi	r25, 0xFE	; 254
     ae6:	90 93 a9 00 	sts	0x00A9, r25

		if (!(UPCFG1XTemp & (1 << ALLOC)))
		  continue;

		Pipe_DisablePipe();
		UPCFG1X &= ~(1 << ALLOC);
     aea:	90 91 ab 00 	lds	r25, 0x00AB
     aee:	9d 7f       	andi	r25, 0xFD	; 253
     af0:	90 93 ab 00 	sts	0x00AB, r25
			 *  \pre The currently selected pipe must first be configured properly via \ref Pipe_ConfigurePipe().
			 */
			static inline void Pipe_EnablePipe(void) ATTR_ALWAYS_INLINE;
			static inline void Pipe_EnablePipe(void)
			{
				UPCONX |= (1 << PEN);
     af4:	90 91 a9 00 	lds	r25, 0x00A9
     af8:	91 60       	ori	r25, 0x01	; 1
     afa:	90 93 a9 00 	sts	0x00A9, r25

		Pipe_EnablePipe();
		UPCFG0X = UPCFG0XTemp;
     afe:	f0 93 aa 00 	sts	0x00AA, r31
		UPCFG1X = UPCFG1XTemp;
     b02:	80 93 ab 00 	sts	0x00AB, r24
		UPCFG2X = UPCFG2XTemp;
     b06:	70 93 ad 00 	sts	0x00AD, r23
		UPIENX  = UPIENXTemp;
     b0a:	60 93 ae 00 	sts	0x00AE, r22

			/** Configures the currently selected pipe to allow for an unlimited number of IN requests. */
			static inline void Pipe_SetInfiniteINRequests(void) ATTR_ALWAYS_INLINE;
			static inline void Pipe_SetInfiniteINRequests(void)
			{
				UPCONX |= (1 << INMODE);
     b0e:	80 91 a9 00 	lds	r24, 0x00A9
     b12:	80 62       	ori	r24, 0x20	; 32
     b14:	80 93 a9 00 	sts	0x00A9, r24
			 *  \return Boolean \c true if the selected pipe is configured, \c false otherwise.
			 */
			static inline bool Pipe_IsConfigured(void) ATTR_WARN_UNUSED_RESULT ATTR_ALWAYS_INLINE;
			static inline bool Pipe_IsConfigured(void)
			{
				return ((UPSTAX & (1 << CFGOK)) ? true : false);
     b18:	80 91 ac 00 	lds	r24, 0x00AC

		Pipe_SetInfiniteINRequests();

		if (!(Pipe_IsConfigured()))
     b1c:	87 fd       	sbrc	r24, 7
     b1e:	d9 cf       	rjmp	.-78     	; 0xad2 <Pipe_ConfigurePipe+0x7c>
     b20:	a4 cf       	rjmp	.-184    	; 0xa6a <Pipe_ConfigurePipe+0x14>
	}

	Pipe_SelectPipe(Number);
	return true;
#endif
}
     b22:	0f 91       	pop	r16
     b24:	08 95       	ret

00000b26 <Pipe_ClearPipes>:

void Pipe_ClearPipes(void)
{
	UPINT = 0;
     b26:	10 92 f8 00 	sts	0x00F8, r1

	for (uint8_t PNum = 0; PNum < PIPE_TOTAL_PIPES; PNum++)
     b2a:	80 e0       	ldi	r24, 0x00	; 0
			 *  \param[in] Address  Address of the pipe to select.
			 */
			static inline void Pipe_SelectPipe(const uint8_t Address) ATTR_ALWAYS_INLINE;
			static inline void Pipe_SelectPipe(const uint8_t Address)
			{
				UPNUM = (Address & PIPE_PIPENUM_MASK);
     b2c:	80 93 a7 00 	sts	0x00A7, r24
	{
		Pipe_SelectPipe(PNum);
		UPIENX  = 0;
     b30:	10 92 ae 00 	sts	0x00AE, r1
		UPINTX  = 0;
     b34:	10 92 a6 00 	sts	0x00A6, r1
		UPCFG1X = 0;
     b38:	10 92 ab 00 	sts	0x00AB, r1
			 *  from an attached device.
			 */
			static inline void Pipe_DisablePipe(void) ATTR_ALWAYS_INLINE;
			static inline void Pipe_DisablePipe(void)
			{
				UPCONX &= ~(1 << PEN);
     b3c:	90 91 a9 00 	lds	r25, 0x00A9
     b40:	9e 7f       	andi	r25, 0xFE	; 254
     b42:	90 93 a9 00 	sts	0x00A9, r25

void Pipe_ClearPipes(void)
{
	UPINT = 0;

	for (uint8_t PNum = 0; PNum < PIPE_TOTAL_PIPES; PNum++)
     b46:	8f 5f       	subi	r24, 0xFF	; 255
     b48:	87 30       	cpi	r24, 0x07	; 7
     b4a:	81 f7       	brne	.-32     	; 0xb2c <Pipe_ClearPipes+0x6>
		UPIENX  = 0;
		UPINTX  = 0;
		UPCFG1X = 0;
		Pipe_DisablePipe();
	}
}
     b4c:	08 95       	ret

00000b4e <Pipe_WaitUntilReady>:
			 *  \return Current USB frame number from the USB controller.
			 */
			static inline uint16_t USB_Host_GetFrameNumber(void) ATTR_WARN_UNUSED_RESULT ATTR_ALWAYS_INLINE;
			static inline uint16_t USB_Host_GetFrameNumber(void)
			{
				return UHFNUM;
     b4e:	80 91 a2 00 	lds	r24, 0x00A2
     b52:	90 91 a3 00 	lds	r25, 0x00A3
     b56:	45 e6       	ldi	r20, 0x65	; 101
			 *  \return The current pipe token, as a \c PIPE_TOKEN_* mask.
			 */
			static inline uint8_t Pipe_GetPipeToken(void) ATTR_WARN_UNUSED_RESULT ATTR_ALWAYS_INLINE;
			static inline uint8_t Pipe_GetPipeToken(void)
			{
				return (UPCFG0X & (0x03 << PTOKEN0));
     b58:	20 91 aa 00 	lds	r18, 0x00AA
     b5c:	20 73       	andi	r18, 0x30	; 48

	uint16_t PreviousFrameNumber = USB_Host_GetFrameNumber();

	for (;;)
	{
		if (Pipe_GetPipeToken() == PIPE_TOKEN_IN)
     b5e:	20 31       	cpi	r18, 0x10	; 16
     b60:	29 f4       	brne	.+10     	; 0xb6c <Pipe_WaitUntilReady+0x1e>
			 *  \return Boolean \c true if the current pipe has received an IN packet, \c false otherwise.
			 */
			static inline bool Pipe_IsINReceived(void) ATTR_WARN_UNUSED_RESULT ATTR_ALWAYS_INLINE;
			static inline bool Pipe_IsINReceived(void)
			{
				return ((UPINTX & (1 << RXINI)) ? true : false);
     b62:	20 91 a6 00 	lds	r18, 0x00A6
		{
			if (Pipe_IsINReceived())
     b66:	20 ff       	sbrs	r18, 0
     b68:	05 c0       	rjmp	.+10     	; 0xb74 <Pipe_WaitUntilReady+0x26>
     b6a:	17 c0       	rjmp	.+46     	; 0xb9a <Pipe_WaitUntilReady+0x4c>
			 *  \return Boolean \c true if the current pipe is ready for an OUT packet, \c false otherwise.
			 */
			static inline bool Pipe_IsOUTReady(void) ATTR_WARN_UNUSED_RESULT ATTR_ALWAYS_INLINE;
			static inline bool Pipe_IsOUTReady(void)
			{
				return ((UPINTX & (1 << TXOUTI)) ? true : false);
     b6c:	20 91 a6 00 	lds	r18, 0x00A6
			  return PIPE_READYWAIT_NoError;
		}
		else
		{
			if (Pipe_IsOUTReady())
     b70:	22 fd       	sbrc	r18, 2
     b72:	13 c0       	rjmp	.+38     	; 0xb9a <Pipe_WaitUntilReady+0x4c>
			 *  \return Boolean \c true if the current pipe has been stalled by the attached device, \c false otherwise.
			 */
			static inline bool Pipe_IsStalled(void) ATTR_WARN_UNUSED_RESULT ATTR_ALWAYS_INLINE;
			static inline bool Pipe_IsStalled(void)
			{
				return ((UPINTX & (1 << RXSTALLI)) ? true : false);
     b74:	20 91 a6 00 	lds	r18, 0x00A6
			  return PIPE_READYWAIT_NoError;
		}

		if (Pipe_IsStalled())
     b78:	21 fd       	sbrc	r18, 1
     b7a:	11 c0       	rjmp	.+34     	; 0xb9e <Pipe_WaitUntilReady+0x50>
		  return PIPE_READYWAIT_PipeStalled;
		else if (USB_HostState == HOST_STATE_Unattached)
     b7c:	20 91 27 01 	lds	r18, 0x0127
     b80:	21 30       	cpi	r18, 0x01	; 1
     b82:	79 f0       	breq	.+30     	; 0xba2 <Pipe_WaitUntilReady+0x54>
     b84:	20 91 a2 00 	lds	r18, 0x00A2
     b88:	30 91 a3 00 	lds	r19, 0x00A3
		  return PIPE_READYWAIT_DeviceDisconnected;

		uint16_t CurrentFrameNumber = USB_Host_GetFrameNumber();

		if (CurrentFrameNumber != PreviousFrameNumber)
     b8c:	28 17       	cp	r18, r24
     b8e:	39 07       	cpc	r19, r25
     b90:	19 f3       	breq	.-58     	; 0xb58 <Pipe_WaitUntilReady+0xa>
     b92:	41 50       	subi	r20, 0x01	; 1
		{
			PreviousFrameNumber = CurrentFrameNumber;

			if (!(TimeoutMSRem--))
     b94:	41 f0       	breq	.+16     	; 0xba6 <Pipe_WaitUntilReady+0x58>
     b96:	c9 01       	movw	r24, r18
     b98:	df cf       	rjmp	.-66     	; 0xb58 <Pipe_WaitUntilReady+0xa>
	for (;;)
	{
		if (Pipe_GetPipeToken() == PIPE_TOKEN_IN)
		{
			if (Pipe_IsINReceived())
			  return PIPE_READYWAIT_NoError;
     b9a:	80 e0       	ldi	r24, 0x00	; 0
     b9c:	08 95       	ret
			if (Pipe_IsOUTReady())
			  return PIPE_READYWAIT_NoError;
		}

		if (Pipe_IsStalled())
		  return PIPE_READYWAIT_PipeStalled;
     b9e:	81 e0       	ldi	r24, 0x01	; 1
     ba0:	08 95       	ret
		else if (USB_HostState == HOST_STATE_Unattached)
		  return PIPE_READYWAIT_DeviceDisconnected;
     ba2:	82 e0       	ldi	r24, 0x02	; 2
     ba4:	08 95       	ret
		if (CurrentFrameNumber != PreviousFrameNumber)
		{
			PreviousFrameNumber = CurrentFrameNumber;

			if (!(TimeoutMSRem--))
			  return PIPE_READYWAIT_Timeout;
     ba6:	83 e0       	ldi	r24, 0x03	; 3
		}
	}
}
     ba8:	08 95       	ret

00000baa <USB_Disable>:
	USB_ResetInterface();
}

void USB_Disable(void)
{
	USB_INT_DisableAllInterrupts();
     baa:	75 d0       	rcall	.+234    	; 0xc96 <USB_INT_DisableAllInterrupts>
     bac:	7c d0       	rcall	.+248    	; 0xca6 <USB_INT_ClearAllInterrupts>
	USB_INT_ClearAllInterrupts();
     bae:	e0 ee       	ldi	r30, 0xE0	; 224
     bb0:	f0 e0       	ldi	r31, 0x00	; 0
			 *  enumerating the device once attached until \ref USB_Attach() is called.
			 */
			static inline void USB_Detach(void) ATTR_ALWAYS_INLINE;
			static inline void USB_Detach(void)
			{
				UDCON  |=  (1 << DETACH);
     bb2:	80 81       	ld	r24, Z
     bb4:	81 60       	ori	r24, 0x01	; 1
     bb6:	80 83       	st	Z, r24
     bb8:	e8 ed       	ldi	r30, 0xD8	; 216
     bba:	f0 e0       	ldi	r31, 0x00	; 0
			}

			static inline void USB_Controller_Disable(void) ATTR_ALWAYS_INLINE;
			static inline void USB_Controller_Disable(void)
			{
				USBCON &= ~(1 << USBE);
     bbc:	80 81       	ld	r24, Z
     bbe:	8f 77       	andi	r24, 0x7F	; 127
     bc0:	80 83       	st	Z, r24
     bc2:	19 bc       	out	0x29, r1	; 41
     bc4:	a7 ed       	ldi	r26, 0xD7	; 215
			}

			static inline void USB_PLL_Off(void) ATTR_ALWAYS_INLINE;
			static inline void USB_PLL_Off(void)
			{
				PLLCSR = 0;
     bc6:	b0 e0       	ldi	r27, 0x00	; 0

			static inline void USB_REG_Off(void) ATTR_ALWAYS_INLINE;
			static inline void USB_REG_Off(void)
			{
			#if defined(USB_SERIES_4_AVR) || defined(USB_SERIES_6_AVR) || defined(USB_SERIES_7_AVR)
				UHWCON &= ~(1 << UVREGE);
     bc8:	8c 91       	ld	r24, X
     bca:	8e 7f       	andi	r24, 0xFE	; 254
     bcc:	8c 93       	st	X, r24
     bce:	80 81       	ld	r24, Z
     bd0:	8f 7e       	andi	r24, 0xEF	; 239
			}

			static inline void USB_OTGPAD_Off(void) ATTR_ALWAYS_INLINE;
			static inline void USB_OTGPAD_Off(void)
			{
				USBCON &= ~(1 << OTGPADE);
     bd2:	80 83       	st	Z, r24
     bd4:	10 92 1e 01 	sts	0x011E, r1

	#if defined(USB_CAN_BE_BOTH)
	USB_CurrentMode = USB_MODE_None;
	#endif

	USB_IsInitialized = false;
     bd8:	08 95       	ret

00000bda <USB_ResetInterface>:
     bda:	5d d0       	rcall	.+186    	; 0xc96 <USB_INT_DisableAllInterrupts>
     bdc:	64 d0       	rcall	.+200    	; 0xca6 <USB_INT_ClearAllInterrupts>
	#if defined(USB_CAN_BE_BOTH)
	bool UIDModeSelectEnabled = ((UHWCON & (1 << UIDE)) != 0);
	#endif

	USB_INT_DisableAllInterrupts();
	USB_INT_ClearAllInterrupts();
     bde:	80 91 d8 00 	lds	r24, 0x00D8
			}

			static inline void USB_Controller_Reset(void) ATTR_ALWAYS_INLINE;
			static inline void USB_Controller_Reset(void)
			{
				USBCON &= ~(1 << USBE);
     be2:	8f 77       	andi	r24, 0x7F	; 127
     be4:	80 93 d8 00 	sts	0x00D8, r24
     be8:	80 91 d8 00 	lds	r24, 0x00D8
				USBCON |=  (1 << USBE);
     bec:	80 68       	ori	r24, 0x80	; 128
     bee:	80 93 d8 00 	sts	0x00D8, r24
     bf2:	80 91 d8 00 	lds	r24, 0x00D8
			}

			static inline void USB_CLK_Unfreeze(void) ATTR_ALWAYS_INLINE;
			static inline void USB_CLK_Unfreeze(void)
			{
				USBCON &= ~(1 << FRZCLK);
     bf6:	8f 7d       	andi	r24, 0xDF	; 223
     bf8:	80 93 d8 00 	sts	0x00D8, r24
     bfc:	80 91 d7 00 	lds	r24, 0x00D7
		#endif
	}
	else if (USB_CurrentMode == USB_MODE_Host)
	{
		#if defined(USB_CAN_BE_HOST)
		UHWCON &= ~(1 << UIMOD);
     c00:	8f 77       	andi	r24, 0x7F	; 127
     c02:	80 93 d7 00 	sts	0x00D7, r24
     c06:	8c e0       	ldi	r24, 0x0C	; 12
     c08:	89 bd       	out	0x29, r24	; 41

		/* Inline Functions: */
			static inline void USB_PLL_On(void) ATTR_ALWAYS_INLINE;
			static inline void USB_PLL_On(void)
			{
				PLLCSR = USB_PLL_PSC;
     c0a:	8e e0       	ldi	r24, 0x0E	; 14
     c0c:	89 bd       	out	0x29, r24	; 41
				PLLCSR = (USB_PLL_PSC | (1 << PLLE));
     c0e:	09 b4       	in	r0, 0x29	; 41
     c10:	00 fe       	sbrs	r0, 0

		if (!(USB_Options & USB_OPT_MANUAL_PLL))
		{
			#if defined(USB_CAN_BE_HOST)
			USB_PLL_On();
			while (!(USB_PLL_IsReady()));
     c12:	fd cf       	rjmp	.-6      	; 0xc0e <USB_ResetInterface+0x34>
     c14:	81 e0       	ldi	r24, 0x01	; 1
     c16:	80 93 27 01 	sts	0x0127, r24
#endif

#if defined(USB_CAN_BE_HOST)
static void USB_Init_Host(void)
{
	USB_HostState                = HOST_STATE_Unattached;
     c1a:	10 92 1d 01 	sts	0x011D, r1
	USB_Host_ConfigurationNumber = 0;
     c1e:	80 e4       	ldi	r24, 0x40	; 64
     c20:	80 93 00 01 	sts	0x0100, r24
	USB_Host_ControlPipeSize     = PIPE_CONTROLPIPE_DEFAULT_SIZE;
     c24:	80 91 d8 00 	lds	r24, 0x00D8
	#if !defined(__DOXYGEN__)
		/* Macros: */
			static inline void USB_Host_HostMode_On(void) ATTR_ALWAYS_INLINE;
			static inline void USB_Host_HostMode_On(void)
			{
				USBCON |=  (1 << HOST);
     c28:	80 64       	ori	r24, 0x40	; 64
     c2a:	80 93 d8 00 	sts	0x00D8, r24
     c2e:	80 91 dd 00 	lds	r24, 0x00DD
			}

			static inline void USB_Host_VBUS_Auto_Off(void) ATTR_ALWAYS_INLINE;
			static inline void USB_Host_VBUS_Auto_Off(void)
			{
				OTGCON |=  (1 << VBUSRQC);
     c32:	81 60       	ori	r24, 0x01	; 1
     c34:	80 93 dd 00 	sts	0x00DD, r24
     c38:	80 91 dd 00 	lds	r24, 0x00DD
			}

			static inline void USB_Host_VBUS_Manual_Enable(void) ATTR_ALWAYS_INLINE;
			static inline void USB_Host_VBUS_Manual_Enable(void)
			{
				OTGCON |=  (1 << VBUSHWC);
     c3c:	84 60       	ori	r24, 0x04	; 4
     c3e:	80 93 dd 00 	sts	0x00DD, r24
     c42:	80 91 d7 00 	lds	r24, 0x00D7
				UHWCON &= ~(1 << UVCONE);
     c46:	8f 7e       	andi	r24, 0xEF	; 239
     c48:	80 93 d7 00 	sts	0x00D7, r24
     c4c:	6f 9a       	sbi	0x0d, 7	; 13
     c4e:	77 9a       	sbi	0x0e, 7	; 14

				DDRE   |=  (1 << 7);
     c50:	80 91 de 00 	lds	r24, 0x00DE
						break;
					case USB_INT_VBERRI:
						OTGIEN |= (1 << VBERRE);
						break;
					case USB_INT_SRPI:
						OTGIEN |= (1 << SRPE);
     c54:	81 60       	ori	r24, 0x01	; 1
     c56:	80 93 de 00 	sts	0x00DE, r24
     c5a:	80 91 de 00 	lds	r24, 0x00DE
						break;
					case USB_INT_RSTI:
						UHIEN  |= (1 << RSTE);
						break;
					case USB_INT_BCERRI:
						OTGIEN |= (1 << BCERRE);
     c5e:	84 60       	ori	r24, 0x04	; 4
     c60:	80 93 de 00 	sts	0x00DE, r24
     c64:	80 91 e0 00 	lds	r24, 0x00E0
			 *  register and despite the datasheet making no mention of its requirement in host mode.
			 */
			static inline void USB_Attach(void) ATTR_ALWAYS_INLINE;
			static inline void USB_Attach(void)
			{
				UDCON  &= ~(1 << DETACH);
     c68:	8e 7f       	andi	r24, 0xFE	; 254
     c6a:	80 93 e0 00 	sts	0x00E0, r24
     c6e:	80 91 d8 00 	lds	r24, 0x00D8

			#if defined(USB_SERIES_4_AVR) || defined(USB_SERIES_6_AVR) || defined(USB_SERIES_7_AVR)
			static inline void USB_OTGPAD_On(void) ATTR_ALWAYS_INLINE;
			static inline void USB_OTGPAD_On(void)
			{
				USBCON |=  (1 << OTGPADE);
     c72:	80 61       	ori	r24, 0x10	; 16
     c74:	80 93 d8 00 	sts	0x00D8, r24
     c78:	08 95       	ret

00000c7a <USB_Init>:
     c7a:	e8 ed       	ldi	r30, 0xD8	; 216
     c7c:	f0 e0       	ldi	r31, 0x00	; 0
			}

			static inline void USB_OTGPAD_Off(void) ATTR_ALWAYS_INLINE;
			static inline void USB_OTGPAD_Off(void)
			{
				USBCON &= ~(1 << OTGPADE);
     c7e:	80 81       	ld	r24, Z
     c80:	8f 7e       	andi	r24, 0xEF	; 239
     c82:	80 83       	st	Z, r24

			static inline void USB_REG_On(void) ATTR_ALWAYS_INLINE;
			static inline void USB_REG_On(void)
			{
			#if defined(USB_SERIES_4_AVR) || defined(USB_SERIES_6_AVR) || defined(USB_SERIES_7_AVR)
				UHWCON |=  (1 << UVREGE);
     c84:	e7 ed       	ldi	r30, 0xD7	; 215
     c86:	f0 e0       	ldi	r31, 0x00	; 0
     c88:	80 81       	ld	r24, Z
     c8a:	81 60       	ori	r24, 0x01	; 1
     c8c:	80 83       	st	Z, r24
		UHWCON &= ~(1 << UIDE);
		USB_CurrentMode = Mode;
	}
	#endif

	USB_IsInitialized = true;
     c8e:	81 e0       	ldi	r24, 0x01	; 1
     c90:	80 93 1e 01 	sts	0x011E, r24

	USB_ResetInterface();
     c94:	a2 cf       	rjmp	.-188    	; 0xbda <USB_ResetInterface>

00000c96 <USB_INT_DisableAllInterrupts>:
     c96:	e8 ed       	ldi	r30, 0xD8	; 216
#include "../USBInterrupt.h"

void USB_INT_DisableAllInterrupts(void)
{
	#if defined(USB_SERIES_6_AVR) || defined(USB_SERIES_7_AVR)
	USBCON &= ~((1 << VBUSTE) | (1 << IDTE));
     c98:	f0 e0       	ldi	r31, 0x00	; 0
     c9a:	80 81       	ld	r24, Z
     c9c:	8c 7f       	andi	r24, 0xFC	; 252
     c9e:	80 83       	st	Z, r24
	#if defined(USB_CAN_BE_BOTH)
	OTGIEN  = 0;
	#endif

	#if defined(USB_CAN_BE_HOST)
	UHIEN   = 0;
     ca0:	10 92 a0 00 	sts	0x00A0, r1
     ca4:	08 95       	ret

00000ca6 <USB_INT_ClearAllInterrupts>:
}

void USB_INT_ClearAllInterrupts(void)
{
	#if defined(USB_SERIES_4_AVR) || defined(USB_SERIES_6_AVR) || defined(USB_SERIES_7_AVR)
	USBINT = 0;
     ca6:	10 92 da 00 	sts	0x00DA, r1
	#if defined(USB_CAN_BE_BOTH)
	OTGINT = 0;
	#endif

	#if defined(USB_CAN_BE_HOST)
	UHINT  = 0;
     caa:	10 92 9f 00 	sts	0x009F, r1
     cae:	08 95       	ret

00000cb0 <__vector_10>:
	UDINT  = 0;
	#endif
}

ISR(USB_GEN_vect, ISR_BLOCK)
{
     cb0:	1f 92       	push	r1
     cb2:	0f 92       	push	r0
     cb4:	0f b6       	in	r0, 0x3f	; 63
     cb6:	0f 92       	push	r0
     cb8:	11 24       	eor	r1, r1
     cba:	0b b6       	in	r0, 0x3b	; 59
     cbc:	0f 92       	push	r0
     cbe:	2f 93       	push	r18
     cc0:	3f 93       	push	r19
     cc2:	4f 93       	push	r20
     cc4:	5f 93       	push	r21
     cc6:	6f 93       	push	r22
     cc8:	7f 93       	push	r23
     cca:	8f 93       	push	r24
     ccc:	9f 93       	push	r25
     cce:	af 93       	push	r26
     cd0:	bf 93       	push	r27
     cd2:	ef 93       	push	r30
     cd4:	ff 93       	push	r31
					case USB_INT_RXSTPI:
						return (UEINTX & (1 << RXSTPI));
					#endif
					#if defined(USB_CAN_BE_HOST)
					case USB_INT_HSOFI:
						return (UHINT  & (1 << HSOFI));
     cd6:	80 91 9f 00 	lds	r24, 0x009F
	}
	#endif

	#if defined(USB_CAN_BE_HOST)
	#if !defined(NO_SOF_EVENTS)
	if (USB_INT_HasOccurred(USB_INT_HSOFI) && USB_INT_IsEnabled(USB_INT_HSOFI))
     cda:	85 ff       	sbrs	r24, 5
     cdc:	0a c0       	rjmp	.+20     	; 0xcf2 <__vector_10+0x42>
					case USB_INT_RXSTPI:
						return (UEIENX & (1 << RXSTPE));
					#endif
					#if defined(USB_CAN_BE_HOST)
					case USB_INT_HSOFI:
						return (UHIEN  & (1 << HSOFE));
     cde:	80 91 a0 00 	lds	r24, 0x00A0
     ce2:	85 ff       	sbrs	r24, 5
     ce4:	06 c0       	rjmp	.+12     	; 0xcf2 <__vector_10+0x42>
						UEINTX &= ~(1 << RXSTPI);
						break;
					#endif
					#if defined(USB_CAN_BE_HOST)
					case USB_INT_HSOFI:
						UHINT  &= ~(1 << HSOFI);
     ce6:	80 91 9f 00 	lds	r24, 0x009F
     cea:	8f 7d       	andi	r24, 0xDF	; 223
     cec:	80 93 9f 00 	sts	0x009F, r24
	{
		USB_INT_Clear(USB_INT_HSOFI);

		EVENT_USB_Host_StartOfFrame();
     cf0:	1a d1       	rcall	.+564    	; 0xf26 <USB_Event_Stub>
     cf2:	80 91 9f 00 	lds	r24, 0x009F
					case USB_INT_HSOFI:
						return (UHINT  & (1 << HSOFI));
					case USB_INT_DCONNI:
						return (UHINT  & (1 << DCONNI));
					case USB_INT_DDISCI:
						return (UHINT  & (1 << DDISCI));
     cf6:	81 ff       	sbrs	r24, 1
	}
	#endif

	if (USB_INT_HasOccurred(USB_INT_DDISCI) && USB_INT_IsEnabled(USB_INT_DDISCI))
     cf8:	15 c0       	rjmp	.+42     	; 0xd24 <__vector_10+0x74>
     cfa:	80 91 a0 00 	lds	r24, 0x00A0
					case USB_INT_HSOFI:
						return (UHIEN  & (1 << HSOFE));
					case USB_INT_DCONNI:
						return (UHIEN  & (1 << DCONNE));
					case USB_INT_DDISCI:
						return (UHIEN  & (1 << DDISCE));
     cfe:	81 ff       	sbrs	r24, 1
     d00:	11 c0       	rjmp	.+34     	; 0xd24 <__vector_10+0x74>
     d02:	80 91 9f 00 	lds	r24, 0x009F
						break;
					case USB_INT_DCONNI:
						UHINT  &= ~(1 << DCONNI);
						break;
					case USB_INT_DDISCI:
						UHINT  &= ~(1 << DDISCI);
     d06:	8d 7f       	andi	r24, 0xFD	; 253
     d08:	80 93 9f 00 	sts	0x009F, r24
     d0c:	80 91 9f 00 	lds	r24, 0x009F
					#if defined(USB_CAN_BE_HOST)
					case USB_INT_HSOFI:
						UHINT  &= ~(1 << HSOFI);
						break;
					case USB_INT_DCONNI:
						UHINT  &= ~(1 << DCONNI);
     d10:	8e 7f       	andi	r24, 0xFE	; 254
     d12:	80 93 9f 00 	sts	0x009F, r24
     d16:	80 91 a0 00 	lds	r24, 0x00A0
						break;
					case USB_INT_DCONNI:
						UHIEN  &= ~(1 << DCONNE);
						break;
					case USB_INT_DDISCI:
						UHIEN  &= ~(1 << DDISCE);
     d1a:	8d 7f       	andi	r24, 0xFD	; 253
     d1c:	80 93 a0 00 	sts	0x00A0, r24
     d20:	0e db       	rcall	.-2532   	; 0x33e <EVENT_USB_Host_DeviceUnattached>
	{
		USB_INT_Clear(USB_INT_DDISCI);
		USB_INT_Clear(USB_INT_DCONNI);
		USB_INT_Disable(USB_INT_DDISCI);

		EVENT_USB_Host_DeviceUnattached();
     d22:	5b df       	rcall	.-330    	; 0xbda <USB_ResetInterface>
     d24:	80 91 df 00 	lds	r24, 0x00DF

		USB_ResetInterface();
     d28:	81 ff       	sbrs	r24, 1
					case USB_INT_RSTI:
						return (UHINT  & (1 << RSTI));
					case USB_INT_BCERRI:
						return (OTGINT & (1 << BCERRI));
					case USB_INT_VBERRI:
						return (OTGINT & (1 << VBERRI));
     d2a:	15 c0       	rjmp	.+42     	; 0xd56 <__vector_10+0xa6>
     d2c:	80 91 de 00 	lds	r24, 0x00DE
	}

	if (USB_INT_HasOccurred(USB_INT_VBERRI) && USB_INT_IsEnabled(USB_INT_VBERRI))
     d30:	81 ff       	sbrs	r24, 1
					case USB_INT_RSTI:
						return (UHIEN  & (1 << RSTE));
					case USB_INT_BCERRI:
						return (OTGIEN & (1 << BCERRE));
					case USB_INT_VBERRI:
						return (OTGIEN & (1 << VBERRE));
     d32:	11 c0       	rjmp	.+34     	; 0xd56 <__vector_10+0xa6>
     d34:	80 91 df 00 	lds	r24, 0x00DF
     d38:	8d 7f       	andi	r24, 0xFD	; 253
						break;
					case USB_INT_BCERRI:
						OTGINT &= ~(1 << BCERRI);
						break;
					case USB_INT_VBERRI:
						OTGINT &= ~(1 << VBERRI);
     d3a:	80 93 df 00 	sts	0x00DF, r24
     d3e:	77 98       	cbi	0x0e, 7	; 14
     d40:	80 91 dd 00 	lds	r24, 0x00DD
			static inline void USB_Host_VBUS_Manual_Off(void)
			{
				#if defined(INVERTED_VBUS_ENABLE_LINE)
				PORTE  |=  (1 << 7);
				#else
				PORTE  &= ~(1 << 7);
     d44:	81 60       	ori	r24, 0x01	; 1
			}

			static inline void USB_Host_VBUS_Auto_Off(void) ATTR_ALWAYS_INLINE;
			static inline void USB_Host_VBUS_Auto_Off(void)
			{
				OTGCON |=  (1 << VBUSRQC);
     d46:	80 93 dd 00 	sts	0x00DD, r24
     d4a:	80 e0       	ldi	r24, 0x00	; 0
     d4c:	49 db       	rcall	.-2414   	; 0x3e0 <EVENT_USB_Host_HostError>
     d4e:	f7 da       	rcall	.-2578   	; 0x33e <EVENT_USB_Host_DeviceUnattached>
		USB_INT_Clear(USB_INT_VBERRI);

		USB_Host_VBUS_Manual_Off();
		USB_Host_VBUS_Auto_Off();

		EVENT_USB_Host_HostError(HOST_ERROR_VBusVoltageDip);
     d50:	81 e0       	ldi	r24, 0x01	; 1
     d52:	80 93 27 01 	sts	0x0127, r24
		EVENT_USB_Host_DeviceUnattached();
     d56:	80 91 df 00 	lds	r24, 0x00DF

		USB_HostState = HOST_STATE_Unattached;
     d5a:	80 ff       	sbrs	r24, 0
     d5c:	17 c0       	rjmp	.+46     	; 0xd8c <__vector_10+0xdc>
     d5e:	80 91 de 00 	lds	r24, 0x00DE
					case USB_INT_BCERRI:
						return (OTGINT & (1 << BCERRI));
					case USB_INT_VBERRI:
						return (OTGINT & (1 << VBERRI));
					case USB_INT_SRPI:
						return (OTGINT & (1 << SRPI));
     d62:	80 ff       	sbrs	r24, 0
	}

	if (USB_INT_HasOccurred(USB_INT_SRPI) && USB_INT_IsEnabled(USB_INT_SRPI))
     d64:	13 c0       	rjmp	.+38     	; 0xd8c <__vector_10+0xdc>
     d66:	80 91 df 00 	lds	r24, 0x00DF
					case USB_INT_BCERRI:
						return (OTGIEN & (1 << BCERRE));
					case USB_INT_VBERRI:
						return (OTGIEN & (1 << VBERRE));
					case USB_INT_SRPI:
						return (OTGIEN & (1 << SRPE));
     d6a:	8e 7f       	andi	r24, 0xFE	; 254
     d6c:	80 93 df 00 	sts	0x00DF, r24
						break;
					case USB_INT_VBERRI:
						OTGINT &= ~(1 << VBERRI);
						break;
					case USB_INT_SRPI:
						OTGINT &= ~(1 << SRPI);
     d70:	80 91 de 00 	lds	r24, 0x00DE
     d74:	8e 7f       	andi	r24, 0xFE	; 254
     d76:	80 93 de 00 	sts	0x00DE, r24
						break;
					case USB_INT_VBERRI:
						OTGIEN &= ~(1 << VBERRE);
						break;
					case USB_INT_SRPI:
						OTGIEN &= ~(1 << SRPE);
     d7a:	dc da       	rcall	.-2632   	; 0x334 <EVENT_USB_Host_DeviceAttached>
     d7c:	80 91 a0 00 	lds	r24, 0x00A0
     d80:	82 60       	ori	r24, 0x02	; 2
     d82:	80 93 a0 00 	sts	0x00A0, r24
	{
		USB_INT_Clear(USB_INT_SRPI);
		USB_INT_Disable(USB_INT_SRPI);

		EVENT_USB_Host_DeviceAttached();
     d86:	82 e0       	ldi	r24, 0x02	; 2
						break;
					case USB_INT_DCONNI:
						UHIEN  |= (1 << DCONNE);
						break;
					case USB_INT_DDISCI:
						UHIEN  |= (1 << DDISCE);
     d88:	80 93 27 01 	sts	0x0127, r24
     d8c:	80 91 df 00 	lds	r24, 0x00DF
     d90:	82 ff       	sbrs	r24, 2

		USB_INT_Enable(USB_INT_DDISCI);

		USB_HostState = HOST_STATE_Powered;
     d92:	0e c0       	rjmp	.+28     	; 0xdb0 <__vector_10+0x100>
     d94:	80 91 de 00 	lds	r24, 0x00DE
					case USB_INT_DDISCI:
						return (UHINT  & (1 << DDISCI));
					case USB_INT_RSTI:
						return (UHINT  & (1 << RSTI));
					case USB_INT_BCERRI:
						return (OTGINT & (1 << BCERRI));
     d98:	82 ff       	sbrs	r24, 2
     d9a:	0a c0       	rjmp	.+20     	; 0xdb0 <__vector_10+0x100>
	}

	if (USB_INT_HasOccurred(USB_INT_BCERRI) && USB_INT_IsEnabled(USB_INT_BCERRI))
     d9c:	80 91 df 00 	lds	r24, 0x00DF
					case USB_INT_DDISCI:
						return (UHIEN  & (1 << DDISCE));
					case USB_INT_RSTI:
						return (UHIEN  & (1 << RSTE));
					case USB_INT_BCERRI:
						return (OTGIEN & (1 << BCERRE));
     da0:	8b 7f       	andi	r24, 0xFB	; 251
     da2:	80 93 df 00 	sts	0x00DF, r24
     da6:	60 e0       	ldi	r22, 0x00	; 0
						break;
					case USB_INT_RSTI:
						UHINT  &= ~(1 << RSTI);
						break;
					case USB_INT_BCERRI:
						OTGINT &= ~(1 << BCERRI);
     da8:	82 e0       	ldi	r24, 0x02	; 2
     daa:	30 db       	rcall	.-2464   	; 0x40c <EVENT_USB_Host_DeviceEnumerationFailed>
     dac:	c8 da       	rcall	.-2672   	; 0x33e <EVENT_USB_Host_DeviceUnattached>
     dae:	15 df       	rcall	.-470    	; 0xbda <USB_ResetInterface>
     db0:	ff 91       	pop	r31
	{
		USB_INT_Clear(USB_INT_BCERRI);

		EVENT_USB_Host_DeviceEnumerationFailed(HOST_ENUMERROR_NoDeviceDetected, 0);
     db2:	ef 91       	pop	r30
     db4:	bf 91       	pop	r27
     db6:	af 91       	pop	r26
     db8:	9f 91       	pop	r25
		EVENT_USB_Host_DeviceUnattached();
     dba:	8f 91       	pop	r24
     dbc:	7f 91       	pop	r23

		USB_ResetInterface();
     dbe:	6f 91       	pop	r22
     dc0:	5f 91       	pop	r21
		USB_ResetInterface();

		EVENT_USB_UIDChange();
	}
	#endif
}
     dc2:	4f 91       	pop	r20
     dc4:	3f 91       	pop	r19
     dc6:	2f 91       	pop	r18
     dc8:	0f 90       	pop	r0
     dca:	0b be       	out	0x3b, r0	; 59
     dcc:	0f 90       	pop	r0
     dce:	0f be       	out	0x3f, r0	; 63
     dd0:	0f 90       	pop	r0
     dd2:	1f 90       	pop	r1
     dd4:	18 95       	reti

00000dd6 <USB_GetNextDescriptor>:
     dd6:	cf 93       	push	r28
     dd8:	df 93       	push	r29
     dda:	fc 01       	movw	r30, r24
     ddc:	eb 01       	movw	r28, r22
     dde:	a8 81       	ld	r26, Y
     de0:	b9 81       	ldd	r27, Y+1	; 0x01
     de2:	8c 91       	ld	r24, X
     de4:	90 e0       	ldi	r25, 0x00	; 0
     de6:	20 81       	ld	r18, Z
			static inline void USB_GetNextDescriptor(uint16_t* const BytesRem,
			                                         void** CurrConfigLoc)
			{
				uint16_t CurrDescriptorSize = DESCRIPTOR_CAST(*CurrConfigLoc, USB_Descriptor_Header_t).Size;

				if (*BytesRem < CurrDescriptorSize)
     de8:	31 81       	ldd	r19, Z+1	; 0x01
     dea:	82 17       	cp	r24, r18
     dec:	93 07       	cpc	r25, r19
     dee:	08 f4       	brcc	.+2      	; 0xdf2 <USB_GetNextDescriptor+0x1c>
     df0:	9c 01       	movw	r18, r24
				  CurrDescriptorSize = *BytesRem;

				*CurrConfigLoc  = (void*)((uintptr_t)*CurrConfigLoc + CurrDescriptorSize);
     df2:	a2 0f       	add	r26, r18
     df4:	b3 1f       	adc	r27, r19
     df6:	eb 01       	movw	r28, r22
     df8:	b9 83       	std	Y+1, r27	; 0x01
     dfa:	a8 83       	st	Y, r26
				*BytesRem      -= CurrDescriptorSize;
     dfc:	80 81       	ld	r24, Z
     dfe:	91 81       	ldd	r25, Z+1	; 0x01
     e00:	82 1b       	sub	r24, r18
     e02:	93 0b       	sbc	r25, r19
     e04:	91 83       	std	Z+1, r25	; 0x01
     e06:	80 83       	st	Z, r24
			}
     e08:	df 91       	pop	r29
     e0a:	cf 91       	pop	r28
     e0c:	08 95       	ret

00000e0e <USB_Host_GetDeviceConfigDescriptor>:
#if defined(USB_CAN_BE_HOST)
uint8_t USB_Host_GetDeviceConfigDescriptor(const uint8_t ConfigNumber,
                                           uint16_t* const ConfigSizePtr,
                                           void* const BufferPtr,
                                           const uint16_t BufferSize)
{
     e0e:	cf 92       	push	r12
     e10:	df 92       	push	r13
     e12:	ef 92       	push	r14
     e14:	ff 92       	push	r15
     e16:	0f 93       	push	r16
     e18:	1f 93       	push	r17
     e1a:	cf 93       	push	r28
     e1c:	df 93       	push	r29
     e1e:	cd b7       	in	r28, 0x3d	; 61
     e20:	de b7       	in	r29, 0x3e	; 62
     e22:	29 97       	sbiw	r28, 0x09	; 9
     e24:	0f b6       	in	r0, 0x3f	; 63
     e26:	f8 94       	cli
     e28:	de bf       	out	0x3e, r29	; 62
     e2a:	0f be       	out	0x3f, r0	; 63
     e2c:	cd bf       	out	0x3d, r28	; 61
     e2e:	7b 01       	movw	r14, r22
     e30:	8a 01       	movw	r16, r20
     e32:	69 01       	movw	r12, r18
	uint8_t ErrorCode;
	uint8_t ConfigHeader[sizeof(USB_Descriptor_Configuration_Header_t)];

	USB_ControlRequest = (USB_Request_Header_t)
     e34:	90 e8       	ldi	r25, 0x80	; 128
     e36:	90 93 1f 01 	sts	0x011F, r25
     e3a:	96 e0       	ldi	r25, 0x06	; 6
     e3c:	90 93 20 01 	sts	0x0120, r25
		{
			.bmRequestType = (REQDIR_DEVICETOHOST | REQTYPE_STANDARD | REQREC_DEVICE),
			.bRequest      = REQ_GetDescriptor,
			.wValue        = ((DTYPE_Configuration << 8) | (ConfigNumber - 1)),
     e40:	e8 2f       	mov	r30, r24
     e42:	f0 e0       	ldi	r31, 0x00	; 0
     e44:	31 97       	sbiw	r30, 0x01	; 1
     e46:	f2 60       	ori	r31, 0x02	; 2
                                           const uint16_t BufferSize)
{
	uint8_t ErrorCode;
	uint8_t ConfigHeader[sizeof(USB_Descriptor_Configuration_Header_t)];

	USB_ControlRequest = (USB_Request_Header_t)
     e48:	f0 93 22 01 	sts	0x0122, r31
     e4c:	e0 93 21 01 	sts	0x0121, r30
     e50:	10 92 24 01 	sts	0x0124, r1
     e54:	10 92 23 01 	sts	0x0123, r1
     e58:	89 e0       	ldi	r24, 0x09	; 9
     e5a:	90 e0       	ldi	r25, 0x00	; 0
     e5c:	90 93 26 01 	sts	0x0126, r25
     e60:	80 93 25 01 	sts	0x0125, r24
     e64:	10 92 a7 00 	sts	0x00A7, r1
			.wLength       = sizeof(USB_Descriptor_Configuration_Header_t),
		};

	Pipe_SelectPipe(PIPE_CONTROLPIPE);

	if ((ErrorCode = USB_Host_SendControlRequest(ConfigHeader)) != HOST_SENDCONTROL_Successful)
     e68:	ce 01       	movw	r24, r28
     e6a:	01 96       	adiw	r24, 0x01	; 1
     e6c:	84 d0       	rcall	.+264    	; 0xf76 <USB_Host_SendControlRequest>
     e6e:	81 11       	cpse	r24, r1
     e70:	19 c0       	rjmp	.+50     	; 0xea4 <USB_Host_GetDeviceConfigDescriptor+0x96>
     e72:	eb 81       	ldd	r30, Y+3	; 0x03
	  return ErrorCode;

	*ConfigSizePtr = le16_to_cpu(DESCRIPTOR_PCAST(ConfigHeader, USB_Descriptor_Configuration_Header_t)->TotalConfigurationSize);
     e74:	fc 81       	ldd	r31, Y+4	; 0x04
     e76:	d7 01       	movw	r26, r14
     e78:	ed 93       	st	X+, r30
     e7a:	fc 93       	st	X, r31
     e7c:	ce 16       	cp	r12, r30

	if (*ConfigSizePtr > BufferSize)
     e7e:	df 06       	cpc	r13, r31
     e80:	70 f0       	brcs	.+28     	; 0xe9e <USB_Host_GetDeviceConfigDescriptor+0x90>
     e82:	f0 93 26 01 	sts	0x0126, r31
	  return HOST_GETCONFIG_BuffOverflow;

	USB_ControlRequest.wLength = *ConfigSizePtr;
     e86:	e0 93 25 01 	sts	0x0125, r30
     e8a:	c8 01       	movw	r24, r16

	if ((ErrorCode = USB_Host_SendControlRequest(BufferPtr)) != HOST_SENDCONTROL_Successful)
     e8c:	74 d0       	rcall	.+232    	; 0xf76 <USB_Host_SendControlRequest>
     e8e:	81 11       	cpse	r24, r1
     e90:	09 c0       	rjmp	.+18     	; 0xea4 <USB_Host_GetDeviceConfigDescriptor+0x96>
     e92:	f8 01       	movw	r30, r16
     e94:	81 81       	ldd	r24, Z+1	; 0x01
	  return ErrorCode;

	if (DESCRIPTOR_TYPE(BufferPtr) != DTYPE_Configuration)
     e96:	82 30       	cpi	r24, 0x02	; 2
     e98:	21 f0       	breq	.+8      	; 0xea2 <USB_Host_GetDeviceConfigDescriptor+0x94>
     e9a:	86 e0       	ldi	r24, 0x06	; 6
     e9c:	03 c0       	rjmp	.+6      	; 0xea4 <USB_Host_GetDeviceConfigDescriptor+0x96>
	  return HOST_GETCONFIG_InvalidData;
     e9e:	85 e0       	ldi	r24, 0x05	; 5
     ea0:	01 c0       	rjmp	.+2      	; 0xea4 <USB_Host_GetDeviceConfigDescriptor+0x96>
	  return ErrorCode;

	*ConfigSizePtr = le16_to_cpu(DESCRIPTOR_PCAST(ConfigHeader, USB_Descriptor_Configuration_Header_t)->TotalConfigurationSize);

	if (*ConfigSizePtr > BufferSize)
	  return HOST_GETCONFIG_BuffOverflow;
     ea2:	80 e0       	ldi	r24, 0x00	; 0
     ea4:	29 96       	adiw	r28, 0x09	; 9
	  return ErrorCode;

	if (DESCRIPTOR_TYPE(BufferPtr) != DTYPE_Configuration)
	  return HOST_GETCONFIG_InvalidData;

	return HOST_GETCONFIG_Successful;
     ea6:	0f b6       	in	r0, 0x3f	; 63
}
     ea8:	f8 94       	cli
     eaa:	de bf       	out	0x3e, r29	; 62
     eac:	0f be       	out	0x3f, r0	; 63
     eae:	cd bf       	out	0x3d, r28	; 61
     eb0:	df 91       	pop	r29
     eb2:	cf 91       	pop	r28
     eb4:	1f 91       	pop	r17
     eb6:	0f 91       	pop	r16
     eb8:	ff 90       	pop	r15
     eba:	ef 90       	pop	r14
     ebc:	df 90       	pop	r13
     ebe:	cf 90       	pop	r12
     ec0:	08 95       	ret

00000ec2 <USB_GetNextDescriptorComp>:
     ec2:	af 92       	push	r10
     ec4:	bf 92       	push	r11
}

uint8_t USB_GetNextDescriptorComp(uint16_t* const BytesRem,
                                  void** const CurrConfigLoc,
                                  ConfigComparatorPtr_t const ComparatorRoutine)
{
     ec6:	cf 92       	push	r12
     ec8:	df 92       	push	r13
     eca:	ef 92       	push	r14
     ecc:	ff 92       	push	r15
     ece:	0f 93       	push	r16
     ed0:	1f 93       	push	r17
     ed2:	cf 93       	push	r28
     ed4:	df 93       	push	r29
     ed6:	8c 01       	movw	r16, r24
     ed8:	eb 01       	movw	r28, r22
     eda:	6a 01       	movw	r12, r20
	uint8_t ErrorCode;

	while (*BytesRem)
     edc:	f8 01       	movw	r30, r16
     ede:	e0 80       	ld	r14, Z
     ee0:	f1 80       	ldd	r15, Z+1	; 0x01
     ee2:	e1 14       	cp	r14, r1
     ee4:	f1 04       	cpc	r15, r1
     ee6:	99 f0       	breq	.+38     	; 0xf0e <USB_GetNextDescriptorComp+0x4c>
	{
		uint8_t* PrevDescLoc  = *CurrConfigLoc;
     ee8:	a8 80       	ld	r10, Y
     eea:	b9 80       	ldd	r11, Y+1	; 0x01
		uint16_t PrevBytesRem = *BytesRem;

		USB_GetNextDescriptor(BytesRem, CurrConfigLoc);
     eec:	be 01       	movw	r22, r28
     eee:	c8 01       	movw	r24, r16
     ef0:	72 df       	rcall	.-284    	; 0xdd6 <USB_GetNextDescriptor>
     ef2:	88 81       	ld	r24, Y

		if ((ErrorCode = ComparatorRoutine(*CurrConfigLoc)) != DESCRIPTOR_SEARCH_NotFound)
     ef4:	99 81       	ldd	r25, Y+1	; 0x01
     ef6:	f6 01       	movw	r30, r12
     ef8:	09 95       	icall
     efa:	82 30       	cpi	r24, 0x02	; 2
     efc:	79 f3       	breq	.-34     	; 0xedc <USB_GetNextDescriptorComp+0x1a>
     efe:	81 30       	cpi	r24, 0x01	; 1
		{
			if (ErrorCode == DESCRIPTOR_SEARCH_Fail)
     f00:	39 f4       	brne	.+14     	; 0xf10 <USB_GetNextDescriptorComp+0x4e>
     f02:	b9 82       	std	Y+1, r11	; 0x01
			{
				*CurrConfigLoc = PrevDescLoc;
     f04:	a8 82       	st	Y, r10
     f06:	f8 01       	movw	r30, r16
				*BytesRem      = PrevBytesRem;
     f08:	f1 82       	std	Z+1, r15	; 0x01
     f0a:	e0 82       	st	Z, r14
     f0c:	01 c0       	rjmp	.+2      	; 0xf10 <USB_GetNextDescriptorComp+0x4e>
     f0e:	82 e0       	ldi	r24, 0x02	; 2

			return ErrorCode;
		}
	}

	return DESCRIPTOR_SEARCH_COMP_EndOfDescriptor;
     f10:	df 91       	pop	r29
}
     f12:	cf 91       	pop	r28
     f14:	1f 91       	pop	r17
     f16:	0f 91       	pop	r16
     f18:	ff 90       	pop	r15
     f1a:	ef 90       	pop	r14
     f1c:	df 90       	pop	r13
     f1e:	cf 90       	pop	r12
     f20:	bf 90       	pop	r11
     f22:	af 90       	pop	r10
     f24:	08 95       	ret

00000f26 <USB_Event_Stub>:
     f26:	08 95       	ret

00000f28 <USB_Host_WaitForIOS>:

	return ReturnStatus;
}

static uint8_t USB_Host_WaitForIOS(const uint8_t WaitType)
{
     f28:	1f 93       	push	r17
     f2a:	cf 93       	push	r28
     f2c:	df 93       	push	r29
     f2e:	18 2f       	mov	r17, r24
	uint8_t  TimeoutCounter = USB_HOST_TIMEOUT_MS;
	#else
	uint16_t TimeoutCounter = USB_HOST_TIMEOUT_MS;
	#endif

	while (!(((WaitType == USB_HOST_WAITFOR_SetupSent)  && Pipe_IsSETUPSent())  ||
     f30:	c9 ee       	ldi	r28, 0xE9	; 233
     f32:	d3 e0       	ldi	r29, 0x03	; 3
     f34:	11 11       	cpse	r17, r1
     f36:	0d c0       	rjmp	.+26     	; 0xf52 <USB_Host_WaitForIOS+0x2a>
			 *  \return Boolean \c true if the current pipe is ready for a SETUP packet, \c false otherwise.
			 */
			static inline bool Pipe_IsSETUPSent(void) ATTR_WARN_UNUSED_RESULT ATTR_ALWAYS_INLINE;
			static inline bool Pipe_IsSETUPSent(void)
			{
				return ((UPINTX & (1 << TXSTPI)) ? true : false);
     f38:	80 91 a6 00 	lds	r24, 0x00A6
     f3c:	83 fd       	sbrc	r24, 3
     f3e:	16 c0       	rjmp	.+44     	; 0xf6c <USB_Host_WaitForIOS+0x44>
	         ((WaitType == USB_HOST_WAITFOR_InReceived) && Pipe_IsINReceived()) ||
	         ((WaitType == USB_HOST_WAITFOR_OutReady)   && Pipe_IsOUTReady())))
	{
		uint8_t ErrorCode;

		if ((ErrorCode = USB_Host_WaitMS(1)) != HOST_WAITERROR_Successful)
     f40:	81 e0       	ldi	r24, 0x01	; 1
     f42:	cd db       	rcall	.-2150   	; 0x6de <USB_Host_WaitMS>
     f44:	81 11       	cpse	r24, r1
     f46:	13 c0       	rjmp	.+38     	; 0xf6e <USB_Host_WaitForIOS+0x46>
     f48:	21 97       	sbiw	r28, 0x01	; 1
     f4a:	20 97       	sbiw	r28, 0x00	; 0
		  return ErrorCode;

		if (!(TimeoutCounter--))
     f4c:	99 f7       	brne	.-26     	; 0xf34 <USB_Host_WaitForIOS+0xc>
     f4e:	84 e0       	ldi	r24, 0x04	; 4
		  return HOST_SENDCONTROL_SoftwareTimeOut;
     f50:	0e c0       	rjmp	.+28     	; 0xf6e <USB_Host_WaitForIOS+0x46>
     f52:	11 30       	cpi	r17, 0x01	; 1
	uint8_t  TimeoutCounter = USB_HOST_TIMEOUT_MS;
	#else
	uint16_t TimeoutCounter = USB_HOST_TIMEOUT_MS;
	#endif

	while (!(((WaitType == USB_HOST_WAITFOR_SetupSent)  && Pipe_IsSETUPSent())  ||
     f54:	29 f4       	brne	.+10     	; 0xf60 <USB_Host_WaitForIOS+0x38>
     f56:	80 91 a6 00 	lds	r24, 0x00A6
			 *  \return Boolean \c true if the current pipe has received an IN packet, \c false otherwise.
			 */
			static inline bool Pipe_IsINReceived(void) ATTR_WARN_UNUSED_RESULT ATTR_ALWAYS_INLINE;
			static inline bool Pipe_IsINReceived(void)
			{
				return ((UPINTX & (1 << RXINI)) ? true : false);
     f5a:	80 ff       	sbrs	r24, 0
	         ((WaitType == USB_HOST_WAITFOR_InReceived) && Pipe_IsINReceived()) ||
     f5c:	f1 cf       	rjmp	.-30     	; 0xf40 <USB_Host_WaitForIOS+0x18>
     f5e:	06 c0       	rjmp	.+12     	; 0xf6c <USB_Host_WaitForIOS+0x44>
     f60:	12 30       	cpi	r17, 0x02	; 2
	uint8_t  TimeoutCounter = USB_HOST_TIMEOUT_MS;
	#else
	uint16_t TimeoutCounter = USB_HOST_TIMEOUT_MS;
	#endif

	while (!(((WaitType == USB_HOST_WAITFOR_SetupSent)  && Pipe_IsSETUPSent())  ||
     f62:	71 f7       	brne	.-36     	; 0xf40 <USB_Host_WaitForIOS+0x18>
     f64:	80 91 a6 00 	lds	r24, 0x00A6
			 *  \return Boolean \c true if the current pipe is ready for an OUT packet, \c false otherwise.
			 */
			static inline bool Pipe_IsOUTReady(void) ATTR_WARN_UNUSED_RESULT ATTR_ALWAYS_INLINE;
			static inline bool Pipe_IsOUTReady(void)
			{
				return ((UPINTX & (1 << TXOUTI)) ? true : false);
     f68:	82 ff       	sbrs	r24, 2
	         ((WaitType == USB_HOST_WAITFOR_InReceived) && Pipe_IsINReceived()) ||
	         ((WaitType == USB_HOST_WAITFOR_OutReady)   && Pipe_IsOUTReady())))
     f6a:	ea cf       	rjmp	.-44     	; 0xf40 <USB_Host_WaitForIOS+0x18>
     f6c:	80 e0       	ldi	r24, 0x00	; 0

		if (!(TimeoutCounter--))
		  return HOST_SENDCONTROL_SoftwareTimeOut;
	}

	return HOST_SENDCONTROL_Successful;
     f6e:	df 91       	pop	r29
}
     f70:	cf 91       	pop	r28
     f72:	1f 91       	pop	r17
     f74:	08 95       	ret

00000f76 <USB_Host_SendControlRequest>:
     f76:	ff 92       	push	r15

uint8_t USB_Host_SendControlRequest(void* const BufferPtr)
{
     f78:	0f 93       	push	r16
     f7a:	1f 93       	push	r17
     f7c:	cf 93       	push	r28
     f7e:	df 93       	push	r29
     f80:	8c 01       	movw	r16, r24
			 *  \return Boolean \c true if the bus is currently suspended, \c false otherwise.
			 */
			static inline bool USB_Host_IsBusSuspended(void) ATTR_WARN_UNUSED_RESULT ATTR_ALWAYS_INLINE;
			static inline bool USB_Host_IsBusSuspended(void)
			{
				return ((UHCON & (1 << SOFEN)) ? false : true);
     f82:	f0 90 9e 00 	lds	r15, 0x009E
     f86:	8f 2d       	mov	r24, r15
     f88:	81 70       	andi	r24, 0x01	; 1
     f8a:	f8 2e       	mov	r15, r24

static uint8_t USB_Host_SendControlRequest_PRV(void* const BufferPtr)
{
	uint8_t* DataStream   = (uint8_t*)BufferPtr;
	uint8_t  ReturnStatus = HOST_SENDCONTROL_Successful;
	uint16_t DataLen      = USB_ControlRequest.wLength;
     f8c:	c0 91 25 01 	lds	r28, 0x0125
     f90:	d0 91 26 01 	lds	r29, 0x0126
			 *  host and attached device may occur.
			 */
			static inline void USB_Host_ResumeBus(void) ATTR_ALWAYS_INLINE;
			static inline void USB_Host_ResumeBus(void)
			{
				UHCON |=  (1 << SOFEN);
     f94:	80 91 9e 00 	lds	r24, 0x009E
     f98:	81 60       	ori	r24, 0x01	; 1
     f9a:	80 93 9e 00 	sts	0x009E, r24

	USB_Host_ResumeBus();

	if ((ReturnStatus = USB_Host_WaitMS(1)) != HOST_WAITERROR_Successful)
     f9e:	81 e0       	ldi	r24, 0x01	; 1
     fa0:	9e db       	rcall	.-2244   	; 0x6de <USB_Host_WaitMS>
     fa2:	81 11       	cpse	r24, r1
     fa4:	cc c0       	rjmp	.+408    	; 0x113e <USB_Host_SendControlRequest+0x1c8>
     fa6:	80 91 aa 00 	lds	r24, 0x00AA
			 *  \param[in] Token  New pipe token to set the selected pipe to, as a \c PIPE_TOKEN_* mask.
			 */
			static inline void Pipe_SetPipeToken(const uint8_t Token) ATTR_ALWAYS_INLINE;
			static inline void Pipe_SetPipeToken(const uint8_t Token)
			{
				UPCFG0X = ((UPCFG0X & ~(0x03 << PTOKEN0)) | Token);
     faa:	8f 7c       	andi	r24, 0xCF	; 207
     fac:	80 93 aa 00 	sts	0x00AA, r24
     fb0:	10 92 f5 00 	sts	0x00F5, r1

			/** Clears the error flags for the currently selected pipe. */
			static inline void Pipe_ClearError(void) ATTR_ALWAYS_INLINE;
			static inline void Pipe_ClearError(void)
			{
				UPERRX = 0;
     fb4:	80 91 a6 00 	lds	r24, 0x00A6
				UPINTX &= ~(1 << PERRI);
     fb8:	8f 7e       	andi	r24, 0xEF	; 239
     fba:	80 93 a6 00 	sts	0x00A6, r24
     fbe:	80 91 a9 00 	lds	r24, 0x00A9

			/** Unfreezes the selected pipe, allowing it to communicate with an attached device. */
			static inline void Pipe_Unfreeze(void) ATTR_ALWAYS_INLINE;
			static inline void Pipe_Unfreeze(void)
			{
				UPCONX &= ~(1 << PFREEZE);
     fc2:	8f 7b       	andi	r24, 0xBF	; 191
     fc4:	80 93 a9 00 	sts	0x00A9, r24
     fc8:	ef e1       	ldi	r30, 0x1F	; 31
     fca:	f1 e0       	ldi	r31, 0x01	; 1
     fcc:	81 91       	ld	r24, Z+
	Pipe_Write_16_LE(USB_ControlRequest.wLength);
	#else
	uint8_t* HeaderStream = (uint8_t*)&USB_ControlRequest;

	for (uint8_t HeaderByte = 0; HeaderByte < sizeof(USB_Request_Header_t); HeaderByte++)
	  Pipe_Write_8(*(HeaderStream++));
     fce:	80 93 af 00 	sts	0x00AF, r24
			 *  \param[in] Data  Data to write into the the currently selected pipe's FIFO buffer.
			 */
			static inline void Pipe_Write_8(const uint8_t Data) ATTR_ALWAYS_INLINE;
			static inline void Pipe_Write_8(const uint8_t Data)
			{
				UPDATX = Data;
     fd2:	81 e0       	ldi	r24, 0x01	; 1
	Pipe_Write_16_LE(USB_ControlRequest.wIndex);
	Pipe_Write_16_LE(USB_ControlRequest.wLength);
	#else
	uint8_t* HeaderStream = (uint8_t*)&USB_ControlRequest;

	for (uint8_t HeaderByte = 0; HeaderByte < sizeof(USB_Request_Header_t); HeaderByte++)
     fd4:	e7 32       	cpi	r30, 0x27	; 39
     fd6:	f8 07       	cpc	r31, r24
     fd8:	c9 f7       	brne	.-14     	; 0xfcc <USB_Host_SendControlRequest+0x56>
     fda:	80 91 a6 00 	lds	r24, 0x00A6
			 *  \ingroup Group_PipePacketManagement_AVR8
			 */
			static inline void Pipe_ClearSETUP(void) ATTR_ALWAYS_INLINE;
			static inline void Pipe_ClearSETUP(void)
			{
				UPINTX &= ~((1 << TXSTPI) | (1 << FIFOCON));
     fde:	87 77       	andi	r24, 0x77	; 119
     fe0:	80 93 a6 00 	sts	0x00A6, r24
     fe4:	80 e0       	ldi	r24, 0x00	; 0
	  Pipe_Write_8(*(HeaderStream++));
	#endif

	Pipe_ClearSETUP();

	if ((ReturnStatus = USB_Host_WaitForIOS(USB_HOST_WAITFOR_SetupSent)) != HOST_SENDCONTROL_Successful)
     fe6:	a0 df       	rcall	.-192    	; 0xf28 <USB_Host_WaitForIOS>
     fe8:	81 11       	cpse	r24, r1
     fea:	a9 c0       	rjmp	.+338    	; 0x113e <USB_Host_SendControlRequest+0x1c8>
     fec:	80 91 a9 00 	lds	r24, 0x00A9

			/** Freezes the selected pipe, preventing it from communicating with an attached device. */
			static inline void Pipe_Freeze(void) ATTR_ALWAYS_INLINE;
			static inline void Pipe_Freeze(void)
			{
				UPCONX |= (1 << PFREEZE);
     ff0:	80 64       	ori	r24, 0x40	; 64
     ff2:	80 93 a9 00 	sts	0x00A9, r24
     ff6:	81 e0       	ldi	r24, 0x01	; 1
     ff8:	72 db       	rcall	.-2332   	; 0x6de <USB_Host_WaitMS>
	  return ReturnStatus;

	Pipe_Freeze();

	if ((ReturnStatus = USB_Host_WaitMS(1)) != HOST_WAITERROR_Successful)
     ffa:	81 11       	cpse	r24, r1
     ffc:	a0 c0       	rjmp	.+320    	; 0x113e <USB_Host_SendControlRequest+0x1c8>
     ffe:	80 91 1f 01 	lds	r24, 0x011F
    1002:	87 ff       	sbrs	r24, 7
	  return ReturnStatus;

	if ((USB_ControlRequest.bmRequestType & CONTROL_REQTYPE_DIRECTION) == REQDIR_DEVICETOHOST)
    1004:	4e c0       	rjmp	.+156    	; 0x10a2 <USB_Host_SendControlRequest+0x12c>
    1006:	80 91 aa 00 	lds	r24, 0x00AA
    100a:	8f 7c       	andi	r24, 0xCF	; 207
			 *  \param[in] Token  New pipe token to set the selected pipe to, as a \c PIPE_TOKEN_* mask.
			 */
			static inline void Pipe_SetPipeToken(const uint8_t Token) ATTR_ALWAYS_INLINE;
			static inline void Pipe_SetPipeToken(const uint8_t Token)
			{
				UPCFG0X = ((UPCFG0X & ~(0x03 << PTOKEN0)) | Token);
    100c:	80 61       	ori	r24, 0x10	; 16
    100e:	80 93 aa 00 	sts	0x00AA, r24
    1012:	01 15       	cp	r16, r1
    1014:	11 05       	cpc	r17, r1
    1016:	09 f0       	breq	.+2      	; 0x101a <USB_Host_SendControlRequest+0xa4>
	{
		Pipe_SetPipeToken(PIPE_TOKEN_IN);

		if (DataStream != NULL)
    1018:	3a c0       	rjmp	.+116    	; 0x108e <USB_Host_SendControlRequest+0x118>
    101a:	80 91 aa 00 	lds	r24, 0x00AA
    101e:	8f 7c       	andi	r24, 0xCF	; 207
    1020:	80 62       	ori	r24, 0x20	; 32
    1022:	80 93 aa 00 	sts	0x00AA, r24
    1026:	80 91 a9 00 	lds	r24, 0x00A9
    102a:	8f 7b       	andi	r24, 0xBF	; 191

			/** Unfreezes the selected pipe, allowing it to communicate with an attached device. */
			static inline void Pipe_Unfreeze(void) ATTR_ALWAYS_INLINE;
			static inline void Pipe_Unfreeze(void)
			{
				UPCONX &= ~(1 << PFREEZE);
    102c:	80 93 a9 00 	sts	0x00A9, r24
    1030:	82 e0       	ldi	r24, 0x02	; 2
    1032:	7a df       	rcall	.-268    	; 0xf28 <USB_Host_WaitForIOS>
    1034:	81 11       	cpse	r24, r1
		}

		Pipe_SetPipeToken(PIPE_TOKEN_OUT);
		Pipe_Unfreeze();

		if ((ReturnStatus = USB_Host_WaitForIOS(USB_HOST_WAITFOR_OutReady)) != HOST_SENDCONTROL_Successful)
    1036:	83 c0       	rjmp	.+262    	; 0x113e <USB_Host_SendControlRequest+0x1c8>
    1038:	80 91 a6 00 	lds	r24, 0x00A6
    103c:	8b 77       	andi	r24, 0x7B	; 123
    103e:	80 93 a6 00 	sts	0x00A6, r24
			 *  \ingroup Group_PipePacketManagement_AVR8
			 */
			static inline void Pipe_ClearOUT(void) ATTR_ALWAYS_INLINE;
			static inline void Pipe_ClearOUT(void)
			{
				UPINTX &= ~((1 << TXOUTI) | (1 << FIFOCON));
    1042:	82 e0       	ldi	r24, 0x02	; 2
    1044:	71 df       	rcall	.-286    	; 0xf28 <USB_Host_WaitForIOS>
    1046:	7b c0       	rjmp	.+246    	; 0x113e <USB_Host_SendControlRequest+0x1c8>
    1048:	80 91 a9 00 	lds	r24, 0x00A9
		  return ReturnStatus;

		Pipe_ClearOUT();

		if ((ReturnStatus = USB_Host_WaitForIOS(USB_HOST_WAITFOR_OutReady)) != HOST_SENDCONTROL_Successful)
    104c:	8f 7b       	andi	r24, 0xBF	; 191
    104e:	80 93 a9 00 	sts	0x00A9, r24

			/** Unfreezes the selected pipe, allowing it to communicate with an attached device. */
			static inline void Pipe_Unfreeze(void) ATTR_ALWAYS_INLINE;
			static inline void Pipe_Unfreeze(void)
			{
				UPCONX &= ~(1 << PFREEZE);
    1052:	81 e0       	ldi	r24, 0x01	; 1
    1054:	69 df       	rcall	.-302    	; 0xf28 <USB_Host_WaitForIOS>
    1056:	81 11       	cpse	r24, r1
    1058:	72 c0       	rjmp	.+228    	; 0x113e <USB_Host_SendControlRequest+0x1c8>
    105a:	80 91 f6 00 	lds	r24, 0x00F6
		{
			while (DataLen)
			{
				Pipe_Unfreeze();

				if ((ReturnStatus = USB_Host_WaitForIOS(USB_HOST_WAITFOR_InReceived)) != HOST_SENDCONTROL_Successful)
    105e:	90 91 f7 00 	lds	r25, 0x00F7
    1062:	89 2b       	or	r24, r25
    1064:	11 f4       	brne	.+4      	; 0x106a <USB_Host_SendControlRequest+0xf4>
			 *  \return Total number of bytes in the currently selected pipe's FIFO buffer.
			 */
			static inline uint16_t Pipe_BytesInPipe(void) ATTR_WARN_UNUSED_RESULT ATTR_ALWAYS_INLINE;
			static inline uint16_t Pipe_BytesInPipe(void)
			{
				return UPBCX;
    1066:	c0 e0       	ldi	r28, 0x00	; 0
    1068:	d0 e0       	ldi	r29, 0x00	; 0
    106a:	f8 01       	movw	r30, r16
    106c:	8f 01       	movw	r16, r30
				  return ReturnStatus;

				if (!(Pipe_BytesInPipe()))
    106e:	80 91 f6 00 	lds	r24, 0x00F6
				  DataLen = 0;
    1072:	90 91 f7 00 	lds	r25, 0x00F7
    1076:	89 2b       	or	r24, r25
    1078:	69 f4       	brne	.+26     	; 0x1094 <USB_Host_SendControlRequest+0x11e>
    107a:	80 91 a9 00 	lds	r24, 0x00A9
    107e:	80 64       	ori	r24, 0x40	; 64
    1080:	80 93 a9 00 	sts	0x00A9, r24

				while (Pipe_BytesInPipe() && DataLen)
    1084:	80 91 a6 00 	lds	r24, 0x00A6

			/** Freezes the selected pipe, preventing it from communicating with an attached device. */
			static inline void Pipe_Freeze(void) ATTR_ALWAYS_INLINE;
			static inline void Pipe_Freeze(void)
			{
				UPCONX |= (1 << PFREEZE);
    1088:	8e 77       	andi	r24, 0x7E	; 126
    108a:	80 93 a6 00 	sts	0x00A6, r24
    108e:	20 97       	sbiw	r28, 0x00	; 0
			 *  \ingroup Group_PipePacketManagement_AVR8
			 */
			static inline void Pipe_ClearIN(void) ATTR_ALWAYS_INLINE;
			static inline void Pipe_ClearIN(void)
			{
				UPINTX &= ~((1 << RXINI) | (1 << FIFOCON));
    1090:	d9 f6       	brne	.-74     	; 0x1048 <USB_Host_SendControlRequest+0xd2>
    1092:	c3 cf       	rjmp	.-122    	; 0x101a <USB_Host_SendControlRequest+0xa4>
    1094:	20 97       	sbiw	r28, 0x00	; 0
    1096:	89 f3       	breq	.-30     	; 0x107a <USB_Host_SendControlRequest+0x104>
    1098:	80 91 af 00 	lds	r24, 0x00AF
	{
		Pipe_SetPipeToken(PIPE_TOKEN_IN);

		if (DataStream != NULL)
		{
			while (DataLen)
    109c:	81 93       	st	Z+, r24
    109e:	21 97       	sbiw	r28, 0x01	; 1
				  return ReturnStatus;

				if (!(Pipe_BytesInPipe()))
				  DataLen = 0;

				while (Pipe_BytesInPipe() && DataLen)
    10a0:	e5 cf       	rjmp	.-54     	; 0x106c <USB_Host_SendControlRequest+0xf6>
    10a2:	01 15       	cp	r16, r1
			 *  \return Next byte in the currently selected pipe's FIFO buffer.
			 */
			static inline uint8_t Pipe_Read_8(void) ATTR_WARN_UNUSED_RESULT ATTR_ALWAYS_INLINE;
			static inline uint8_t Pipe_Read_8(void)
			{
				return UPDATX;
    10a4:	11 05       	cpc	r17, r1
    10a6:	b1 f1       	breq	.+108    	; 0x1114 <USB_Host_SendControlRequest+0x19e>
				{
					*(DataStream++) = Pipe_Read_8();
    10a8:	80 91 aa 00 	lds	r24, 0x00AA
					DataLen--;
    10ac:	8f 7c       	andi	r24, 0xCF	; 207
		if ((ReturnStatus = USB_Host_WaitForIOS(USB_HOST_WAITFOR_OutReady)) != HOST_SENDCONTROL_Successful)
		  return ReturnStatus;
	}
	else
	{
		if (DataStream != NULL)
    10ae:	80 62       	ori	r24, 0x20	; 32
    10b0:	80 93 aa 00 	sts	0x00AA, r24
			 *  \param[in] Token  New pipe token to set the selected pipe to, as a \c PIPE_TOKEN_* mask.
			 */
			static inline void Pipe_SetPipeToken(const uint8_t Token) ATTR_ALWAYS_INLINE;
			static inline void Pipe_SetPipeToken(const uint8_t Token)
			{
				UPCFG0X = ((UPCFG0X & ~(0x03 << PTOKEN0)) | Token);
    10b4:	80 91 a9 00 	lds	r24, 0x00A9
    10b8:	8f 7b       	andi	r24, 0xBF	; 191
    10ba:	80 93 a9 00 	sts	0x00A9, r24
    10be:	82 e0       	ldi	r24, 0x02	; 2

			/** Unfreezes the selected pipe, allowing it to communicate with an attached device. */
			static inline void Pipe_Unfreeze(void) ATTR_ALWAYS_INLINE;
			static inline void Pipe_Unfreeze(void)
			{
				UPCONX &= ~(1 << PFREEZE);
    10c0:	20 97       	sbiw	r28, 0x00	; 0
    10c2:	01 f1       	breq	.+64     	; 0x1104 <USB_Host_SendControlRequest+0x18e>
    10c4:	31 df       	rcall	.-414    	; 0xf28 <USB_Host_WaitForIOS>
    10c6:	81 11       	cpse	r24, r1
    10c8:	3a c0       	rjmp	.+116    	; 0x113e <USB_Host_SendControlRequest+0x1c8>
			Pipe_SetPipeToken(PIPE_TOKEN_OUT);
			Pipe_Unfreeze();

			while (DataLen)
			{
				if ((ReturnStatus = USB_Host_WaitForIOS(USB_HOST_WAITFOR_OutReady)) != HOST_SENDCONTROL_Successful)
    10ca:	f8 01       	movw	r30, r16
		if (DataStream != NULL)
		{
			Pipe_SetPipeToken(PIPE_TOKEN_OUT);
			Pipe_Unfreeze();

			while (DataLen)
    10cc:	20 91 f6 00 	lds	r18, 0x00F6
			{
				if ((ReturnStatus = USB_Host_WaitForIOS(USB_HOST_WAITFOR_OutReady)) != HOST_SENDCONTROL_Successful)
    10d0:	30 91 f7 00 	lds	r19, 0x00F7
    10d4:	80 91 00 01 	lds	r24, 0x0100
    10d8:	90 e0       	ldi	r25, 0x00	; 0
			 *  \return Total number of bytes in the currently selected pipe's FIFO buffer.
			 */
			static inline uint16_t Pipe_BytesInPipe(void) ATTR_WARN_UNUSED_RESULT ATTR_ALWAYS_INLINE;
			static inline uint16_t Pipe_BytesInPipe(void)
			{
				return UPBCX;
    10da:	28 17       	cp	r18, r24
    10dc:	39 07       	cpc	r19, r25
    10de:	58 f4       	brcc	.+22     	; 0x10f6 <USB_Host_SendControlRequest+0x180>
    10e0:	cf 01       	movw	r24, r30
				  return ReturnStatus;

				while (DataLen && (Pipe_BytesInPipe() < USB_Host_ControlPipeSize))
    10e2:	01 96       	adiw	r24, 0x01	; 1
    10e4:	8c 01       	movw	r16, r24
    10e6:	20 81       	ld	r18, Z
    10e8:	20 93 af 00 	sts	0x00AF, r18
    10ec:	21 97       	sbiw	r28, 0x01	; 1
    10ee:	20 97       	sbiw	r28, 0x00	; 0
    10f0:	19 f0       	breq	.+6      	; 0x10f8 <USB_Host_SendControlRequest+0x182>
    10f2:	fc 01       	movw	r30, r24
				{
					Pipe_Write_8(*(DataStream++));
    10f4:	eb cf       	rjmp	.-42     	; 0x10cc <USB_Host_SendControlRequest+0x156>
			 *  \param[in] Data  Data to write into the the currently selected pipe's FIFO buffer.
			 */
			static inline void Pipe_Write_8(const uint8_t Data) ATTR_ALWAYS_INLINE;
			static inline void Pipe_Write_8(const uint8_t Data)
			{
				UPDATX = Data;
    10f6:	8f 01       	movw	r16, r30
    10f8:	80 91 a6 00 	lds	r24, 0x00A6
			while (DataLen)
			{
				if ((ReturnStatus = USB_Host_WaitForIOS(USB_HOST_WAITFOR_OutReady)) != HOST_SENDCONTROL_Successful)
				  return ReturnStatus;

				while (DataLen && (Pipe_BytesInPipe() < USB_Host_ControlPipeSize))
    10fc:	8b 77       	andi	r24, 0x7B	; 123
    10fe:	80 93 a6 00 	sts	0x00A6, r24
    1102:	dd cf       	rjmp	.-70     	; 0x10be <USB_Host_SendControlRequest+0x148>
    1104:	11 df       	rcall	.-478    	; 0xf28 <USB_Host_WaitForIOS>
			 *  \ingroup Group_PipePacketManagement_AVR8
			 */
			static inline void Pipe_ClearOUT(void) ATTR_ALWAYS_INLINE;
			static inline void Pipe_ClearOUT(void)
			{
				UPINTX &= ~((1 << TXOUTI) | (1 << FIFOCON));
    1106:	81 11       	cpse	r24, r1
    1108:	1a c0       	rjmp	.+52     	; 0x113e <USB_Host_SendControlRequest+0x1c8>
    110a:	80 91 a9 00 	lds	r24, 0x00A9
    110e:	80 64       	ori	r24, 0x40	; 64
    1110:	80 93 a9 00 	sts	0x00A9, r24
				}

				Pipe_ClearOUT();
			}

			if ((ReturnStatus = USB_Host_WaitForIOS(USB_HOST_WAITFOR_OutReady)) != HOST_SENDCONTROL_Successful)
    1114:	80 91 aa 00 	lds	r24, 0x00AA
    1118:	8f 7c       	andi	r24, 0xCF	; 207

			/** Freezes the selected pipe, preventing it from communicating with an attached device. */
			static inline void Pipe_Freeze(void) ATTR_ALWAYS_INLINE;
			static inline void Pipe_Freeze(void)
			{
				UPCONX |= (1 << PFREEZE);
    111a:	80 61       	ori	r24, 0x10	; 16
    111c:	80 93 aa 00 	sts	0x00AA, r24
    1120:	80 91 a9 00 	lds	r24, 0x00A9
			 *  \param[in] Token  New pipe token to set the selected pipe to, as a \c PIPE_TOKEN_* mask.
			 */
			static inline void Pipe_SetPipeToken(const uint8_t Token) ATTR_ALWAYS_INLINE;
			static inline void Pipe_SetPipeToken(const uint8_t Token)
			{
				UPCFG0X = ((UPCFG0X & ~(0x03 << PTOKEN0)) | Token);
    1124:	8f 7b       	andi	r24, 0xBF	; 191
    1126:	80 93 a9 00 	sts	0x00A9, r24
    112a:	81 e0       	ldi	r24, 0x01	; 1
    112c:	fd de       	rcall	.-518    	; 0xf28 <USB_Host_WaitForIOS>
    112e:	81 11       	cpse	r24, r1

			/** Unfreezes the selected pipe, allowing it to communicate with an attached device. */
			static inline void Pipe_Unfreeze(void) ATTR_ALWAYS_INLINE;
			static inline void Pipe_Unfreeze(void)
			{
				UPCONX &= ~(1 << PFREEZE);
    1130:	06 c0       	rjmp	.+12     	; 0x113e <USB_Host_SendControlRequest+0x1c8>
    1132:	80 91 a6 00 	lds	r24, 0x00A6
    1136:	8e 77       	andi	r24, 0x7E	; 126
    1138:	80 93 a6 00 	sts	0x00A6, r24
		}

		Pipe_SetPipeToken(PIPE_TOKEN_IN);
		Pipe_Unfreeze();

		if ((ReturnStatus = USB_Host_WaitForIOS(USB_HOST_WAITFOR_InReceived)) != HOST_SENDCONTROL_Successful)
    113c:	80 e0       	ldi	r24, 0x00	; 0
    113e:	90 91 a9 00 	lds	r25, 0x00A9
    1142:	90 64       	ori	r25, 0x40	; 64
			 *  \ingroup Group_PipePacketManagement_AVR8
			 */
			static inline void Pipe_ClearIN(void) ATTR_ALWAYS_INLINE;
			static inline void Pipe_ClearIN(void)
			{
				UPINTX &= ~((1 << RXINI) | (1 << FIFOCON));
    1144:	90 93 a9 00 	sts	0x00A9, r25
    1148:	f1 10       	cpse	r15, r1
    114a:	05 c0       	rjmp	.+10     	; 0x1156 <USB_Host_SendControlRequest+0x1e0>
    114c:	90 91 9e 00 	lds	r25, 0x009E

			/** Freezes the selected pipe, preventing it from communicating with an attached device. */
			static inline void Pipe_Freeze(void) ATTR_ALWAYS_INLINE;
			static inline void Pipe_Freeze(void)
			{
				UPCONX |= (1 << PFREEZE);
    1150:	9e 7f       	andi	r25, 0xFE	; 254
    1152:	90 93 9e 00 	sts	0x009E, r25
    1156:	91 e0       	ldi	r25, 0x01	; 1
    1158:	90 93 a8 00 	sts	0x00A8, r25
	bool BusSuspended    = USB_Host_IsBusSuspended();
	uint8_t ReturnStatus = USB_Host_SendControlRequest_PRV(BufferPtr);

	Pipe_Freeze();

	if (BusSuspended)
    115c:	10 92 a8 00 	sts	0x00A8, r1
			 *             some events (such as device disconnections) will not fire until the bus is resumed.
			 */
			static inline void USB_Host_SuspendBus(void) ATTR_ALWAYS_INLINE;
			static inline void USB_Host_SuspendBus(void)
			{
				UHCON &= ~(1 << SOFEN);
    1160:	df 91       	pop	r29
    1162:	cf 91       	pop	r28
    1164:	1f 91       	pop	r17
    1166:	0f 91       	pop	r16
			 *  \param[in] Address  Address of the pipe to reset.
			 */
			static inline void Pipe_ResetPipe(const uint8_t Address) ATTR_ALWAYS_INLINE;
			static inline void Pipe_ResetPipe(const uint8_t Address)
			{
				UPRST = (1 << (Address & PIPE_PIPENUM_MASK));
    1168:	ff 90       	pop	r15
    116a:	08 95       	ret

0000116c <USB_Host_SetDeviceConfiguration>:
    116c:	cf 93       	push	r28
				UPRST = 0;
    116e:	c8 2f       	mov	r28, r24
    1170:	10 92 1f 01 	sts	0x011F, r1
	  USB_Host_SuspendBus();

	Pipe_ResetPipe(PIPE_CONTROLPIPE);

	return ReturnStatus;
}
    1174:	89 e0       	ldi	r24, 0x09	; 9
    1176:	80 93 20 01 	sts	0x0120, r24
    117a:	2c 2f       	mov	r18, r28
    117c:	30 e0       	ldi	r19, 0x00	; 0

uint8_t USB_Host_SetDeviceConfiguration(const uint8_t ConfigNumber)
{
	uint8_t ErrorCode;

	USB_ControlRequest = (USB_Request_Header_t)
    117e:	30 93 22 01 	sts	0x0122, r19
    1182:	20 93 21 01 	sts	0x0121, r18
    1186:	10 92 24 01 	sts	0x0124, r1
    118a:	10 92 23 01 	sts	0x0123, r1
    118e:	10 92 26 01 	sts	0x0126, r1
    1192:	10 92 25 01 	sts	0x0125, r1
			 *  \param[in] Address  Address of the pipe to select.
			 */
			static inline void Pipe_SelectPipe(const uint8_t Address) ATTR_ALWAYS_INLINE;
			static inline void Pipe_SelectPipe(const uint8_t Address)
			{
				UPNUM = (Address & PIPE_PIPENUM_MASK);
    1196:	10 92 a7 00 	sts	0x00A7, r1
			.wLength       = 0,
		};

	Pipe_SelectPipe(PIPE_CONTROLPIPE);

	if ((ErrorCode = USB_Host_SendControlRequest(NULL)) == HOST_SENDCONTROL_Successful)
    119a:	80 e0       	ldi	r24, 0x00	; 0
    119c:	90 e0       	ldi	r25, 0x00	; 0
    119e:	eb de       	rcall	.-554    	; 0xf76 <USB_Host_SendControlRequest>
    11a0:	81 11       	cpse	r24, r1
    11a2:	09 c0       	rjmp	.+18     	; 0x11b6 <USB_Host_SetDeviceConfiguration+0x4a>
    11a4:	c0 93 1d 01 	sts	0x011D, r28
	{
		USB_Host_ConfigurationNumber = ConfigNumber;
    11a8:	cc 23       	and	r28, r28
		USB_HostState                = (ConfigNumber) ? HOST_STATE_Configured : HOST_STATE_Addressed;
    11aa:	11 f0       	breq	.+4      	; 0x11b0 <USB_Host_SetDeviceConfiguration+0x44>
    11ac:	9b e0       	ldi	r25, 0x0B	; 11
    11ae:	01 c0       	rjmp	.+2      	; 0x11b2 <USB_Host_SetDeviceConfiguration+0x46>
    11b0:	9a e0       	ldi	r25, 0x0A	; 10
    11b2:	90 93 27 01 	sts	0x0127, r25
    11b6:	cf 91       	pop	r28
	}

	return ErrorCode;
}
    11b8:	08 95       	ret

000011ba <USB_USBTask>:
    11ba:	cf 93       	push	r28
			 *  \return Index of the currently selected pipe.
			 */
			static inline uint8_t Pipe_GetCurrentPipe(void) ATTR_WARN_UNUSED_RESULT ATTR_ALWAYS_INLINE;
			static inline uint8_t Pipe_GetCurrentPipe(void)
			{
				return ((UPNUM & PIPE_PIPENUM_MASK) | Pipe_GetPipeDirection());
    11bc:	c0 91 a7 00 	lds	r28, 0x00A7
    11c0:	cf 70       	andi	r28, 0x0F	; 15
			 *  \return The currently selected pipe's direction, as a \c PIPE_DIR_* mask.
			 */
			static inline uint8_t Pipe_GetPipeDirection(void) ATTR_WARN_UNUSED_RESULT ATTR_ALWAYS_INLINE;
			static inline uint8_t Pipe_GetPipeDirection(void)
			{
				return (UPCFG0X & (1 << EPDIR)) ? PIPE_DIR_IN : PIPE_DIR_OUT;
    11c2:	80 91 aa 00 	lds	r24, 0x00AA
			 *  \param[in] Address  Address of the pipe to select.
			 */
			static inline void Pipe_SelectPipe(const uint8_t Address) ATTR_ALWAYS_INLINE;
			static inline void Pipe_SelectPipe(const uint8_t Address)
			{
				UPNUM = (Address & PIPE_PIPENUM_MASK);
    11c6:	10 92 a7 00 	sts	0x00A7, r1
{
	uint8_t PrevPipe = Pipe_GetCurrentPipe();

	Pipe_SelectPipe(PIPE_CONTROLPIPE);

	USB_Host_ProcessNextHostState();
    11ca:	d6 da       	rcall	.-2644   	; 0x778 <USB_Host_ProcessNextHostState>
    11cc:	c0 93 a7 00 	sts	0x00A7, r28
    11d0:	cf 91       	pop	r28
	#elif defined(USB_CAN_BE_HOST)
		USB_HostTask();
	#elif defined(USB_CAN_BE_DEVICE)
		USB_DeviceTask();
	#endif
}
    11d2:	08 95       	ret

000011d4 <Serial_putchar>:
    11d4:	90 91 c8 00 	lds	r25, 0x00C8
			 *  \param[in] DataByte  Byte to transmit through the USART.
			 */
			static inline void Serial_SendByte(const char DataByte) ATTR_ALWAYS_INLINE;
			static inline void Serial_SendByte(const char DataByte)
			{
				while (!(Serial_IsSendReady()));
    11d8:	95 ff       	sbrs	r25, 5
    11da:	fc cf       	rjmp	.-8      	; 0x11d4 <Serial_putchar>
				UDR1 = DataByte;
    11dc:	80 93 ce 00 	sts	0x00CE, r24
{
	(void)Stream;

	Serial_SendByte(DataByte);
	return 0;
}
    11e0:	80 e0       	ldi	r24, 0x00	; 0
    11e2:	90 e0       	ldi	r25, 0x00	; 0
    11e4:	08 95       	ret

000011e6 <Serial_getchar>:
			 *  \return Boolean \c true if a character has been received, \c false otherwise.
			 */
			static inline bool Serial_IsCharReceived(void) ATTR_WARN_UNUSED_RESULT ATTR_ALWAYS_INLINE;
			static inline bool Serial_IsCharReceived(void)
			{
				return ((UCSR1A & (1 << RXC1)) ? true : false);
    11e6:	80 91 c8 00 	lds	r24, 0x00C8

int Serial_getchar(FILE *Stream)
{
	(void)Stream;

	if (!(Serial_IsCharReceived()))
    11ea:	87 ff       	sbrs	r24, 7
    11ec:	08 c0       	rjmp	.+16     	; 0x11fe <Serial_getchar+0x18>
    11ee:	80 91 c8 00 	lds	r24, 0x00C8
			 *  \return Next byte received from the USART, or a negative value if no byte has been received.
			 */
			static inline int16_t Serial_ReceiveByte(void) ATTR_ALWAYS_INLINE;
			static inline int16_t Serial_ReceiveByte(void)
			{
				if (!(Serial_IsCharReceived()))
    11f2:	87 ff       	sbrs	r24, 7
    11f4:	07 c0       	rjmp	.+14     	; 0x1204 <Serial_getchar+0x1e>
				  return -1;

				return UDR1;
    11f6:	80 91 ce 00 	lds	r24, 0x00CE
    11fa:	90 e0       	ldi	r25, 0x00	; 0
    11fc:	08 95       	ret
	  return _FDEV_EOF;
    11fe:	8e ef       	ldi	r24, 0xFE	; 254
    1200:	9f ef       	ldi	r25, 0xFF	; 255
    1202:	08 95       	ret
			 */
			static inline int16_t Serial_ReceiveByte(void) ATTR_ALWAYS_INLINE;
			static inline int16_t Serial_ReceiveByte(void)
			{
				if (!(Serial_IsCharReceived()))
				  return -1;
    1204:	8f ef       	ldi	r24, 0xFF	; 255
    1206:	9f ef       	ldi	r25, 0xFF	; 255

	return Serial_ReceiveByte();
}
    1208:	08 95       	ret

0000120a <Serial_CreateStream>:
	while (Length--)
	  Serial_SendByte(*((uint8_t*)Buffer++));
}

void Serial_CreateStream(FILE* Stream)
{
    120a:	fc 01       	movw	r30, r24
	if (!(Stream))
    120c:	00 97       	sbiw	r24, 0x00	; 0
    120e:	59 f4       	brne	.+22     	; 0x1226 <Serial_CreateStream+0x1c>
	{
		Stream = &USARTSerialStream;
		stdin  = Stream;
    1210:	88 e2       	ldi	r24, 0x28	; 40
    1212:	91 e0       	ldi	r25, 0x01	; 1
    1214:	90 93 37 01 	sts	0x0137, r25
    1218:	80 93 36 01 	sts	0x0136, r24
		stdout = Stream;
    121c:	90 93 39 01 	sts	0x0139, r25
    1220:	80 93 38 01 	sts	0x0138, r24

void Serial_CreateStream(FILE* Stream)
{
	if (!(Stream))
	{
		Stream = &USARTSerialStream;
    1224:	fc 01       	movw	r30, r24
		stdin  = Stream;
		stdout = Stream;
	}

	*Stream = (FILE)FDEV_SETUP_STREAM(Serial_putchar, Serial_getchar, _FDEV_SETUP_RW);
    1226:	8e e0       	ldi	r24, 0x0E	; 14
    1228:	df 01       	movw	r26, r30
    122a:	1d 92       	st	X+, r1
    122c:	8a 95       	dec	r24
    122e:	e9 f7       	brne	.-6      	; 0x122a <Serial_CreateStream+0x20>
    1230:	83 e0       	ldi	r24, 0x03	; 3
    1232:	83 83       	std	Z+3, r24	; 0x03
    1234:	8a ee       	ldi	r24, 0xEA	; 234
    1236:	98 e0       	ldi	r25, 0x08	; 8
    1238:	91 87       	std	Z+9, r25	; 0x09
    123a:	80 87       	std	Z+8, r24	; 0x08
    123c:	83 ef       	ldi	r24, 0xF3	; 243
    123e:	98 e0       	ldi	r25, 0x08	; 8
    1240:	93 87       	std	Z+11, r25	; 0x0b
    1242:	82 87       	std	Z+10, r24	; 0x0a
    1244:	08 95       	ret

00001246 <fputc>:
    1246:	0f 93       	push	r16
    1248:	1f 93       	push	r17
    124a:	cf 93       	push	r28
    124c:	df 93       	push	r29
    124e:	18 2f       	mov	r17, r24
    1250:	09 2f       	mov	r16, r25
    1252:	eb 01       	movw	r28, r22
    1254:	8b 81       	ldd	r24, Y+3	; 0x03
    1256:	81 fd       	sbrc	r24, 1
    1258:	03 c0       	rjmp	.+6      	; 0x1260 <fputc+0x1a>
    125a:	8f ef       	ldi	r24, 0xFF	; 255
    125c:	9f ef       	ldi	r25, 0xFF	; 255
    125e:	20 c0       	rjmp	.+64     	; 0x12a0 <fputc+0x5a>
    1260:	82 ff       	sbrs	r24, 2
    1262:	10 c0       	rjmp	.+32     	; 0x1284 <fputc+0x3e>
    1264:	4e 81       	ldd	r20, Y+6	; 0x06
    1266:	5f 81       	ldd	r21, Y+7	; 0x07
    1268:	2c 81       	ldd	r18, Y+4	; 0x04
    126a:	3d 81       	ldd	r19, Y+5	; 0x05
    126c:	42 17       	cp	r20, r18
    126e:	53 07       	cpc	r21, r19
    1270:	7c f4       	brge	.+30     	; 0x1290 <fputc+0x4a>
    1272:	e8 81       	ld	r30, Y
    1274:	f9 81       	ldd	r31, Y+1	; 0x01
    1276:	9f 01       	movw	r18, r30
    1278:	2f 5f       	subi	r18, 0xFF	; 255
    127a:	3f 4f       	sbci	r19, 0xFF	; 255
    127c:	39 83       	std	Y+1, r19	; 0x01
    127e:	28 83       	st	Y, r18
    1280:	10 83       	st	Z, r17
    1282:	06 c0       	rjmp	.+12     	; 0x1290 <fputc+0x4a>
    1284:	e8 85       	ldd	r30, Y+8	; 0x08
    1286:	f9 85       	ldd	r31, Y+9	; 0x09
    1288:	81 2f       	mov	r24, r17
    128a:	09 95       	icall
    128c:	89 2b       	or	r24, r25
    128e:	29 f7       	brne	.-54     	; 0x125a <fputc+0x14>
    1290:	2e 81       	ldd	r18, Y+6	; 0x06
    1292:	3f 81       	ldd	r19, Y+7	; 0x07
    1294:	2f 5f       	subi	r18, 0xFF	; 255
    1296:	3f 4f       	sbci	r19, 0xFF	; 255
    1298:	3f 83       	std	Y+7, r19	; 0x07
    129a:	2e 83       	std	Y+6, r18	; 0x06
    129c:	81 2f       	mov	r24, r17
    129e:	90 2f       	mov	r25, r16
    12a0:	df 91       	pop	r29
    12a2:	cf 91       	pop	r28
    12a4:	1f 91       	pop	r17
    12a6:	0f 91       	pop	r16
    12a8:	08 95       	ret

000012aa <printf_P>:
    12aa:	0f 93       	push	r16
    12ac:	1f 93       	push	r17
    12ae:	cf 93       	push	r28
    12b0:	df 93       	push	r29
    12b2:	cd b7       	in	r28, 0x3d	; 61
    12b4:	de b7       	in	r29, 0x3e	; 62
    12b6:	fe 01       	movw	r30, r28
    12b8:	37 96       	adiw	r30, 0x07	; 7
    12ba:	61 91       	ld	r22, Z+
    12bc:	71 91       	ld	r23, Z+
    12be:	08 e3       	ldi	r16, 0x38	; 56
    12c0:	11 e0       	ldi	r17, 0x01	; 1
    12c2:	d8 01       	movw	r26, r16
    12c4:	8d 91       	ld	r24, X+
    12c6:	9c 91       	ld	r25, X
    12c8:	dc 01       	movw	r26, r24
    12ca:	13 96       	adiw	r26, 0x03	; 3
    12cc:	2c 91       	ld	r18, X
    12ce:	13 97       	sbiw	r26, 0x03	; 3
    12d0:	28 60       	ori	r18, 0x08	; 8
    12d2:	13 96       	adiw	r26, 0x03	; 3
    12d4:	2c 93       	st	X, r18
    12d6:	af 01       	movw	r20, r30
    12d8:	3a d0       	rcall	.+116    	; 0x134e <vfprintf>
    12da:	d8 01       	movw	r26, r16
    12dc:	ed 91       	ld	r30, X+
    12de:	fc 91       	ld	r31, X
    12e0:	23 81       	ldd	r18, Z+3	; 0x03
    12e2:	27 7f       	andi	r18, 0xF7	; 247
    12e4:	23 83       	std	Z+3, r18	; 0x03
    12e6:	df 91       	pop	r29
    12e8:	cf 91       	pop	r28
    12ea:	1f 91       	pop	r17
    12ec:	0f 91       	pop	r16
    12ee:	08 95       	ret

000012f0 <puts_P>:
    12f0:	0f 93       	push	r16
    12f2:	1f 93       	push	r17
    12f4:	cf 93       	push	r28
    12f6:	df 93       	push	r29
    12f8:	ec 01       	movw	r28, r24
    12fa:	e0 91 38 01 	lds	r30, 0x0138
    12fe:	f0 91 39 01 	lds	r31, 0x0139
    1302:	83 81       	ldd	r24, Z+3	; 0x03
    1304:	81 ff       	sbrs	r24, 1
    1306:	1c c0       	rjmp	.+56     	; 0x1340 <puts_P+0x50>
    1308:	00 e0       	ldi	r16, 0x00	; 0
    130a:	10 e0       	ldi	r17, 0x00	; 0
    130c:	fe 01       	movw	r30, r28
    130e:	84 91       	lpm	r24, Z
    1310:	60 91 38 01 	lds	r22, 0x0138
    1314:	70 91 39 01 	lds	r23, 0x0139
    1318:	db 01       	movw	r26, r22
    131a:	18 96       	adiw	r26, 0x08	; 8
    131c:	ed 91       	ld	r30, X+
    131e:	fc 91       	ld	r31, X
    1320:	19 97       	sbiw	r26, 0x09	; 9
    1322:	88 23       	and	r24, r24
    1324:	39 f0       	breq	.+14     	; 0x1334 <puts_P+0x44>
    1326:	09 95       	icall
    1328:	89 2b       	or	r24, r25
    132a:	11 f0       	breq	.+4      	; 0x1330 <puts_P+0x40>
    132c:	0f ef       	ldi	r16, 0xFF	; 255
    132e:	1f ef       	ldi	r17, 0xFF	; 255
    1330:	21 96       	adiw	r28, 0x01	; 1
    1332:	ec cf       	rjmp	.-40     	; 0x130c <puts_P+0x1c>
    1334:	8a e0       	ldi	r24, 0x0A	; 10
    1336:	09 95       	icall
    1338:	89 2b       	or	r24, r25
    133a:	11 f4       	brne	.+4      	; 0x1340 <puts_P+0x50>
    133c:	c8 01       	movw	r24, r16
    133e:	02 c0       	rjmp	.+4      	; 0x1344 <puts_P+0x54>
    1340:	8f ef       	ldi	r24, 0xFF	; 255
    1342:	9f ef       	ldi	r25, 0xFF	; 255
    1344:	df 91       	pop	r29
    1346:	cf 91       	pop	r28
    1348:	1f 91       	pop	r17
    134a:	0f 91       	pop	r16
    134c:	08 95       	ret

0000134e <vfprintf>:
    134e:	2f 92       	push	r2
    1350:	3f 92       	push	r3
    1352:	4f 92       	push	r4
    1354:	5f 92       	push	r5
    1356:	6f 92       	push	r6
    1358:	7f 92       	push	r7
    135a:	8f 92       	push	r8
    135c:	9f 92       	push	r9
    135e:	af 92       	push	r10
    1360:	bf 92       	push	r11
    1362:	cf 92       	push	r12
    1364:	df 92       	push	r13
    1366:	ef 92       	push	r14
    1368:	ff 92       	push	r15
    136a:	0f 93       	push	r16
    136c:	1f 93       	push	r17
    136e:	cf 93       	push	r28
    1370:	df 93       	push	r29
    1372:	cd b7       	in	r28, 0x3d	; 61
    1374:	de b7       	in	r29, 0x3e	; 62
    1376:	2c 97       	sbiw	r28, 0x0c	; 12
    1378:	0f b6       	in	r0, 0x3f	; 63
    137a:	f8 94       	cli
    137c:	de bf       	out	0x3e, r29	; 62
    137e:	0f be       	out	0x3f, r0	; 63
    1380:	cd bf       	out	0x3d, r28	; 61
    1382:	7c 01       	movw	r14, r24
    1384:	6b 01       	movw	r12, r22
    1386:	8a 01       	movw	r16, r20
    1388:	fc 01       	movw	r30, r24
    138a:	17 82       	std	Z+7, r1	; 0x07
    138c:	16 82       	std	Z+6, r1	; 0x06
    138e:	83 81       	ldd	r24, Z+3	; 0x03
    1390:	81 ff       	sbrs	r24, 1
    1392:	b0 c1       	rjmp	.+864    	; 0x16f4 <vfprintf+0x3a6>
    1394:	ce 01       	movw	r24, r28
    1396:	01 96       	adiw	r24, 0x01	; 1
    1398:	4c 01       	movw	r8, r24
    139a:	f7 01       	movw	r30, r14
    139c:	93 81       	ldd	r25, Z+3	; 0x03
    139e:	f6 01       	movw	r30, r12
    13a0:	93 fd       	sbrc	r25, 3
    13a2:	85 91       	lpm	r24, Z+
    13a4:	93 ff       	sbrs	r25, 3
    13a6:	81 91       	ld	r24, Z+
    13a8:	6f 01       	movw	r12, r30
    13aa:	88 23       	and	r24, r24
    13ac:	09 f4       	brne	.+2      	; 0x13b0 <vfprintf+0x62>
    13ae:	9e c1       	rjmp	.+828    	; 0x16ec <vfprintf+0x39e>
    13b0:	85 32       	cpi	r24, 0x25	; 37
    13b2:	39 f4       	brne	.+14     	; 0x13c2 <vfprintf+0x74>
    13b4:	93 fd       	sbrc	r25, 3
    13b6:	85 91       	lpm	r24, Z+
    13b8:	93 ff       	sbrs	r25, 3
    13ba:	81 91       	ld	r24, Z+
    13bc:	6f 01       	movw	r12, r30
    13be:	85 32       	cpi	r24, 0x25	; 37
    13c0:	21 f4       	brne	.+8      	; 0x13ca <vfprintf+0x7c>
    13c2:	b7 01       	movw	r22, r14
    13c4:	90 e0       	ldi	r25, 0x00	; 0
    13c6:	3f df       	rcall	.-386    	; 0x1246 <fputc>
    13c8:	e8 cf       	rjmp	.-48     	; 0x139a <vfprintf+0x4c>
    13ca:	51 2c       	mov	r5, r1
    13cc:	31 2c       	mov	r3, r1
    13ce:	20 e0       	ldi	r18, 0x00	; 0
    13d0:	20 32       	cpi	r18, 0x20	; 32
    13d2:	a0 f4       	brcc	.+40     	; 0x13fc <vfprintf+0xae>
    13d4:	8b 32       	cpi	r24, 0x2B	; 43
    13d6:	69 f0       	breq	.+26     	; 0x13f2 <vfprintf+0xa4>
    13d8:	30 f4       	brcc	.+12     	; 0x13e6 <vfprintf+0x98>
    13da:	80 32       	cpi	r24, 0x20	; 32
    13dc:	59 f0       	breq	.+22     	; 0x13f4 <vfprintf+0xa6>
    13de:	83 32       	cpi	r24, 0x23	; 35
    13e0:	69 f4       	brne	.+26     	; 0x13fc <vfprintf+0xae>
    13e2:	20 61       	ori	r18, 0x10	; 16
    13e4:	2c c0       	rjmp	.+88     	; 0x143e <vfprintf+0xf0>
    13e6:	8d 32       	cpi	r24, 0x2D	; 45
    13e8:	39 f0       	breq	.+14     	; 0x13f8 <vfprintf+0xaa>
    13ea:	80 33       	cpi	r24, 0x30	; 48
    13ec:	39 f4       	brne	.+14     	; 0x13fc <vfprintf+0xae>
    13ee:	21 60       	ori	r18, 0x01	; 1
    13f0:	26 c0       	rjmp	.+76     	; 0x143e <vfprintf+0xf0>
    13f2:	22 60       	ori	r18, 0x02	; 2
    13f4:	24 60       	ori	r18, 0x04	; 4
    13f6:	23 c0       	rjmp	.+70     	; 0x143e <vfprintf+0xf0>
    13f8:	28 60       	ori	r18, 0x08	; 8
    13fa:	21 c0       	rjmp	.+66     	; 0x143e <vfprintf+0xf0>
    13fc:	27 fd       	sbrc	r18, 7
    13fe:	27 c0       	rjmp	.+78     	; 0x144e <vfprintf+0x100>
    1400:	30 ed       	ldi	r19, 0xD0	; 208
    1402:	38 0f       	add	r19, r24
    1404:	3a 30       	cpi	r19, 0x0A	; 10
    1406:	78 f4       	brcc	.+30     	; 0x1426 <vfprintf+0xd8>
    1408:	26 ff       	sbrs	r18, 6
    140a:	06 c0       	rjmp	.+12     	; 0x1418 <vfprintf+0xca>
    140c:	fa e0       	ldi	r31, 0x0A	; 10
    140e:	5f 9e       	mul	r5, r31
    1410:	30 0d       	add	r19, r0
    1412:	11 24       	eor	r1, r1
    1414:	53 2e       	mov	r5, r19
    1416:	13 c0       	rjmp	.+38     	; 0x143e <vfprintf+0xf0>
    1418:	8a e0       	ldi	r24, 0x0A	; 10
    141a:	38 9e       	mul	r3, r24
    141c:	30 0d       	add	r19, r0
    141e:	11 24       	eor	r1, r1
    1420:	33 2e       	mov	r3, r19
    1422:	20 62       	ori	r18, 0x20	; 32
    1424:	0c c0       	rjmp	.+24     	; 0x143e <vfprintf+0xf0>
    1426:	8e 32       	cpi	r24, 0x2E	; 46
    1428:	21 f4       	brne	.+8      	; 0x1432 <vfprintf+0xe4>
    142a:	26 fd       	sbrc	r18, 6
    142c:	5f c1       	rjmp	.+702    	; 0x16ec <vfprintf+0x39e>
    142e:	20 64       	ori	r18, 0x40	; 64
    1430:	06 c0       	rjmp	.+12     	; 0x143e <vfprintf+0xf0>
    1432:	8c 36       	cpi	r24, 0x6C	; 108
    1434:	11 f4       	brne	.+4      	; 0x143a <vfprintf+0xec>
    1436:	20 68       	ori	r18, 0x80	; 128
    1438:	02 c0       	rjmp	.+4      	; 0x143e <vfprintf+0xf0>
    143a:	88 36       	cpi	r24, 0x68	; 104
    143c:	41 f4       	brne	.+16     	; 0x144e <vfprintf+0x100>
    143e:	f6 01       	movw	r30, r12
    1440:	93 fd       	sbrc	r25, 3
    1442:	85 91       	lpm	r24, Z+
    1444:	93 ff       	sbrs	r25, 3
    1446:	81 91       	ld	r24, Z+
    1448:	6f 01       	movw	r12, r30
    144a:	81 11       	cpse	r24, r1
    144c:	c1 cf       	rjmp	.-126    	; 0x13d0 <vfprintf+0x82>
    144e:	98 2f       	mov	r25, r24
    1450:	9f 7d       	andi	r25, 0xDF	; 223
    1452:	95 54       	subi	r25, 0x45	; 69
    1454:	93 30       	cpi	r25, 0x03	; 3
    1456:	28 f4       	brcc	.+10     	; 0x1462 <vfprintf+0x114>
    1458:	0c 5f       	subi	r16, 0xFC	; 252
    145a:	1f 4f       	sbci	r17, 0xFF	; 255
    145c:	ff e3       	ldi	r31, 0x3F	; 63
    145e:	f9 83       	std	Y+1, r31	; 0x01
    1460:	0d c0       	rjmp	.+26     	; 0x147c <vfprintf+0x12e>
    1462:	83 36       	cpi	r24, 0x63	; 99
    1464:	31 f0       	breq	.+12     	; 0x1472 <vfprintf+0x124>
    1466:	83 37       	cpi	r24, 0x73	; 115
    1468:	71 f0       	breq	.+28     	; 0x1486 <vfprintf+0x138>
    146a:	83 35       	cpi	r24, 0x53	; 83
    146c:	09 f0       	breq	.+2      	; 0x1470 <vfprintf+0x122>
    146e:	57 c0       	rjmp	.+174    	; 0x151e <vfprintf+0x1d0>
    1470:	21 c0       	rjmp	.+66     	; 0x14b4 <vfprintf+0x166>
    1472:	f8 01       	movw	r30, r16
    1474:	80 81       	ld	r24, Z
    1476:	89 83       	std	Y+1, r24	; 0x01
    1478:	0e 5f       	subi	r16, 0xFE	; 254
    147a:	1f 4f       	sbci	r17, 0xFF	; 255
    147c:	44 24       	eor	r4, r4
    147e:	43 94       	inc	r4
    1480:	51 2c       	mov	r5, r1
    1482:	54 01       	movw	r10, r8
    1484:	14 c0       	rjmp	.+40     	; 0x14ae <vfprintf+0x160>
    1486:	38 01       	movw	r6, r16
    1488:	f2 e0       	ldi	r31, 0x02	; 2
    148a:	6f 0e       	add	r6, r31
    148c:	71 1c       	adc	r7, r1
    148e:	f8 01       	movw	r30, r16
    1490:	a0 80       	ld	r10, Z
    1492:	b1 80       	ldd	r11, Z+1	; 0x01
    1494:	26 ff       	sbrs	r18, 6
    1496:	03 c0       	rjmp	.+6      	; 0x149e <vfprintf+0x150>
    1498:	65 2d       	mov	r22, r5
    149a:	70 e0       	ldi	r23, 0x00	; 0
    149c:	02 c0       	rjmp	.+4      	; 0x14a2 <vfprintf+0x154>
    149e:	6f ef       	ldi	r22, 0xFF	; 255
    14a0:	7f ef       	ldi	r23, 0xFF	; 255
    14a2:	c5 01       	movw	r24, r10
    14a4:	2c 87       	std	Y+12, r18	; 0x0c
    14a6:	4c d1       	rcall	.+664    	; 0x1740 <strnlen>
    14a8:	2c 01       	movw	r4, r24
    14aa:	83 01       	movw	r16, r6
    14ac:	2c 85       	ldd	r18, Y+12	; 0x0c
    14ae:	2f 77       	andi	r18, 0x7F	; 127
    14b0:	22 2e       	mov	r2, r18
    14b2:	16 c0       	rjmp	.+44     	; 0x14e0 <vfprintf+0x192>
    14b4:	38 01       	movw	r6, r16
    14b6:	f2 e0       	ldi	r31, 0x02	; 2
    14b8:	6f 0e       	add	r6, r31
    14ba:	71 1c       	adc	r7, r1
    14bc:	f8 01       	movw	r30, r16
    14be:	a0 80       	ld	r10, Z
    14c0:	b1 80       	ldd	r11, Z+1	; 0x01
    14c2:	26 ff       	sbrs	r18, 6
    14c4:	03 c0       	rjmp	.+6      	; 0x14cc <vfprintf+0x17e>
    14c6:	65 2d       	mov	r22, r5
    14c8:	70 e0       	ldi	r23, 0x00	; 0
    14ca:	02 c0       	rjmp	.+4      	; 0x14d0 <vfprintf+0x182>
    14cc:	6f ef       	ldi	r22, 0xFF	; 255
    14ce:	7f ef       	ldi	r23, 0xFF	; 255
    14d0:	c5 01       	movw	r24, r10
    14d2:	2c 87       	std	Y+12, r18	; 0x0c
    14d4:	2a d1       	rcall	.+596    	; 0x172a <strnlen_P>
    14d6:	2c 01       	movw	r4, r24
    14d8:	2c 85       	ldd	r18, Y+12	; 0x0c
    14da:	20 68       	ori	r18, 0x80	; 128
    14dc:	22 2e       	mov	r2, r18
    14de:	83 01       	movw	r16, r6
    14e0:	23 fc       	sbrc	r2, 3
    14e2:	19 c0       	rjmp	.+50     	; 0x1516 <vfprintf+0x1c8>
    14e4:	83 2d       	mov	r24, r3
    14e6:	90 e0       	ldi	r25, 0x00	; 0
    14e8:	48 16       	cp	r4, r24
    14ea:	59 06       	cpc	r5, r25
    14ec:	a0 f4       	brcc	.+40     	; 0x1516 <vfprintf+0x1c8>
    14ee:	b7 01       	movw	r22, r14
    14f0:	80 e2       	ldi	r24, 0x20	; 32
    14f2:	90 e0       	ldi	r25, 0x00	; 0
    14f4:	a8 de       	rcall	.-688    	; 0x1246 <fputc>
    14f6:	3a 94       	dec	r3
    14f8:	f5 cf       	rjmp	.-22     	; 0x14e4 <vfprintf+0x196>
    14fa:	f5 01       	movw	r30, r10
    14fc:	27 fc       	sbrc	r2, 7
    14fe:	85 91       	lpm	r24, Z+
    1500:	27 fe       	sbrs	r2, 7
    1502:	81 91       	ld	r24, Z+
    1504:	5f 01       	movw	r10, r30
    1506:	b7 01       	movw	r22, r14
    1508:	90 e0       	ldi	r25, 0x00	; 0
    150a:	9d de       	rcall	.-710    	; 0x1246 <fputc>
    150c:	31 10       	cpse	r3, r1
    150e:	3a 94       	dec	r3
    1510:	f1 e0       	ldi	r31, 0x01	; 1
    1512:	4f 1a       	sub	r4, r31
    1514:	51 08       	sbc	r5, r1
    1516:	41 14       	cp	r4, r1
    1518:	51 04       	cpc	r5, r1
    151a:	79 f7       	brne	.-34     	; 0x14fa <vfprintf+0x1ac>
    151c:	de c0       	rjmp	.+444    	; 0x16da <vfprintf+0x38c>
    151e:	84 36       	cpi	r24, 0x64	; 100
    1520:	11 f0       	breq	.+4      	; 0x1526 <vfprintf+0x1d8>
    1522:	89 36       	cpi	r24, 0x69	; 105
    1524:	31 f5       	brne	.+76     	; 0x1572 <vfprintf+0x224>
    1526:	f8 01       	movw	r30, r16
    1528:	27 ff       	sbrs	r18, 7
    152a:	07 c0       	rjmp	.+14     	; 0x153a <vfprintf+0x1ec>
    152c:	60 81       	ld	r22, Z
    152e:	71 81       	ldd	r23, Z+1	; 0x01
    1530:	82 81       	ldd	r24, Z+2	; 0x02
    1532:	93 81       	ldd	r25, Z+3	; 0x03
    1534:	0c 5f       	subi	r16, 0xFC	; 252
    1536:	1f 4f       	sbci	r17, 0xFF	; 255
    1538:	08 c0       	rjmp	.+16     	; 0x154a <vfprintf+0x1fc>
    153a:	60 81       	ld	r22, Z
    153c:	71 81       	ldd	r23, Z+1	; 0x01
    153e:	88 27       	eor	r24, r24
    1540:	77 fd       	sbrc	r23, 7
    1542:	80 95       	com	r24
    1544:	98 2f       	mov	r25, r24
    1546:	0e 5f       	subi	r16, 0xFE	; 254
    1548:	1f 4f       	sbci	r17, 0xFF	; 255
    154a:	2f 76       	andi	r18, 0x6F	; 111
    154c:	b2 2e       	mov	r11, r18
    154e:	97 ff       	sbrs	r25, 7
    1550:	09 c0       	rjmp	.+18     	; 0x1564 <vfprintf+0x216>
    1552:	90 95       	com	r25
    1554:	80 95       	com	r24
    1556:	70 95       	com	r23
    1558:	61 95       	neg	r22
    155a:	7f 4f       	sbci	r23, 0xFF	; 255
    155c:	8f 4f       	sbci	r24, 0xFF	; 255
    155e:	9f 4f       	sbci	r25, 0xFF	; 255
    1560:	20 68       	ori	r18, 0x80	; 128
    1562:	b2 2e       	mov	r11, r18
    1564:	2a e0       	ldi	r18, 0x0A	; 10
    1566:	30 e0       	ldi	r19, 0x00	; 0
    1568:	a4 01       	movw	r20, r8
    156a:	f5 d0       	rcall	.+490    	; 0x1756 <__ultoa_invert>
    156c:	a8 2e       	mov	r10, r24
    156e:	a8 18       	sub	r10, r8
    1570:	43 c0       	rjmp	.+134    	; 0x15f8 <vfprintf+0x2aa>
    1572:	85 37       	cpi	r24, 0x75	; 117
    1574:	29 f4       	brne	.+10     	; 0x1580 <vfprintf+0x232>
    1576:	2f 7e       	andi	r18, 0xEF	; 239
    1578:	b2 2e       	mov	r11, r18
    157a:	2a e0       	ldi	r18, 0x0A	; 10
    157c:	30 e0       	ldi	r19, 0x00	; 0
    157e:	25 c0       	rjmp	.+74     	; 0x15ca <vfprintf+0x27c>
    1580:	f2 2f       	mov	r31, r18
    1582:	f9 7f       	andi	r31, 0xF9	; 249
    1584:	bf 2e       	mov	r11, r31
    1586:	8f 36       	cpi	r24, 0x6F	; 111
    1588:	c1 f0       	breq	.+48     	; 0x15ba <vfprintf+0x26c>
    158a:	18 f4       	brcc	.+6      	; 0x1592 <vfprintf+0x244>
    158c:	88 35       	cpi	r24, 0x58	; 88
    158e:	79 f0       	breq	.+30     	; 0x15ae <vfprintf+0x260>
    1590:	ad c0       	rjmp	.+346    	; 0x16ec <vfprintf+0x39e>
    1592:	80 37       	cpi	r24, 0x70	; 112
    1594:	19 f0       	breq	.+6      	; 0x159c <vfprintf+0x24e>
    1596:	88 37       	cpi	r24, 0x78	; 120
    1598:	21 f0       	breq	.+8      	; 0x15a2 <vfprintf+0x254>
    159a:	a8 c0       	rjmp	.+336    	; 0x16ec <vfprintf+0x39e>
    159c:	2f 2f       	mov	r18, r31
    159e:	20 61       	ori	r18, 0x10	; 16
    15a0:	b2 2e       	mov	r11, r18
    15a2:	b4 fe       	sbrs	r11, 4
    15a4:	0d c0       	rjmp	.+26     	; 0x15c0 <vfprintf+0x272>
    15a6:	8b 2d       	mov	r24, r11
    15a8:	84 60       	ori	r24, 0x04	; 4
    15aa:	b8 2e       	mov	r11, r24
    15ac:	09 c0       	rjmp	.+18     	; 0x15c0 <vfprintf+0x272>
    15ae:	24 ff       	sbrs	r18, 4
    15b0:	0a c0       	rjmp	.+20     	; 0x15c6 <vfprintf+0x278>
    15b2:	9f 2f       	mov	r25, r31
    15b4:	96 60       	ori	r25, 0x06	; 6
    15b6:	b9 2e       	mov	r11, r25
    15b8:	06 c0       	rjmp	.+12     	; 0x15c6 <vfprintf+0x278>
    15ba:	28 e0       	ldi	r18, 0x08	; 8
    15bc:	30 e0       	ldi	r19, 0x00	; 0
    15be:	05 c0       	rjmp	.+10     	; 0x15ca <vfprintf+0x27c>
    15c0:	20 e1       	ldi	r18, 0x10	; 16
    15c2:	30 e0       	ldi	r19, 0x00	; 0
    15c4:	02 c0       	rjmp	.+4      	; 0x15ca <vfprintf+0x27c>
    15c6:	20 e1       	ldi	r18, 0x10	; 16
    15c8:	32 e0       	ldi	r19, 0x02	; 2
    15ca:	f8 01       	movw	r30, r16
    15cc:	b7 fe       	sbrs	r11, 7
    15ce:	07 c0       	rjmp	.+14     	; 0x15de <vfprintf+0x290>
    15d0:	60 81       	ld	r22, Z
    15d2:	71 81       	ldd	r23, Z+1	; 0x01
    15d4:	82 81       	ldd	r24, Z+2	; 0x02
    15d6:	93 81       	ldd	r25, Z+3	; 0x03
    15d8:	0c 5f       	subi	r16, 0xFC	; 252
    15da:	1f 4f       	sbci	r17, 0xFF	; 255
    15dc:	06 c0       	rjmp	.+12     	; 0x15ea <vfprintf+0x29c>
    15de:	60 81       	ld	r22, Z
    15e0:	71 81       	ldd	r23, Z+1	; 0x01
    15e2:	80 e0       	ldi	r24, 0x00	; 0
    15e4:	90 e0       	ldi	r25, 0x00	; 0
    15e6:	0e 5f       	subi	r16, 0xFE	; 254
    15e8:	1f 4f       	sbci	r17, 0xFF	; 255
    15ea:	a4 01       	movw	r20, r8
    15ec:	b4 d0       	rcall	.+360    	; 0x1756 <__ultoa_invert>
    15ee:	a8 2e       	mov	r10, r24
    15f0:	a8 18       	sub	r10, r8
    15f2:	fb 2d       	mov	r31, r11
    15f4:	ff 77       	andi	r31, 0x7F	; 127
    15f6:	bf 2e       	mov	r11, r31
    15f8:	b6 fe       	sbrs	r11, 6
    15fa:	0b c0       	rjmp	.+22     	; 0x1612 <vfprintf+0x2c4>
    15fc:	2b 2d       	mov	r18, r11
    15fe:	2e 7f       	andi	r18, 0xFE	; 254
    1600:	a5 14       	cp	r10, r5
    1602:	50 f4       	brcc	.+20     	; 0x1618 <vfprintf+0x2ca>
    1604:	b4 fe       	sbrs	r11, 4
    1606:	0a c0       	rjmp	.+20     	; 0x161c <vfprintf+0x2ce>
    1608:	b2 fc       	sbrc	r11, 2
    160a:	08 c0       	rjmp	.+16     	; 0x161c <vfprintf+0x2ce>
    160c:	2b 2d       	mov	r18, r11
    160e:	2e 7e       	andi	r18, 0xEE	; 238
    1610:	05 c0       	rjmp	.+10     	; 0x161c <vfprintf+0x2ce>
    1612:	7a 2c       	mov	r7, r10
    1614:	2b 2d       	mov	r18, r11
    1616:	03 c0       	rjmp	.+6      	; 0x161e <vfprintf+0x2d0>
    1618:	7a 2c       	mov	r7, r10
    161a:	01 c0       	rjmp	.+2      	; 0x161e <vfprintf+0x2d0>
    161c:	75 2c       	mov	r7, r5
    161e:	24 ff       	sbrs	r18, 4
    1620:	0d c0       	rjmp	.+26     	; 0x163c <vfprintf+0x2ee>
    1622:	fe 01       	movw	r30, r28
    1624:	ea 0d       	add	r30, r10
    1626:	f1 1d       	adc	r31, r1
    1628:	80 81       	ld	r24, Z
    162a:	80 33       	cpi	r24, 0x30	; 48
    162c:	11 f4       	brne	.+4      	; 0x1632 <vfprintf+0x2e4>
    162e:	29 7e       	andi	r18, 0xE9	; 233
    1630:	09 c0       	rjmp	.+18     	; 0x1644 <vfprintf+0x2f6>
    1632:	22 ff       	sbrs	r18, 2
    1634:	06 c0       	rjmp	.+12     	; 0x1642 <vfprintf+0x2f4>
    1636:	73 94       	inc	r7
    1638:	73 94       	inc	r7
    163a:	04 c0       	rjmp	.+8      	; 0x1644 <vfprintf+0x2f6>
    163c:	82 2f       	mov	r24, r18
    163e:	86 78       	andi	r24, 0x86	; 134
    1640:	09 f0       	breq	.+2      	; 0x1644 <vfprintf+0x2f6>
    1642:	73 94       	inc	r7
    1644:	23 fd       	sbrc	r18, 3
    1646:	12 c0       	rjmp	.+36     	; 0x166c <vfprintf+0x31e>
    1648:	20 ff       	sbrs	r18, 0
    164a:	06 c0       	rjmp	.+12     	; 0x1658 <vfprintf+0x30a>
    164c:	5a 2c       	mov	r5, r10
    164e:	73 14       	cp	r7, r3
    1650:	18 f4       	brcc	.+6      	; 0x1658 <vfprintf+0x30a>
    1652:	53 0c       	add	r5, r3
    1654:	57 18       	sub	r5, r7
    1656:	73 2c       	mov	r7, r3
    1658:	73 14       	cp	r7, r3
    165a:	60 f4       	brcc	.+24     	; 0x1674 <vfprintf+0x326>
    165c:	b7 01       	movw	r22, r14
    165e:	80 e2       	ldi	r24, 0x20	; 32
    1660:	90 e0       	ldi	r25, 0x00	; 0
    1662:	2c 87       	std	Y+12, r18	; 0x0c
    1664:	f0 dd       	rcall	.-1056   	; 0x1246 <fputc>
    1666:	73 94       	inc	r7
    1668:	2c 85       	ldd	r18, Y+12	; 0x0c
    166a:	f6 cf       	rjmp	.-20     	; 0x1658 <vfprintf+0x30a>
    166c:	73 14       	cp	r7, r3
    166e:	10 f4       	brcc	.+4      	; 0x1674 <vfprintf+0x326>
    1670:	37 18       	sub	r3, r7
    1672:	01 c0       	rjmp	.+2      	; 0x1676 <vfprintf+0x328>
    1674:	31 2c       	mov	r3, r1
    1676:	24 ff       	sbrs	r18, 4
    1678:	11 c0       	rjmp	.+34     	; 0x169c <vfprintf+0x34e>
    167a:	b7 01       	movw	r22, r14
    167c:	80 e3       	ldi	r24, 0x30	; 48
    167e:	90 e0       	ldi	r25, 0x00	; 0
    1680:	2c 87       	std	Y+12, r18	; 0x0c
    1682:	e1 dd       	rcall	.-1086   	; 0x1246 <fputc>
    1684:	2c 85       	ldd	r18, Y+12	; 0x0c
    1686:	22 ff       	sbrs	r18, 2
    1688:	16 c0       	rjmp	.+44     	; 0x16b6 <vfprintf+0x368>
    168a:	21 ff       	sbrs	r18, 1
    168c:	03 c0       	rjmp	.+6      	; 0x1694 <vfprintf+0x346>
    168e:	88 e5       	ldi	r24, 0x58	; 88
    1690:	90 e0       	ldi	r25, 0x00	; 0
    1692:	02 c0       	rjmp	.+4      	; 0x1698 <vfprintf+0x34a>
    1694:	88 e7       	ldi	r24, 0x78	; 120
    1696:	90 e0       	ldi	r25, 0x00	; 0
    1698:	b7 01       	movw	r22, r14
    169a:	0c c0       	rjmp	.+24     	; 0x16b4 <vfprintf+0x366>
    169c:	82 2f       	mov	r24, r18
    169e:	86 78       	andi	r24, 0x86	; 134
    16a0:	51 f0       	breq	.+20     	; 0x16b6 <vfprintf+0x368>
    16a2:	21 fd       	sbrc	r18, 1
    16a4:	02 c0       	rjmp	.+4      	; 0x16aa <vfprintf+0x35c>
    16a6:	80 e2       	ldi	r24, 0x20	; 32
    16a8:	01 c0       	rjmp	.+2      	; 0x16ac <vfprintf+0x35e>
    16aa:	8b e2       	ldi	r24, 0x2B	; 43
    16ac:	27 fd       	sbrc	r18, 7
    16ae:	8d e2       	ldi	r24, 0x2D	; 45
    16b0:	b7 01       	movw	r22, r14
    16b2:	90 e0       	ldi	r25, 0x00	; 0
    16b4:	c8 dd       	rcall	.-1136   	; 0x1246 <fputc>
    16b6:	a5 14       	cp	r10, r5
    16b8:	30 f4       	brcc	.+12     	; 0x16c6 <vfprintf+0x378>
    16ba:	b7 01       	movw	r22, r14
    16bc:	80 e3       	ldi	r24, 0x30	; 48
    16be:	90 e0       	ldi	r25, 0x00	; 0
    16c0:	c2 dd       	rcall	.-1148   	; 0x1246 <fputc>
    16c2:	5a 94       	dec	r5
    16c4:	f8 cf       	rjmp	.-16     	; 0x16b6 <vfprintf+0x368>
    16c6:	aa 94       	dec	r10
    16c8:	f4 01       	movw	r30, r8
    16ca:	ea 0d       	add	r30, r10
    16cc:	f1 1d       	adc	r31, r1
    16ce:	80 81       	ld	r24, Z
    16d0:	b7 01       	movw	r22, r14
    16d2:	90 e0       	ldi	r25, 0x00	; 0
    16d4:	b8 dd       	rcall	.-1168   	; 0x1246 <fputc>
    16d6:	a1 10       	cpse	r10, r1
    16d8:	f6 cf       	rjmp	.-20     	; 0x16c6 <vfprintf+0x378>
    16da:	33 20       	and	r3, r3
    16dc:	09 f4       	brne	.+2      	; 0x16e0 <vfprintf+0x392>
    16de:	5d ce       	rjmp	.-838    	; 0x139a <vfprintf+0x4c>
    16e0:	b7 01       	movw	r22, r14
    16e2:	80 e2       	ldi	r24, 0x20	; 32
    16e4:	90 e0       	ldi	r25, 0x00	; 0
    16e6:	af dd       	rcall	.-1186   	; 0x1246 <fputc>
    16e8:	3a 94       	dec	r3
    16ea:	f7 cf       	rjmp	.-18     	; 0x16da <vfprintf+0x38c>
    16ec:	f7 01       	movw	r30, r14
    16ee:	86 81       	ldd	r24, Z+6	; 0x06
    16f0:	97 81       	ldd	r25, Z+7	; 0x07
    16f2:	02 c0       	rjmp	.+4      	; 0x16f8 <vfprintf+0x3aa>
    16f4:	8f ef       	ldi	r24, 0xFF	; 255
    16f6:	9f ef       	ldi	r25, 0xFF	; 255
    16f8:	2c 96       	adiw	r28, 0x0c	; 12
    16fa:	0f b6       	in	r0, 0x3f	; 63
    16fc:	f8 94       	cli
    16fe:	de bf       	out	0x3e, r29	; 62
    1700:	0f be       	out	0x3f, r0	; 63
    1702:	cd bf       	out	0x3d, r28	; 61
    1704:	df 91       	pop	r29
    1706:	cf 91       	pop	r28
    1708:	1f 91       	pop	r17
    170a:	0f 91       	pop	r16
    170c:	ff 90       	pop	r15
    170e:	ef 90       	pop	r14
    1710:	df 90       	pop	r13
    1712:	cf 90       	pop	r12
    1714:	bf 90       	pop	r11
    1716:	af 90       	pop	r10
    1718:	9f 90       	pop	r9
    171a:	8f 90       	pop	r8
    171c:	7f 90       	pop	r7
    171e:	6f 90       	pop	r6
    1720:	5f 90       	pop	r5
    1722:	4f 90       	pop	r4
    1724:	3f 90       	pop	r3
    1726:	2f 90       	pop	r2
    1728:	08 95       	ret

0000172a <strnlen_P>:
    172a:	fc 01       	movw	r30, r24
    172c:	05 90       	lpm	r0, Z+
    172e:	61 50       	subi	r22, 0x01	; 1
    1730:	70 40       	sbci	r23, 0x00	; 0
    1732:	01 10       	cpse	r0, r1
    1734:	d8 f7       	brcc	.-10     	; 0x172c <strnlen_P+0x2>
    1736:	80 95       	com	r24
    1738:	90 95       	com	r25
    173a:	8e 0f       	add	r24, r30
    173c:	9f 1f       	adc	r25, r31
    173e:	08 95       	ret

00001740 <strnlen>:
    1740:	fc 01       	movw	r30, r24
    1742:	61 50       	subi	r22, 0x01	; 1
    1744:	70 40       	sbci	r23, 0x00	; 0
    1746:	01 90       	ld	r0, Z+
    1748:	01 10       	cpse	r0, r1
    174a:	d8 f7       	brcc	.-10     	; 0x1742 <strnlen+0x2>
    174c:	80 95       	com	r24
    174e:	90 95       	com	r25
    1750:	8e 0f       	add	r24, r30
    1752:	9f 1f       	adc	r25, r31
    1754:	08 95       	ret

00001756 <__ultoa_invert>:
    1756:	fa 01       	movw	r30, r20
    1758:	aa 27       	eor	r26, r26
    175a:	28 30       	cpi	r18, 0x08	; 8
    175c:	51 f1       	breq	.+84     	; 0x17b2 <__ultoa_invert+0x5c>
    175e:	20 31       	cpi	r18, 0x10	; 16
    1760:	81 f1       	breq	.+96     	; 0x17c2 <__ultoa_invert+0x6c>
    1762:	e8 94       	clt
    1764:	6f 93       	push	r22
    1766:	6e 7f       	andi	r22, 0xFE	; 254
    1768:	6e 5f       	subi	r22, 0xFE	; 254
    176a:	7f 4f       	sbci	r23, 0xFF	; 255
    176c:	8f 4f       	sbci	r24, 0xFF	; 255
    176e:	9f 4f       	sbci	r25, 0xFF	; 255
    1770:	af 4f       	sbci	r26, 0xFF	; 255
    1772:	b1 e0       	ldi	r27, 0x01	; 1
    1774:	3e d0       	rcall	.+124    	; 0x17f2 <__ultoa_invert+0x9c>
    1776:	b4 e0       	ldi	r27, 0x04	; 4
    1778:	3c d0       	rcall	.+120    	; 0x17f2 <__ultoa_invert+0x9c>
    177a:	67 0f       	add	r22, r23
    177c:	78 1f       	adc	r23, r24
    177e:	89 1f       	adc	r24, r25
    1780:	9a 1f       	adc	r25, r26
    1782:	a1 1d       	adc	r26, r1
    1784:	68 0f       	add	r22, r24
    1786:	79 1f       	adc	r23, r25
    1788:	8a 1f       	adc	r24, r26
    178a:	91 1d       	adc	r25, r1
    178c:	a1 1d       	adc	r26, r1
    178e:	6a 0f       	add	r22, r26
    1790:	71 1d       	adc	r23, r1
    1792:	81 1d       	adc	r24, r1
    1794:	91 1d       	adc	r25, r1
    1796:	a1 1d       	adc	r26, r1
    1798:	20 d0       	rcall	.+64     	; 0x17da <__ultoa_invert+0x84>
    179a:	09 f4       	brne	.+2      	; 0x179e <__ultoa_invert+0x48>
    179c:	68 94       	set
    179e:	3f 91       	pop	r19
    17a0:	2a e0       	ldi	r18, 0x0A	; 10
    17a2:	26 9f       	mul	r18, r22
    17a4:	11 24       	eor	r1, r1
    17a6:	30 19       	sub	r19, r0
    17a8:	30 5d       	subi	r19, 0xD0	; 208
    17aa:	31 93       	st	Z+, r19
    17ac:	de f6       	brtc	.-74     	; 0x1764 <__ultoa_invert+0xe>
    17ae:	cf 01       	movw	r24, r30
    17b0:	08 95       	ret
    17b2:	46 2f       	mov	r20, r22
    17b4:	47 70       	andi	r20, 0x07	; 7
    17b6:	40 5d       	subi	r20, 0xD0	; 208
    17b8:	41 93       	st	Z+, r20
    17ba:	b3 e0       	ldi	r27, 0x03	; 3
    17bc:	0f d0       	rcall	.+30     	; 0x17dc <__ultoa_invert+0x86>
    17be:	c9 f7       	brne	.-14     	; 0x17b2 <__ultoa_invert+0x5c>
    17c0:	f6 cf       	rjmp	.-20     	; 0x17ae <__ultoa_invert+0x58>
    17c2:	46 2f       	mov	r20, r22
    17c4:	4f 70       	andi	r20, 0x0F	; 15
    17c6:	40 5d       	subi	r20, 0xD0	; 208
    17c8:	4a 33       	cpi	r20, 0x3A	; 58
    17ca:	18 f0       	brcs	.+6      	; 0x17d2 <__ultoa_invert+0x7c>
    17cc:	49 5d       	subi	r20, 0xD9	; 217
    17ce:	31 fd       	sbrc	r19, 1
    17d0:	40 52       	subi	r20, 0x20	; 32
    17d2:	41 93       	st	Z+, r20
    17d4:	02 d0       	rcall	.+4      	; 0x17da <__ultoa_invert+0x84>
    17d6:	a9 f7       	brne	.-22     	; 0x17c2 <__ultoa_invert+0x6c>
    17d8:	ea cf       	rjmp	.-44     	; 0x17ae <__ultoa_invert+0x58>
    17da:	b4 e0       	ldi	r27, 0x04	; 4
    17dc:	a6 95       	lsr	r26
    17de:	97 95       	ror	r25
    17e0:	87 95       	ror	r24
    17e2:	77 95       	ror	r23
    17e4:	67 95       	ror	r22
    17e6:	ba 95       	dec	r27
    17e8:	c9 f7       	brne	.-14     	; 0x17dc <__ultoa_invert+0x86>
    17ea:	00 97       	sbiw	r24, 0x00	; 0
    17ec:	61 05       	cpc	r22, r1
    17ee:	71 05       	cpc	r23, r1
    17f0:	08 95       	ret
    17f2:	9b 01       	movw	r18, r22
    17f4:	ac 01       	movw	r20, r24
    17f6:	0a 2e       	mov	r0, r26
    17f8:	06 94       	lsr	r0
    17fa:	57 95       	ror	r21
    17fc:	47 95       	ror	r20
    17fe:	37 95       	ror	r19
    1800:	27 95       	ror	r18
    1802:	ba 95       	dec	r27
    1804:	c9 f7       	brne	.-14     	; 0x17f8 <__ultoa_invert+0xa2>
    1806:	62 0f       	add	r22, r18
    1808:	73 1f       	adc	r23, r19
    180a:	84 1f       	adc	r24, r20
    180c:	95 1f       	adc	r25, r21
    180e:	a0 1d       	adc	r26, r0
    1810:	08 95       	ret

00001812 <_exit>:
    1812:	f8 94       	cli

00001814 <__stop_program>:
    1814:	ff cf       	rjmp	.-2      	; 0x1814 <__stop_program>
