   1               		.file	"Endpoint.c"
   2               	__SP_H__ = 0x3e
   3               	__SP_L__ = 0x3d
   4               	__SREG__ = 0x3f
   5               	__tmp_reg__ = 0
   6               	__zero_reg__ = 1
   7               		.text
   8               	.Ltext0:
   9               		.cfi_sections	.debug_frame
  10               		.section	.text.Endpoint_BytesToEPSizeMaskDynamic,"ax",@progbits
  11               	.global	Endpoint_BytesToEPSizeMaskDynamic
  13               	Endpoint_BytesToEPSizeMaskDynamic:
  14               	.LFB64:
  15               		.file 1 "../lufa-LUFA/LUFA/Drivers/USB/LowLevel/Endpoint.c"
   1:../lufa-LUFA/LUFA/Drivers/USB/LowLevel/Endpoint.c **** /*
   2:../lufa-LUFA/LUFA/Drivers/USB/LowLevel/Endpoint.c ****              LUFA Library
   3:../lufa-LUFA/LUFA/Drivers/USB/LowLevel/Endpoint.c ****      Copyright (C) Dean Camera, 2010.
   4:../lufa-LUFA/LUFA/Drivers/USB/LowLevel/Endpoint.c ****               
   5:../lufa-LUFA/LUFA/Drivers/USB/LowLevel/Endpoint.c ****   dean [at] fourwalledcubicle [dot] com
   6:../lufa-LUFA/LUFA/Drivers/USB/LowLevel/Endpoint.c ****       www.fourwalledcubicle.com
   7:../lufa-LUFA/LUFA/Drivers/USB/LowLevel/Endpoint.c **** */
   8:../lufa-LUFA/LUFA/Drivers/USB/LowLevel/Endpoint.c **** 
   9:../lufa-LUFA/LUFA/Drivers/USB/LowLevel/Endpoint.c **** /*
  10:../lufa-LUFA/LUFA/Drivers/USB/LowLevel/Endpoint.c ****   Copyright 2010  Dean Camera (dean [at] fourwalledcubicle [dot] com)
  11:../lufa-LUFA/LUFA/Drivers/USB/LowLevel/Endpoint.c **** 
  12:../lufa-LUFA/LUFA/Drivers/USB/LowLevel/Endpoint.c ****   Permission to use, copy, modify, distribute, and sell this 
  13:../lufa-LUFA/LUFA/Drivers/USB/LowLevel/Endpoint.c ****   software and its documentation for any purpose is hereby granted
  14:../lufa-LUFA/LUFA/Drivers/USB/LowLevel/Endpoint.c ****   without fee, provided that the above copyright notice appear in 
  15:../lufa-LUFA/LUFA/Drivers/USB/LowLevel/Endpoint.c ****   all copies and that both that the copyright notice and this
  16:../lufa-LUFA/LUFA/Drivers/USB/LowLevel/Endpoint.c ****   permission notice and warranty disclaimer appear in supporting 
  17:../lufa-LUFA/LUFA/Drivers/USB/LowLevel/Endpoint.c ****   documentation, and that the name of the author not be used in 
  18:../lufa-LUFA/LUFA/Drivers/USB/LowLevel/Endpoint.c ****   advertising or publicity pertaining to distribution of the 
  19:../lufa-LUFA/LUFA/Drivers/USB/LowLevel/Endpoint.c ****   software without specific, written prior permission.
  20:../lufa-LUFA/LUFA/Drivers/USB/LowLevel/Endpoint.c **** 
  21:../lufa-LUFA/LUFA/Drivers/USB/LowLevel/Endpoint.c ****   The author disclaim all warranties with regard to this
  22:../lufa-LUFA/LUFA/Drivers/USB/LowLevel/Endpoint.c ****   software, including all implied warranties of merchantability
  23:../lufa-LUFA/LUFA/Drivers/USB/LowLevel/Endpoint.c ****   and fitness.  In no event shall the author be liable for any
  24:../lufa-LUFA/LUFA/Drivers/USB/LowLevel/Endpoint.c ****   special, indirect or consequential damages or any damages
  25:../lufa-LUFA/LUFA/Drivers/USB/LowLevel/Endpoint.c ****   whatsoever resulting from loss of use, data or profits, whether
  26:../lufa-LUFA/LUFA/Drivers/USB/LowLevel/Endpoint.c ****   in an action of contract, negligence or other tortious action,
  27:../lufa-LUFA/LUFA/Drivers/USB/LowLevel/Endpoint.c ****   arising out of or in connection with the use or performance of
  28:../lufa-LUFA/LUFA/Drivers/USB/LowLevel/Endpoint.c ****   this software.
  29:../lufa-LUFA/LUFA/Drivers/USB/LowLevel/Endpoint.c **** */
  30:../lufa-LUFA/LUFA/Drivers/USB/LowLevel/Endpoint.c **** 
  31:../lufa-LUFA/LUFA/Drivers/USB/LowLevel/Endpoint.c **** #define  __INCLUDE_FROM_USB_DRIVER
  32:../lufa-LUFA/LUFA/Drivers/USB/LowLevel/Endpoint.c **** #include "../HighLevel/USBMode.h"
  33:../lufa-LUFA/LUFA/Drivers/USB/LowLevel/Endpoint.c **** 
  34:../lufa-LUFA/LUFA/Drivers/USB/LowLevel/Endpoint.c **** #if defined(USB_CAN_BE_DEVICE)
  35:../lufa-LUFA/LUFA/Drivers/USB/LowLevel/Endpoint.c **** 
  36:../lufa-LUFA/LUFA/Drivers/USB/LowLevel/Endpoint.c **** #define  __INCLUDE_FROM_ENDPOINT_C
  37:../lufa-LUFA/LUFA/Drivers/USB/LowLevel/Endpoint.c **** #include "Endpoint.h"
  38:../lufa-LUFA/LUFA/Drivers/USB/LowLevel/Endpoint.c **** 
  39:../lufa-LUFA/LUFA/Drivers/USB/LowLevel/Endpoint.c **** #if !defined(FIXED_CONTROL_ENDPOINT_SIZE)
  40:../lufa-LUFA/LUFA/Drivers/USB/LowLevel/Endpoint.c **** uint8_t USB_ControlEndpointSize = ENDPOINT_CONTROLEP_DEFAULT_SIZE;
  41:../lufa-LUFA/LUFA/Drivers/USB/LowLevel/Endpoint.c **** #endif
  42:../lufa-LUFA/LUFA/Drivers/USB/LowLevel/Endpoint.c **** 
  43:../lufa-LUFA/LUFA/Drivers/USB/LowLevel/Endpoint.c **** uint8_t Endpoint_BytesToEPSizeMaskDynamic(const uint16_t Size)
  44:../lufa-LUFA/LUFA/Drivers/USB/LowLevel/Endpoint.c **** {
  16               		.loc 1 44 0
  17               		.cfi_startproc
  18               	.LVL0:
  19               	/* prologue: function */
  20               	/* frame size = 0 */
  21               	/* stack size = 0 */
  22               	.L__stack_usage = 0
  23               	.LBB259:
  24               	.LBB260:
  25               		.file 2 "../lufa-LUFA/LUFA/Drivers/USB/LowLevel/Endpoint.h"
   1:../lufa-LUFA/LUFA/Drivers/USB/LowLevel/Endpoint.h **** /*
   2:../lufa-LUFA/LUFA/Drivers/USB/LowLevel/Endpoint.h ****              LUFA Library
   3:../lufa-LUFA/LUFA/Drivers/USB/LowLevel/Endpoint.h ****      Copyright (C) Dean Camera, 2010.
   4:../lufa-LUFA/LUFA/Drivers/USB/LowLevel/Endpoint.h ****               
   5:../lufa-LUFA/LUFA/Drivers/USB/LowLevel/Endpoint.h ****   dean [at] fourwalledcubicle [dot] com
   6:../lufa-LUFA/LUFA/Drivers/USB/LowLevel/Endpoint.h ****       www.fourwalledcubicle.com
   7:../lufa-LUFA/LUFA/Drivers/USB/LowLevel/Endpoint.h **** */
   8:../lufa-LUFA/LUFA/Drivers/USB/LowLevel/Endpoint.h **** 
   9:../lufa-LUFA/LUFA/Drivers/USB/LowLevel/Endpoint.h **** /*
  10:../lufa-LUFA/LUFA/Drivers/USB/LowLevel/Endpoint.h ****   Copyright 2010  Dean Camera (dean [at] fourwalledcubicle [dot] com)
  11:../lufa-LUFA/LUFA/Drivers/USB/LowLevel/Endpoint.h **** 
  12:../lufa-LUFA/LUFA/Drivers/USB/LowLevel/Endpoint.h ****   Permission to use, copy, modify, distribute, and sell this 
  13:../lufa-LUFA/LUFA/Drivers/USB/LowLevel/Endpoint.h ****   software and its documentation for any purpose is hereby granted
  14:../lufa-LUFA/LUFA/Drivers/USB/LowLevel/Endpoint.h ****   without fee, provided that the above copyright notice appear in 
  15:../lufa-LUFA/LUFA/Drivers/USB/LowLevel/Endpoint.h ****   all copies and that both that the copyright notice and this
  16:../lufa-LUFA/LUFA/Drivers/USB/LowLevel/Endpoint.h ****   permission notice and warranty disclaimer appear in supporting 
  17:../lufa-LUFA/LUFA/Drivers/USB/LowLevel/Endpoint.h ****   documentation, and that the name of the author not be used in 
  18:../lufa-LUFA/LUFA/Drivers/USB/LowLevel/Endpoint.h ****   advertising or publicity pertaining to distribution of the 
  19:../lufa-LUFA/LUFA/Drivers/USB/LowLevel/Endpoint.h ****   software without specific, written prior permission.
  20:../lufa-LUFA/LUFA/Drivers/USB/LowLevel/Endpoint.h **** 
  21:../lufa-LUFA/LUFA/Drivers/USB/LowLevel/Endpoint.h ****   The author disclaim all warranties with regard to this
  22:../lufa-LUFA/LUFA/Drivers/USB/LowLevel/Endpoint.h ****   software, including all implied warranties of merchantability
  23:../lufa-LUFA/LUFA/Drivers/USB/LowLevel/Endpoint.h ****   and fitness.  In no event shall the author be liable for any
  24:../lufa-LUFA/LUFA/Drivers/USB/LowLevel/Endpoint.h ****   special, indirect or consequential damages or any damages
  25:../lufa-LUFA/LUFA/Drivers/USB/LowLevel/Endpoint.h ****   whatsoever resulting from loss of use, data or profits, whether
  26:../lufa-LUFA/LUFA/Drivers/USB/LowLevel/Endpoint.h ****   in an action of contract, negligence or other tortious action,
  27:../lufa-LUFA/LUFA/Drivers/USB/LowLevel/Endpoint.h ****   arising out of or in connection with the use or performance of
  28:../lufa-LUFA/LUFA/Drivers/USB/LowLevel/Endpoint.h ****   this software.
  29:../lufa-LUFA/LUFA/Drivers/USB/LowLevel/Endpoint.h **** */
  30:../lufa-LUFA/LUFA/Drivers/USB/LowLevel/Endpoint.h **** 
  31:../lufa-LUFA/LUFA/Drivers/USB/LowLevel/Endpoint.h **** /** \file
  32:../lufa-LUFA/LUFA/Drivers/USB/LowLevel/Endpoint.h ****  *  \brief USB device endpoint management definitions.
  33:../lufa-LUFA/LUFA/Drivers/USB/LowLevel/Endpoint.h ****  *
  34:../lufa-LUFA/LUFA/Drivers/USB/LowLevel/Endpoint.h ****  *  This file contains structures, function prototypes and macros related to the management of the 
  35:../lufa-LUFA/LUFA/Drivers/USB/LowLevel/Endpoint.h ****  *  data endpoints when the library is initialized in USB device mode.
  36:../lufa-LUFA/LUFA/Drivers/USB/LowLevel/Endpoint.h ****  *
  37:../lufa-LUFA/LUFA/Drivers/USB/LowLevel/Endpoint.h ****  *  \note This file should not be included directly. It is automatically included as needed by the 
  38:../lufa-LUFA/LUFA/Drivers/USB/LowLevel/Endpoint.h ****  *        dispatch header located in LUFA/Drivers/USB/USB.h.
  39:../lufa-LUFA/LUFA/Drivers/USB/LowLevel/Endpoint.h ****  */
  40:../lufa-LUFA/LUFA/Drivers/USB/LowLevel/Endpoint.h **** 
  41:../lufa-LUFA/LUFA/Drivers/USB/LowLevel/Endpoint.h **** /** \ingroup Group_USB
  42:../lufa-LUFA/LUFA/Drivers/USB/LowLevel/Endpoint.h ****  *  @defgroup Group_EndpointManagement Endpoint Management
  43:../lufa-LUFA/LUFA/Drivers/USB/LowLevel/Endpoint.h ****  *
  44:../lufa-LUFA/LUFA/Drivers/USB/LowLevel/Endpoint.h ****  *  Functions, macros and enums related to endpoint management when in USB Device mode. This
  45:../lufa-LUFA/LUFA/Drivers/USB/LowLevel/Endpoint.h ****  *  module contains the endpoint management macros, as well as endpoint interrupt and data
  46:../lufa-LUFA/LUFA/Drivers/USB/LowLevel/Endpoint.h ****  *  send/receive functions for various data types.
  47:../lufa-LUFA/LUFA/Drivers/USB/LowLevel/Endpoint.h ****  *
  48:../lufa-LUFA/LUFA/Drivers/USB/LowLevel/Endpoint.h ****  *  @{
  49:../lufa-LUFA/LUFA/Drivers/USB/LowLevel/Endpoint.h ****  */
  50:../lufa-LUFA/LUFA/Drivers/USB/LowLevel/Endpoint.h **** 
  51:../lufa-LUFA/LUFA/Drivers/USB/LowLevel/Endpoint.h **** /** @defgroup Group_EndpointRW Endpoint Data Reading and Writing
  52:../lufa-LUFA/LUFA/Drivers/USB/LowLevel/Endpoint.h ****  *
  53:../lufa-LUFA/LUFA/Drivers/USB/LowLevel/Endpoint.h ****  *  Functions, macros, variables, enums and types related to data reading and writing from and to e
  54:../lufa-LUFA/LUFA/Drivers/USB/LowLevel/Endpoint.h ****  */
  55:../lufa-LUFA/LUFA/Drivers/USB/LowLevel/Endpoint.h ****  
  56:../lufa-LUFA/LUFA/Drivers/USB/LowLevel/Endpoint.h **** /** \ingroup Group_EndpointRW  
  57:../lufa-LUFA/LUFA/Drivers/USB/LowLevel/Endpoint.h ****  *  @defgroup Group_EndpointPrimitiveRW Read/Write of Primitive Data Types
  58:../lufa-LUFA/LUFA/Drivers/USB/LowLevel/Endpoint.h ****  *
  59:../lufa-LUFA/LUFA/Drivers/USB/LowLevel/Endpoint.h ****  *  Functions, macros, variables, enums and types related to data reading and writing of primitive 
  60:../lufa-LUFA/LUFA/Drivers/USB/LowLevel/Endpoint.h ****  *  from and to endpoints.
  61:../lufa-LUFA/LUFA/Drivers/USB/LowLevel/Endpoint.h ****  */ 
  62:../lufa-LUFA/LUFA/Drivers/USB/LowLevel/Endpoint.h **** 
  63:../lufa-LUFA/LUFA/Drivers/USB/LowLevel/Endpoint.h **** /** \ingroup Group_EndpointRW  
  64:../lufa-LUFA/LUFA/Drivers/USB/LowLevel/Endpoint.h ****  *  @defgroup Group_EndpointStreamRW Read/Write of Multi-Byte Streams
  65:../lufa-LUFA/LUFA/Drivers/USB/LowLevel/Endpoint.h ****  *
  66:../lufa-LUFA/LUFA/Drivers/USB/LowLevel/Endpoint.h ****  *  Functions, macros, variables, enums and types related to data reading and writing of data strea
  67:../lufa-LUFA/LUFA/Drivers/USB/LowLevel/Endpoint.h ****  *  and to endpoints.
  68:../lufa-LUFA/LUFA/Drivers/USB/LowLevel/Endpoint.h ****  */ 
  69:../lufa-LUFA/LUFA/Drivers/USB/LowLevel/Endpoint.h **** 
  70:../lufa-LUFA/LUFA/Drivers/USB/LowLevel/Endpoint.h **** /** @defgroup Group_EndpointPacketManagement Endpoint Packet Management
  71:../lufa-LUFA/LUFA/Drivers/USB/LowLevel/Endpoint.h ****  *
  72:../lufa-LUFA/LUFA/Drivers/USB/LowLevel/Endpoint.h ****  *  Functions, macros, variables, enums and types related to packet management of endpoints.
  73:../lufa-LUFA/LUFA/Drivers/USB/LowLevel/Endpoint.h ****  */
  74:../lufa-LUFA/LUFA/Drivers/USB/LowLevel/Endpoint.h **** 
  75:../lufa-LUFA/LUFA/Drivers/USB/LowLevel/Endpoint.h **** #ifndef __ENDPOINT_H__
  76:../lufa-LUFA/LUFA/Drivers/USB/LowLevel/Endpoint.h **** #define __ENDPOINT_H__
  77:../lufa-LUFA/LUFA/Drivers/USB/LowLevel/Endpoint.h **** 
  78:../lufa-LUFA/LUFA/Drivers/USB/LowLevel/Endpoint.h **** 	/* Includes: */
  79:../lufa-LUFA/LUFA/Drivers/USB/LowLevel/Endpoint.h **** 		#include <avr/io.h>
  80:../lufa-LUFA/LUFA/Drivers/USB/LowLevel/Endpoint.h **** 		#include <avr/pgmspace.h>
  81:../lufa-LUFA/LUFA/Drivers/USB/LowLevel/Endpoint.h **** 		#include <avr/eeprom.h>
  82:../lufa-LUFA/LUFA/Drivers/USB/LowLevel/Endpoint.h **** 		#include <stdbool.h>
  83:../lufa-LUFA/LUFA/Drivers/USB/LowLevel/Endpoint.h **** 
  84:../lufa-LUFA/LUFA/Drivers/USB/LowLevel/Endpoint.h **** 		#include "../../../Common/Common.h"
  85:../lufa-LUFA/LUFA/Drivers/USB/LowLevel/Endpoint.h **** 		#include "../HighLevel/USBTask.h"
  86:../lufa-LUFA/LUFA/Drivers/USB/LowLevel/Endpoint.h **** 		#include "USBInterrupt.h"
  87:../lufa-LUFA/LUFA/Drivers/USB/LowLevel/Endpoint.h **** 
  88:../lufa-LUFA/LUFA/Drivers/USB/LowLevel/Endpoint.h **** 		#if !defined(NO_STREAM_CALLBACKS) || defined(__DOXYGEN__)
  89:../lufa-LUFA/LUFA/Drivers/USB/LowLevel/Endpoint.h **** 			#include "../HighLevel/StreamCallbacks.h"
  90:../lufa-LUFA/LUFA/Drivers/USB/LowLevel/Endpoint.h **** 		#endif
  91:../lufa-LUFA/LUFA/Drivers/USB/LowLevel/Endpoint.h **** 		
  92:../lufa-LUFA/LUFA/Drivers/USB/LowLevel/Endpoint.h **** 	/* Enable C linkage for C++ Compilers: */
  93:../lufa-LUFA/LUFA/Drivers/USB/LowLevel/Endpoint.h **** 		#if defined(__cplusplus)
  94:../lufa-LUFA/LUFA/Drivers/USB/LowLevel/Endpoint.h **** 			extern "C" {
  95:../lufa-LUFA/LUFA/Drivers/USB/LowLevel/Endpoint.h **** 		#endif
  96:../lufa-LUFA/LUFA/Drivers/USB/LowLevel/Endpoint.h **** 
  97:../lufa-LUFA/LUFA/Drivers/USB/LowLevel/Endpoint.h **** 	/* Preprocessor Checks: */
  98:../lufa-LUFA/LUFA/Drivers/USB/LowLevel/Endpoint.h **** 		#if !defined(__INCLUDE_FROM_USB_DRIVER)
  99:../lufa-LUFA/LUFA/Drivers/USB/LowLevel/Endpoint.h **** 			#error Do not include this file directly. Include LUFA/Drivers/USB/USB.h instead.
 100:../lufa-LUFA/LUFA/Drivers/USB/LowLevel/Endpoint.h **** 		#endif
 101:../lufa-LUFA/LUFA/Drivers/USB/LowLevel/Endpoint.h **** 		
 102:../lufa-LUFA/LUFA/Drivers/USB/LowLevel/Endpoint.h **** 	/* Public Interface - May be used in end-application: */
 103:../lufa-LUFA/LUFA/Drivers/USB/LowLevel/Endpoint.h **** 		/* Macros: */
 104:../lufa-LUFA/LUFA/Drivers/USB/LowLevel/Endpoint.h **** 			/** Endpoint data direction mask for \ref Endpoint_ConfigureEndpoint(). This indicates that the 
 105:../lufa-LUFA/LUFA/Drivers/USB/LowLevel/Endpoint.h **** 			 *  should be initialized in the OUT direction - i.e. data flows from host to device.
 106:../lufa-LUFA/LUFA/Drivers/USB/LowLevel/Endpoint.h **** 			 */
 107:../lufa-LUFA/LUFA/Drivers/USB/LowLevel/Endpoint.h **** 			#define ENDPOINT_DIR_OUT                      (0 << EPDIR)
 108:../lufa-LUFA/LUFA/Drivers/USB/LowLevel/Endpoint.h **** 
 109:../lufa-LUFA/LUFA/Drivers/USB/LowLevel/Endpoint.h **** 			/** Endpoint data direction mask for \ref Endpoint_ConfigureEndpoint(). This indicates that the 
 110:../lufa-LUFA/LUFA/Drivers/USB/LowLevel/Endpoint.h **** 			 *  should be initialized in the IN direction - i.e. data flows from device to host.
 111:../lufa-LUFA/LUFA/Drivers/USB/LowLevel/Endpoint.h **** 			 */
 112:../lufa-LUFA/LUFA/Drivers/USB/LowLevel/Endpoint.h **** 			#define ENDPOINT_DIR_IN                       (1 << EPDIR)
 113:../lufa-LUFA/LUFA/Drivers/USB/LowLevel/Endpoint.h **** 
 114:../lufa-LUFA/LUFA/Drivers/USB/LowLevel/Endpoint.h **** 			/** Mask for the bank mode selection for the \ref Endpoint_ConfigureEndpoint() macro. This indic
 115:../lufa-LUFA/LUFA/Drivers/USB/LowLevel/Endpoint.h **** 			 *  that the endpoint should have one single bank, which requires less USB FIFO memory but resul
 116:../lufa-LUFA/LUFA/Drivers/USB/LowLevel/Endpoint.h **** 			 *  in slower transfers as only one USB device (the AVR or the host) can access the endpoint's
 117:../lufa-LUFA/LUFA/Drivers/USB/LowLevel/Endpoint.h **** 			 *  bank at the one time.
 118:../lufa-LUFA/LUFA/Drivers/USB/LowLevel/Endpoint.h **** 			 */
 119:../lufa-LUFA/LUFA/Drivers/USB/LowLevel/Endpoint.h **** 			#define ENDPOINT_BANK_SINGLE                  (0 << EPBK0)
 120:../lufa-LUFA/LUFA/Drivers/USB/LowLevel/Endpoint.h **** 
 121:../lufa-LUFA/LUFA/Drivers/USB/LowLevel/Endpoint.h **** 			/** Mask for the bank mode selection for the \ref Endpoint_ConfigureEndpoint() macro. This indic
 122:../lufa-LUFA/LUFA/Drivers/USB/LowLevel/Endpoint.h **** 			 *  that the endpoint should have two banks, which requires more USB FIFO memory but results
 123:../lufa-LUFA/LUFA/Drivers/USB/LowLevel/Endpoint.h **** 			 *  in faster transfers as one USB device (the AVR or the host) can access one bank while the ot
 124:../lufa-LUFA/LUFA/Drivers/USB/LowLevel/Endpoint.h **** 			 *  accesses the second bank.
 125:../lufa-LUFA/LUFA/Drivers/USB/LowLevel/Endpoint.h **** 			 */
 126:../lufa-LUFA/LUFA/Drivers/USB/LowLevel/Endpoint.h **** 			#define ENDPOINT_BANK_DOUBLE                  (1 << EPBK0)
 127:../lufa-LUFA/LUFA/Drivers/USB/LowLevel/Endpoint.h **** 			
 128:../lufa-LUFA/LUFA/Drivers/USB/LowLevel/Endpoint.h **** 			/** Endpoint address for the default control endpoint, which always resides in address 0. This i
 129:../lufa-LUFA/LUFA/Drivers/USB/LowLevel/Endpoint.h **** 			 *  defined for convenience to give more readable code when used with the endpoint macros.
 130:../lufa-LUFA/LUFA/Drivers/USB/LowLevel/Endpoint.h **** 			 */
 131:../lufa-LUFA/LUFA/Drivers/USB/LowLevel/Endpoint.h **** 			#define ENDPOINT_CONTROLEP                    0
 132:../lufa-LUFA/LUFA/Drivers/USB/LowLevel/Endpoint.h **** 
 133:../lufa-LUFA/LUFA/Drivers/USB/LowLevel/Endpoint.h **** 			#if (!defined(FIXED_CONTROL_ENDPOINT_SIZE) || defined(__DOXYGEN__))
 134:../lufa-LUFA/LUFA/Drivers/USB/LowLevel/Endpoint.h **** 				/** Default size of the default control endpoint's bank, until altered by the control endpoint 
 135:../lufa-LUFA/LUFA/Drivers/USB/LowLevel/Endpoint.h **** 				 *  value in the device descriptor. Not available if the FIXED_CONTROL_ENDPOINT_SIZE token is d
 136:../lufa-LUFA/LUFA/Drivers/USB/LowLevel/Endpoint.h **** 				 */
 137:../lufa-LUFA/LUFA/Drivers/USB/LowLevel/Endpoint.h **** 				#define ENDPOINT_CONTROLEP_DEFAULT_SIZE   8
 138:../lufa-LUFA/LUFA/Drivers/USB/LowLevel/Endpoint.h **** 			#endif
 139:../lufa-LUFA/LUFA/Drivers/USB/LowLevel/Endpoint.h **** 			
 140:../lufa-LUFA/LUFA/Drivers/USB/LowLevel/Endpoint.h **** 			/** Endpoint number mask, for masking against endpoint addresses to retrieve the endpoint's
 141:../lufa-LUFA/LUFA/Drivers/USB/LowLevel/Endpoint.h **** 			 *  numerical address in the device.
 142:../lufa-LUFA/LUFA/Drivers/USB/LowLevel/Endpoint.h **** 			 */
 143:../lufa-LUFA/LUFA/Drivers/USB/LowLevel/Endpoint.h **** 			#define ENDPOINT_EPNUM_MASK                   0x07
 144:../lufa-LUFA/LUFA/Drivers/USB/LowLevel/Endpoint.h **** 
 145:../lufa-LUFA/LUFA/Drivers/USB/LowLevel/Endpoint.h **** 			/** Endpoint direction mask, for masking against endpoint addresses to retrieve the endpoint's
 146:../lufa-LUFA/LUFA/Drivers/USB/LowLevel/Endpoint.h **** 			 *  direction for comparing with the ENDPOINT_DESCRIPTOR_DIR_* masks.
 147:../lufa-LUFA/LUFA/Drivers/USB/LowLevel/Endpoint.h **** 			 */
 148:../lufa-LUFA/LUFA/Drivers/USB/LowLevel/Endpoint.h **** 			#define ENDPOINT_EPDIR_MASK                   0x80
 149:../lufa-LUFA/LUFA/Drivers/USB/LowLevel/Endpoint.h **** 
 150:../lufa-LUFA/LUFA/Drivers/USB/LowLevel/Endpoint.h **** 			/** Endpoint bank size mask, for masking against endpoint addresses to retrieve the endpoint's
 151:../lufa-LUFA/LUFA/Drivers/USB/LowLevel/Endpoint.h **** 			 *  bank size in the device.
 152:../lufa-LUFA/LUFA/Drivers/USB/LowLevel/Endpoint.h **** 			 */
 153:../lufa-LUFA/LUFA/Drivers/USB/LowLevel/Endpoint.h **** 			#define ENDPOINT_EPSIZE_MASK                  0x7F
 154:../lufa-LUFA/LUFA/Drivers/USB/LowLevel/Endpoint.h **** 			
 155:../lufa-LUFA/LUFA/Drivers/USB/LowLevel/Endpoint.h **** 			/** Maximum size in bytes of a given endpoint.
 156:../lufa-LUFA/LUFA/Drivers/USB/LowLevel/Endpoint.h **** 			 *
 157:../lufa-LUFA/LUFA/Drivers/USB/LowLevel/Endpoint.h **** 			 *  \param[in] n  Endpoint number, a value between 0 and (ENDPOINT_TOTAL_ENDPOINTS - 1)
 158:../lufa-LUFA/LUFA/Drivers/USB/LowLevel/Endpoint.h **** 			 */				
 159:../lufa-LUFA/LUFA/Drivers/USB/LowLevel/Endpoint.h **** 			#define ENDPOINT_MAX_SIZE(n)                  _ENDPOINT_GET_MAXSIZE(n)
 160:../lufa-LUFA/LUFA/Drivers/USB/LowLevel/Endpoint.h **** 
 161:../lufa-LUFA/LUFA/Drivers/USB/LowLevel/Endpoint.h **** 			/** Indicates if the given endpoint supports double banking.
 162:../lufa-LUFA/LUFA/Drivers/USB/LowLevel/Endpoint.h **** 			 *
 163:../lufa-LUFA/LUFA/Drivers/USB/LowLevel/Endpoint.h **** 			 *  \param[in] n  Endpoint number, a value between 0 and (ENDPOINT_TOTAL_ENDPOINTS - 1)
 164:../lufa-LUFA/LUFA/Drivers/USB/LowLevel/Endpoint.h **** 			 */				
 165:../lufa-LUFA/LUFA/Drivers/USB/LowLevel/Endpoint.h **** 			#define ENDPOINT_DOUBLEBANK_SUPPORTED(n)      _ENDPOINT_GET_DOUBLEBANK(n)
 166:../lufa-LUFA/LUFA/Drivers/USB/LowLevel/Endpoint.h **** 
 167:../lufa-LUFA/LUFA/Drivers/USB/LowLevel/Endpoint.h **** 			#if !defined(CONTROL_ONLY_DEVICE)
 168:../lufa-LUFA/LUFA/Drivers/USB/LowLevel/Endpoint.h **** 				#if defined(USB_SERIES_4_AVR) || defined(USB_SERIES_6_AVR) || defined(USB_SERIES_7_AVR) || defi
 169:../lufa-LUFA/LUFA/Drivers/USB/LowLevel/Endpoint.h **** 					/** Total number of endpoints (including the default control endpoint at address 0) which may
 170:../lufa-LUFA/LUFA/Drivers/USB/LowLevel/Endpoint.h **** 					 *  be used in the device. Different USB AVR models support different amounts of endpoints,
 171:../lufa-LUFA/LUFA/Drivers/USB/LowLevel/Endpoint.h **** 					 *  this value reflects the maximum number of endpoints for the currently selected AVR model.
 172:../lufa-LUFA/LUFA/Drivers/USB/LowLevel/Endpoint.h **** 					 */
 173:../lufa-LUFA/LUFA/Drivers/USB/LowLevel/Endpoint.h **** 					#define ENDPOINT_TOTAL_ENDPOINTS      7
 174:../lufa-LUFA/LUFA/Drivers/USB/LowLevel/Endpoint.h **** 				#else
 175:../lufa-LUFA/LUFA/Drivers/USB/LowLevel/Endpoint.h **** 					#define ENDPOINT_TOTAL_ENDPOINTS      5
 176:../lufa-LUFA/LUFA/Drivers/USB/LowLevel/Endpoint.h **** 				#endif
 177:../lufa-LUFA/LUFA/Drivers/USB/LowLevel/Endpoint.h **** 			#else
 178:../lufa-LUFA/LUFA/Drivers/USB/LowLevel/Endpoint.h **** 				#define ENDPOINT_TOTAL_ENDPOINTS          1
 179:../lufa-LUFA/LUFA/Drivers/USB/LowLevel/Endpoint.h **** 			#endif
 180:../lufa-LUFA/LUFA/Drivers/USB/LowLevel/Endpoint.h **** 
 181:../lufa-LUFA/LUFA/Drivers/USB/LowLevel/Endpoint.h **** 		/* Enums: */
 182:../lufa-LUFA/LUFA/Drivers/USB/LowLevel/Endpoint.h **** 			/** Enum for the possible error return codes of the \ref Endpoint_WaitUntilReady() function.
 183:../lufa-LUFA/LUFA/Drivers/USB/LowLevel/Endpoint.h **** 			 *
 184:../lufa-LUFA/LUFA/Drivers/USB/LowLevel/Endpoint.h **** 			 *  \ingroup Group_EndpointRW
 185:../lufa-LUFA/LUFA/Drivers/USB/LowLevel/Endpoint.h **** 			 */
 186:../lufa-LUFA/LUFA/Drivers/USB/LowLevel/Endpoint.h **** 			enum Endpoint_WaitUntilReady_ErrorCodes_t
 187:../lufa-LUFA/LUFA/Drivers/USB/LowLevel/Endpoint.h **** 			{
 188:../lufa-LUFA/LUFA/Drivers/USB/LowLevel/Endpoint.h **** 				ENDPOINT_READYWAIT_NoError                 = 0, /**< Endpoint is ready for next packet, no erro
 189:../lufa-LUFA/LUFA/Drivers/USB/LowLevel/Endpoint.h **** 				ENDPOINT_READYWAIT_EndpointStalled         = 1, /**< The endpoint was stalled during the stream
 190:../lufa-LUFA/LUFA/Drivers/USB/LowLevel/Endpoint.h **** 				                                                 *   transfer by the host or device.
 191:../lufa-LUFA/LUFA/Drivers/USB/LowLevel/Endpoint.h **** 				                                                 */
 192:../lufa-LUFA/LUFA/Drivers/USB/LowLevel/Endpoint.h **** 				ENDPOINT_READYWAIT_DeviceDisconnected      = 2,	/**< Device was disconnected from the host whil
 193:../lufa-LUFA/LUFA/Drivers/USB/LowLevel/Endpoint.h **** 				                                                 *   waiting for the endpoint to become ready.
 194:../lufa-LUFA/LUFA/Drivers/USB/LowLevel/Endpoint.h **** 				                                                 */
 195:../lufa-LUFA/LUFA/Drivers/USB/LowLevel/Endpoint.h **** 				ENDPOINT_READYWAIT_BusSuspended            = 3, /**< The USB bus has been suspended by the host
 196:../lufa-LUFA/LUFA/Drivers/USB/LowLevel/Endpoint.h **** 				                                                 *   no USB endpoint traffic can occur until th
 197:../lufa-LUFA/LUFA/Drivers/USB/LowLevel/Endpoint.h **** 				                                                 *   has resumed.
 198:../lufa-LUFA/LUFA/Drivers/USB/LowLevel/Endpoint.h **** 				                                                 */
 199:../lufa-LUFA/LUFA/Drivers/USB/LowLevel/Endpoint.h **** 				ENDPOINT_READYWAIT_Timeout                 = 4, /**< The host failed to accept or send the next
 200:../lufa-LUFA/LUFA/Drivers/USB/LowLevel/Endpoint.h **** 				                                                 *   within the software timeout period set by 
 201:../lufa-LUFA/LUFA/Drivers/USB/LowLevel/Endpoint.h **** 				                                                 *   \ref USB_STREAM_TIMEOUT_MS macro.
 202:../lufa-LUFA/LUFA/Drivers/USB/LowLevel/Endpoint.h **** 				                                                 */
 203:../lufa-LUFA/LUFA/Drivers/USB/LowLevel/Endpoint.h **** 			};
 204:../lufa-LUFA/LUFA/Drivers/USB/LowLevel/Endpoint.h **** 		
 205:../lufa-LUFA/LUFA/Drivers/USB/LowLevel/Endpoint.h **** 			/** Enum for the possible error return codes of the Endpoint_*_Stream_* functions.
 206:../lufa-LUFA/LUFA/Drivers/USB/LowLevel/Endpoint.h **** 			 *
 207:../lufa-LUFA/LUFA/Drivers/USB/LowLevel/Endpoint.h **** 			 *  \ingroup Group_EndpointStreamRW
 208:../lufa-LUFA/LUFA/Drivers/USB/LowLevel/Endpoint.h **** 			 */
 209:../lufa-LUFA/LUFA/Drivers/USB/LowLevel/Endpoint.h **** 			enum Endpoint_Stream_RW_ErrorCodes_t
 210:../lufa-LUFA/LUFA/Drivers/USB/LowLevel/Endpoint.h **** 			{
 211:../lufa-LUFA/LUFA/Drivers/USB/LowLevel/Endpoint.h **** 				ENDPOINT_RWSTREAM_NoError            = 0, /**< Command completed successfully, no error. */
 212:../lufa-LUFA/LUFA/Drivers/USB/LowLevel/Endpoint.h **** 				ENDPOINT_RWSTREAM_EndpointStalled    = 1, /**< The endpoint was stalled during the stream
 213:../lufa-LUFA/LUFA/Drivers/USB/LowLevel/Endpoint.h **** 				                                           *   transfer by the host or device.
 214:../lufa-LUFA/LUFA/Drivers/USB/LowLevel/Endpoint.h **** 				                                           */
 215:../lufa-LUFA/LUFA/Drivers/USB/LowLevel/Endpoint.h **** 				ENDPOINT_RWSTREAM_DeviceDisconnected = 2, /**< Device was disconnected from the host during
 216:../lufa-LUFA/LUFA/Drivers/USB/LowLevel/Endpoint.h **** 				                                           *   the transfer.
 217:../lufa-LUFA/LUFA/Drivers/USB/LowLevel/Endpoint.h **** 				                                           */
 218:../lufa-LUFA/LUFA/Drivers/USB/LowLevel/Endpoint.h **** 				ENDPOINT_RWSTREAM_BusSuspended       = 3, /**< The USB bus has been suspended by the host and
 219:../lufa-LUFA/LUFA/Drivers/USB/LowLevel/Endpoint.h **** 				                                           *   no USB endpoint traffic can occur until the bus
 220:../lufa-LUFA/LUFA/Drivers/USB/LowLevel/Endpoint.h **** 				                                           *   has resumed.
 221:../lufa-LUFA/LUFA/Drivers/USB/LowLevel/Endpoint.h **** 				                                           */
 222:../lufa-LUFA/LUFA/Drivers/USB/LowLevel/Endpoint.h **** 				ENDPOINT_RWSTREAM_Timeout            = 4, /**< The host failed to accept or send the next packe
 223:../lufa-LUFA/LUFA/Drivers/USB/LowLevel/Endpoint.h **** 				                                           *   within the software timeout period set by the
 224:../lufa-LUFA/LUFA/Drivers/USB/LowLevel/Endpoint.h **** 				                                           *   \ref USB_STREAM_TIMEOUT_MS macro.
 225:../lufa-LUFA/LUFA/Drivers/USB/LowLevel/Endpoint.h **** 				                                           */
 226:../lufa-LUFA/LUFA/Drivers/USB/LowLevel/Endpoint.h **** 				ENDPOINT_RWSTREAM_CallbackAborted    = 5, /**< Indicates that the stream's callback function
 227:../lufa-LUFA/LUFA/Drivers/USB/LowLevel/Endpoint.h **** 			                                               *   aborted the transfer early.
 228:../lufa-LUFA/LUFA/Drivers/USB/LowLevel/Endpoint.h **** 				                                           */
 229:../lufa-LUFA/LUFA/Drivers/USB/LowLevel/Endpoint.h **** 			};
 230:../lufa-LUFA/LUFA/Drivers/USB/LowLevel/Endpoint.h **** 			
 231:../lufa-LUFA/LUFA/Drivers/USB/LowLevel/Endpoint.h **** 			/** Enum for the possible error return codes of the Endpoint_*_Control_Stream_* functions..
 232:../lufa-LUFA/LUFA/Drivers/USB/LowLevel/Endpoint.h **** 			 *
 233:../lufa-LUFA/LUFA/Drivers/USB/LowLevel/Endpoint.h **** 			 *  \ingroup Group_EndpointStreamRW
 234:../lufa-LUFA/LUFA/Drivers/USB/LowLevel/Endpoint.h **** 			 */
 235:../lufa-LUFA/LUFA/Drivers/USB/LowLevel/Endpoint.h **** 			enum Endpoint_ControlStream_RW_ErrorCodes_t
 236:../lufa-LUFA/LUFA/Drivers/USB/LowLevel/Endpoint.h **** 			{
 237:../lufa-LUFA/LUFA/Drivers/USB/LowLevel/Endpoint.h **** 				ENDPOINT_RWCSTREAM_NoError            = 0, /**< Command completed successfully, no error. */
 238:../lufa-LUFA/LUFA/Drivers/USB/LowLevel/Endpoint.h **** 				ENDPOINT_RWCSTREAM_HostAborted        = 1, /**< The aborted the transfer prematurely. */
 239:../lufa-LUFA/LUFA/Drivers/USB/LowLevel/Endpoint.h **** 				ENDPOINT_RWCSTREAM_DeviceDisconnected = 2, /**< Device was disconnected from the host during
 240:../lufa-LUFA/LUFA/Drivers/USB/LowLevel/Endpoint.h **** 				                                            *   the transfer.
 241:../lufa-LUFA/LUFA/Drivers/USB/LowLevel/Endpoint.h **** 				                                            */
 242:../lufa-LUFA/LUFA/Drivers/USB/LowLevel/Endpoint.h **** 				ENDPOINT_RWCSTREAM_BusSuspended       = 3, /**< The USB bus has been suspended by the host and
 243:../lufa-LUFA/LUFA/Drivers/USB/LowLevel/Endpoint.h **** 				                                            *   no USB endpoint traffic can occur until the bus
 244:../lufa-LUFA/LUFA/Drivers/USB/LowLevel/Endpoint.h **** 				                                            *   has resumed.
 245:../lufa-LUFA/LUFA/Drivers/USB/LowLevel/Endpoint.h **** 				                                            */
 246:../lufa-LUFA/LUFA/Drivers/USB/LowLevel/Endpoint.h **** 			};
 247:../lufa-LUFA/LUFA/Drivers/USB/LowLevel/Endpoint.h **** 
 248:../lufa-LUFA/LUFA/Drivers/USB/LowLevel/Endpoint.h **** 		/* Inline Functions: */
 249:../lufa-LUFA/LUFA/Drivers/USB/LowLevel/Endpoint.h **** 			/** Indicates the number of bytes currently stored in the current endpoint's selected bank.
 250:../lufa-LUFA/LUFA/Drivers/USB/LowLevel/Endpoint.h **** 			 *
 251:../lufa-LUFA/LUFA/Drivers/USB/LowLevel/Endpoint.h **** 			 *  \note The return width of this function may differ, depending on the maximum endpoint bank s
 252:../lufa-LUFA/LUFA/Drivers/USB/LowLevel/Endpoint.h **** 			 *        of the selected AVR model.
 253:../lufa-LUFA/LUFA/Drivers/USB/LowLevel/Endpoint.h **** 			 *
 254:../lufa-LUFA/LUFA/Drivers/USB/LowLevel/Endpoint.h **** 			 *  \ingroup Group_EndpointRW
 255:../lufa-LUFA/LUFA/Drivers/USB/LowLevel/Endpoint.h **** 			 *
 256:../lufa-LUFA/LUFA/Drivers/USB/LowLevel/Endpoint.h **** 			 *  \return Total number of bytes in the currently selected Endpoint's FIFO buffer.
 257:../lufa-LUFA/LUFA/Drivers/USB/LowLevel/Endpoint.h **** 			 */
 258:../lufa-LUFA/LUFA/Drivers/USB/LowLevel/Endpoint.h **** 			static inline uint16_t Endpoint_BytesInEndpoint(void) ATTR_WARN_UNUSED_RESULT ATTR_ALWAYS_INLINE
 259:../lufa-LUFA/LUFA/Drivers/USB/LowLevel/Endpoint.h **** 			static inline uint16_t Endpoint_BytesInEndpoint(void)
 260:../lufa-LUFA/LUFA/Drivers/USB/LowLevel/Endpoint.h **** 			{
 261:../lufa-LUFA/LUFA/Drivers/USB/LowLevel/Endpoint.h **** 				#if defined(USB_SERIES_6_AVR) || defined(USB_SERIES_7_AVR)
 262:../lufa-LUFA/LUFA/Drivers/USB/LowLevel/Endpoint.h **** 					return UEBCX;
 263:../lufa-LUFA/LUFA/Drivers/USB/LowLevel/Endpoint.h **** 				#elif defined(USB_SERIES_4_AVR)
 264:../lufa-LUFA/LUFA/Drivers/USB/LowLevel/Endpoint.h **** 					return (((uint16_t)UEBCHX << 8) | UEBCLX);
 265:../lufa-LUFA/LUFA/Drivers/USB/LowLevel/Endpoint.h **** 				#elif defined(USB_SERIES_2_AVR)
 266:../lufa-LUFA/LUFA/Drivers/USB/LowLevel/Endpoint.h **** 					return UEBCLX;
 267:../lufa-LUFA/LUFA/Drivers/USB/LowLevel/Endpoint.h **** 				#endif
 268:../lufa-LUFA/LUFA/Drivers/USB/LowLevel/Endpoint.h **** 			}
 269:../lufa-LUFA/LUFA/Drivers/USB/LowLevel/Endpoint.h **** 		
 270:../lufa-LUFA/LUFA/Drivers/USB/LowLevel/Endpoint.h **** 			/** Get the endpoint address of the currently selected endpoint. This is typically used to save
 271:../lufa-LUFA/LUFA/Drivers/USB/LowLevel/Endpoint.h **** 			 *  the currently selected endpoint number so that it can be restored after another endpoint has
 272:../lufa-LUFA/LUFA/Drivers/USB/LowLevel/Endpoint.h **** 			 *  been manipulated.
 273:../lufa-LUFA/LUFA/Drivers/USB/LowLevel/Endpoint.h **** 			 *
 274:../lufa-LUFA/LUFA/Drivers/USB/LowLevel/Endpoint.h **** 			 *  \return Index of the currently selected endpoint.
 275:../lufa-LUFA/LUFA/Drivers/USB/LowLevel/Endpoint.h **** 			 */
 276:../lufa-LUFA/LUFA/Drivers/USB/LowLevel/Endpoint.h **** 			static inline uint8_t Endpoint_GetCurrentEndpoint(void) ATTR_WARN_UNUSED_RESULT ATTR_ALWAYS_INLI
 277:../lufa-LUFA/LUFA/Drivers/USB/LowLevel/Endpoint.h **** 			static inline uint8_t Endpoint_GetCurrentEndpoint(void)
 278:../lufa-LUFA/LUFA/Drivers/USB/LowLevel/Endpoint.h **** 			{
 279:../lufa-LUFA/LUFA/Drivers/USB/LowLevel/Endpoint.h **** 				#if !defined(CONTROL_ONLY_DEVICE)
 280:../lufa-LUFA/LUFA/Drivers/USB/LowLevel/Endpoint.h **** 					return (UENUM & ENDPOINT_EPNUM_MASK);
 281:../lufa-LUFA/LUFA/Drivers/USB/LowLevel/Endpoint.h **** 				#else
 282:../lufa-LUFA/LUFA/Drivers/USB/LowLevel/Endpoint.h **** 					return ENDPOINT_CONTROLEP;
 283:../lufa-LUFA/LUFA/Drivers/USB/LowLevel/Endpoint.h **** 				#endif
 284:../lufa-LUFA/LUFA/Drivers/USB/LowLevel/Endpoint.h **** 			}
 285:../lufa-LUFA/LUFA/Drivers/USB/LowLevel/Endpoint.h **** 			
 286:../lufa-LUFA/LUFA/Drivers/USB/LowLevel/Endpoint.h **** 			/** Selects the given endpoint number. If the address from the device descriptors is used, the
 287:../lufa-LUFA/LUFA/Drivers/USB/LowLevel/Endpoint.h **** 			 *  value should be masked with the \ref ENDPOINT_EPNUM_MASK constant to extract only the endpoi
 288:../lufa-LUFA/LUFA/Drivers/USB/LowLevel/Endpoint.h **** 			 *  number (and discarding the endpoint direction bit).
 289:../lufa-LUFA/LUFA/Drivers/USB/LowLevel/Endpoint.h **** 			 *
 290:../lufa-LUFA/LUFA/Drivers/USB/LowLevel/Endpoint.h **** 			 *  Any endpoint operations which do not require the endpoint number to be indicated will operat
 291:../lufa-LUFA/LUFA/Drivers/USB/LowLevel/Endpoint.h **** 			 *  the currently selected endpoint.
 292:../lufa-LUFA/LUFA/Drivers/USB/LowLevel/Endpoint.h **** 			 *
 293:../lufa-LUFA/LUFA/Drivers/USB/LowLevel/Endpoint.h **** 			 *  \param[in] EndpointNumber Endpoint number to select.
 294:../lufa-LUFA/LUFA/Drivers/USB/LowLevel/Endpoint.h **** 			 */
 295:../lufa-LUFA/LUFA/Drivers/USB/LowLevel/Endpoint.h **** 			static inline void Endpoint_SelectEndpoint(const uint8_t EndpointNumber) ATTR_ALWAYS_INLINE;
 296:../lufa-LUFA/LUFA/Drivers/USB/LowLevel/Endpoint.h **** 			static inline void Endpoint_SelectEndpoint(const uint8_t EndpointNumber)
 297:../lufa-LUFA/LUFA/Drivers/USB/LowLevel/Endpoint.h **** 			{
 298:../lufa-LUFA/LUFA/Drivers/USB/LowLevel/Endpoint.h **** 				#if !defined(CONTROL_ONLY_DEVICE)
 299:../lufa-LUFA/LUFA/Drivers/USB/LowLevel/Endpoint.h **** 					UENUM = EndpointNumber;
 300:../lufa-LUFA/LUFA/Drivers/USB/LowLevel/Endpoint.h **** 				#endif			
 301:../lufa-LUFA/LUFA/Drivers/USB/LowLevel/Endpoint.h **** 			}
 302:../lufa-LUFA/LUFA/Drivers/USB/LowLevel/Endpoint.h **** 			
 303:../lufa-LUFA/LUFA/Drivers/USB/LowLevel/Endpoint.h **** 			/** Resets the endpoint bank FIFO. This clears all the endpoint banks and resets the USB control
 304:../lufa-LUFA/LUFA/Drivers/USB/LowLevel/Endpoint.h **** 			 *  In and Out pointers to the bank's contents.
 305:../lufa-LUFA/LUFA/Drivers/USB/LowLevel/Endpoint.h **** 			 *
 306:../lufa-LUFA/LUFA/Drivers/USB/LowLevel/Endpoint.h **** 			 *  \param[in] EndpointNumber Endpoint number whose FIFO buffers are to be reset.
 307:../lufa-LUFA/LUFA/Drivers/USB/LowLevel/Endpoint.h **** 			 */
 308:../lufa-LUFA/LUFA/Drivers/USB/LowLevel/Endpoint.h **** 			static inline void Endpoint_ResetFIFO(const uint8_t EndpointNumber) ATTR_ALWAYS_INLINE;
 309:../lufa-LUFA/LUFA/Drivers/USB/LowLevel/Endpoint.h **** 			static inline void Endpoint_ResetFIFO(const uint8_t EndpointNumber)
 310:../lufa-LUFA/LUFA/Drivers/USB/LowLevel/Endpoint.h **** 			{
 311:../lufa-LUFA/LUFA/Drivers/USB/LowLevel/Endpoint.h **** 				UERST = (1 << EndpointNumber);
 312:../lufa-LUFA/LUFA/Drivers/USB/LowLevel/Endpoint.h **** 				UERST = 0;
 313:../lufa-LUFA/LUFA/Drivers/USB/LowLevel/Endpoint.h **** 			}
 314:../lufa-LUFA/LUFA/Drivers/USB/LowLevel/Endpoint.h **** 			
 315:../lufa-LUFA/LUFA/Drivers/USB/LowLevel/Endpoint.h **** 			/** Enables the currently selected endpoint so that data can be sent and received through it to
 316:../lufa-LUFA/LUFA/Drivers/USB/LowLevel/Endpoint.h **** 			 *  and from a host.
 317:../lufa-LUFA/LUFA/Drivers/USB/LowLevel/Endpoint.h **** 			 *
 318:../lufa-LUFA/LUFA/Drivers/USB/LowLevel/Endpoint.h **** 			 *  \note Endpoints must first be configured properly via \ref Endpoint_ConfigureEndpoint().
 319:../lufa-LUFA/LUFA/Drivers/USB/LowLevel/Endpoint.h **** 			 */
 320:../lufa-LUFA/LUFA/Drivers/USB/LowLevel/Endpoint.h **** 			static inline void Endpoint_EnableEndpoint(void) ATTR_ALWAYS_INLINE;
 321:../lufa-LUFA/LUFA/Drivers/USB/LowLevel/Endpoint.h **** 			static inline void Endpoint_EnableEndpoint(void)
 322:../lufa-LUFA/LUFA/Drivers/USB/LowLevel/Endpoint.h **** 			{
 323:../lufa-LUFA/LUFA/Drivers/USB/LowLevel/Endpoint.h **** 				UECONX |= (1 << EPEN);
 324:../lufa-LUFA/LUFA/Drivers/USB/LowLevel/Endpoint.h **** 			}
 325:../lufa-LUFA/LUFA/Drivers/USB/LowLevel/Endpoint.h **** 
 326:../lufa-LUFA/LUFA/Drivers/USB/LowLevel/Endpoint.h **** 			/** Disables the currently selected endpoint so that data cannot be sent and received through it
 327:../lufa-LUFA/LUFA/Drivers/USB/LowLevel/Endpoint.h **** 			 *  to and from a host.
 328:../lufa-LUFA/LUFA/Drivers/USB/LowLevel/Endpoint.h **** 			 */
 329:../lufa-LUFA/LUFA/Drivers/USB/LowLevel/Endpoint.h **** 			static inline void Endpoint_DisableEndpoint(void) ATTR_ALWAYS_INLINE;
 330:../lufa-LUFA/LUFA/Drivers/USB/LowLevel/Endpoint.h **** 			static inline void Endpoint_DisableEndpoint(void)
 331:../lufa-LUFA/LUFA/Drivers/USB/LowLevel/Endpoint.h **** 			{
 332:../lufa-LUFA/LUFA/Drivers/USB/LowLevel/Endpoint.h **** 				UECONX &= ~(1 << EPEN);
 333:../lufa-LUFA/LUFA/Drivers/USB/LowLevel/Endpoint.h **** 			}
 334:../lufa-LUFA/LUFA/Drivers/USB/LowLevel/Endpoint.h **** 			
 335:../lufa-LUFA/LUFA/Drivers/USB/LowLevel/Endpoint.h **** 			/** Determines if the currently selected endpoint is enabled, but not necessarily configured.
 336:../lufa-LUFA/LUFA/Drivers/USB/LowLevel/Endpoint.h **** 			 *
 337:../lufa-LUFA/LUFA/Drivers/USB/LowLevel/Endpoint.h **** 			 * \return Boolean True if the currently selected endpoint is enabled, false otherwise.
 338:../lufa-LUFA/LUFA/Drivers/USB/LowLevel/Endpoint.h **** 			 */
 339:../lufa-LUFA/LUFA/Drivers/USB/LowLevel/Endpoint.h **** 			static inline bool Endpoint_IsEnabled(void) ATTR_WARN_UNUSED_RESULT ATTR_ALWAYS_INLINE;
 340:../lufa-LUFA/LUFA/Drivers/USB/LowLevel/Endpoint.h **** 			static inline bool Endpoint_IsEnabled(void)
 341:../lufa-LUFA/LUFA/Drivers/USB/LowLevel/Endpoint.h **** 			{
 342:../lufa-LUFA/LUFA/Drivers/USB/LowLevel/Endpoint.h **** 				return ((UECONX & (1 << EPEN)) ? true : false);
 343:../lufa-LUFA/LUFA/Drivers/USB/LowLevel/Endpoint.h **** 			}
 344:../lufa-LUFA/LUFA/Drivers/USB/LowLevel/Endpoint.h **** 			
 345:../lufa-LUFA/LUFA/Drivers/USB/LowLevel/Endpoint.h **** 			/** Determines if the currently selected endpoint may be read from (if data is waiting in the en
 346:../lufa-LUFA/LUFA/Drivers/USB/LowLevel/Endpoint.h **** 			 *  bank and the endpoint is an OUT direction, or if the bank is not yet full if the endpoint is
 347:../lufa-LUFA/LUFA/Drivers/USB/LowLevel/Endpoint.h **** 			 *  direction). This function will return false if an error has occurred in the endpoint, if the
 348:../lufa-LUFA/LUFA/Drivers/USB/LowLevel/Endpoint.h **** 			 *  is an OUT direction and no packet (or an empty packet) has been received, or if the endpoint
 349:../lufa-LUFA/LUFA/Drivers/USB/LowLevel/Endpoint.h **** 			 *  direction and the endpoint bank is full.
 350:../lufa-LUFA/LUFA/Drivers/USB/LowLevel/Endpoint.h **** 			 *
 351:../lufa-LUFA/LUFA/Drivers/USB/LowLevel/Endpoint.h **** 			 *  \ingroup Group_EndpointPacketManagement
 352:../lufa-LUFA/LUFA/Drivers/USB/LowLevel/Endpoint.h **** 			 *
 353:../lufa-LUFA/LUFA/Drivers/USB/LowLevel/Endpoint.h **** 			 *  \return Boolean true if the currently selected endpoint may be read from or written to, depe
 354:../lufa-LUFA/LUFA/Drivers/USB/LowLevel/Endpoint.h **** 			 */
 355:../lufa-LUFA/LUFA/Drivers/USB/LowLevel/Endpoint.h **** 			static inline bool Endpoint_IsReadWriteAllowed(void) ATTR_WARN_UNUSED_RESULT ATTR_ALWAYS_INLINE;
 356:../lufa-LUFA/LUFA/Drivers/USB/LowLevel/Endpoint.h **** 			static inline bool Endpoint_IsReadWriteAllowed(void)
 357:../lufa-LUFA/LUFA/Drivers/USB/LowLevel/Endpoint.h **** 			{
 358:../lufa-LUFA/LUFA/Drivers/USB/LowLevel/Endpoint.h **** 				return ((UEINTX & (1 << RWAL)) ? true : false);
 359:../lufa-LUFA/LUFA/Drivers/USB/LowLevel/Endpoint.h **** 			}
 360:../lufa-LUFA/LUFA/Drivers/USB/LowLevel/Endpoint.h **** 			
 361:../lufa-LUFA/LUFA/Drivers/USB/LowLevel/Endpoint.h **** 			/** Determines if the currently selected endpoint is configured.
 362:../lufa-LUFA/LUFA/Drivers/USB/LowLevel/Endpoint.h **** 			 *
 363:../lufa-LUFA/LUFA/Drivers/USB/LowLevel/Endpoint.h **** 			 *  \return Boolean true if the currently selected endpoint has been configured, false otherwise
 364:../lufa-LUFA/LUFA/Drivers/USB/LowLevel/Endpoint.h **** 			 */
 365:../lufa-LUFA/LUFA/Drivers/USB/LowLevel/Endpoint.h **** 			static inline bool Endpoint_IsConfigured(void) ATTR_WARN_UNUSED_RESULT ATTR_ALWAYS_INLINE;
 366:../lufa-LUFA/LUFA/Drivers/USB/LowLevel/Endpoint.h **** 			static inline bool Endpoint_IsConfigured(void)
 367:../lufa-LUFA/LUFA/Drivers/USB/LowLevel/Endpoint.h **** 			{
 368:../lufa-LUFA/LUFA/Drivers/USB/LowLevel/Endpoint.h **** 				return ((UESTA0X & (1 << CFGOK)) ? true : false);
 369:../lufa-LUFA/LUFA/Drivers/USB/LowLevel/Endpoint.h **** 			}
 370:../lufa-LUFA/LUFA/Drivers/USB/LowLevel/Endpoint.h **** 			
 371:../lufa-LUFA/LUFA/Drivers/USB/LowLevel/Endpoint.h **** 			/** Returns a mask indicating which INTERRUPT type endpoints have interrupted - i.e. their
 372:../lufa-LUFA/LUFA/Drivers/USB/LowLevel/Endpoint.h **** 			 *  interrupt duration has elapsed. Which endpoints have interrupted can be determined by
 373:../lufa-LUFA/LUFA/Drivers/USB/LowLevel/Endpoint.h **** 			 *  masking the return value against (1 << {Endpoint Number}).
 374:../lufa-LUFA/LUFA/Drivers/USB/LowLevel/Endpoint.h **** 			 *
 375:../lufa-LUFA/LUFA/Drivers/USB/LowLevel/Endpoint.h **** 			 *  \return Mask whose bits indicate which endpoints have interrupted.
 376:../lufa-LUFA/LUFA/Drivers/USB/LowLevel/Endpoint.h **** 			 */
 377:../lufa-LUFA/LUFA/Drivers/USB/LowLevel/Endpoint.h **** 			static inline uint8_t Endpoint_GetEndpointInterrupts(void) ATTR_WARN_UNUSED_RESULT ATTR_ALWAYS_I
 378:../lufa-LUFA/LUFA/Drivers/USB/LowLevel/Endpoint.h **** 			static inline uint8_t Endpoint_GetEndpointInterrupts(void)
 379:../lufa-LUFA/LUFA/Drivers/USB/LowLevel/Endpoint.h **** 			{
 380:../lufa-LUFA/LUFA/Drivers/USB/LowLevel/Endpoint.h **** 				return UEINT;
 381:../lufa-LUFA/LUFA/Drivers/USB/LowLevel/Endpoint.h **** 			}
 382:../lufa-LUFA/LUFA/Drivers/USB/LowLevel/Endpoint.h **** 			
 383:../lufa-LUFA/LUFA/Drivers/USB/LowLevel/Endpoint.h **** 			/** Determines if the specified endpoint number has interrupted (valid only for INTERRUPT type
 384:../lufa-LUFA/LUFA/Drivers/USB/LowLevel/Endpoint.h **** 			 *  endpoints).
 385:../lufa-LUFA/LUFA/Drivers/USB/LowLevel/Endpoint.h **** 			 *
 386:../lufa-LUFA/LUFA/Drivers/USB/LowLevel/Endpoint.h **** 			 *  \param[in] EndpointNumber  Index of the endpoint whose interrupt flag should be tested.
 387:../lufa-LUFA/LUFA/Drivers/USB/LowLevel/Endpoint.h **** 			 *
 388:../lufa-LUFA/LUFA/Drivers/USB/LowLevel/Endpoint.h **** 			 *  \return Boolean true if the specified endpoint has interrupted, false otherwise.
 389:../lufa-LUFA/LUFA/Drivers/USB/LowLevel/Endpoint.h **** 			 */
 390:../lufa-LUFA/LUFA/Drivers/USB/LowLevel/Endpoint.h **** 			static inline bool Endpoint_HasEndpointInterrupted(const uint8_t EndpointNumber) ATTR_WARN_UNUSE
 391:../lufa-LUFA/LUFA/Drivers/USB/LowLevel/Endpoint.h **** 			static inline bool Endpoint_HasEndpointInterrupted(const uint8_t EndpointNumber)
 392:../lufa-LUFA/LUFA/Drivers/USB/LowLevel/Endpoint.h **** 			{
 393:../lufa-LUFA/LUFA/Drivers/USB/LowLevel/Endpoint.h **** 				return ((UEINT & (1 << EndpointNumber)) ? true : false);
 394:../lufa-LUFA/LUFA/Drivers/USB/LowLevel/Endpoint.h **** 			}
 395:../lufa-LUFA/LUFA/Drivers/USB/LowLevel/Endpoint.h **** 			
 396:../lufa-LUFA/LUFA/Drivers/USB/LowLevel/Endpoint.h **** 			/** Determines if the selected IN endpoint is ready for a new packet.
 397:../lufa-LUFA/LUFA/Drivers/USB/LowLevel/Endpoint.h **** 			 *
 398:../lufa-LUFA/LUFA/Drivers/USB/LowLevel/Endpoint.h **** 			 *  \ingroup Group_EndpointPacketManagement
 399:../lufa-LUFA/LUFA/Drivers/USB/LowLevel/Endpoint.h **** 			 *
 400:../lufa-LUFA/LUFA/Drivers/USB/LowLevel/Endpoint.h **** 			 *  \return Boolean true if the current endpoint is ready for an IN packet, false otherwise.
 401:../lufa-LUFA/LUFA/Drivers/USB/LowLevel/Endpoint.h **** 			 */
 402:../lufa-LUFA/LUFA/Drivers/USB/LowLevel/Endpoint.h **** 			static inline bool Endpoint_IsINReady(void) ATTR_WARN_UNUSED_RESULT ATTR_ALWAYS_INLINE;
 403:../lufa-LUFA/LUFA/Drivers/USB/LowLevel/Endpoint.h **** 			static inline bool Endpoint_IsINReady(void)
 404:../lufa-LUFA/LUFA/Drivers/USB/LowLevel/Endpoint.h **** 			{
 405:../lufa-LUFA/LUFA/Drivers/USB/LowLevel/Endpoint.h **** 				return ((UEINTX & (1 << TXINI))  ? true : false);
 406:../lufa-LUFA/LUFA/Drivers/USB/LowLevel/Endpoint.h **** 			}
 407:../lufa-LUFA/LUFA/Drivers/USB/LowLevel/Endpoint.h **** 			
 408:../lufa-LUFA/LUFA/Drivers/USB/LowLevel/Endpoint.h **** 			/** Determines if the selected OUT endpoint has received new packet.
 409:../lufa-LUFA/LUFA/Drivers/USB/LowLevel/Endpoint.h **** 			 *
 410:../lufa-LUFA/LUFA/Drivers/USB/LowLevel/Endpoint.h **** 			 *  \ingroup Group_EndpointPacketManagement
 411:../lufa-LUFA/LUFA/Drivers/USB/LowLevel/Endpoint.h **** 			 *
 412:../lufa-LUFA/LUFA/Drivers/USB/LowLevel/Endpoint.h **** 			 *  \return Boolean true if current endpoint is has received an OUT packet, false otherwise.
 413:../lufa-LUFA/LUFA/Drivers/USB/LowLevel/Endpoint.h **** 			 */
 414:../lufa-LUFA/LUFA/Drivers/USB/LowLevel/Endpoint.h **** 			static inline bool Endpoint_IsOUTReceived(void) ATTR_WARN_UNUSED_RESULT ATTR_ALWAYS_INLINE;
 415:../lufa-LUFA/LUFA/Drivers/USB/LowLevel/Endpoint.h **** 			static inline bool Endpoint_IsOUTReceived(void)
 416:../lufa-LUFA/LUFA/Drivers/USB/LowLevel/Endpoint.h **** 			{
 417:../lufa-LUFA/LUFA/Drivers/USB/LowLevel/Endpoint.h **** 				return ((UEINTX & (1 << RXOUTI)) ? true : false);
 418:../lufa-LUFA/LUFA/Drivers/USB/LowLevel/Endpoint.h **** 			}
 419:../lufa-LUFA/LUFA/Drivers/USB/LowLevel/Endpoint.h **** 			
 420:../lufa-LUFA/LUFA/Drivers/USB/LowLevel/Endpoint.h **** 			/** Determines if the current CONTROL type endpoint has received a SETUP packet.
 421:../lufa-LUFA/LUFA/Drivers/USB/LowLevel/Endpoint.h **** 			 *
 422:../lufa-LUFA/LUFA/Drivers/USB/LowLevel/Endpoint.h **** 			 *  \ingroup Group_EndpointPacketManagement
 423:../lufa-LUFA/LUFA/Drivers/USB/LowLevel/Endpoint.h **** 			 *
 424:../lufa-LUFA/LUFA/Drivers/USB/LowLevel/Endpoint.h **** 			 *  \return Boolean true if the selected endpoint has received a SETUP packet, false otherwise.
 425:../lufa-LUFA/LUFA/Drivers/USB/LowLevel/Endpoint.h **** 			 */
 426:../lufa-LUFA/LUFA/Drivers/USB/LowLevel/Endpoint.h **** 			static inline bool Endpoint_IsSETUPReceived(void) ATTR_WARN_UNUSED_RESULT ATTR_ALWAYS_INLINE;
 427:../lufa-LUFA/LUFA/Drivers/USB/LowLevel/Endpoint.h **** 			static inline bool Endpoint_IsSETUPReceived(void)
 428:../lufa-LUFA/LUFA/Drivers/USB/LowLevel/Endpoint.h **** 			{
 429:../lufa-LUFA/LUFA/Drivers/USB/LowLevel/Endpoint.h **** 				return ((UEINTX & (1 << RXSTPI)) ? true : false);
 430:../lufa-LUFA/LUFA/Drivers/USB/LowLevel/Endpoint.h **** 			}
 431:../lufa-LUFA/LUFA/Drivers/USB/LowLevel/Endpoint.h **** 			
 432:../lufa-LUFA/LUFA/Drivers/USB/LowLevel/Endpoint.h **** 			/** Clears a received SETUP packet on the currently selected CONTROL type endpoint, freeing up t
 433:../lufa-LUFA/LUFA/Drivers/USB/LowLevel/Endpoint.h **** 			 *  endpoint for the next packet.
 434:../lufa-LUFA/LUFA/Drivers/USB/LowLevel/Endpoint.h **** 			 *
 435:../lufa-LUFA/LUFA/Drivers/USB/LowLevel/Endpoint.h **** 			 *  \ingroup Group_EndpointPacketManagement
 436:../lufa-LUFA/LUFA/Drivers/USB/LowLevel/Endpoint.h **** 			 *
 437:../lufa-LUFA/LUFA/Drivers/USB/LowLevel/Endpoint.h **** 			 *  \note This is not applicable for non CONTROL type endpoints. 
 438:../lufa-LUFA/LUFA/Drivers/USB/LowLevel/Endpoint.h **** 			 */
 439:../lufa-LUFA/LUFA/Drivers/USB/LowLevel/Endpoint.h **** 			static inline void Endpoint_ClearSETUP(void) ATTR_ALWAYS_INLINE;
 440:../lufa-LUFA/LUFA/Drivers/USB/LowLevel/Endpoint.h **** 			static inline void Endpoint_ClearSETUP(void)
 441:../lufa-LUFA/LUFA/Drivers/USB/LowLevel/Endpoint.h **** 			{
 442:../lufa-LUFA/LUFA/Drivers/USB/LowLevel/Endpoint.h **** 				UEINTX &= ~(1 << RXSTPI);
 443:../lufa-LUFA/LUFA/Drivers/USB/LowLevel/Endpoint.h **** 			}
 444:../lufa-LUFA/LUFA/Drivers/USB/LowLevel/Endpoint.h **** 			
 445:../lufa-LUFA/LUFA/Drivers/USB/LowLevel/Endpoint.h **** 			/** Sends an IN packet to the host on the currently selected endpoint, freeing up the endpoint f
 446:../lufa-LUFA/LUFA/Drivers/USB/LowLevel/Endpoint.h **** 			 *  next packet and switching to the alternative endpoint bank if double banked.
 447:../lufa-LUFA/LUFA/Drivers/USB/LowLevel/Endpoint.h **** 			 *
 448:../lufa-LUFA/LUFA/Drivers/USB/LowLevel/Endpoint.h **** 			 *  \ingroup Group_EndpointPacketManagement
 449:../lufa-LUFA/LUFA/Drivers/USB/LowLevel/Endpoint.h **** 			 */
 450:../lufa-LUFA/LUFA/Drivers/USB/LowLevel/Endpoint.h **** 			static inline void Endpoint_ClearIN(void) ATTR_ALWAYS_INLINE;
 451:../lufa-LUFA/LUFA/Drivers/USB/LowLevel/Endpoint.h **** 			static inline void Endpoint_ClearIN(void)
 452:../lufa-LUFA/LUFA/Drivers/USB/LowLevel/Endpoint.h **** 			{
 453:../lufa-LUFA/LUFA/Drivers/USB/LowLevel/Endpoint.h **** 				#if !defined(CONTROL_ONLY_DEVICE)
 454:../lufa-LUFA/LUFA/Drivers/USB/LowLevel/Endpoint.h **** 					UEINTX &= ~((1 << TXINI) | (1 << FIFOCON));
 455:../lufa-LUFA/LUFA/Drivers/USB/LowLevel/Endpoint.h **** 				#else
 456:../lufa-LUFA/LUFA/Drivers/USB/LowLevel/Endpoint.h **** 					UEINTX &= ~(1 << TXINI);
 457:../lufa-LUFA/LUFA/Drivers/USB/LowLevel/Endpoint.h **** 				#endif
 458:../lufa-LUFA/LUFA/Drivers/USB/LowLevel/Endpoint.h **** 			}
 459:../lufa-LUFA/LUFA/Drivers/USB/LowLevel/Endpoint.h **** 			
 460:../lufa-LUFA/LUFA/Drivers/USB/LowLevel/Endpoint.h **** 			/** Acknowledges an OUT packet to the host on the currently selected endpoint, freeing up the en
 461:../lufa-LUFA/LUFA/Drivers/USB/LowLevel/Endpoint.h **** 			 *  for the next packet and switching to the alternative endpoint bank if double banked.
 462:../lufa-LUFA/LUFA/Drivers/USB/LowLevel/Endpoint.h **** 			 *
 463:../lufa-LUFA/LUFA/Drivers/USB/LowLevel/Endpoint.h **** 			 *  \ingroup Group_EndpointPacketManagement
 464:../lufa-LUFA/LUFA/Drivers/USB/LowLevel/Endpoint.h **** 			 */
 465:../lufa-LUFA/LUFA/Drivers/USB/LowLevel/Endpoint.h **** 			static inline void Endpoint_ClearOUT(void) ATTR_ALWAYS_INLINE;
 466:../lufa-LUFA/LUFA/Drivers/USB/LowLevel/Endpoint.h **** 			static inline void Endpoint_ClearOUT(void)
 467:../lufa-LUFA/LUFA/Drivers/USB/LowLevel/Endpoint.h **** 			{
 468:../lufa-LUFA/LUFA/Drivers/USB/LowLevel/Endpoint.h **** 				#if !defined(CONTROL_ONLY_DEVICE)
 469:../lufa-LUFA/LUFA/Drivers/USB/LowLevel/Endpoint.h **** 					UEINTX &= ~((1 << RXOUTI) | (1 << FIFOCON));
 470:../lufa-LUFA/LUFA/Drivers/USB/LowLevel/Endpoint.h **** 				#else
 471:../lufa-LUFA/LUFA/Drivers/USB/LowLevel/Endpoint.h **** 					UEINTX &= ~(1 << RXOUTI);	
 472:../lufa-LUFA/LUFA/Drivers/USB/LowLevel/Endpoint.h **** 				#endif
 473:../lufa-LUFA/LUFA/Drivers/USB/LowLevel/Endpoint.h **** 			}
 474:../lufa-LUFA/LUFA/Drivers/USB/LowLevel/Endpoint.h **** 			
 475:../lufa-LUFA/LUFA/Drivers/USB/LowLevel/Endpoint.h **** 			/** Stalls the current endpoint, indicating to the host that a logical problem occurred with the
 476:../lufa-LUFA/LUFA/Drivers/USB/LowLevel/Endpoint.h **** 			 *  indicated endpoint and that the current transfer sequence should be aborted. This provides a
 477:../lufa-LUFA/LUFA/Drivers/USB/LowLevel/Endpoint.h **** 			 *  way for devices to indicate invalid commands to the host so that the current transfer can be
 478:../lufa-LUFA/LUFA/Drivers/USB/LowLevel/Endpoint.h **** 			 *  aborted and the host can begin its own recovery sequence.
 479:../lufa-LUFA/LUFA/Drivers/USB/LowLevel/Endpoint.h **** 			 *
 480:../lufa-LUFA/LUFA/Drivers/USB/LowLevel/Endpoint.h **** 			 *  The currently selected endpoint remains stalled until either the \ref Endpoint_ClearStall() 
 481:../lufa-LUFA/LUFA/Drivers/USB/LowLevel/Endpoint.h **** 			 *  is called, or the host issues a CLEAR FEATURE request to the device for the currently select
 482:../lufa-LUFA/LUFA/Drivers/USB/LowLevel/Endpoint.h **** 			 *  endpoint.
 483:../lufa-LUFA/LUFA/Drivers/USB/LowLevel/Endpoint.h **** 			 *
 484:../lufa-LUFA/LUFA/Drivers/USB/LowLevel/Endpoint.h **** 			 *  \ingroup Group_EndpointPacketManagement
 485:../lufa-LUFA/LUFA/Drivers/USB/LowLevel/Endpoint.h **** 			 */
 486:../lufa-LUFA/LUFA/Drivers/USB/LowLevel/Endpoint.h **** 			static inline void Endpoint_StallTransaction(void) ATTR_ALWAYS_INLINE;
 487:../lufa-LUFA/LUFA/Drivers/USB/LowLevel/Endpoint.h **** 			static inline void Endpoint_StallTransaction(void)
 488:../lufa-LUFA/LUFA/Drivers/USB/LowLevel/Endpoint.h **** 			{
 489:../lufa-LUFA/LUFA/Drivers/USB/LowLevel/Endpoint.h **** 				UECONX |= (1 << STALLRQ);
 490:../lufa-LUFA/LUFA/Drivers/USB/LowLevel/Endpoint.h **** 			}
 491:../lufa-LUFA/LUFA/Drivers/USB/LowLevel/Endpoint.h **** 			
 492:../lufa-LUFA/LUFA/Drivers/USB/LowLevel/Endpoint.h **** 			/** Clears the STALL condition on the currently selected endpoint.
 493:../lufa-LUFA/LUFA/Drivers/USB/LowLevel/Endpoint.h **** 			 *
 494:../lufa-LUFA/LUFA/Drivers/USB/LowLevel/Endpoint.h **** 			 *  \ingroup Group_EndpointPacketManagement
 495:../lufa-LUFA/LUFA/Drivers/USB/LowLevel/Endpoint.h **** 			 */
 496:../lufa-LUFA/LUFA/Drivers/USB/LowLevel/Endpoint.h **** 			static inline void Endpoint_ClearStall(void) ATTR_ALWAYS_INLINE;
 497:../lufa-LUFA/LUFA/Drivers/USB/LowLevel/Endpoint.h **** 			static inline void Endpoint_ClearStall(void)
 498:../lufa-LUFA/LUFA/Drivers/USB/LowLevel/Endpoint.h **** 			{
 499:../lufa-LUFA/LUFA/Drivers/USB/LowLevel/Endpoint.h **** 				UECONX |= (1 << STALLRQC);
 500:../lufa-LUFA/LUFA/Drivers/USB/LowLevel/Endpoint.h **** 			}
 501:../lufa-LUFA/LUFA/Drivers/USB/LowLevel/Endpoint.h **** 			
 502:../lufa-LUFA/LUFA/Drivers/USB/LowLevel/Endpoint.h **** 			/** Determines if the currently selected endpoint is stalled, false otherwise.
 503:../lufa-LUFA/LUFA/Drivers/USB/LowLevel/Endpoint.h **** 			 *
 504:../lufa-LUFA/LUFA/Drivers/USB/LowLevel/Endpoint.h **** 			 *  \ingroup Group_EndpointPacketManagement
 505:../lufa-LUFA/LUFA/Drivers/USB/LowLevel/Endpoint.h **** 			 *
 506:../lufa-LUFA/LUFA/Drivers/USB/LowLevel/Endpoint.h **** 			 *  \return Boolean true if the currently selected endpoint is stalled, false otherwise.
 507:../lufa-LUFA/LUFA/Drivers/USB/LowLevel/Endpoint.h **** 			 */
 508:../lufa-LUFA/LUFA/Drivers/USB/LowLevel/Endpoint.h **** 			static inline bool Endpoint_IsStalled(void) ATTR_WARN_UNUSED_RESULT ATTR_ALWAYS_INLINE;
 509:../lufa-LUFA/LUFA/Drivers/USB/LowLevel/Endpoint.h **** 			static inline bool Endpoint_IsStalled(void)
 510:../lufa-LUFA/LUFA/Drivers/USB/LowLevel/Endpoint.h **** 			{
 511:../lufa-LUFA/LUFA/Drivers/USB/LowLevel/Endpoint.h **** 				return ((UECONX & (1 << STALLRQ)) ? true : false);
 512:../lufa-LUFA/LUFA/Drivers/USB/LowLevel/Endpoint.h **** 			}
 513:../lufa-LUFA/LUFA/Drivers/USB/LowLevel/Endpoint.h **** 			
 514:../lufa-LUFA/LUFA/Drivers/USB/LowLevel/Endpoint.h **** 			/** Resets the data toggle of the currently selected endpoint. */
 515:../lufa-LUFA/LUFA/Drivers/USB/LowLevel/Endpoint.h **** 			static inline void Endpoint_ResetDataToggle(void) ATTR_ALWAYS_INLINE;
 516:../lufa-LUFA/LUFA/Drivers/USB/LowLevel/Endpoint.h **** 			static inline void Endpoint_ResetDataToggle(void)
 517:../lufa-LUFA/LUFA/Drivers/USB/LowLevel/Endpoint.h **** 			{
 518:../lufa-LUFA/LUFA/Drivers/USB/LowLevel/Endpoint.h **** 				UECONX |= (1 << RSTDT);
 519:../lufa-LUFA/LUFA/Drivers/USB/LowLevel/Endpoint.h **** 			}
 520:../lufa-LUFA/LUFA/Drivers/USB/LowLevel/Endpoint.h **** 			
 521:../lufa-LUFA/LUFA/Drivers/USB/LowLevel/Endpoint.h **** 			/** Determines the currently selected endpoint's direction.
 522:../lufa-LUFA/LUFA/Drivers/USB/LowLevel/Endpoint.h **** 			 *
 523:../lufa-LUFA/LUFA/Drivers/USB/LowLevel/Endpoint.h **** 			 *  \return The currently selected endpoint's direction, as a ENDPOINT_DIR_* mask.
 524:../lufa-LUFA/LUFA/Drivers/USB/LowLevel/Endpoint.h **** 			 */
 525:../lufa-LUFA/LUFA/Drivers/USB/LowLevel/Endpoint.h **** 			static inline uint8_t Endpoint_GetEndpointDirection(void) ATTR_WARN_UNUSED_RESULT ATTR_ALWAYS_IN
 526:../lufa-LUFA/LUFA/Drivers/USB/LowLevel/Endpoint.h **** 			static inline uint8_t Endpoint_GetEndpointDirection(void)
 527:../lufa-LUFA/LUFA/Drivers/USB/LowLevel/Endpoint.h **** 			{
 528:../lufa-LUFA/LUFA/Drivers/USB/LowLevel/Endpoint.h **** 				return (UECFG0X & ENDPOINT_DIR_IN);
 529:../lufa-LUFA/LUFA/Drivers/USB/LowLevel/Endpoint.h **** 			}
 530:../lufa-LUFA/LUFA/Drivers/USB/LowLevel/Endpoint.h **** 
 531:../lufa-LUFA/LUFA/Drivers/USB/LowLevel/Endpoint.h **** 			/** Sets the direction of the currently selected endpoint.
 532:../lufa-LUFA/LUFA/Drivers/USB/LowLevel/Endpoint.h **** 			 *
 533:../lufa-LUFA/LUFA/Drivers/USB/LowLevel/Endpoint.h **** 			 *  \param[in] DirectionMask  New endpoint direction, as a ENDPOINT_DIR_* mask.
 534:../lufa-LUFA/LUFA/Drivers/USB/LowLevel/Endpoint.h **** 			 */
 535:../lufa-LUFA/LUFA/Drivers/USB/LowLevel/Endpoint.h **** 			static inline void Endpoint_SetEndpointDirection(const uint8_t DirectionMask) ATTR_ALWAYS_INLINE
 536:../lufa-LUFA/LUFA/Drivers/USB/LowLevel/Endpoint.h **** 			static inline void Endpoint_SetEndpointDirection(const uint8_t DirectionMask)
 537:../lufa-LUFA/LUFA/Drivers/USB/LowLevel/Endpoint.h **** 			{
 538:../lufa-LUFA/LUFA/Drivers/USB/LowLevel/Endpoint.h **** 				UECFG0X = ((UECFG0X & ~ENDPOINT_DIR_IN) | DirectionMask);
 539:../lufa-LUFA/LUFA/Drivers/USB/LowLevel/Endpoint.h **** 			}
 540:../lufa-LUFA/LUFA/Drivers/USB/LowLevel/Endpoint.h **** 
 541:../lufa-LUFA/LUFA/Drivers/USB/LowLevel/Endpoint.h **** 			/** Reads one byte from the currently selected endpoint's bank, for OUT direction endpoints.
 542:../lufa-LUFA/LUFA/Drivers/USB/LowLevel/Endpoint.h **** 			 *
 543:../lufa-LUFA/LUFA/Drivers/USB/LowLevel/Endpoint.h **** 			 *  \ingroup Group_EndpointPrimitiveRW
 544:../lufa-LUFA/LUFA/Drivers/USB/LowLevel/Endpoint.h **** 			 *
 545:../lufa-LUFA/LUFA/Drivers/USB/LowLevel/Endpoint.h **** 			 *  \return Next byte in the currently selected endpoint's FIFO buffer.
 546:../lufa-LUFA/LUFA/Drivers/USB/LowLevel/Endpoint.h **** 			 */
 547:../lufa-LUFA/LUFA/Drivers/USB/LowLevel/Endpoint.h **** 			static inline uint8_t Endpoint_Read_Byte(void) ATTR_WARN_UNUSED_RESULT ATTR_ALWAYS_INLINE;
 548:../lufa-LUFA/LUFA/Drivers/USB/LowLevel/Endpoint.h **** 			static inline uint8_t Endpoint_Read_Byte(void)
 549:../lufa-LUFA/LUFA/Drivers/USB/LowLevel/Endpoint.h **** 			{
 550:../lufa-LUFA/LUFA/Drivers/USB/LowLevel/Endpoint.h **** 				return UEDATX;
 551:../lufa-LUFA/LUFA/Drivers/USB/LowLevel/Endpoint.h **** 			}
 552:../lufa-LUFA/LUFA/Drivers/USB/LowLevel/Endpoint.h **** 
 553:../lufa-LUFA/LUFA/Drivers/USB/LowLevel/Endpoint.h **** 			/** Writes one byte from the currently selected endpoint's bank, for IN direction endpoints.
 554:../lufa-LUFA/LUFA/Drivers/USB/LowLevel/Endpoint.h **** 			 *
 555:../lufa-LUFA/LUFA/Drivers/USB/LowLevel/Endpoint.h **** 			 *  \ingroup Group_EndpointPrimitiveRW
 556:../lufa-LUFA/LUFA/Drivers/USB/LowLevel/Endpoint.h **** 			 *
 557:../lufa-LUFA/LUFA/Drivers/USB/LowLevel/Endpoint.h **** 			 *  \param[in] Byte  Next byte to write into the the currently selected endpoint's FIFO buffer.
 558:../lufa-LUFA/LUFA/Drivers/USB/LowLevel/Endpoint.h **** 			 */
 559:../lufa-LUFA/LUFA/Drivers/USB/LowLevel/Endpoint.h **** 			static inline void Endpoint_Write_Byte(const uint8_t Byte) ATTR_ALWAYS_INLINE;
 560:../lufa-LUFA/LUFA/Drivers/USB/LowLevel/Endpoint.h **** 			static inline void Endpoint_Write_Byte(const uint8_t Byte)
 561:../lufa-LUFA/LUFA/Drivers/USB/LowLevel/Endpoint.h **** 			{
 562:../lufa-LUFA/LUFA/Drivers/USB/LowLevel/Endpoint.h **** 				UEDATX = Byte;
 563:../lufa-LUFA/LUFA/Drivers/USB/LowLevel/Endpoint.h **** 			}
 564:../lufa-LUFA/LUFA/Drivers/USB/LowLevel/Endpoint.h **** 
 565:../lufa-LUFA/LUFA/Drivers/USB/LowLevel/Endpoint.h **** 			/** Discards one byte from the currently selected endpoint's bank, for OUT direction endpoints.
 566:../lufa-LUFA/LUFA/Drivers/USB/LowLevel/Endpoint.h **** 			 *
 567:../lufa-LUFA/LUFA/Drivers/USB/LowLevel/Endpoint.h **** 			 *  \ingroup Group_EndpointPrimitiveRW
 568:../lufa-LUFA/LUFA/Drivers/USB/LowLevel/Endpoint.h **** 			 */
 569:../lufa-LUFA/LUFA/Drivers/USB/LowLevel/Endpoint.h **** 			static inline void Endpoint_Discard_Byte(void) ATTR_ALWAYS_INLINE;
 570:../lufa-LUFA/LUFA/Drivers/USB/LowLevel/Endpoint.h **** 			static inline void Endpoint_Discard_Byte(void)
 571:../lufa-LUFA/LUFA/Drivers/USB/LowLevel/Endpoint.h **** 			{
 572:../lufa-LUFA/LUFA/Drivers/USB/LowLevel/Endpoint.h **** 				uint8_t Dummy;
 573:../lufa-LUFA/LUFA/Drivers/USB/LowLevel/Endpoint.h **** 				
 574:../lufa-LUFA/LUFA/Drivers/USB/LowLevel/Endpoint.h **** 				Dummy = UEDATX;
 575:../lufa-LUFA/LUFA/Drivers/USB/LowLevel/Endpoint.h **** 			}
 576:../lufa-LUFA/LUFA/Drivers/USB/LowLevel/Endpoint.h **** 			
 577:../lufa-LUFA/LUFA/Drivers/USB/LowLevel/Endpoint.h **** 			/** Reads two bytes from the currently selected endpoint's bank in little endian format, for OUT
 578:../lufa-LUFA/LUFA/Drivers/USB/LowLevel/Endpoint.h **** 			 *  direction endpoints.
 579:../lufa-LUFA/LUFA/Drivers/USB/LowLevel/Endpoint.h **** 			 *
 580:../lufa-LUFA/LUFA/Drivers/USB/LowLevel/Endpoint.h **** 			 *  \ingroup Group_EndpointPrimitiveRW
 581:../lufa-LUFA/LUFA/Drivers/USB/LowLevel/Endpoint.h **** 			 *
 582:../lufa-LUFA/LUFA/Drivers/USB/LowLevel/Endpoint.h **** 			 *  \return Next word in the currently selected endpoint's FIFO buffer.
 583:../lufa-LUFA/LUFA/Drivers/USB/LowLevel/Endpoint.h **** 			 */
 584:../lufa-LUFA/LUFA/Drivers/USB/LowLevel/Endpoint.h **** 			static inline uint16_t Endpoint_Read_Word_LE(void) ATTR_WARN_UNUSED_RESULT ATTR_ALWAYS_INLINE;
 585:../lufa-LUFA/LUFA/Drivers/USB/LowLevel/Endpoint.h **** 			static inline uint16_t Endpoint_Read_Word_LE(void)
 586:../lufa-LUFA/LUFA/Drivers/USB/LowLevel/Endpoint.h **** 			{
 587:../lufa-LUFA/LUFA/Drivers/USB/LowLevel/Endpoint.h **** 				union
 588:../lufa-LUFA/LUFA/Drivers/USB/LowLevel/Endpoint.h **** 				{
 589:../lufa-LUFA/LUFA/Drivers/USB/LowLevel/Endpoint.h **** 					uint16_t Word;
 590:../lufa-LUFA/LUFA/Drivers/USB/LowLevel/Endpoint.h **** 					uint8_t  Bytes[2];
 591:../lufa-LUFA/LUFA/Drivers/USB/LowLevel/Endpoint.h **** 				} Data;
 592:../lufa-LUFA/LUFA/Drivers/USB/LowLevel/Endpoint.h **** 				
 593:../lufa-LUFA/LUFA/Drivers/USB/LowLevel/Endpoint.h **** 				Data.Bytes[0] = UEDATX;
 594:../lufa-LUFA/LUFA/Drivers/USB/LowLevel/Endpoint.h **** 				Data.Bytes[1] = UEDATX;
 595:../lufa-LUFA/LUFA/Drivers/USB/LowLevel/Endpoint.h **** 			
 596:../lufa-LUFA/LUFA/Drivers/USB/LowLevel/Endpoint.h **** 				return Data.Word;
 597:../lufa-LUFA/LUFA/Drivers/USB/LowLevel/Endpoint.h **** 			}
 598:../lufa-LUFA/LUFA/Drivers/USB/LowLevel/Endpoint.h **** 
 599:../lufa-LUFA/LUFA/Drivers/USB/LowLevel/Endpoint.h **** 			/** Reads two bytes from the currently selected endpoint's bank in big endian format, for OUT
 600:../lufa-LUFA/LUFA/Drivers/USB/LowLevel/Endpoint.h **** 			 *  direction endpoints.
 601:../lufa-LUFA/LUFA/Drivers/USB/LowLevel/Endpoint.h **** 			 *
 602:../lufa-LUFA/LUFA/Drivers/USB/LowLevel/Endpoint.h **** 			 *  \ingroup Group_EndpointPrimitiveRW
 603:../lufa-LUFA/LUFA/Drivers/USB/LowLevel/Endpoint.h **** 			 *
 604:../lufa-LUFA/LUFA/Drivers/USB/LowLevel/Endpoint.h **** 			 *  \return Next word in the currently selected endpoint's FIFO buffer.
 605:../lufa-LUFA/LUFA/Drivers/USB/LowLevel/Endpoint.h **** 			 */
 606:../lufa-LUFA/LUFA/Drivers/USB/LowLevel/Endpoint.h **** 			static inline uint16_t Endpoint_Read_Word_BE(void) ATTR_WARN_UNUSED_RESULT ATTR_ALWAYS_INLINE;
 607:../lufa-LUFA/LUFA/Drivers/USB/LowLevel/Endpoint.h **** 			static inline uint16_t Endpoint_Read_Word_BE(void)
 608:../lufa-LUFA/LUFA/Drivers/USB/LowLevel/Endpoint.h **** 			{
 609:../lufa-LUFA/LUFA/Drivers/USB/LowLevel/Endpoint.h **** 				union
 610:../lufa-LUFA/LUFA/Drivers/USB/LowLevel/Endpoint.h **** 				{
 611:../lufa-LUFA/LUFA/Drivers/USB/LowLevel/Endpoint.h **** 					uint16_t Word;
 612:../lufa-LUFA/LUFA/Drivers/USB/LowLevel/Endpoint.h **** 					uint8_t  Bytes[2];
 613:../lufa-LUFA/LUFA/Drivers/USB/LowLevel/Endpoint.h **** 				} Data;
 614:../lufa-LUFA/LUFA/Drivers/USB/LowLevel/Endpoint.h **** 				
 615:../lufa-LUFA/LUFA/Drivers/USB/LowLevel/Endpoint.h **** 				Data.Bytes[1] = UEDATX;
 616:../lufa-LUFA/LUFA/Drivers/USB/LowLevel/Endpoint.h **** 				Data.Bytes[0] = UEDATX;
 617:../lufa-LUFA/LUFA/Drivers/USB/LowLevel/Endpoint.h **** 			
 618:../lufa-LUFA/LUFA/Drivers/USB/LowLevel/Endpoint.h **** 				return Data.Word;
 619:../lufa-LUFA/LUFA/Drivers/USB/LowLevel/Endpoint.h **** 			}
 620:../lufa-LUFA/LUFA/Drivers/USB/LowLevel/Endpoint.h **** 
 621:../lufa-LUFA/LUFA/Drivers/USB/LowLevel/Endpoint.h **** 			/** Writes two bytes to the currently selected endpoint's bank in little endian format, for IN
 622:../lufa-LUFA/LUFA/Drivers/USB/LowLevel/Endpoint.h **** 			 *  direction endpoints.
 623:../lufa-LUFA/LUFA/Drivers/USB/LowLevel/Endpoint.h **** 			 *
 624:../lufa-LUFA/LUFA/Drivers/USB/LowLevel/Endpoint.h **** 			 *  \ingroup Group_EndpointPrimitiveRW
 625:../lufa-LUFA/LUFA/Drivers/USB/LowLevel/Endpoint.h **** 			 *
 626:../lufa-LUFA/LUFA/Drivers/USB/LowLevel/Endpoint.h **** 			 *  \param[in] Word  Next word to write to the currently selected endpoint's FIFO buffer.
 627:../lufa-LUFA/LUFA/Drivers/USB/LowLevel/Endpoint.h **** 			 */
 628:../lufa-LUFA/LUFA/Drivers/USB/LowLevel/Endpoint.h **** 			static inline void Endpoint_Write_Word_LE(const uint16_t Word) ATTR_ALWAYS_INLINE;
 629:../lufa-LUFA/LUFA/Drivers/USB/LowLevel/Endpoint.h **** 			static inline void Endpoint_Write_Word_LE(const uint16_t Word)
 630:../lufa-LUFA/LUFA/Drivers/USB/LowLevel/Endpoint.h **** 			{
 631:../lufa-LUFA/LUFA/Drivers/USB/LowLevel/Endpoint.h **** 				UEDATX = (Word & 0xFF);
 632:../lufa-LUFA/LUFA/Drivers/USB/LowLevel/Endpoint.h **** 				UEDATX = (Word >> 8);
 633:../lufa-LUFA/LUFA/Drivers/USB/LowLevel/Endpoint.h **** 			}
 634:../lufa-LUFA/LUFA/Drivers/USB/LowLevel/Endpoint.h **** 			
 635:../lufa-LUFA/LUFA/Drivers/USB/LowLevel/Endpoint.h **** 			/** Writes two bytes to the currently selected endpoint's bank in big endian format, for IN
 636:../lufa-LUFA/LUFA/Drivers/USB/LowLevel/Endpoint.h **** 			 *  direction endpoints.
 637:../lufa-LUFA/LUFA/Drivers/USB/LowLevel/Endpoint.h **** 			 *
 638:../lufa-LUFA/LUFA/Drivers/USB/LowLevel/Endpoint.h **** 			 *  \ingroup Group_EndpointPrimitiveRW
 639:../lufa-LUFA/LUFA/Drivers/USB/LowLevel/Endpoint.h **** 			 *
 640:../lufa-LUFA/LUFA/Drivers/USB/LowLevel/Endpoint.h **** 			 *  \param[in] Word  Next word to write to the currently selected endpoint's FIFO buffer.
 641:../lufa-LUFA/LUFA/Drivers/USB/LowLevel/Endpoint.h **** 			 */
 642:../lufa-LUFA/LUFA/Drivers/USB/LowLevel/Endpoint.h **** 			static inline void Endpoint_Write_Word_BE(const uint16_t Word) ATTR_ALWAYS_INLINE;
 643:../lufa-LUFA/LUFA/Drivers/USB/LowLevel/Endpoint.h **** 			static inline void Endpoint_Write_Word_BE(const uint16_t Word)
 644:../lufa-LUFA/LUFA/Drivers/USB/LowLevel/Endpoint.h **** 			{
 645:../lufa-LUFA/LUFA/Drivers/USB/LowLevel/Endpoint.h **** 				UEDATX = (Word >> 8);
 646:../lufa-LUFA/LUFA/Drivers/USB/LowLevel/Endpoint.h **** 				UEDATX = (Word & 0xFF);
 647:../lufa-LUFA/LUFA/Drivers/USB/LowLevel/Endpoint.h **** 			}
 648:../lufa-LUFA/LUFA/Drivers/USB/LowLevel/Endpoint.h **** 
 649:../lufa-LUFA/LUFA/Drivers/USB/LowLevel/Endpoint.h **** 			/** Discards two bytes from the currently selected endpoint's bank, for OUT direction endpoints.
 650:../lufa-LUFA/LUFA/Drivers/USB/LowLevel/Endpoint.h **** 			 *
 651:../lufa-LUFA/LUFA/Drivers/USB/LowLevel/Endpoint.h **** 			 *  \ingroup Group_EndpointPrimitiveRW
 652:../lufa-LUFA/LUFA/Drivers/USB/LowLevel/Endpoint.h **** 			 */
 653:../lufa-LUFA/LUFA/Drivers/USB/LowLevel/Endpoint.h **** 			static inline void Endpoint_Discard_Word(void) ATTR_ALWAYS_INLINE;
 654:../lufa-LUFA/LUFA/Drivers/USB/LowLevel/Endpoint.h **** 			static inline void Endpoint_Discard_Word(void)
 655:../lufa-LUFA/LUFA/Drivers/USB/LowLevel/Endpoint.h **** 			{
 656:../lufa-LUFA/LUFA/Drivers/USB/LowLevel/Endpoint.h **** 				uint8_t Dummy;
 657:../lufa-LUFA/LUFA/Drivers/USB/LowLevel/Endpoint.h **** 				
 658:../lufa-LUFA/LUFA/Drivers/USB/LowLevel/Endpoint.h **** 				Dummy = UEDATX;
 659:../lufa-LUFA/LUFA/Drivers/USB/LowLevel/Endpoint.h **** 				Dummy = UEDATX;
 660:../lufa-LUFA/LUFA/Drivers/USB/LowLevel/Endpoint.h **** 			}
 661:../lufa-LUFA/LUFA/Drivers/USB/LowLevel/Endpoint.h **** 
 662:../lufa-LUFA/LUFA/Drivers/USB/LowLevel/Endpoint.h **** 			/** Reads four bytes from the currently selected endpoint's bank in little endian format, for OU
 663:../lufa-LUFA/LUFA/Drivers/USB/LowLevel/Endpoint.h **** 			 *  direction endpoints.
 664:../lufa-LUFA/LUFA/Drivers/USB/LowLevel/Endpoint.h **** 			 *
 665:../lufa-LUFA/LUFA/Drivers/USB/LowLevel/Endpoint.h **** 			 *  \ingroup Group_EndpointPrimitiveRW
 666:../lufa-LUFA/LUFA/Drivers/USB/LowLevel/Endpoint.h **** 			 *
 667:../lufa-LUFA/LUFA/Drivers/USB/LowLevel/Endpoint.h **** 			 *  \return Next double word in the currently selected endpoint's FIFO buffer.
 668:../lufa-LUFA/LUFA/Drivers/USB/LowLevel/Endpoint.h **** 			 */
 669:../lufa-LUFA/LUFA/Drivers/USB/LowLevel/Endpoint.h **** 			static inline uint32_t Endpoint_Read_DWord_LE(void) ATTR_WARN_UNUSED_RESULT ATTR_ALWAYS_INLINE;
 670:../lufa-LUFA/LUFA/Drivers/USB/LowLevel/Endpoint.h **** 			static inline uint32_t Endpoint_Read_DWord_LE(void)
 671:../lufa-LUFA/LUFA/Drivers/USB/LowLevel/Endpoint.h **** 			{
 672:../lufa-LUFA/LUFA/Drivers/USB/LowLevel/Endpoint.h **** 				union
 673:../lufa-LUFA/LUFA/Drivers/USB/LowLevel/Endpoint.h **** 				{
 674:../lufa-LUFA/LUFA/Drivers/USB/LowLevel/Endpoint.h **** 					uint32_t DWord;
 675:../lufa-LUFA/LUFA/Drivers/USB/LowLevel/Endpoint.h **** 					uint8_t  Bytes[4];
 676:../lufa-LUFA/LUFA/Drivers/USB/LowLevel/Endpoint.h **** 				} Data;
 677:../lufa-LUFA/LUFA/Drivers/USB/LowLevel/Endpoint.h **** 				
 678:../lufa-LUFA/LUFA/Drivers/USB/LowLevel/Endpoint.h **** 				Data.Bytes[0] = UEDATX;
 679:../lufa-LUFA/LUFA/Drivers/USB/LowLevel/Endpoint.h **** 				Data.Bytes[1] = UEDATX;
 680:../lufa-LUFA/LUFA/Drivers/USB/LowLevel/Endpoint.h **** 				Data.Bytes[2] = UEDATX;
 681:../lufa-LUFA/LUFA/Drivers/USB/LowLevel/Endpoint.h **** 				Data.Bytes[3] = UEDATX;
 682:../lufa-LUFA/LUFA/Drivers/USB/LowLevel/Endpoint.h **** 			
 683:../lufa-LUFA/LUFA/Drivers/USB/LowLevel/Endpoint.h **** 				return Data.DWord;
 684:../lufa-LUFA/LUFA/Drivers/USB/LowLevel/Endpoint.h **** 			}
 685:../lufa-LUFA/LUFA/Drivers/USB/LowLevel/Endpoint.h **** 
 686:../lufa-LUFA/LUFA/Drivers/USB/LowLevel/Endpoint.h **** 			/** Reads four bytes from the currently selected endpoint's bank in big endian format, for OUT
 687:../lufa-LUFA/LUFA/Drivers/USB/LowLevel/Endpoint.h **** 			 *  direction endpoints.
 688:../lufa-LUFA/LUFA/Drivers/USB/LowLevel/Endpoint.h **** 			 *
 689:../lufa-LUFA/LUFA/Drivers/USB/LowLevel/Endpoint.h **** 			 *  \ingroup Group_EndpointPrimitiveRW
 690:../lufa-LUFA/LUFA/Drivers/USB/LowLevel/Endpoint.h **** 			 *
 691:../lufa-LUFA/LUFA/Drivers/USB/LowLevel/Endpoint.h **** 			 *  \return Next double word in the currently selected endpoint's FIFO buffer.
 692:../lufa-LUFA/LUFA/Drivers/USB/LowLevel/Endpoint.h **** 			 */
 693:../lufa-LUFA/LUFA/Drivers/USB/LowLevel/Endpoint.h **** 			static inline uint32_t Endpoint_Read_DWord_BE(void) ATTR_WARN_UNUSED_RESULT ATTR_ALWAYS_INLINE;
 694:../lufa-LUFA/LUFA/Drivers/USB/LowLevel/Endpoint.h **** 			static inline uint32_t Endpoint_Read_DWord_BE(void)
 695:../lufa-LUFA/LUFA/Drivers/USB/LowLevel/Endpoint.h **** 			{
 696:../lufa-LUFA/LUFA/Drivers/USB/LowLevel/Endpoint.h **** 				union
 697:../lufa-LUFA/LUFA/Drivers/USB/LowLevel/Endpoint.h **** 				{
 698:../lufa-LUFA/LUFA/Drivers/USB/LowLevel/Endpoint.h **** 					uint32_t DWord;
 699:../lufa-LUFA/LUFA/Drivers/USB/LowLevel/Endpoint.h **** 					uint8_t  Bytes[4];
 700:../lufa-LUFA/LUFA/Drivers/USB/LowLevel/Endpoint.h **** 				} Data;
 701:../lufa-LUFA/LUFA/Drivers/USB/LowLevel/Endpoint.h **** 				
 702:../lufa-LUFA/LUFA/Drivers/USB/LowLevel/Endpoint.h **** 				Data.Bytes[3] = UEDATX;
 703:../lufa-LUFA/LUFA/Drivers/USB/LowLevel/Endpoint.h **** 				Data.Bytes[2] = UEDATX;
 704:../lufa-LUFA/LUFA/Drivers/USB/LowLevel/Endpoint.h **** 				Data.Bytes[1] = UEDATX;
 705:../lufa-LUFA/LUFA/Drivers/USB/LowLevel/Endpoint.h **** 				Data.Bytes[0] = UEDATX;
 706:../lufa-LUFA/LUFA/Drivers/USB/LowLevel/Endpoint.h **** 			
 707:../lufa-LUFA/LUFA/Drivers/USB/LowLevel/Endpoint.h **** 				return Data.DWord;
 708:../lufa-LUFA/LUFA/Drivers/USB/LowLevel/Endpoint.h **** 			}
 709:../lufa-LUFA/LUFA/Drivers/USB/LowLevel/Endpoint.h **** 
 710:../lufa-LUFA/LUFA/Drivers/USB/LowLevel/Endpoint.h **** 			/** Writes four bytes to the currently selected endpoint's bank in little endian format, for IN
 711:../lufa-LUFA/LUFA/Drivers/USB/LowLevel/Endpoint.h **** 			 *  direction endpoints.
 712:../lufa-LUFA/LUFA/Drivers/USB/LowLevel/Endpoint.h **** 			 *
 713:../lufa-LUFA/LUFA/Drivers/USB/LowLevel/Endpoint.h **** 			 *  \ingroup Group_EndpointPrimitiveRW
 714:../lufa-LUFA/LUFA/Drivers/USB/LowLevel/Endpoint.h **** 			 *
 715:../lufa-LUFA/LUFA/Drivers/USB/LowLevel/Endpoint.h **** 			 *  \param[in] DWord  Next double word to write to the currently selected endpoint's FIFO buffer
 716:../lufa-LUFA/LUFA/Drivers/USB/LowLevel/Endpoint.h **** 			 */
 717:../lufa-LUFA/LUFA/Drivers/USB/LowLevel/Endpoint.h **** 			static inline void Endpoint_Write_DWord_LE(const uint32_t DWord) ATTR_ALWAYS_INLINE;
 718:../lufa-LUFA/LUFA/Drivers/USB/LowLevel/Endpoint.h **** 			static inline void Endpoint_Write_DWord_LE(const uint32_t DWord)
 719:../lufa-LUFA/LUFA/Drivers/USB/LowLevel/Endpoint.h **** 			{
 720:../lufa-LUFA/LUFA/Drivers/USB/LowLevel/Endpoint.h **** 				UEDATX = (DWord &  0xFF);
 721:../lufa-LUFA/LUFA/Drivers/USB/LowLevel/Endpoint.h **** 				UEDATX = (DWord >> 8);
 722:../lufa-LUFA/LUFA/Drivers/USB/LowLevel/Endpoint.h **** 				UEDATX = (DWord >> 16);
 723:../lufa-LUFA/LUFA/Drivers/USB/LowLevel/Endpoint.h **** 				UEDATX = (DWord >> 24);
 724:../lufa-LUFA/LUFA/Drivers/USB/LowLevel/Endpoint.h **** 			}
 725:../lufa-LUFA/LUFA/Drivers/USB/LowLevel/Endpoint.h **** 			
 726:../lufa-LUFA/LUFA/Drivers/USB/LowLevel/Endpoint.h **** 			/** Writes four bytes to the currently selected endpoint's bank in big endian format, for IN
 727:../lufa-LUFA/LUFA/Drivers/USB/LowLevel/Endpoint.h **** 			 *  direction endpoints.
 728:../lufa-LUFA/LUFA/Drivers/USB/LowLevel/Endpoint.h **** 			 *
 729:../lufa-LUFA/LUFA/Drivers/USB/LowLevel/Endpoint.h **** 			 *  \ingroup Group_EndpointPrimitiveRW
 730:../lufa-LUFA/LUFA/Drivers/USB/LowLevel/Endpoint.h **** 			 *
 731:../lufa-LUFA/LUFA/Drivers/USB/LowLevel/Endpoint.h **** 			 *  \param[in] DWord  Next double word to write to the currently selected endpoint's FIFO buffer
 732:../lufa-LUFA/LUFA/Drivers/USB/LowLevel/Endpoint.h **** 			 */
 733:../lufa-LUFA/LUFA/Drivers/USB/LowLevel/Endpoint.h **** 			static inline void Endpoint_Write_DWord_BE(const uint32_t DWord) ATTR_ALWAYS_INLINE;
 734:../lufa-LUFA/LUFA/Drivers/USB/LowLevel/Endpoint.h **** 			static inline void Endpoint_Write_DWord_BE(const uint32_t DWord)
 735:../lufa-LUFA/LUFA/Drivers/USB/LowLevel/Endpoint.h **** 			{
 736:../lufa-LUFA/LUFA/Drivers/USB/LowLevel/Endpoint.h **** 				UEDATX = (DWord >> 24);
 737:../lufa-LUFA/LUFA/Drivers/USB/LowLevel/Endpoint.h **** 				UEDATX = (DWord >> 16);
 738:../lufa-LUFA/LUFA/Drivers/USB/LowLevel/Endpoint.h **** 				UEDATX = (DWord >> 8);
 739:../lufa-LUFA/LUFA/Drivers/USB/LowLevel/Endpoint.h **** 				UEDATX = (DWord &  0xFF);
 740:../lufa-LUFA/LUFA/Drivers/USB/LowLevel/Endpoint.h **** 			}
 741:../lufa-LUFA/LUFA/Drivers/USB/LowLevel/Endpoint.h **** 
 742:../lufa-LUFA/LUFA/Drivers/USB/LowLevel/Endpoint.h **** 			/** Discards four bytes from the currently selected endpoint's bank, for OUT direction endpoints
 743:../lufa-LUFA/LUFA/Drivers/USB/LowLevel/Endpoint.h **** 			 *
 744:../lufa-LUFA/LUFA/Drivers/USB/LowLevel/Endpoint.h **** 			 *  \ingroup Group_EndpointPrimitiveRW
 745:../lufa-LUFA/LUFA/Drivers/USB/LowLevel/Endpoint.h **** 			 */
 746:../lufa-LUFA/LUFA/Drivers/USB/LowLevel/Endpoint.h **** 			static inline void Endpoint_Discard_DWord(void) ATTR_ALWAYS_INLINE;
 747:../lufa-LUFA/LUFA/Drivers/USB/LowLevel/Endpoint.h **** 			static inline void Endpoint_Discard_DWord(void)
 748:../lufa-LUFA/LUFA/Drivers/USB/LowLevel/Endpoint.h **** 			{
 749:../lufa-LUFA/LUFA/Drivers/USB/LowLevel/Endpoint.h **** 				uint8_t Dummy;
 750:../lufa-LUFA/LUFA/Drivers/USB/LowLevel/Endpoint.h **** 				
 751:../lufa-LUFA/LUFA/Drivers/USB/LowLevel/Endpoint.h **** 				Dummy = UEDATX;
 752:../lufa-LUFA/LUFA/Drivers/USB/LowLevel/Endpoint.h **** 				Dummy = UEDATX;
 753:../lufa-LUFA/LUFA/Drivers/USB/LowLevel/Endpoint.h **** 				Dummy = UEDATX;
 754:../lufa-LUFA/LUFA/Drivers/USB/LowLevel/Endpoint.h **** 				Dummy = UEDATX;
 755:../lufa-LUFA/LUFA/Drivers/USB/LowLevel/Endpoint.h **** 			}
 756:../lufa-LUFA/LUFA/Drivers/USB/LowLevel/Endpoint.h **** 
 757:../lufa-LUFA/LUFA/Drivers/USB/LowLevel/Endpoint.h **** 		/* External Variables: */
 758:../lufa-LUFA/LUFA/Drivers/USB/LowLevel/Endpoint.h **** 			/** Global indicating the maximum packet size of the default control endpoint located at address
 759:../lufa-LUFA/LUFA/Drivers/USB/LowLevel/Endpoint.h **** 			 *  0 in the device. This value is set to the value indicated in the device descriptor in the us
 760:../lufa-LUFA/LUFA/Drivers/USB/LowLevel/Endpoint.h **** 			 *  project once the USB interface is initialized into device mode.
 761:../lufa-LUFA/LUFA/Drivers/USB/LowLevel/Endpoint.h **** 			 *
 762:../lufa-LUFA/LUFA/Drivers/USB/LowLevel/Endpoint.h **** 			 *  If space is an issue, it is possible to fix this to a static value by defining the control
 763:../lufa-LUFA/LUFA/Drivers/USB/LowLevel/Endpoint.h **** 			 *  endpoint size in the FIXED_CONTROL_ENDPOINT_SIZE token passed to the compiler in the makefil
 764:../lufa-LUFA/LUFA/Drivers/USB/LowLevel/Endpoint.h **** 			 *  via the -D switch. When a fixed control endpoint size is used, the size is no longer dynamic
 765:../lufa-LUFA/LUFA/Drivers/USB/LowLevel/Endpoint.h **** 			 *  read from the descriptors at runtime and instead fixed to the given value. When used, it is
 766:../lufa-LUFA/LUFA/Drivers/USB/LowLevel/Endpoint.h **** 			 *  important that the descriptor control endpoint size value matches the size given as the
 767:../lufa-LUFA/LUFA/Drivers/USB/LowLevel/Endpoint.h **** 			 *  FIXED_CONTROL_ENDPOINT_SIZE token - it is recommended that the FIXED_CONTROL_ENDPOINT_SIZE t
 768:../lufa-LUFA/LUFA/Drivers/USB/LowLevel/Endpoint.h **** 			 *  be used in the descriptors to ensure this.
 769:../lufa-LUFA/LUFA/Drivers/USB/LowLevel/Endpoint.h **** 			 *
 770:../lufa-LUFA/LUFA/Drivers/USB/LowLevel/Endpoint.h **** 			 *  \note This variable should be treated as read-only in the user application, and never manual
 771:../lufa-LUFA/LUFA/Drivers/USB/LowLevel/Endpoint.h **** 			 *        changed in value.
 772:../lufa-LUFA/LUFA/Drivers/USB/LowLevel/Endpoint.h **** 			 */
 773:../lufa-LUFA/LUFA/Drivers/USB/LowLevel/Endpoint.h **** 			#if (!defined(FIXED_CONTROL_ENDPOINT_SIZE) || defined(__DOXYGEN__))
 774:../lufa-LUFA/LUFA/Drivers/USB/LowLevel/Endpoint.h **** 				extern uint8_t USB_ControlEndpointSize;
 775:../lufa-LUFA/LUFA/Drivers/USB/LowLevel/Endpoint.h **** 			#else
 776:../lufa-LUFA/LUFA/Drivers/USB/LowLevel/Endpoint.h **** 				#define USB_ControlEndpointSize FIXED_CONTROL_ENDPOINT_SIZE
 777:../lufa-LUFA/LUFA/Drivers/USB/LowLevel/Endpoint.h **** 			#endif
 778:../lufa-LUFA/LUFA/Drivers/USB/LowLevel/Endpoint.h **** 
 779:../lufa-LUFA/LUFA/Drivers/USB/LowLevel/Endpoint.h **** 		/* Function Prototypes: */
 780:../lufa-LUFA/LUFA/Drivers/USB/LowLevel/Endpoint.h **** 			#if !defined(NO_STREAM_CALLBACKS) || defined(__DOXYGEN__)
 781:../lufa-LUFA/LUFA/Drivers/USB/LowLevel/Endpoint.h **** 				#define __CALLBACK_PARAM     , StreamCallbackPtr_t Callback
 782:../lufa-LUFA/LUFA/Drivers/USB/LowLevel/Endpoint.h **** 			#else
 783:../lufa-LUFA/LUFA/Drivers/USB/LowLevel/Endpoint.h **** 				#define __CALLBACK_PARAM
 784:../lufa-LUFA/LUFA/Drivers/USB/LowLevel/Endpoint.h **** 			#endif
 785:../lufa-LUFA/LUFA/Drivers/USB/LowLevel/Endpoint.h **** 		
 786:../lufa-LUFA/LUFA/Drivers/USB/LowLevel/Endpoint.h **** 			/** Configures the specified endpoint number with the given endpoint type, direction, bank size
 787:../lufa-LUFA/LUFA/Drivers/USB/LowLevel/Endpoint.h **** 			 *  and banking mode. Endpoints should be allocated in ascending order by their address in the
 788:../lufa-LUFA/LUFA/Drivers/USB/LowLevel/Endpoint.h **** 			 *  device (i.e. endpoint 1 should be configured before endpoint 2 and so on) to prevent fragmen
 789:../lufa-LUFA/LUFA/Drivers/USB/LowLevel/Endpoint.h **** 			 *  of the USB FIFO memory.
 790:../lufa-LUFA/LUFA/Drivers/USB/LowLevel/Endpoint.h **** 			 *
 791:../lufa-LUFA/LUFA/Drivers/USB/LowLevel/Endpoint.h **** 			 *  The endpoint type may be one of the EP_TYPE_* macros listed in LowLevel.h and the direction
 792:../lufa-LUFA/LUFA/Drivers/USB/LowLevel/Endpoint.h **** 			 *  may be either \ref ENDPOINT_DIR_OUT or \ref ENDPOINT_DIR_IN.
 793:../lufa-LUFA/LUFA/Drivers/USB/LowLevel/Endpoint.h **** 			 *
 794:../lufa-LUFA/LUFA/Drivers/USB/LowLevel/Endpoint.h **** 			 *  The bank size must indicate the maximum packet size that the endpoint can handle. Different
 795:../lufa-LUFA/LUFA/Drivers/USB/LowLevel/Endpoint.h **** 			 *  endpoint numbers can handle different maximum packet sizes - refer to the chosen USB AVR's
 796:../lufa-LUFA/LUFA/Drivers/USB/LowLevel/Endpoint.h **** 			 *  datasheet to determine the maximum bank size for each endpoint.
 797:../lufa-LUFA/LUFA/Drivers/USB/LowLevel/Endpoint.h **** 			 *
 798:../lufa-LUFA/LUFA/Drivers/USB/LowLevel/Endpoint.h **** 			 *  The banking mode may be either \ref ENDPOINT_BANK_SINGLE or \ref ENDPOINT_BANK_DOUBLE.
 799:../lufa-LUFA/LUFA/Drivers/USB/LowLevel/Endpoint.h **** 			 *
 800:../lufa-LUFA/LUFA/Drivers/USB/LowLevel/Endpoint.h **** 			 *  \note The default control endpoint should not be manually configured by the user application
 801:../lufa-LUFA/LUFA/Drivers/USB/LowLevel/Endpoint.h **** 			 *        it is automatically configured by the library internally.
 802:../lufa-LUFA/LUFA/Drivers/USB/LowLevel/Endpoint.h **** 			 *        \n\n
 803:../lufa-LUFA/LUFA/Drivers/USB/LowLevel/Endpoint.h **** 			 *
 804:../lufa-LUFA/LUFA/Drivers/USB/LowLevel/Endpoint.h **** 			 *  \note This routine will select the specified endpoint, and the endpoint will remain selected
 805:../lufa-LUFA/LUFA/Drivers/USB/LowLevel/Endpoint.h **** 			 *        once the routine completes regardless of if the endpoint configuration succeeds.
 806:../lufa-LUFA/LUFA/Drivers/USB/LowLevel/Endpoint.h **** 			 *
 807:../lufa-LUFA/LUFA/Drivers/USB/LowLevel/Endpoint.h **** 			 *  \return Boolean true if the configuration succeeded, false otherwise.
 808:../lufa-LUFA/LUFA/Drivers/USB/LowLevel/Endpoint.h **** 			 */
 809:../lufa-LUFA/LUFA/Drivers/USB/LowLevel/Endpoint.h **** 			bool Endpoint_ConfigureEndpoint(const uint8_t  Number,
 810:../lufa-LUFA/LUFA/Drivers/USB/LowLevel/Endpoint.h **** 			                                const uint8_t Type,
 811:../lufa-LUFA/LUFA/Drivers/USB/LowLevel/Endpoint.h **** 			                                const uint8_t Direction,
 812:../lufa-LUFA/LUFA/Drivers/USB/LowLevel/Endpoint.h **** 			                                const uint16_t Size,
 813:../lufa-LUFA/LUFA/Drivers/USB/LowLevel/Endpoint.h **** 			                                const uint8_t Banks);
 814:../lufa-LUFA/LUFA/Drivers/USB/LowLevel/Endpoint.h **** 
 815:../lufa-LUFA/LUFA/Drivers/USB/LowLevel/Endpoint.h **** 			/** Spin-loops until the currently selected non-control endpoint is ready for the next packet of
 816:../lufa-LUFA/LUFA/Drivers/USB/LowLevel/Endpoint.h **** 			 *  to be read or written to it.
 817:../lufa-LUFA/LUFA/Drivers/USB/LowLevel/Endpoint.h **** 			 *
 818:../lufa-LUFA/LUFA/Drivers/USB/LowLevel/Endpoint.h **** 			 *  \note This routine should not be called on CONTROL type endpoints.
 819:../lufa-LUFA/LUFA/Drivers/USB/LowLevel/Endpoint.h **** 			 *
 820:../lufa-LUFA/LUFA/Drivers/USB/LowLevel/Endpoint.h **** 			 *  \ingroup Group_EndpointRW
 821:../lufa-LUFA/LUFA/Drivers/USB/LowLevel/Endpoint.h **** 			 *
 822:../lufa-LUFA/LUFA/Drivers/USB/LowLevel/Endpoint.h **** 			 *  \return A value from the \ref Endpoint_WaitUntilReady_ErrorCodes_t enum.
 823:../lufa-LUFA/LUFA/Drivers/USB/LowLevel/Endpoint.h **** 			 */
 824:../lufa-LUFA/LUFA/Drivers/USB/LowLevel/Endpoint.h **** 			uint8_t Endpoint_WaitUntilReady(void);
 825:../lufa-LUFA/LUFA/Drivers/USB/LowLevel/Endpoint.h **** 			
 826:../lufa-LUFA/LUFA/Drivers/USB/LowLevel/Endpoint.h **** 			/** Completes the status stage of a control transfer on a CONTROL type endpoint automatically,
 827:../lufa-LUFA/LUFA/Drivers/USB/LowLevel/Endpoint.h **** 			 *  with respect to the data direction. This is a convenience function which can be used to
 828:../lufa-LUFA/LUFA/Drivers/USB/LowLevel/Endpoint.h **** 			 *  simplify user control request handling.
 829:../lufa-LUFA/LUFA/Drivers/USB/LowLevel/Endpoint.h **** 			 */
 830:../lufa-LUFA/LUFA/Drivers/USB/LowLevel/Endpoint.h **** 			void Endpoint_ClearStatusStage(void);
 831:../lufa-LUFA/LUFA/Drivers/USB/LowLevel/Endpoint.h **** 
 832:../lufa-LUFA/LUFA/Drivers/USB/LowLevel/Endpoint.h **** 			/** Reads and discards the given number of bytes from the endpoint from the given buffer,
 833:../lufa-LUFA/LUFA/Drivers/USB/LowLevel/Endpoint.h **** 			 *  discarding fully read packets from the host as needed. The last packet is not automatically
 834:../lufa-LUFA/LUFA/Drivers/USB/LowLevel/Endpoint.h **** 			 *  discarded once the remaining bytes has been read; the user is responsible for manually
 835:../lufa-LUFA/LUFA/Drivers/USB/LowLevel/Endpoint.h **** 			 *  discarding the last packet from the host via the \ref Endpoint_ClearOUT() macro. Between
 836:../lufa-LUFA/LUFA/Drivers/USB/LowLevel/Endpoint.h **** 			 *  each USB packet, the given stream callback function is executed repeatedly until the next
 837:../lufa-LUFA/LUFA/Drivers/USB/LowLevel/Endpoint.h **** 			 *  packet is ready, allowing for early aborts of stream transfers.
 838:../lufa-LUFA/LUFA/Drivers/USB/LowLevel/Endpoint.h **** 			 *
 839:../lufa-LUFA/LUFA/Drivers/USB/LowLevel/Endpoint.h **** 			 *	The callback routine should be created according to the information in \ref Group_StreamCallb
 840:../lufa-LUFA/LUFA/Drivers/USB/LowLevel/Endpoint.h **** 			 *  If the token NO_STREAM_CALLBACKS is passed via the -D option to the compiler, stream callbac
 841:../lufa-LUFA/LUFA/Drivers/USB/LowLevel/Endpoint.h **** 			 *  disabled and this function has the Callback parameter omitted.
 842:../lufa-LUFA/LUFA/Drivers/USB/LowLevel/Endpoint.h **** 			 *
 843:../lufa-LUFA/LUFA/Drivers/USB/LowLevel/Endpoint.h **** 			 *  \note This routine should not be used on CONTROL type endpoints.
 844:../lufa-LUFA/LUFA/Drivers/USB/LowLevel/Endpoint.h **** 			 *
 845:../lufa-LUFA/LUFA/Drivers/USB/LowLevel/Endpoint.h **** 			 *  \ingroup Group_EndpointStreamRW
 846:../lufa-LUFA/LUFA/Drivers/USB/LowLevel/Endpoint.h **** 			 *
 847:../lufa-LUFA/LUFA/Drivers/USB/LowLevel/Endpoint.h **** 			 *  \param[in] Length    Number of bytes to send via the currently selected endpoint.
 848:../lufa-LUFA/LUFA/Drivers/USB/LowLevel/Endpoint.h **** 			 *  \param[in] Callback  Name of a callback routine to call between successive USB packet transf
 849:../lufa-LUFA/LUFA/Drivers/USB/LowLevel/Endpoint.h **** 			 *
 850:../lufa-LUFA/LUFA/Drivers/USB/LowLevel/Endpoint.h **** 			 *  \return A value from the \ref Endpoint_Stream_RW_ErrorCodes_t enum.
 851:../lufa-LUFA/LUFA/Drivers/USB/LowLevel/Endpoint.h **** 			 */
 852:../lufa-LUFA/LUFA/Drivers/USB/LowLevel/Endpoint.h **** 			uint8_t Endpoint_Discard_Stream(uint16_t Length
 853:../lufa-LUFA/LUFA/Drivers/USB/LowLevel/Endpoint.h **** 			                                __CALLBACK_PARAM);
 854:../lufa-LUFA/LUFA/Drivers/USB/LowLevel/Endpoint.h **** 
 855:../lufa-LUFA/LUFA/Drivers/USB/LowLevel/Endpoint.h **** 			/** Writes the given number of bytes to the endpoint from the given buffer in little endian,
 856:../lufa-LUFA/LUFA/Drivers/USB/LowLevel/Endpoint.h **** 			 *  sending full packets to the host as needed. The last packet filled is not automatically sent
 857:../lufa-LUFA/LUFA/Drivers/USB/LowLevel/Endpoint.h **** 			 *  the user is responsible for manually sending the last written packet to the host via the
 858:../lufa-LUFA/LUFA/Drivers/USB/LowLevel/Endpoint.h **** 			 *  \ref Endpoint_ClearIN() macro. Between each USB packet, the given stream callback function
 859:../lufa-LUFA/LUFA/Drivers/USB/LowLevel/Endpoint.h **** 			 *  is executed repeatedly until the endpoint is ready to accept the next packet, allowing for e
 860:../lufa-LUFA/LUFA/Drivers/USB/LowLevel/Endpoint.h **** 			 *  aborts of stream transfers.
 861:../lufa-LUFA/LUFA/Drivers/USB/LowLevel/Endpoint.h **** 			 *
 862:../lufa-LUFA/LUFA/Drivers/USB/LowLevel/Endpoint.h **** 			 *	The callback routine should be created according to the information in \ref Group_StreamCallb
 863:../lufa-LUFA/LUFA/Drivers/USB/LowLevel/Endpoint.h **** 			 *  If the token NO_STREAM_CALLBACKS is passed via the -D option to the compiler, stream callbac
 864:../lufa-LUFA/LUFA/Drivers/USB/LowLevel/Endpoint.h **** 			 *  disabled and this function has the Callback parameter omitted.
 865:../lufa-LUFA/LUFA/Drivers/USB/LowLevel/Endpoint.h **** 			 *
 866:../lufa-LUFA/LUFA/Drivers/USB/LowLevel/Endpoint.h **** 			 *  \note This routine should not be used on CONTROL type endpoints.
 867:../lufa-LUFA/LUFA/Drivers/USB/LowLevel/Endpoint.h **** 			 *
 868:../lufa-LUFA/LUFA/Drivers/USB/LowLevel/Endpoint.h **** 			 *  \ingroup Group_EndpointStreamRW
 869:../lufa-LUFA/LUFA/Drivers/USB/LowLevel/Endpoint.h **** 			 *
 870:../lufa-LUFA/LUFA/Drivers/USB/LowLevel/Endpoint.h **** 			 *  \param[in] Buffer    Pointer to the source data buffer to read from.
 871:../lufa-LUFA/LUFA/Drivers/USB/LowLevel/Endpoint.h **** 			 *  \param[in] Length    Number of bytes to read for the currently selected endpoint into the bu
 872:../lufa-LUFA/LUFA/Drivers/USB/LowLevel/Endpoint.h **** 			 *  \param[in] Callback  Name of a callback routine to call between successive USB packet transf
 873:../lufa-LUFA/LUFA/Drivers/USB/LowLevel/Endpoint.h **** 			 *
 874:../lufa-LUFA/LUFA/Drivers/USB/LowLevel/Endpoint.h **** 			 *  \return A value from the \ref Endpoint_Stream_RW_ErrorCodes_t enum.
 875:../lufa-LUFA/LUFA/Drivers/USB/LowLevel/Endpoint.h **** 			 */
 876:../lufa-LUFA/LUFA/Drivers/USB/LowLevel/Endpoint.h **** 			uint8_t Endpoint_Write_Stream_LE(const void* Buffer,
 877:../lufa-LUFA/LUFA/Drivers/USB/LowLevel/Endpoint.h **** 			                                 uint16_t Length
 878:../lufa-LUFA/LUFA/Drivers/USB/LowLevel/Endpoint.h **** 			                                 __CALLBACK_PARAM) ATTR_NON_NULL_PTR_ARG(1);
 879:../lufa-LUFA/LUFA/Drivers/USB/LowLevel/Endpoint.h **** 
 880:../lufa-LUFA/LUFA/Drivers/USB/LowLevel/Endpoint.h **** 			/** EEPROM buffer source version of \ref Endpoint_Write_Stream_LE().
 881:../lufa-LUFA/LUFA/Drivers/USB/LowLevel/Endpoint.h **** 			 *
 882:../lufa-LUFA/LUFA/Drivers/USB/LowLevel/Endpoint.h **** 			 *  \ingroup Group_EndpointStreamRW
 883:../lufa-LUFA/LUFA/Drivers/USB/LowLevel/Endpoint.h **** 			 *
 884:../lufa-LUFA/LUFA/Drivers/USB/LowLevel/Endpoint.h **** 			 *  \param[in] Buffer    Pointer to the source data buffer to read from.
 885:../lufa-LUFA/LUFA/Drivers/USB/LowLevel/Endpoint.h **** 			 *  \param[in] Length    Number of bytes to read for the currently selected endpoint into the bu
 886:../lufa-LUFA/LUFA/Drivers/USB/LowLevel/Endpoint.h **** 			 *  \param[in] Callback  Name of a callback routine to call between successive USB packet transf
 887:../lufa-LUFA/LUFA/Drivers/USB/LowLevel/Endpoint.h **** 			 *
 888:../lufa-LUFA/LUFA/Drivers/USB/LowLevel/Endpoint.h **** 			 *  \return A value from the \ref Endpoint_Stream_RW_ErrorCodes_t enum.
 889:../lufa-LUFA/LUFA/Drivers/USB/LowLevel/Endpoint.h **** 			 */
 890:../lufa-LUFA/LUFA/Drivers/USB/LowLevel/Endpoint.h **** 			uint8_t Endpoint_Write_EStream_LE(const void* Buffer,
 891:../lufa-LUFA/LUFA/Drivers/USB/LowLevel/Endpoint.h **** 			                                  uint16_t Length
 892:../lufa-LUFA/LUFA/Drivers/USB/LowLevel/Endpoint.h **** 			                                  __CALLBACK_PARAM) ATTR_NON_NULL_PTR_ARG(1);
 893:../lufa-LUFA/LUFA/Drivers/USB/LowLevel/Endpoint.h **** 
 894:../lufa-LUFA/LUFA/Drivers/USB/LowLevel/Endpoint.h **** 			/** FLASH buffer source version of \ref Endpoint_Write_Stream_LE().
 895:../lufa-LUFA/LUFA/Drivers/USB/LowLevel/Endpoint.h **** 			 *
 896:../lufa-LUFA/LUFA/Drivers/USB/LowLevel/Endpoint.h **** 			 *  \pre The FLASH data must be located in the first 64KB of FLASH for this function to work cor
 897:../lufa-LUFA/LUFA/Drivers/USB/LowLevel/Endpoint.h **** 			 *
 898:../lufa-LUFA/LUFA/Drivers/USB/LowLevel/Endpoint.h **** 			 *  \ingroup Group_EndpointStreamRW
 899:../lufa-LUFA/LUFA/Drivers/USB/LowLevel/Endpoint.h **** 			 *
 900:../lufa-LUFA/LUFA/Drivers/USB/LowLevel/Endpoint.h **** 			 *  \param[in] Buffer    Pointer to the source data buffer to read from.
 901:../lufa-LUFA/LUFA/Drivers/USB/LowLevel/Endpoint.h **** 			 *  \param[in] Length    Number of bytes to read for the currently selected endpoint into the bu
 902:../lufa-LUFA/LUFA/Drivers/USB/LowLevel/Endpoint.h **** 			 *  \param[in] Callback  Name of a callback routine to call between successive USB packet transf
 903:../lufa-LUFA/LUFA/Drivers/USB/LowLevel/Endpoint.h **** 			 *
 904:../lufa-LUFA/LUFA/Drivers/USB/LowLevel/Endpoint.h **** 			 *  \return A value from the \ref Endpoint_Stream_RW_ErrorCodes_t enum.
 905:../lufa-LUFA/LUFA/Drivers/USB/LowLevel/Endpoint.h **** 			 */
 906:../lufa-LUFA/LUFA/Drivers/USB/LowLevel/Endpoint.h **** 			uint8_t Endpoint_Write_PStream_LE(const void* Buffer,
 907:../lufa-LUFA/LUFA/Drivers/USB/LowLevel/Endpoint.h **** 			                                  uint16_t Length
 908:../lufa-LUFA/LUFA/Drivers/USB/LowLevel/Endpoint.h **** 			                                  __CALLBACK_PARAM) ATTR_NON_NULL_PTR_ARG(1);
 909:../lufa-LUFA/LUFA/Drivers/USB/LowLevel/Endpoint.h **** 
 910:../lufa-LUFA/LUFA/Drivers/USB/LowLevel/Endpoint.h **** 			/** Writes the given number of bytes to the endpoint from the given buffer in big endian,
 911:../lufa-LUFA/LUFA/Drivers/USB/LowLevel/Endpoint.h **** 			 *  sending full packets to the host as needed. The last packet filled is not automatically sent
 912:../lufa-LUFA/LUFA/Drivers/USB/LowLevel/Endpoint.h **** 			 *  the user is responsible for manually sending the last written packet to the host via the
 913:../lufa-LUFA/LUFA/Drivers/USB/LowLevel/Endpoint.h **** 			 *  \ref Endpoint_ClearIN() macro. Between each USB packet, the given stream callback function
 914:../lufa-LUFA/LUFA/Drivers/USB/LowLevel/Endpoint.h **** 			 *  is executed repeatedly until the endpoint is ready to accept the next packet, allowing for e
 915:../lufa-LUFA/LUFA/Drivers/USB/LowLevel/Endpoint.h **** 			 *  aborts of stream transfers.
 916:../lufa-LUFA/LUFA/Drivers/USB/LowLevel/Endpoint.h **** 			 *
 917:../lufa-LUFA/LUFA/Drivers/USB/LowLevel/Endpoint.h **** 			 *	The callback routine should be created according to the information in \ref Group_StreamCallb
 918:../lufa-LUFA/LUFA/Drivers/USB/LowLevel/Endpoint.h **** 			 *  If the token NO_STREAM_CALLBACKS is passed via the -D option to the compiler, stream callbac
 919:../lufa-LUFA/LUFA/Drivers/USB/LowLevel/Endpoint.h **** 			 *  disabled and this function has the Callback parameter omitted.
 920:../lufa-LUFA/LUFA/Drivers/USB/LowLevel/Endpoint.h **** 			 *
 921:../lufa-LUFA/LUFA/Drivers/USB/LowLevel/Endpoint.h **** 			 *  \note This routine should not be used on CONTROL type endpoints.
 922:../lufa-LUFA/LUFA/Drivers/USB/LowLevel/Endpoint.h **** 			 *
 923:../lufa-LUFA/LUFA/Drivers/USB/LowLevel/Endpoint.h **** 			 *  \ingroup Group_EndpointStreamRW
 924:../lufa-LUFA/LUFA/Drivers/USB/LowLevel/Endpoint.h **** 			 *
 925:../lufa-LUFA/LUFA/Drivers/USB/LowLevel/Endpoint.h **** 			 *  \param[in] Buffer    Pointer to the source data buffer to read from.
 926:../lufa-LUFA/LUFA/Drivers/USB/LowLevel/Endpoint.h **** 			 *  \param[in] Length    Number of bytes to read for the currently selected endpoint into the bu
 927:../lufa-LUFA/LUFA/Drivers/USB/LowLevel/Endpoint.h **** 			 *  \param[in] Callback  Name of a callback routine to call between successive USB packet transf
 928:../lufa-LUFA/LUFA/Drivers/USB/LowLevel/Endpoint.h **** 			 *
 929:../lufa-LUFA/LUFA/Drivers/USB/LowLevel/Endpoint.h **** 			 *  \return A value from the \ref Endpoint_Stream_RW_ErrorCodes_t enum.
 930:../lufa-LUFA/LUFA/Drivers/USB/LowLevel/Endpoint.h **** 			 */
 931:../lufa-LUFA/LUFA/Drivers/USB/LowLevel/Endpoint.h **** 			uint8_t Endpoint_Write_Stream_BE(const void* Buffer,
 932:../lufa-LUFA/LUFA/Drivers/USB/LowLevel/Endpoint.h **** 			                                 uint16_t Length
 933:../lufa-LUFA/LUFA/Drivers/USB/LowLevel/Endpoint.h **** 			                                 __CALLBACK_PARAM) ATTR_NON_NULL_PTR_ARG(1);
 934:../lufa-LUFA/LUFA/Drivers/USB/LowLevel/Endpoint.h **** 
 935:../lufa-LUFA/LUFA/Drivers/USB/LowLevel/Endpoint.h **** 			/** EEPROM buffer source version of \ref Endpoint_Write_Stream_BE().
 936:../lufa-LUFA/LUFA/Drivers/USB/LowLevel/Endpoint.h **** 			 *
 937:../lufa-LUFA/LUFA/Drivers/USB/LowLevel/Endpoint.h **** 			 *  \ingroup Group_EndpointStreamRW
 938:../lufa-LUFA/LUFA/Drivers/USB/LowLevel/Endpoint.h **** 			 *
 939:../lufa-LUFA/LUFA/Drivers/USB/LowLevel/Endpoint.h **** 			 *  \param[in] Buffer    Pointer to the source data buffer to read from.
 940:../lufa-LUFA/LUFA/Drivers/USB/LowLevel/Endpoint.h **** 			 *  \param[in] Length    Number of bytes to read for the currently selected endpoint into the bu
 941:../lufa-LUFA/LUFA/Drivers/USB/LowLevel/Endpoint.h **** 			 *  \param[in] Callback  Name of a callback routine to call between successive USB packet transf
 942:../lufa-LUFA/LUFA/Drivers/USB/LowLevel/Endpoint.h **** 			 *
 943:../lufa-LUFA/LUFA/Drivers/USB/LowLevel/Endpoint.h **** 			 *  \return A value from the \ref Endpoint_Stream_RW_ErrorCodes_t enum.
 944:../lufa-LUFA/LUFA/Drivers/USB/LowLevel/Endpoint.h **** 			 */
 945:../lufa-LUFA/LUFA/Drivers/USB/LowLevel/Endpoint.h **** 			uint8_t Endpoint_Write_EStream_BE(const void* Buffer,
 946:../lufa-LUFA/LUFA/Drivers/USB/LowLevel/Endpoint.h **** 			                                  uint16_t Length
 947:../lufa-LUFA/LUFA/Drivers/USB/LowLevel/Endpoint.h **** 			                                  __CALLBACK_PARAM) ATTR_NON_NULL_PTR_ARG(1);
 948:../lufa-LUFA/LUFA/Drivers/USB/LowLevel/Endpoint.h **** 
 949:../lufa-LUFA/LUFA/Drivers/USB/LowLevel/Endpoint.h **** 			/** FLASH buffer source version of \ref Endpoint_Write_Stream_BE().
 950:../lufa-LUFA/LUFA/Drivers/USB/LowLevel/Endpoint.h **** 			 *
 951:../lufa-LUFA/LUFA/Drivers/USB/LowLevel/Endpoint.h **** 			 *  \pre The FLASH data must be located in the first 64KB of FLASH for this function to work cor
 952:../lufa-LUFA/LUFA/Drivers/USB/LowLevel/Endpoint.h **** 			 *
 953:../lufa-LUFA/LUFA/Drivers/USB/LowLevel/Endpoint.h **** 			 *  \ingroup Group_EndpointStreamRW
 954:../lufa-LUFA/LUFA/Drivers/USB/LowLevel/Endpoint.h **** 			 *
 955:../lufa-LUFA/LUFA/Drivers/USB/LowLevel/Endpoint.h **** 			 *  \param[in] Buffer    Pointer to the source data buffer to read from.
 956:../lufa-LUFA/LUFA/Drivers/USB/LowLevel/Endpoint.h **** 			 *  \param[in] Length    Number of bytes to read for the currently selected endpoint into the bu
 957:../lufa-LUFA/LUFA/Drivers/USB/LowLevel/Endpoint.h **** 			 *  \param[in] Callback  Name of a callback routine to call between successive USB packet transf
 958:../lufa-LUFA/LUFA/Drivers/USB/LowLevel/Endpoint.h **** 			 *
 959:../lufa-LUFA/LUFA/Drivers/USB/LowLevel/Endpoint.h **** 			 *  \return A value from the \ref Endpoint_Stream_RW_ErrorCodes_t enum.
 960:../lufa-LUFA/LUFA/Drivers/USB/LowLevel/Endpoint.h **** 			 */
 961:../lufa-LUFA/LUFA/Drivers/USB/LowLevel/Endpoint.h **** 			uint8_t Endpoint_Write_PStream_BE(const void* Buffer,
 962:../lufa-LUFA/LUFA/Drivers/USB/LowLevel/Endpoint.h **** 			                                  uint16_t Length
 963:../lufa-LUFA/LUFA/Drivers/USB/LowLevel/Endpoint.h **** 			                                  __CALLBACK_PARAM) ATTR_NON_NULL_PTR_ARG(1);
 964:../lufa-LUFA/LUFA/Drivers/USB/LowLevel/Endpoint.h **** 
 965:../lufa-LUFA/LUFA/Drivers/USB/LowLevel/Endpoint.h **** 			/** Reads the given number of bytes from the endpoint from the given buffer in little endian,
 966:../lufa-LUFA/LUFA/Drivers/USB/LowLevel/Endpoint.h **** 			 *  discarding fully read packets from the host as needed. The last packet is not automatically
 967:../lufa-LUFA/LUFA/Drivers/USB/LowLevel/Endpoint.h **** 			 *  discarded once the remaining bytes has been read; the user is responsible for manually
 968:../lufa-LUFA/LUFA/Drivers/USB/LowLevel/Endpoint.h **** 			 *  discarding the last packet from the host via the \ref Endpoint_ClearOUT() macro. Between
 969:../lufa-LUFA/LUFA/Drivers/USB/LowLevel/Endpoint.h **** 			 *  each USB packet, the given stream callback function is executed repeatedly until the endpoin
 970:../lufa-LUFA/LUFA/Drivers/USB/LowLevel/Endpoint.h **** 			 *  is ready to accept the next packet, allowing for early aborts of stream transfers.
 971:../lufa-LUFA/LUFA/Drivers/USB/LowLevel/Endpoint.h **** 			 *
 972:../lufa-LUFA/LUFA/Drivers/USB/LowLevel/Endpoint.h **** 			 *	The callback routine should be created according to the information in \ref Group_StreamCallb
 973:../lufa-LUFA/LUFA/Drivers/USB/LowLevel/Endpoint.h **** 			 *  If the token NO_STREAM_CALLBACKS is passed via the -D option to the compiler, stream callbac
 974:../lufa-LUFA/LUFA/Drivers/USB/LowLevel/Endpoint.h **** 			 *  disabled and this function has the Callback parameter omitted.
 975:../lufa-LUFA/LUFA/Drivers/USB/LowLevel/Endpoint.h **** 			 *
 976:../lufa-LUFA/LUFA/Drivers/USB/LowLevel/Endpoint.h **** 			 *  \note This routine should not be used on CONTROL type endpoints.
 977:../lufa-LUFA/LUFA/Drivers/USB/LowLevel/Endpoint.h **** 			 *
 978:../lufa-LUFA/LUFA/Drivers/USB/LowLevel/Endpoint.h **** 			 *  \ingroup Group_EndpointStreamRW
 979:../lufa-LUFA/LUFA/Drivers/USB/LowLevel/Endpoint.h **** 			 *
 980:../lufa-LUFA/LUFA/Drivers/USB/LowLevel/Endpoint.h **** 			 *  \param[out] Buffer    Pointer to the destination data buffer to write to.
 981:../lufa-LUFA/LUFA/Drivers/USB/LowLevel/Endpoint.h **** 			 *  \param[in]  Length    Number of bytes to send via the currently selected endpoint.
 982:../lufa-LUFA/LUFA/Drivers/USB/LowLevel/Endpoint.h **** 			 *  \param[in]  Callback  Name of a callback routine to call between successive USB packet trans
 983:../lufa-LUFA/LUFA/Drivers/USB/LowLevel/Endpoint.h **** 			 *
 984:../lufa-LUFA/LUFA/Drivers/USB/LowLevel/Endpoint.h **** 			 *  \return A value from the \ref Endpoint_Stream_RW_ErrorCodes_t enum.
 985:../lufa-LUFA/LUFA/Drivers/USB/LowLevel/Endpoint.h **** 			 */
 986:../lufa-LUFA/LUFA/Drivers/USB/LowLevel/Endpoint.h **** 			uint8_t Endpoint_Read_Stream_LE(void* Buffer,
 987:../lufa-LUFA/LUFA/Drivers/USB/LowLevel/Endpoint.h **** 			                                uint16_t Length
 988:../lufa-LUFA/LUFA/Drivers/USB/LowLevel/Endpoint.h **** 			                                __CALLBACK_PARAM) ATTR_NON_NULL_PTR_ARG(1);
 989:../lufa-LUFA/LUFA/Drivers/USB/LowLevel/Endpoint.h **** 
 990:../lufa-LUFA/LUFA/Drivers/USB/LowLevel/Endpoint.h **** 			/** EEPROM buffer source version of \ref Endpoint_Read_Stream_LE().
 991:../lufa-LUFA/LUFA/Drivers/USB/LowLevel/Endpoint.h **** 			 *
 992:../lufa-LUFA/LUFA/Drivers/USB/LowLevel/Endpoint.h **** 			 *  \ingroup Group_EndpointStreamRW
 993:../lufa-LUFA/LUFA/Drivers/USB/LowLevel/Endpoint.h **** 			 *
 994:../lufa-LUFA/LUFA/Drivers/USB/LowLevel/Endpoint.h **** 			 *  \param[out] Buffer    Pointer to the destination data buffer to write to, located in EEPROM 
 995:../lufa-LUFA/LUFA/Drivers/USB/LowLevel/Endpoint.h **** 			 *  \param[in]  Length    Number of bytes to send via the currently selected endpoint.
 996:../lufa-LUFA/LUFA/Drivers/USB/LowLevel/Endpoint.h **** 			 *  \param[in]  Callback  Name of a callback routine to call between successive USB packet trans
 997:../lufa-LUFA/LUFA/Drivers/USB/LowLevel/Endpoint.h **** 			 *
 998:../lufa-LUFA/LUFA/Drivers/USB/LowLevel/Endpoint.h **** 			 *  \return A value from the \ref Endpoint_Stream_RW_ErrorCodes_t enum.
 999:../lufa-LUFA/LUFA/Drivers/USB/LowLevel/Endpoint.h **** 			 */
1000:../lufa-LUFA/LUFA/Drivers/USB/LowLevel/Endpoint.h **** 			uint8_t Endpoint_Read_EStream_LE(void* Buffer,
1001:../lufa-LUFA/LUFA/Drivers/USB/LowLevel/Endpoint.h **** 			                                 uint16_t Length
1002:../lufa-LUFA/LUFA/Drivers/USB/LowLevel/Endpoint.h **** 			                                 __CALLBACK_PARAM) ATTR_NON_NULL_PTR_ARG(1);
1003:../lufa-LUFA/LUFA/Drivers/USB/LowLevel/Endpoint.h **** 			
1004:../lufa-LUFA/LUFA/Drivers/USB/LowLevel/Endpoint.h **** 			/** Reads the given number of bytes from the endpoint from the given buffer in big endian,
1005:../lufa-LUFA/LUFA/Drivers/USB/LowLevel/Endpoint.h **** 			 *  discarding fully read packets from the host as needed. The last packet is not automatically
1006:../lufa-LUFA/LUFA/Drivers/USB/LowLevel/Endpoint.h **** 			 *  discarded once the remaining bytes has been read; the user is responsible for manually
1007:../lufa-LUFA/LUFA/Drivers/USB/LowLevel/Endpoint.h **** 			 *  discarding the last packet from the host via the \ref Endpoint_ClearOUT() macro. Between
1008:../lufa-LUFA/LUFA/Drivers/USB/LowLevel/Endpoint.h **** 			 *  each USB packet, the given stream callback function is executed repeatedly until the endpoin
1009:../lufa-LUFA/LUFA/Drivers/USB/LowLevel/Endpoint.h **** 			 *  is ready to accept the next packet, allowing for early aborts of stream transfers.
1010:../lufa-LUFA/LUFA/Drivers/USB/LowLevel/Endpoint.h **** 			 *
1011:../lufa-LUFA/LUFA/Drivers/USB/LowLevel/Endpoint.h **** 			 *	The callback routine should be created according to the information in \ref Group_StreamCallb
1012:../lufa-LUFA/LUFA/Drivers/USB/LowLevel/Endpoint.h **** 			 *  If the token NO_STREAM_CALLBACKS is passed via the -D option to the compiler, stream callbac
1013:../lufa-LUFA/LUFA/Drivers/USB/LowLevel/Endpoint.h **** 			 *  disabled and this function has the Callback parameter omitted.
1014:../lufa-LUFA/LUFA/Drivers/USB/LowLevel/Endpoint.h **** 			 *
1015:../lufa-LUFA/LUFA/Drivers/USB/LowLevel/Endpoint.h **** 			 *  \note This routine should not be used on CONTROL type endpoints.
1016:../lufa-LUFA/LUFA/Drivers/USB/LowLevel/Endpoint.h **** 			 *
1017:../lufa-LUFA/LUFA/Drivers/USB/LowLevel/Endpoint.h **** 			 *  \ingroup Group_EndpointStreamRW
1018:../lufa-LUFA/LUFA/Drivers/USB/LowLevel/Endpoint.h **** 			 *
1019:../lufa-LUFA/LUFA/Drivers/USB/LowLevel/Endpoint.h **** 			 *  \param[out] Buffer    Pointer to the destination data buffer to write to.
1020:../lufa-LUFA/LUFA/Drivers/USB/LowLevel/Endpoint.h **** 			 *  \param[in]  Length    Number of bytes to send via the currently selected endpoint.
1021:../lufa-LUFA/LUFA/Drivers/USB/LowLevel/Endpoint.h **** 			 *  \param[in]  Callback  Name of a callback routine to call between successive USB packet trans
1022:../lufa-LUFA/LUFA/Drivers/USB/LowLevel/Endpoint.h **** 			 *
1023:../lufa-LUFA/LUFA/Drivers/USB/LowLevel/Endpoint.h **** 			 *  \return A value from the \ref Endpoint_Stream_RW_ErrorCodes_t enum.
1024:../lufa-LUFA/LUFA/Drivers/USB/LowLevel/Endpoint.h **** 			 */
1025:../lufa-LUFA/LUFA/Drivers/USB/LowLevel/Endpoint.h **** 			uint8_t Endpoint_Read_Stream_BE(void* Buffer,
1026:../lufa-LUFA/LUFA/Drivers/USB/LowLevel/Endpoint.h **** 			                                uint16_t Length
1027:../lufa-LUFA/LUFA/Drivers/USB/LowLevel/Endpoint.h **** 			                                __CALLBACK_PARAM) ATTR_NON_NULL_PTR_ARG(1);
1028:../lufa-LUFA/LUFA/Drivers/USB/LowLevel/Endpoint.h **** 
1029:../lufa-LUFA/LUFA/Drivers/USB/LowLevel/Endpoint.h **** 			/** EEPROM buffer source version of \ref Endpoint_Read_Stream_BE().
1030:../lufa-LUFA/LUFA/Drivers/USB/LowLevel/Endpoint.h **** 			 *
1031:../lufa-LUFA/LUFA/Drivers/USB/LowLevel/Endpoint.h **** 			 *  \ingroup Group_EndpointStreamRW
1032:../lufa-LUFA/LUFA/Drivers/USB/LowLevel/Endpoint.h **** 			 *
1033:../lufa-LUFA/LUFA/Drivers/USB/LowLevel/Endpoint.h **** 			 *  \param[out] Buffer    Pointer to the destination data buffer to write to, located in EEPROM 
1034:../lufa-LUFA/LUFA/Drivers/USB/LowLevel/Endpoint.h **** 			 *  \param[in]  Length    Number of bytes to send via the currently selected endpoint.
1035:../lufa-LUFA/LUFA/Drivers/USB/LowLevel/Endpoint.h **** 			 *  \param[in]  Callback  Name of a callback routine to call between successive USB packet trans
1036:../lufa-LUFA/LUFA/Drivers/USB/LowLevel/Endpoint.h **** 			 *
1037:../lufa-LUFA/LUFA/Drivers/USB/LowLevel/Endpoint.h **** 			 *  \return A value from the \ref Endpoint_Stream_RW_ErrorCodes_t enum.
1038:../lufa-LUFA/LUFA/Drivers/USB/LowLevel/Endpoint.h **** 			 */
1039:../lufa-LUFA/LUFA/Drivers/USB/LowLevel/Endpoint.h **** 			uint8_t Endpoint_Read_EStream_BE(void* Buffer,
1040:../lufa-LUFA/LUFA/Drivers/USB/LowLevel/Endpoint.h **** 			                                 uint16_t Length
1041:../lufa-LUFA/LUFA/Drivers/USB/LowLevel/Endpoint.h **** 			                                 __CALLBACK_PARAM) ATTR_NON_NULL_PTR_ARG(1);
1042:../lufa-LUFA/LUFA/Drivers/USB/LowLevel/Endpoint.h **** 
1043:../lufa-LUFA/LUFA/Drivers/USB/LowLevel/Endpoint.h **** 			/** Writes the given number of bytes to the CONTROL type endpoint from the given buffer in littl
1044:../lufa-LUFA/LUFA/Drivers/USB/LowLevel/Endpoint.h **** 			 *  sending full packets to the host as needed. The host OUT acknowledgement is not automaticall
1045:../lufa-LUFA/LUFA/Drivers/USB/LowLevel/Endpoint.h **** 			 *  in both failure and success states; the user is responsible for manually clearing the setup 
1046:../lufa-LUFA/LUFA/Drivers/USB/LowLevel/Endpoint.h **** 			 *  finalize the transfer via the \ref Endpoint_ClearOUT() macro.
1047:../lufa-LUFA/LUFA/Drivers/USB/LowLevel/Endpoint.h **** 			 *
1048:../lufa-LUFA/LUFA/Drivers/USB/LowLevel/Endpoint.h **** 			 *  \note This function automatically clears the control transfer's status stage. Do not manuall
1049:../lufa-LUFA/LUFA/Drivers/USB/LowLevel/Endpoint.h **** 			 *        to clear the status stage when using this routine in a control transaction.
1050:../lufa-LUFA/LUFA/Drivers/USB/LowLevel/Endpoint.h **** 			 *        \n\n
1051:../lufa-LUFA/LUFA/Drivers/USB/LowLevel/Endpoint.h **** 			 *
1052:../lufa-LUFA/LUFA/Drivers/USB/LowLevel/Endpoint.h **** 			 *  \note This routine should only be used on CONTROL type endpoints.
1053:../lufa-LUFA/LUFA/Drivers/USB/LowLevel/Endpoint.h **** 			 *
1054:../lufa-LUFA/LUFA/Drivers/USB/LowLevel/Endpoint.h **** 			 *  \warning Unlike the standard stream read/write commands, the control stream commands cannot 
1055:../lufa-LUFA/LUFA/Drivers/USB/LowLevel/Endpoint.h **** 			 *           together; i.e. the entire stream data must be read or written at the one time.
1056:../lufa-LUFA/LUFA/Drivers/USB/LowLevel/Endpoint.h **** 			 *
1057:../lufa-LUFA/LUFA/Drivers/USB/LowLevel/Endpoint.h **** 			 *  \ingroup Group_EndpointStreamRW
1058:../lufa-LUFA/LUFA/Drivers/USB/LowLevel/Endpoint.h **** 			 *
1059:../lufa-LUFA/LUFA/Drivers/USB/LowLevel/Endpoint.h **** 			 *  \param[in] Buffer  Pointer to the source data buffer to read from.
1060:../lufa-LUFA/LUFA/Drivers/USB/LowLevel/Endpoint.h **** 			 *  \param[in] Length  Number of bytes to read for the currently selected endpoint into the buff
1061:../lufa-LUFA/LUFA/Drivers/USB/LowLevel/Endpoint.h **** 			 *
1062:../lufa-LUFA/LUFA/Drivers/USB/LowLevel/Endpoint.h **** 			 *  \return A value from the \ref Endpoint_ControlStream_RW_ErrorCodes_t enum.
1063:../lufa-LUFA/LUFA/Drivers/USB/LowLevel/Endpoint.h **** 			 */
1064:../lufa-LUFA/LUFA/Drivers/USB/LowLevel/Endpoint.h **** 			uint8_t Endpoint_Write_Control_Stream_LE(const void* Buffer,
1065:../lufa-LUFA/LUFA/Drivers/USB/LowLevel/Endpoint.h **** 			                                         uint16_t Length) ATTR_NON_NULL_PTR_ARG(1);
1066:../lufa-LUFA/LUFA/Drivers/USB/LowLevel/Endpoint.h **** 
1067:../lufa-LUFA/LUFA/Drivers/USB/LowLevel/Endpoint.h **** 			/** EEPROM buffer source version of Endpoint_Write_Control_Stream_LE.
1068:../lufa-LUFA/LUFA/Drivers/USB/LowLevel/Endpoint.h **** 			 *
1069:../lufa-LUFA/LUFA/Drivers/USB/LowLevel/Endpoint.h **** 			 *  \note This function automatically clears the control transfer's status stage. Do not manuall
1070:../lufa-LUFA/LUFA/Drivers/USB/LowLevel/Endpoint.h **** 			 *        to clear the status stage when using this routine in a control transaction.
1071:../lufa-LUFA/LUFA/Drivers/USB/LowLevel/Endpoint.h **** 			 *        \n\n
1072:../lufa-LUFA/LUFA/Drivers/USB/LowLevel/Endpoint.h **** 			 *
1073:../lufa-LUFA/LUFA/Drivers/USB/LowLevel/Endpoint.h **** 			 *  \note This routine should only be used on CONTROL type endpoints.
1074:../lufa-LUFA/LUFA/Drivers/USB/LowLevel/Endpoint.h **** 			 *
1075:../lufa-LUFA/LUFA/Drivers/USB/LowLevel/Endpoint.h **** 			 *  \warning Unlike the standard stream read/write commands, the control stream commands cannot 
1076:../lufa-LUFA/LUFA/Drivers/USB/LowLevel/Endpoint.h **** 			 *           together; i.e. the entire stream data must be read or written at the one time.
1077:../lufa-LUFA/LUFA/Drivers/USB/LowLevel/Endpoint.h **** 			 *
1078:../lufa-LUFA/LUFA/Drivers/USB/LowLevel/Endpoint.h **** 			 *  \ingroup Group_EndpointStreamRW
1079:../lufa-LUFA/LUFA/Drivers/USB/LowLevel/Endpoint.h **** 			 *
1080:../lufa-LUFA/LUFA/Drivers/USB/LowLevel/Endpoint.h **** 			 *  \param[in] Buffer  Pointer to the source data buffer to read from.
1081:../lufa-LUFA/LUFA/Drivers/USB/LowLevel/Endpoint.h **** 			 *  \param[in] Length  Number of bytes to read for the currently selected endpoint into the buff
1082:../lufa-LUFA/LUFA/Drivers/USB/LowLevel/Endpoint.h **** 			 *
1083:../lufa-LUFA/LUFA/Drivers/USB/LowLevel/Endpoint.h **** 			 *  \return A value from the \ref Endpoint_ControlStream_RW_ErrorCodes_t enum.
1084:../lufa-LUFA/LUFA/Drivers/USB/LowLevel/Endpoint.h **** 			 */
1085:../lufa-LUFA/LUFA/Drivers/USB/LowLevel/Endpoint.h **** 			uint8_t Endpoint_Write_Control_EStream_LE(const void* Buffer,
1086:../lufa-LUFA/LUFA/Drivers/USB/LowLevel/Endpoint.h **** 			                                          uint16_t Length) ATTR_NON_NULL_PTR_ARG(1);
1087:../lufa-LUFA/LUFA/Drivers/USB/LowLevel/Endpoint.h **** 
1088:../lufa-LUFA/LUFA/Drivers/USB/LowLevel/Endpoint.h **** 			/** FLASH buffer source version of \ref Endpoint_Write_Control_Stream_LE().
1089:../lufa-LUFA/LUFA/Drivers/USB/LowLevel/Endpoint.h **** 			 *
1090:../lufa-LUFA/LUFA/Drivers/USB/LowLevel/Endpoint.h **** 			 *  \pre The FLASH data must be located in the first 64KB of FLASH for this function to work cor
1091:../lufa-LUFA/LUFA/Drivers/USB/LowLevel/Endpoint.h **** 			 *
1092:../lufa-LUFA/LUFA/Drivers/USB/LowLevel/Endpoint.h **** 			 *  \note This function automatically clears the control transfer's status stage. Do not manuall
1093:../lufa-LUFA/LUFA/Drivers/USB/LowLevel/Endpoint.h **** 			 *        to clear the status stage when using this routine in a control transaction.
1094:../lufa-LUFA/LUFA/Drivers/USB/LowLevel/Endpoint.h **** 			 *        \n\n
1095:../lufa-LUFA/LUFA/Drivers/USB/LowLevel/Endpoint.h **** 			 *
1096:../lufa-LUFA/LUFA/Drivers/USB/LowLevel/Endpoint.h **** 			 *  \note This routine should only be used on CONTROL type endpoints.
1097:../lufa-LUFA/LUFA/Drivers/USB/LowLevel/Endpoint.h **** 			 *
1098:../lufa-LUFA/LUFA/Drivers/USB/LowLevel/Endpoint.h **** 			 *  \warning Unlike the standard stream read/write commands, the control stream commands cannot 
1099:../lufa-LUFA/LUFA/Drivers/USB/LowLevel/Endpoint.h **** 			 *           together; i.e. the entire stream data must be read or written at the one time.
1100:../lufa-LUFA/LUFA/Drivers/USB/LowLevel/Endpoint.h **** 			 *
1101:../lufa-LUFA/LUFA/Drivers/USB/LowLevel/Endpoint.h **** 			 *  \ingroup Group_EndpointStreamRW
1102:../lufa-LUFA/LUFA/Drivers/USB/LowLevel/Endpoint.h **** 			 *
1103:../lufa-LUFA/LUFA/Drivers/USB/LowLevel/Endpoint.h **** 			 *  \param[in] Buffer  Pointer to the source data buffer to read from.
1104:../lufa-LUFA/LUFA/Drivers/USB/LowLevel/Endpoint.h **** 			 *  \param[in] Length  Number of bytes to read for the currently selected endpoint into the buff
1105:../lufa-LUFA/LUFA/Drivers/USB/LowLevel/Endpoint.h **** 			 *
1106:../lufa-LUFA/LUFA/Drivers/USB/LowLevel/Endpoint.h **** 			 *  \return A value from the \ref Endpoint_ControlStream_RW_ErrorCodes_t enum.
1107:../lufa-LUFA/LUFA/Drivers/USB/LowLevel/Endpoint.h **** 			 */
1108:../lufa-LUFA/LUFA/Drivers/USB/LowLevel/Endpoint.h **** 			uint8_t Endpoint_Write_Control_PStream_LE(const void* Buffer,
1109:../lufa-LUFA/LUFA/Drivers/USB/LowLevel/Endpoint.h **** 			                                          uint16_t Length) ATTR_NON_NULL_PTR_ARG(1);
1110:../lufa-LUFA/LUFA/Drivers/USB/LowLevel/Endpoint.h **** 
1111:../lufa-LUFA/LUFA/Drivers/USB/LowLevel/Endpoint.h **** 			/** Writes the given number of bytes to the CONTROL type endpoint from the given buffer in big e
1112:../lufa-LUFA/LUFA/Drivers/USB/LowLevel/Endpoint.h **** 			 *  sending full packets to the host as needed. The host OUT acknowledgement is not automaticall
1113:../lufa-LUFA/LUFA/Drivers/USB/LowLevel/Endpoint.h **** 			 *  in both failure and success states; the user is responsible for manually clearing the setup 
1114:../lufa-LUFA/LUFA/Drivers/USB/LowLevel/Endpoint.h **** 			 *  finalize the transfer via the \ref Endpoint_ClearOUT() macro.
1115:../lufa-LUFA/LUFA/Drivers/USB/LowLevel/Endpoint.h **** 			 *
1116:../lufa-LUFA/LUFA/Drivers/USB/LowLevel/Endpoint.h **** 			 *  \note This function automatically clears the control transfer's status stage. Do not manuall
1117:../lufa-LUFA/LUFA/Drivers/USB/LowLevel/Endpoint.h **** 			 *        to clear the status stage when using this routine in a control transaction.
1118:../lufa-LUFA/LUFA/Drivers/USB/LowLevel/Endpoint.h **** 			 *        \n\n
1119:../lufa-LUFA/LUFA/Drivers/USB/LowLevel/Endpoint.h **** 			 *
1120:../lufa-LUFA/LUFA/Drivers/USB/LowLevel/Endpoint.h **** 			 *  \note This routine should only be used on CONTROL type endpoints.
1121:../lufa-LUFA/LUFA/Drivers/USB/LowLevel/Endpoint.h **** 			 *
1122:../lufa-LUFA/LUFA/Drivers/USB/LowLevel/Endpoint.h **** 			 *  \warning Unlike the standard stream read/write commands, the control stream commands cannot 
1123:../lufa-LUFA/LUFA/Drivers/USB/LowLevel/Endpoint.h **** 			 *           together; i.e. the entire stream data must be read or written at the one time.
1124:../lufa-LUFA/LUFA/Drivers/USB/LowLevel/Endpoint.h **** 			 *
1125:../lufa-LUFA/LUFA/Drivers/USB/LowLevel/Endpoint.h **** 			 *  \ingroup Group_EndpointStreamRW
1126:../lufa-LUFA/LUFA/Drivers/USB/LowLevel/Endpoint.h **** 			 *
1127:../lufa-LUFA/LUFA/Drivers/USB/LowLevel/Endpoint.h **** 			 *  \param[in] Buffer  Pointer to the source data buffer to read from.
1128:../lufa-LUFA/LUFA/Drivers/USB/LowLevel/Endpoint.h **** 			 *  \param[in] Length  Number of bytes to read for the currently selected endpoint into the buff
1129:../lufa-LUFA/LUFA/Drivers/USB/LowLevel/Endpoint.h **** 			 *
1130:../lufa-LUFA/LUFA/Drivers/USB/LowLevel/Endpoint.h **** 			 *  \return A value from the \ref Endpoint_ControlStream_RW_ErrorCodes_t enum.
1131:../lufa-LUFA/LUFA/Drivers/USB/LowLevel/Endpoint.h **** 			 */
1132:../lufa-LUFA/LUFA/Drivers/USB/LowLevel/Endpoint.h **** 			uint8_t Endpoint_Write_Control_Stream_BE(const void* Buffer,
1133:../lufa-LUFA/LUFA/Drivers/USB/LowLevel/Endpoint.h **** 			                                         uint16_t Length) ATTR_NON_NULL_PTR_ARG(1);
1134:../lufa-LUFA/LUFA/Drivers/USB/LowLevel/Endpoint.h **** 
1135:../lufa-LUFA/LUFA/Drivers/USB/LowLevel/Endpoint.h **** 			/** EEPROM buffer source version of \ref Endpoint_Write_Control_Stream_BE().
1136:../lufa-LUFA/LUFA/Drivers/USB/LowLevel/Endpoint.h **** 			 *
1137:../lufa-LUFA/LUFA/Drivers/USB/LowLevel/Endpoint.h **** 			 *  \note This function automatically clears the control transfer's status stage. Do not manuall
1138:../lufa-LUFA/LUFA/Drivers/USB/LowLevel/Endpoint.h **** 			 *        to clear the status stage when using this routine in a control transaction.
1139:../lufa-LUFA/LUFA/Drivers/USB/LowLevel/Endpoint.h **** 			 *        \n\n
1140:../lufa-LUFA/LUFA/Drivers/USB/LowLevel/Endpoint.h **** 			 *
1141:../lufa-LUFA/LUFA/Drivers/USB/LowLevel/Endpoint.h **** 			 *  \note This routine should only be used on CONTROL type endpoints.
1142:../lufa-LUFA/LUFA/Drivers/USB/LowLevel/Endpoint.h **** 			 *
1143:../lufa-LUFA/LUFA/Drivers/USB/LowLevel/Endpoint.h **** 			 *  \warning Unlike the standard stream read/write commands, the control stream commands cannot 
1144:../lufa-LUFA/LUFA/Drivers/USB/LowLevel/Endpoint.h **** 			 *           together; i.e. the entire stream data must be read or written at the one time.
1145:../lufa-LUFA/LUFA/Drivers/USB/LowLevel/Endpoint.h **** 			 *
1146:../lufa-LUFA/LUFA/Drivers/USB/LowLevel/Endpoint.h **** 			 *  \ingroup Group_EndpointStreamRW
1147:../lufa-LUFA/LUFA/Drivers/USB/LowLevel/Endpoint.h **** 			 *
1148:../lufa-LUFA/LUFA/Drivers/USB/LowLevel/Endpoint.h **** 			 *  \param[in] Buffer  Pointer to the source data buffer to read from.
1149:../lufa-LUFA/LUFA/Drivers/USB/LowLevel/Endpoint.h **** 			 *  \param[in] Length  Number of bytes to read for the currently selected endpoint into the buff
1150:../lufa-LUFA/LUFA/Drivers/USB/LowLevel/Endpoint.h **** 			 *
1151:../lufa-LUFA/LUFA/Drivers/USB/LowLevel/Endpoint.h **** 			 *  \return A value from the \ref Endpoint_ControlStream_RW_ErrorCodes_t enum.
1152:../lufa-LUFA/LUFA/Drivers/USB/LowLevel/Endpoint.h **** 			 */
1153:../lufa-LUFA/LUFA/Drivers/USB/LowLevel/Endpoint.h **** 			uint8_t Endpoint_Write_Control_EStream_BE(const void* Buffer,
1154:../lufa-LUFA/LUFA/Drivers/USB/LowLevel/Endpoint.h **** 			                                          uint16_t Length) ATTR_NON_NULL_PTR_ARG(1);
1155:../lufa-LUFA/LUFA/Drivers/USB/LowLevel/Endpoint.h **** 
1156:../lufa-LUFA/LUFA/Drivers/USB/LowLevel/Endpoint.h **** 			/** FLASH buffer source version of \ref Endpoint_Write_Control_Stream_BE().
1157:../lufa-LUFA/LUFA/Drivers/USB/LowLevel/Endpoint.h **** 			 *
1158:../lufa-LUFA/LUFA/Drivers/USB/LowLevel/Endpoint.h **** 			 *  \pre The FLASH data must be located in the first 64KB of FLASH for this function to work cor
1159:../lufa-LUFA/LUFA/Drivers/USB/LowLevel/Endpoint.h **** 			 *
1160:../lufa-LUFA/LUFA/Drivers/USB/LowLevel/Endpoint.h **** 			 *  \note This function automatically clears the control transfer's status stage. Do not manuall
1161:../lufa-LUFA/LUFA/Drivers/USB/LowLevel/Endpoint.h **** 			 *        to clear the status stage when using this routine in a control transaction.
1162:../lufa-LUFA/LUFA/Drivers/USB/LowLevel/Endpoint.h **** 			 *        \n\n
1163:../lufa-LUFA/LUFA/Drivers/USB/LowLevel/Endpoint.h **** 			 *
1164:../lufa-LUFA/LUFA/Drivers/USB/LowLevel/Endpoint.h **** 			 *  \note This routine should only be used on CONTROL type endpoints.
1165:../lufa-LUFA/LUFA/Drivers/USB/LowLevel/Endpoint.h **** 			 *
1166:../lufa-LUFA/LUFA/Drivers/USB/LowLevel/Endpoint.h **** 			 *  \warning Unlike the standard stream read/write commands, the control stream commands cannot 
1167:../lufa-LUFA/LUFA/Drivers/USB/LowLevel/Endpoint.h **** 			 *           together; i.e. the entire stream data must be read or written at the one time.
1168:../lufa-LUFA/LUFA/Drivers/USB/LowLevel/Endpoint.h **** 			 *
1169:../lufa-LUFA/LUFA/Drivers/USB/LowLevel/Endpoint.h **** 			 *  \ingroup Group_EndpointStreamRW
1170:../lufa-LUFA/LUFA/Drivers/USB/LowLevel/Endpoint.h **** 			 *
1171:../lufa-LUFA/LUFA/Drivers/USB/LowLevel/Endpoint.h **** 			 *  \param[in] Buffer  Pointer to the source data buffer to read from.
1172:../lufa-LUFA/LUFA/Drivers/USB/LowLevel/Endpoint.h **** 			 *  \param[in] Length  Number of bytes to read for the currently selected endpoint into the buff
1173:../lufa-LUFA/LUFA/Drivers/USB/LowLevel/Endpoint.h **** 			 *
1174:../lufa-LUFA/LUFA/Drivers/USB/LowLevel/Endpoint.h **** 			 *  \return A value from the \ref Endpoint_ControlStream_RW_ErrorCodes_t enum.
1175:../lufa-LUFA/LUFA/Drivers/USB/LowLevel/Endpoint.h **** 			 */
1176:../lufa-LUFA/LUFA/Drivers/USB/LowLevel/Endpoint.h **** 			uint8_t Endpoint_Write_Control_PStream_BE(const void* Buffer,
1177:../lufa-LUFA/LUFA/Drivers/USB/LowLevel/Endpoint.h **** 			                                          uint16_t Length) ATTR_NON_NULL_PTR_ARG(1);
1178:../lufa-LUFA/LUFA/Drivers/USB/LowLevel/Endpoint.h **** 
1179:../lufa-LUFA/LUFA/Drivers/USB/LowLevel/Endpoint.h **** 			/** Reads the given number of bytes from the CONTROL endpoint from the given buffer in little en
1180:../lufa-LUFA/LUFA/Drivers/USB/LowLevel/Endpoint.h **** 			 *  discarding fully read packets from the host as needed. The device IN acknowledgement is not
1181:../lufa-LUFA/LUFA/Drivers/USB/LowLevel/Endpoint.h **** 			 *  automatically sent after success or failure states; the user is responsible for manually sen
1182:../lufa-LUFA/LUFA/Drivers/USB/LowLevel/Endpoint.h **** 			 *  setup IN to finalize the transfer via the \ref Endpoint_ClearIN() macro.
1183:../lufa-LUFA/LUFA/Drivers/USB/LowLevel/Endpoint.h **** 			 *
1184:../lufa-LUFA/LUFA/Drivers/USB/LowLevel/Endpoint.h **** 			 *  \note This function automatically clears the control transfer's status stage. Do not manuall
1185:../lufa-LUFA/LUFA/Drivers/USB/LowLevel/Endpoint.h **** 			 *        to clear the status stage when using this routine in a control transaction.
1186:../lufa-LUFA/LUFA/Drivers/USB/LowLevel/Endpoint.h **** 			 *        \n\n
1187:../lufa-LUFA/LUFA/Drivers/USB/LowLevel/Endpoint.h **** 			 *
1188:../lufa-LUFA/LUFA/Drivers/USB/LowLevel/Endpoint.h **** 			 *  \note This routine should only be used on CONTROL type endpoints.
1189:../lufa-LUFA/LUFA/Drivers/USB/LowLevel/Endpoint.h **** 			 *
1190:../lufa-LUFA/LUFA/Drivers/USB/LowLevel/Endpoint.h **** 			 *  \warning Unlike the standard stream read/write commands, the control stream commands cannot 
1191:../lufa-LUFA/LUFA/Drivers/USB/LowLevel/Endpoint.h **** 			 *           together; i.e. the entire stream data must be read or written at the one time.
1192:../lufa-LUFA/LUFA/Drivers/USB/LowLevel/Endpoint.h **** 			 *
1193:../lufa-LUFA/LUFA/Drivers/USB/LowLevel/Endpoint.h **** 			 *  \ingroup Group_EndpointStreamRW
1194:../lufa-LUFA/LUFA/Drivers/USB/LowLevel/Endpoint.h **** 			 *
1195:../lufa-LUFA/LUFA/Drivers/USB/LowLevel/Endpoint.h **** 			 *  \param[out] Buffer  Pointer to the destination data buffer to write to.
1196:../lufa-LUFA/LUFA/Drivers/USB/LowLevel/Endpoint.h **** 			 *  \param[in]  Length  Number of bytes to send via the currently selected endpoint.
1197:../lufa-LUFA/LUFA/Drivers/USB/LowLevel/Endpoint.h **** 			 *
1198:../lufa-LUFA/LUFA/Drivers/USB/LowLevel/Endpoint.h **** 			 *  \return A value from the \ref Endpoint_ControlStream_RW_ErrorCodes_t enum.
1199:../lufa-LUFA/LUFA/Drivers/USB/LowLevel/Endpoint.h **** 			 */
1200:../lufa-LUFA/LUFA/Drivers/USB/LowLevel/Endpoint.h **** 			uint8_t Endpoint_Read_Control_Stream_LE(void* Buffer,
1201:../lufa-LUFA/LUFA/Drivers/USB/LowLevel/Endpoint.h **** 			                                        uint16_t Length) ATTR_NON_NULL_PTR_ARG(1);
1202:../lufa-LUFA/LUFA/Drivers/USB/LowLevel/Endpoint.h **** 
1203:../lufa-LUFA/LUFA/Drivers/USB/LowLevel/Endpoint.h **** 			/** EEPROM buffer source version of \ref Endpoint_Read_Control_Stream_LE().
1204:../lufa-LUFA/LUFA/Drivers/USB/LowLevel/Endpoint.h **** 			 *
1205:../lufa-LUFA/LUFA/Drivers/USB/LowLevel/Endpoint.h **** 			 *  \note This function automatically clears the control transfer's status stage. Do not manuall
1206:../lufa-LUFA/LUFA/Drivers/USB/LowLevel/Endpoint.h **** 			 *        to clear the status stage when using this routine in a control transaction.
1207:../lufa-LUFA/LUFA/Drivers/USB/LowLevel/Endpoint.h **** 			 *        \n\n
1208:../lufa-LUFA/LUFA/Drivers/USB/LowLevel/Endpoint.h **** 			 *
1209:../lufa-LUFA/LUFA/Drivers/USB/LowLevel/Endpoint.h **** 			 *  \note This routine should only be used on CONTROL type endpoints.
1210:../lufa-LUFA/LUFA/Drivers/USB/LowLevel/Endpoint.h **** 			 *
1211:../lufa-LUFA/LUFA/Drivers/USB/LowLevel/Endpoint.h **** 			 *  \warning Unlike the standard stream read/write commands, the control stream commands cannot 
1212:../lufa-LUFA/LUFA/Drivers/USB/LowLevel/Endpoint.h **** 			 *           together; i.e. the entire stream data must be read or written at the one time.
1213:../lufa-LUFA/LUFA/Drivers/USB/LowLevel/Endpoint.h **** 			 *
1214:../lufa-LUFA/LUFA/Drivers/USB/LowLevel/Endpoint.h **** 			 *  \ingroup Group_EndpointStreamRW
1215:../lufa-LUFA/LUFA/Drivers/USB/LowLevel/Endpoint.h **** 			 *
1216:../lufa-LUFA/LUFA/Drivers/USB/LowLevel/Endpoint.h **** 			 *  \param[out] Buffer  Pointer to the destination data buffer to write to.
1217:../lufa-LUFA/LUFA/Drivers/USB/LowLevel/Endpoint.h **** 			 *  \param[in]  Length  Number of bytes to send via the currently selected endpoint.
1218:../lufa-LUFA/LUFA/Drivers/USB/LowLevel/Endpoint.h **** 			 *
1219:../lufa-LUFA/LUFA/Drivers/USB/LowLevel/Endpoint.h **** 			 *  \return A value from the \ref Endpoint_ControlStream_RW_ErrorCodes_t enum.
1220:../lufa-LUFA/LUFA/Drivers/USB/LowLevel/Endpoint.h **** 			 */
1221:../lufa-LUFA/LUFA/Drivers/USB/LowLevel/Endpoint.h **** 			uint8_t Endpoint_Read_Control_EStream_LE(void* Buffer,
1222:../lufa-LUFA/LUFA/Drivers/USB/LowLevel/Endpoint.h **** 			                                         uint16_t Length) ATTR_NON_NULL_PTR_ARG(1);
1223:../lufa-LUFA/LUFA/Drivers/USB/LowLevel/Endpoint.h **** 
1224:../lufa-LUFA/LUFA/Drivers/USB/LowLevel/Endpoint.h **** 			/** Reads the given number of bytes from the CONTROL endpoint from the given buffer in big endia
1225:../lufa-LUFA/LUFA/Drivers/USB/LowLevel/Endpoint.h **** 			 *  discarding fully read packets from the host as needed. The device IN acknowledgement is not
1226:../lufa-LUFA/LUFA/Drivers/USB/LowLevel/Endpoint.h **** 			 *  automatically sent after success or failure states; the user is responsible for manually sen
1227:../lufa-LUFA/LUFA/Drivers/USB/LowLevel/Endpoint.h **** 			 *  setup IN to finalize the transfer via the \ref Endpoint_ClearIN() macro.
1228:../lufa-LUFA/LUFA/Drivers/USB/LowLevel/Endpoint.h **** 			 *
1229:../lufa-LUFA/LUFA/Drivers/USB/LowLevel/Endpoint.h **** 			 *  \note This function automatically clears the control transfer's status stage. Do not manuall
1230:../lufa-LUFA/LUFA/Drivers/USB/LowLevel/Endpoint.h **** 			 *        to clear the status stage when using this routine in a control transaction.
1231:../lufa-LUFA/LUFA/Drivers/USB/LowLevel/Endpoint.h **** 			 *        \n\n
1232:../lufa-LUFA/LUFA/Drivers/USB/LowLevel/Endpoint.h **** 			 *
1233:../lufa-LUFA/LUFA/Drivers/USB/LowLevel/Endpoint.h **** 			 *  \note This routine should only be used on CONTROL type endpoints.
1234:../lufa-LUFA/LUFA/Drivers/USB/LowLevel/Endpoint.h **** 			 *
1235:../lufa-LUFA/LUFA/Drivers/USB/LowLevel/Endpoint.h **** 			 *  \warning Unlike the standard stream read/write commands, the control stream commands cannot 
1236:../lufa-LUFA/LUFA/Drivers/USB/LowLevel/Endpoint.h **** 			 *           together; i.e. the entire stream data must be read or written at the one time.
1237:../lufa-LUFA/LUFA/Drivers/USB/LowLevel/Endpoint.h **** 			 *
1238:../lufa-LUFA/LUFA/Drivers/USB/LowLevel/Endpoint.h **** 			 *  \ingroup Group_EndpointStreamRW
1239:../lufa-LUFA/LUFA/Drivers/USB/LowLevel/Endpoint.h **** 			 *
1240:../lufa-LUFA/LUFA/Drivers/USB/LowLevel/Endpoint.h **** 			 *  \param[out] Buffer  Pointer to the destination data buffer to write to.
1241:../lufa-LUFA/LUFA/Drivers/USB/LowLevel/Endpoint.h **** 			 *  \param[in]  Length  Number of bytes to send via the currently selected endpoint.
1242:../lufa-LUFA/LUFA/Drivers/USB/LowLevel/Endpoint.h **** 			 *
1243:../lufa-LUFA/LUFA/Drivers/USB/LowLevel/Endpoint.h **** 			 *  \return A value from the \ref Endpoint_ControlStream_RW_ErrorCodes_t enum.
1244:../lufa-LUFA/LUFA/Drivers/USB/LowLevel/Endpoint.h **** 			 */
1245:../lufa-LUFA/LUFA/Drivers/USB/LowLevel/Endpoint.h **** 			uint8_t Endpoint_Read_Control_Stream_BE(void* Buffer,
1246:../lufa-LUFA/LUFA/Drivers/USB/LowLevel/Endpoint.h **** 			                                        uint16_t Length) ATTR_NON_NULL_PTR_ARG(1);
1247:../lufa-LUFA/LUFA/Drivers/USB/LowLevel/Endpoint.h **** 			
1248:../lufa-LUFA/LUFA/Drivers/USB/LowLevel/Endpoint.h **** 			/** EEPROM buffer source version of \ref Endpoint_Read_Control_Stream_BE().
1249:../lufa-LUFA/LUFA/Drivers/USB/LowLevel/Endpoint.h **** 			 *
1250:../lufa-LUFA/LUFA/Drivers/USB/LowLevel/Endpoint.h **** 			 *  \note This function automatically clears the control transfer's status stage. Do not manuall
1251:../lufa-LUFA/LUFA/Drivers/USB/LowLevel/Endpoint.h **** 			 *        to clear the status stage when using this routine in a control transaction.
1252:../lufa-LUFA/LUFA/Drivers/USB/LowLevel/Endpoint.h **** 			 *        \n\n
1253:../lufa-LUFA/LUFA/Drivers/USB/LowLevel/Endpoint.h **** 			 *
1254:../lufa-LUFA/LUFA/Drivers/USB/LowLevel/Endpoint.h **** 			 *  \note This routine should only be used on CONTROL type endpoints.
1255:../lufa-LUFA/LUFA/Drivers/USB/LowLevel/Endpoint.h **** 			 *
1256:../lufa-LUFA/LUFA/Drivers/USB/LowLevel/Endpoint.h **** 			 *  \warning Unlike the standard stream read/write commands, the control stream commands cannot 
1257:../lufa-LUFA/LUFA/Drivers/USB/LowLevel/Endpoint.h **** 			 *           together; i.e. the entire stream data must be read or written at the one time.
1258:../lufa-LUFA/LUFA/Drivers/USB/LowLevel/Endpoint.h **** 			 *
1259:../lufa-LUFA/LUFA/Drivers/USB/LowLevel/Endpoint.h **** 			 *  \ingroup Group_EndpointStreamRW
1260:../lufa-LUFA/LUFA/Drivers/USB/LowLevel/Endpoint.h **** 			 *
1261:../lufa-LUFA/LUFA/Drivers/USB/LowLevel/Endpoint.h **** 			 *  \param[out] Buffer  Pointer to the destination data buffer to write to.
1262:../lufa-LUFA/LUFA/Drivers/USB/LowLevel/Endpoint.h **** 			 *  \param[in]  Length  Number of bytes to send via the currently selected endpoint.
1263:../lufa-LUFA/LUFA/Drivers/USB/LowLevel/Endpoint.h **** 			 *
1264:../lufa-LUFA/LUFA/Drivers/USB/LowLevel/Endpoint.h **** 			 *  \return A value from the \ref Endpoint_ControlStream_RW_ErrorCodes_t enum.
1265:../lufa-LUFA/LUFA/Drivers/USB/LowLevel/Endpoint.h **** 			 */
1266:../lufa-LUFA/LUFA/Drivers/USB/LowLevel/Endpoint.h **** 			uint8_t Endpoint_Read_Control_EStream_BE(void* Buffer,
1267:../lufa-LUFA/LUFA/Drivers/USB/LowLevel/Endpoint.h **** 			                                         uint16_t Length) ATTR_NON_NULL_PTR_ARG(1);
1268:../lufa-LUFA/LUFA/Drivers/USB/LowLevel/Endpoint.h **** 
1269:../lufa-LUFA/LUFA/Drivers/USB/LowLevel/Endpoint.h **** 	/* Private Interface - For use in library only: */
1270:../lufa-LUFA/LUFA/Drivers/USB/LowLevel/Endpoint.h **** 	#if !defined(__DOXYGEN__)
1271:../lufa-LUFA/LUFA/Drivers/USB/LowLevel/Endpoint.h **** 		/* Macros: */
1272:../lufa-LUFA/LUFA/Drivers/USB/LowLevel/Endpoint.h **** 			#define _ENDPOINT_GET_MAXSIZE(n)               _ENDPOINT_GET_MAXSIZE2(ENDPOINT_DETAILS_EP ## n)
1273:../lufa-LUFA/LUFA/Drivers/USB/LowLevel/Endpoint.h **** 			#define _ENDPOINT_GET_MAXSIZE2(details)        _ENDPOINT_GET_MAXSIZE3(details)
1274:../lufa-LUFA/LUFA/Drivers/USB/LowLevel/Endpoint.h **** 			#define _ENDPOINT_GET_MAXSIZE3(maxsize, db)    maxsize
1275:../lufa-LUFA/LUFA/Drivers/USB/LowLevel/Endpoint.h **** 
1276:../lufa-LUFA/LUFA/Drivers/USB/LowLevel/Endpoint.h **** 			#define _ENDPOINT_GET_DOUBLEBANK(n)            _ENDPOINT_GET_DOUBLEBANK2(ENDPOINT_DETAILS_EP ## 
1277:../lufa-LUFA/LUFA/Drivers/USB/LowLevel/Endpoint.h **** 			#define _ENDPOINT_GET_DOUBLEBANK2(details)     _ENDPOINT_GET_DOUBLEBANK3(details)
1278:../lufa-LUFA/LUFA/Drivers/USB/LowLevel/Endpoint.h **** 			#define _ENDPOINT_GET_DOUBLEBANK3(maxsize, db) db
1279:../lufa-LUFA/LUFA/Drivers/USB/LowLevel/Endpoint.h **** 			
1280:../lufa-LUFA/LUFA/Drivers/USB/LowLevel/Endpoint.h **** 			#if defined(USB_SERIES_4_AVR) || defined(USB_SERIES_6_AVR) || defined(USB_SERIES_7_AVR)
1281:../lufa-LUFA/LUFA/Drivers/USB/LowLevel/Endpoint.h **** 				#define ENDPOINT_DETAILS_EP0               64,  true
1282:../lufa-LUFA/LUFA/Drivers/USB/LowLevel/Endpoint.h **** 				#define ENDPOINT_DETAILS_EP1               256, true
1283:../lufa-LUFA/LUFA/Drivers/USB/LowLevel/Endpoint.h **** 				#define ENDPOINT_DETAILS_EP2               64,  true
1284:../lufa-LUFA/LUFA/Drivers/USB/LowLevel/Endpoint.h **** 				#define ENDPOINT_DETAILS_EP3               64,  true
1285:../lufa-LUFA/LUFA/Drivers/USB/LowLevel/Endpoint.h **** 				#define ENDPOINT_DETAILS_EP4               64,  true
1286:../lufa-LUFA/LUFA/Drivers/USB/LowLevel/Endpoint.h **** 				#define ENDPOINT_DETAILS_EP5               64,  true
1287:../lufa-LUFA/LUFA/Drivers/USB/LowLevel/Endpoint.h **** 				#define ENDPOINT_DETAILS_EP6               64,  true
1288:../lufa-LUFA/LUFA/Drivers/USB/LowLevel/Endpoint.h **** 			#else
1289:../lufa-LUFA/LUFA/Drivers/USB/LowLevel/Endpoint.h **** 				#define ENDPOINT_DETAILS_EP0               64,  true
1290:../lufa-LUFA/LUFA/Drivers/USB/LowLevel/Endpoint.h **** 				#define ENDPOINT_DETAILS_EP1               64,  false
1291:../lufa-LUFA/LUFA/Drivers/USB/LowLevel/Endpoint.h **** 				#define ENDPOINT_DETAILS_EP2               64,  false
1292:../lufa-LUFA/LUFA/Drivers/USB/LowLevel/Endpoint.h **** 				#define ENDPOINT_DETAILS_EP3               64,  true
1293:../lufa-LUFA/LUFA/Drivers/USB/LowLevel/Endpoint.h **** 				#define ENDPOINT_DETAILS_EP4               64,  true			
1294:../lufa-LUFA/LUFA/Drivers/USB/LowLevel/Endpoint.h **** 			#endif
1295:../lufa-LUFA/LUFA/Drivers/USB/LowLevel/Endpoint.h **** 
1296:../lufa-LUFA/LUFA/Drivers/USB/LowLevel/Endpoint.h **** 			#define Endpoint_ConfigureEndpoint(Number, Type, Direction, Size, Banks)                        
1297:../lufa-LUFA/LUFA/Drivers/USB/LowLevel/Endpoint.h **** 			                     (__builtin_constant_p(Size) ? Endpoint_ConfigureEndpointStatic((Number),   
1298:../lufa-LUFA/LUFA/Drivers/USB/LowLevel/Endpoint.h **** 			                                                                                    (Type),     
1299:../lufa-LUFA/LUFA/Drivers/USB/LowLevel/Endpoint.h **** 			                                                                                    (Direction),
1300:../lufa-LUFA/LUFA/Drivers/USB/LowLevel/Endpoint.h **** 			                                                                                    Size, Banks)
1301:../lufa-LUFA/LUFA/Drivers/USB/LowLevel/Endpoint.h **** 			                                                   Endpoint_ConfigureEndpointDynamic((Number),  
1302:../lufa-LUFA/LUFA/Drivers/USB/LowLevel/Endpoint.h **** 			                                                                                     (Type),    
1303:../lufa-LUFA/LUFA/Drivers/USB/LowLevel/Endpoint.h **** 			                                                                                     (Direction)
1304:../lufa-LUFA/LUFA/Drivers/USB/LowLevel/Endpoint.h **** 			                                                                                     Size, Banks
1305:../lufa-LUFA/LUFA/Drivers/USB/LowLevel/Endpoint.h **** 
1306:../lufa-LUFA/LUFA/Drivers/USB/LowLevel/Endpoint.h **** 		/* Function Prototypes: */
1307:../lufa-LUFA/LUFA/Drivers/USB/LowLevel/Endpoint.h **** 			void    Endpoint_ClearEndpoints(void);
1308:../lufa-LUFA/LUFA/Drivers/USB/LowLevel/Endpoint.h **** 			uint8_t Endpoint_BytesToEPSizeMaskDynamic(const uint16_t Size);
1309:../lufa-LUFA/LUFA/Drivers/USB/LowLevel/Endpoint.h **** 			bool    Endpoint_ConfigureEndpoint_Prv(const uint8_t Number,
1310:../lufa-LUFA/LUFA/Drivers/USB/LowLevel/Endpoint.h **** 			                                       const uint8_t UECFG0XData,
1311:../lufa-LUFA/LUFA/Drivers/USB/LowLevel/Endpoint.h **** 			                                       const uint8_t UECFG1XData);			
1312:../lufa-LUFA/LUFA/Drivers/USB/LowLevel/Endpoint.h **** 
1313:../lufa-LUFA/LUFA/Drivers/USB/LowLevel/Endpoint.h **** 		/* Inline Functions: */
1314:../lufa-LUFA/LUFA/Drivers/USB/LowLevel/Endpoint.h **** 			static inline uint8_t Endpoint_BytesToEPSizeMask(const uint16_t Bytes) ATTR_WARN_UNUSED_RESULT A
1315:../lufa-LUFA/LUFA/Drivers/USB/LowLevel/Endpoint.h **** 			static inline uint8_t Endpoint_BytesToEPSizeMask(const uint16_t Bytes)
1316:../lufa-LUFA/LUFA/Drivers/USB/LowLevel/Endpoint.h **** 			{
1317:../lufa-LUFA/LUFA/Drivers/USB/LowLevel/Endpoint.h **** 				uint8_t  MaskVal    = 0;
1318:../lufa-LUFA/LUFA/Drivers/USB/LowLevel/Endpoint.h **** 				uint16_t CheckBytes = 8;
  26               		.loc 2 1318 0
  27 0000 28E0      		ldi r18,lo8(8)
  28 0002 30E0      		ldi r19,0
1317:../lufa-LUFA/LUFA/Drivers/USB/LowLevel/Endpoint.h **** 				uint8_t  MaskVal    = 0;
  29               		.loc 2 1317 0
  30 0004 40E0      		ldi r20,0
  31               	.LVL1:
  32               	.L2:
1319:../lufa-LUFA/LUFA/Drivers/USB/LowLevel/Endpoint.h **** 				
1320:../lufa-LUFA/LUFA/Drivers/USB/LowLevel/Endpoint.h **** 				while (CheckBytes < Bytes)
  33               		.loc 2 1320 0
  34 0006 2817      		cp r18,r24
  35 0008 3907      		cpc r19,r25
  36 000a 00F4      		brsh .L5
1321:../lufa-LUFA/LUFA/Drivers/USB/LowLevel/Endpoint.h **** 				{
1322:../lufa-LUFA/LUFA/Drivers/USB/LowLevel/Endpoint.h **** 					MaskVal++;
  37               		.loc 2 1322 0
  38 000c 4F5F      		subi r20,lo8(-(1))
  39               	.LVL2:
1323:../lufa-LUFA/LUFA/Drivers/USB/LowLevel/Endpoint.h **** 					CheckBytes <<= 1;
  40               		.loc 2 1323 0
  41 000e 220F      		lsl r18
  42 0010 331F      		rol r19
  43               	.LVL3:
  44 0012 00C0      		rjmp .L2
  45               	.L5:
  46               	.LBE260:
  47               	.LBE259:
  45:../lufa-LUFA/LUFA/Drivers/USB/LowLevel/Endpoint.c **** 	return Endpoint_BytesToEPSizeMask(Size);
  46:../lufa-LUFA/LUFA/Drivers/USB/LowLevel/Endpoint.c **** }
  48               		.loc 1 46 0
  49 0014 842F      		mov r24,r20
  50               	.LVL4:
  51 0016 8295      		swap r24
  52 0018 807F      		andi r24,lo8(-16)
  53 001a 0895      		ret
  54               		.cfi_endproc
  55               	.LFE64:
  57               		.section	.text.Endpoint_ConfigureEndpoint_Prv,"ax",@progbits
  58               	.global	Endpoint_ConfigureEndpoint_Prv
  60               	Endpoint_ConfigureEndpoint_Prv:
  61               	.LFB65:
  47:../lufa-LUFA/LUFA/Drivers/USB/LowLevel/Endpoint.c **** 
  48:../lufa-LUFA/LUFA/Drivers/USB/LowLevel/Endpoint.c **** bool Endpoint_ConfigureEndpoint_Prv(const uint8_t Number,
  49:../lufa-LUFA/LUFA/Drivers/USB/LowLevel/Endpoint.c ****                                     const uint8_t UECFG0XData,
  50:../lufa-LUFA/LUFA/Drivers/USB/LowLevel/Endpoint.c ****                                     const uint8_t UECFG1XData)
  51:../lufa-LUFA/LUFA/Drivers/USB/LowLevel/Endpoint.c **** {
  62               		.loc 1 51 0
  63               		.cfi_startproc
  64               	.LVL5:
  65               	/* prologue: function */
  66               	/* frame size = 0 */
  67               	/* stack size = 0 */
  68               	.L__stack_usage = 0
  69               	.LBB261:
  70               	.LBB262:
 299:../lufa-LUFA/LUFA/Drivers/USB/LowLevel/Endpoint.h **** 					UENUM = EndpointNumber;
  71               		.loc 2 299 0
  72 0000 8093 E900 		sts 233,r24
  73               	.LBE262:
  74               	.LBE261:
  75               	.LBB263:
  76               	.LBB264:
 323:../lufa-LUFA/LUFA/Drivers/USB/LowLevel/Endpoint.h **** 				UECONX |= (1 << EPEN);
  77               		.loc 2 323 0
  78 0004 EBEE      		ldi r30,lo8(-21)
  79 0006 F0E0      		ldi r31,0
  80 0008 8081      		ld r24,Z
  81               	.LVL6:
  82 000a 8160      		ori r24,lo8(1)
  83 000c 8083      		st Z,r24
  84               	.LVL7:
  85               	.LBE264:
  86               	.LBE263:
  52:../lufa-LUFA/LUFA/Drivers/USB/LowLevel/Endpoint.c **** 	Endpoint_SelectEndpoint(Number);
  53:../lufa-LUFA/LUFA/Drivers/USB/LowLevel/Endpoint.c **** 	Endpoint_EnableEndpoint();
  54:../lufa-LUFA/LUFA/Drivers/USB/LowLevel/Endpoint.c **** 
  55:../lufa-LUFA/LUFA/Drivers/USB/LowLevel/Endpoint.c **** 	UECFG1X = 0;
  87               		.loc 1 55 0
  88 000e EDEE      		ldi r30,lo8(-19)
  89 0010 F0E0      		ldi r31,0
  90 0012 1082      		st Z,__zero_reg__
  56:../lufa-LUFA/LUFA/Drivers/USB/LowLevel/Endpoint.c **** 
  57:../lufa-LUFA/LUFA/Drivers/USB/LowLevel/Endpoint.c **** 	UECFG0X = UECFG0XData;
  91               		.loc 1 57 0
  92 0014 6093 EC00 		sts 236,r22
  58:../lufa-LUFA/LUFA/Drivers/USB/LowLevel/Endpoint.c **** 	UECFG1X = UECFG1XData;
  93               		.loc 1 58 0
  94 0018 4083      		st Z,r20
  95               	.LBB265:
  96               	.LBB266:
 368:../lufa-LUFA/LUFA/Drivers/USB/LowLevel/Endpoint.h **** 				return ((UESTA0X & (1 << CFGOK)) ? true : false);
  97               		.loc 2 368 0
  98 001a 8091 EE00 		lds r24,238
  99               	.LBE266:
 100               	.LBE265:
  59:../lufa-LUFA/LUFA/Drivers/USB/LowLevel/Endpoint.c **** 
  60:../lufa-LUFA/LUFA/Drivers/USB/LowLevel/Endpoint.c **** 	return Endpoint_IsConfigured();
  61:../lufa-LUFA/LUFA/Drivers/USB/LowLevel/Endpoint.c **** }
 101               		.loc 1 61 0
 102 001e 881F      		rol r24
 103 0020 8827      		clr r24
 104 0022 881F      		rol r24
 105 0024 0895      		ret
 106               		.cfi_endproc
 107               	.LFE65:
 109               		.section	.text.Endpoint_ClearEndpoints,"ax",@progbits
 110               	.global	Endpoint_ClearEndpoints
 112               	Endpoint_ClearEndpoints:
 113               	.LFB66:
  62:../lufa-LUFA/LUFA/Drivers/USB/LowLevel/Endpoint.c **** 
  63:../lufa-LUFA/LUFA/Drivers/USB/LowLevel/Endpoint.c **** void Endpoint_ClearEndpoints(void)
  64:../lufa-LUFA/LUFA/Drivers/USB/LowLevel/Endpoint.c **** {
 114               		.loc 1 64 0
 115               		.cfi_startproc
 116               	/* prologue: function */
 117               	/* frame size = 0 */
 118               	/* stack size = 0 */
 119               	.L__stack_usage = 0
  65:../lufa-LUFA/LUFA/Drivers/USB/LowLevel/Endpoint.c **** 	UEINT = 0;
 120               		.loc 1 65 0
 121 0000 1092 F400 		sts 244,__zero_reg__
 122               	.LVL8:
 123               	.LBB267:
  66:../lufa-LUFA/LUFA/Drivers/USB/LowLevel/Endpoint.c **** 
  67:../lufa-LUFA/LUFA/Drivers/USB/LowLevel/Endpoint.c **** 	for (uint8_t EPNum = 0; EPNum < ENDPOINT_TOTAL_ENDPOINTS; EPNum++)
 124               		.loc 1 67 0
 125 0004 80E0      		ldi r24,0
 126               	.LVL9:
 127               	.L9:
 128               	.LBB268:
 129               	.LBB269:
 299:../lufa-LUFA/LUFA/Drivers/USB/LowLevel/Endpoint.h **** 					UENUM = EndpointNumber;
 130               		.loc 2 299 0
 131 0006 8093 E900 		sts 233,r24
 132               	.LBE269:
 133               	.LBE268:
  68:../lufa-LUFA/LUFA/Drivers/USB/LowLevel/Endpoint.c **** 	{
  69:../lufa-LUFA/LUFA/Drivers/USB/LowLevel/Endpoint.c **** 		Endpoint_SelectEndpoint(EPNum);	
  70:../lufa-LUFA/LUFA/Drivers/USB/LowLevel/Endpoint.c **** 		UEIENX  = 0;
 134               		.loc 1 70 0
 135 000a 1092 F000 		sts 240,__zero_reg__
  71:../lufa-LUFA/LUFA/Drivers/USB/LowLevel/Endpoint.c **** 		UEINTX  = 0;
 136               		.loc 1 71 0
 137 000e 1092 E800 		sts 232,__zero_reg__
  72:../lufa-LUFA/LUFA/Drivers/USB/LowLevel/Endpoint.c **** 		UECFG1X = 0;
 138               		.loc 1 72 0
 139 0012 1092 ED00 		sts 237,__zero_reg__
 140               	.LBB270:
 141               	.LBB271:
 332:../lufa-LUFA/LUFA/Drivers/USB/LowLevel/Endpoint.h **** 				UECONX &= ~(1 << EPEN);
 142               		.loc 2 332 0
 143 0016 9091 EB00 		lds r25,235
 144 001a 9E7F      		andi r25,lo8(-2)
 145 001c 9093 EB00 		sts 235,r25
 146               	.LBE271:
 147               	.LBE270:
  67:../lufa-LUFA/LUFA/Drivers/USB/LowLevel/Endpoint.c **** 	for (uint8_t EPNum = 0; EPNum < ENDPOINT_TOTAL_ENDPOINTS; EPNum++)
 148               		.loc 1 67 0
 149 0020 8F5F      		subi r24,lo8(-(1))
 150               	.LVL10:
 151 0022 8530      		cpi r24,lo8(5)
 152 0024 01F4      		brne .L9
 153               	/* epilogue start */
 154               	.LBE267:
  73:../lufa-LUFA/LUFA/Drivers/USB/LowLevel/Endpoint.c **** 		Endpoint_DisableEndpoint();
  74:../lufa-LUFA/LUFA/Drivers/USB/LowLevel/Endpoint.c **** 	}
  75:../lufa-LUFA/LUFA/Drivers/USB/LowLevel/Endpoint.c **** }
 155               		.loc 1 75 0
 156 0026 0895      		ret
 157               		.cfi_endproc
 158               	.LFE66:
 160               		.section	.text.Endpoint_ClearStatusStage,"ax",@progbits
 161               	.global	Endpoint_ClearStatusStage
 163               	Endpoint_ClearStatusStage:
 164               	.LFB67:
  76:../lufa-LUFA/LUFA/Drivers/USB/LowLevel/Endpoint.c **** 
  77:../lufa-LUFA/LUFA/Drivers/USB/LowLevel/Endpoint.c **** void Endpoint_ClearStatusStage(void)
  78:../lufa-LUFA/LUFA/Drivers/USB/LowLevel/Endpoint.c **** {
 165               		.loc 1 78 0
 166               		.cfi_startproc
 167               	/* prologue: function */
 168               	/* frame size = 0 */
 169               	/* stack size = 0 */
 170               	.L__stack_usage = 0
  79:../lufa-LUFA/LUFA/Drivers/USB/LowLevel/Endpoint.c **** 	if (USB_ControlRequest.bmRequestType & REQDIR_DEVICETOHOST)
 171               		.loc 1 79 0
 172 0000 8091 0000 		lds r24,USB_ControlRequest
 173 0004 87FD      		sbrc r24,7
 174 0006 00C0      		rjmp .L16
 175               	.L17:
 176               	.LBB272:
 177               	.LBB273:
 405:../lufa-LUFA/LUFA/Drivers/USB/LowLevel/Endpoint.h **** 				return ((UEINTX & (1 << TXINI))  ? true : false);
 178               		.loc 2 405 0
 179 0008 8091 E800 		lds r24,232
 180               	.LBE273:
 181               	.LBE272:
  80:../lufa-LUFA/LUFA/Drivers/USB/LowLevel/Endpoint.c **** 	{
  81:../lufa-LUFA/LUFA/Drivers/USB/LowLevel/Endpoint.c **** 		while (!(Endpoint_IsOUTReceived()))
  82:../lufa-LUFA/LUFA/Drivers/USB/LowLevel/Endpoint.c **** 		{
  83:../lufa-LUFA/LUFA/Drivers/USB/LowLevel/Endpoint.c **** 			if (USB_DeviceState == DEVICE_STATE_Unattached)
  84:../lufa-LUFA/LUFA/Drivers/USB/LowLevel/Endpoint.c **** 			  return;
  85:../lufa-LUFA/LUFA/Drivers/USB/LowLevel/Endpoint.c **** 		}
  86:../lufa-LUFA/LUFA/Drivers/USB/LowLevel/Endpoint.c **** 
  87:../lufa-LUFA/LUFA/Drivers/USB/LowLevel/Endpoint.c **** 		Endpoint_ClearOUT();
  88:../lufa-LUFA/LUFA/Drivers/USB/LowLevel/Endpoint.c **** 	}
  89:../lufa-LUFA/LUFA/Drivers/USB/LowLevel/Endpoint.c **** 	else
  90:../lufa-LUFA/LUFA/Drivers/USB/LowLevel/Endpoint.c **** 	{
  91:../lufa-LUFA/LUFA/Drivers/USB/LowLevel/Endpoint.c **** 		while (!(Endpoint_IsINReady()))
 182               		.loc 1 91 0
 183 000c 80FF      		sbrs r24,0
 184 000e 00C0      		rjmp .L12
 185 0010 00C0      		rjmp .L26
 186               	.L16:
 187               	.LBB274:
 188               	.LBB275:
 417:../lufa-LUFA/LUFA/Drivers/USB/LowLevel/Endpoint.h **** 				return ((UEINTX & (1 << RXOUTI)) ? true : false);
 189               		.loc 2 417 0
 190 0012 8091 E800 		lds r24,232
 191               	.LBE275:
 192               	.LBE274:
  81:../lufa-LUFA/LUFA/Drivers/USB/LowLevel/Endpoint.c **** 		while (!(Endpoint_IsOUTReceived()))
 193               		.loc 1 81 0
 194 0016 82FD      		sbrc r24,2
 195 0018 00C0      		rjmp .L14
  83:../lufa-LUFA/LUFA/Drivers/USB/LowLevel/Endpoint.c **** 			if (USB_DeviceState == DEVICE_STATE_Unattached)
 196               		.loc 1 83 0
 197 001a 8EB3      		in r24,0x1e
 198 001c 8111      		cpse r24,__zero_reg__
 199 001e 00C0      		rjmp .L16
 200 0020 0895      		ret
 201               	.L14:
 202               	.LBB276:
 203               	.LBB277:
 469:../lufa-LUFA/LUFA/Drivers/USB/LowLevel/Endpoint.h **** 					UEINTX &= ~((1 << RXOUTI) | (1 << FIFOCON));
 204               		.loc 2 469 0
 205 0022 8091 E800 		lds r24,232
 206 0026 8B77      		andi r24,lo8(123)
 207 0028 00C0      		rjmp .L25
 208               	.L12:
 209               	.LBE277:
 210               	.LBE276:
  92:../lufa-LUFA/LUFA/Drivers/USB/LowLevel/Endpoint.c **** 		{
  93:../lufa-LUFA/LUFA/Drivers/USB/LowLevel/Endpoint.c **** 			if (USB_DeviceState == DEVICE_STATE_Unattached)
 211               		.loc 1 93 0
 212 002a 8EB3      		in r24,0x1e
 213 002c 8111      		cpse r24,__zero_reg__
 214 002e 00C0      		rjmp .L17
 215 0030 0895      		ret
 216               	.L26:
 217               	.LBB278:
 218               	.LBB279:
 454:../lufa-LUFA/LUFA/Drivers/USB/LowLevel/Endpoint.h **** 					UEINTX &= ~((1 << TXINI) | (1 << FIFOCON));
 219               		.loc 2 454 0
 220 0032 8091 E800 		lds r24,232
 221 0036 8E77      		andi r24,lo8(126)
 222               	.L25:
 223 0038 8093 E800 		sts 232,r24
 224 003c 0895      		ret
 225               	.LBE279:
 226               	.LBE278:
 227               		.cfi_endproc
 228               	.LFE67:
 230               		.section	.text.Endpoint_WaitUntilReady,"ax",@progbits
 231               	.global	Endpoint_WaitUntilReady
 233               	Endpoint_WaitUntilReady:
 234               	.LFB68:
  94:../lufa-LUFA/LUFA/Drivers/USB/LowLevel/Endpoint.c **** 			  return;
  95:../lufa-LUFA/LUFA/Drivers/USB/LowLevel/Endpoint.c **** 		}
  96:../lufa-LUFA/LUFA/Drivers/USB/LowLevel/Endpoint.c **** 		
  97:../lufa-LUFA/LUFA/Drivers/USB/LowLevel/Endpoint.c **** 		Endpoint_ClearIN();
  98:../lufa-LUFA/LUFA/Drivers/USB/LowLevel/Endpoint.c **** 	}
  99:../lufa-LUFA/LUFA/Drivers/USB/LowLevel/Endpoint.c **** }
 100:../lufa-LUFA/LUFA/Drivers/USB/LowLevel/Endpoint.c **** 
 101:../lufa-LUFA/LUFA/Drivers/USB/LowLevel/Endpoint.c **** #if !defined(CONTROL_ONLY_DEVICE)
 102:../lufa-LUFA/LUFA/Drivers/USB/LowLevel/Endpoint.c **** uint8_t Endpoint_WaitUntilReady(void)
 103:../lufa-LUFA/LUFA/Drivers/USB/LowLevel/Endpoint.c **** {
 235               		.loc 1 103 0
 236               		.cfi_startproc
 237               	/* prologue: function */
 238               	/* frame size = 0 */
 239               	/* stack size = 0 */
 240               	.L__stack_usage = 0
 241               	.LVL11:
 242               		.loc 1 103 0
 243 0000 85E6      		ldi r24,lo8(101)
 244               	.LVL12:
 245               	.L32:
 246               	.LBB280:
 247               	.LBB281:
 528:../lufa-LUFA/LUFA/Drivers/USB/LowLevel/Endpoint.h **** 				return (UECFG0X & ENDPOINT_DIR_IN);
 248               		.loc 2 528 0
 249 0002 9091 EC00 		lds r25,236
 250               	.LBE281:
 251               	.LBE280:
 104:../lufa-LUFA/LUFA/Drivers/USB/LowLevel/Endpoint.c **** 	#if (USB_STREAM_TIMEOUT_MS < 0xFF)
 105:../lufa-LUFA/LUFA/Drivers/USB/LowLevel/Endpoint.c **** 	uint8_t  TimeoutMSRem = USB_STREAM_TIMEOUT_MS;	
 106:../lufa-LUFA/LUFA/Drivers/USB/LowLevel/Endpoint.c **** 	#else
 107:../lufa-LUFA/LUFA/Drivers/USB/LowLevel/Endpoint.c **** 	uint16_t TimeoutMSRem = USB_STREAM_TIMEOUT_MS;
 108:../lufa-LUFA/LUFA/Drivers/USB/LowLevel/Endpoint.c **** 	#endif
 109:../lufa-LUFA/LUFA/Drivers/USB/LowLevel/Endpoint.c **** 
 110:../lufa-LUFA/LUFA/Drivers/USB/LowLevel/Endpoint.c **** 	for (;;)
 111:../lufa-LUFA/LUFA/Drivers/USB/LowLevel/Endpoint.c **** 	{
 112:../lufa-LUFA/LUFA/Drivers/USB/LowLevel/Endpoint.c **** 		if (Endpoint_GetEndpointDirection() == ENDPOINT_DIR_IN)
 252               		.loc 1 112 0
 253 0006 90FF      		sbrs r25,0
 254 0008 00C0      		rjmp .L28
 255               	.LBB282:
 256               	.LBB283:
 405:../lufa-LUFA/LUFA/Drivers/USB/LowLevel/Endpoint.h **** 				return ((UEINTX & (1 << TXINI))  ? true : false);
 257               		.loc 2 405 0
 258 000a 9091 E800 		lds r25,232
 259               	.LBE283:
 260               	.LBE282:
 113:../lufa-LUFA/LUFA/Drivers/USB/LowLevel/Endpoint.c **** 		{
 114:../lufa-LUFA/LUFA/Drivers/USB/LowLevel/Endpoint.c **** 			if (Endpoint_IsINReady())
 261               		.loc 1 114 0
 262 000e 90FF      		sbrs r25,0
 263 0010 00C0      		rjmp .L30
 264 0012 00C0      		rjmp .L35
 265               	.L28:
 266               	.LBB284:
 267               	.LBB285:
 417:../lufa-LUFA/LUFA/Drivers/USB/LowLevel/Endpoint.h **** 				return ((UEINTX & (1 << RXOUTI)) ? true : false);
 268               		.loc 2 417 0
 269 0014 9091 E800 		lds r25,232
 270               	.LBE285:
 271               	.LBE284:
 115:../lufa-LUFA/LUFA/Drivers/USB/LowLevel/Endpoint.c **** 			  return ENDPOINT_READYWAIT_NoError;
 116:../lufa-LUFA/LUFA/Drivers/USB/LowLevel/Endpoint.c **** 		}
 117:../lufa-LUFA/LUFA/Drivers/USB/LowLevel/Endpoint.c **** 		else
 118:../lufa-LUFA/LUFA/Drivers/USB/LowLevel/Endpoint.c **** 		{
 119:../lufa-LUFA/LUFA/Drivers/USB/LowLevel/Endpoint.c **** 			if (Endpoint_IsOUTReceived())
 272               		.loc 1 119 0
 273 0018 92FD      		sbrc r25,2
 274 001a 00C0      		rjmp .L35
 275               	.L30:
 120:../lufa-LUFA/LUFA/Drivers/USB/LowLevel/Endpoint.c **** 			  return ENDPOINT_READYWAIT_NoError;
 121:../lufa-LUFA/LUFA/Drivers/USB/LowLevel/Endpoint.c **** 		}
 122:../lufa-LUFA/LUFA/Drivers/USB/LowLevel/Endpoint.c **** 		
 123:../lufa-LUFA/LUFA/Drivers/USB/LowLevel/Endpoint.c **** 		if (USB_DeviceState == DEVICE_STATE_Unattached)
 276               		.loc 1 123 0
 277 001c 9EB3      		in r25,0x1e
 278 001e 9923      		tst r25
 279 0020 01F0      		breq .L36
 124:../lufa-LUFA/LUFA/Drivers/USB/LowLevel/Endpoint.c **** 		  return ENDPOINT_READYWAIT_DeviceDisconnected;
 125:../lufa-LUFA/LUFA/Drivers/USB/LowLevel/Endpoint.c **** 		else if (USB_DeviceState == DEVICE_STATE_Suspended)
 280               		.loc 1 125 0
 281 0022 9EB3      		in r25,0x1e
 282 0024 9530      		cpi r25,lo8(5)
 283 0026 01F0      		breq .L37
 284               	.LBB286:
 285               	.LBB287:
 511:../lufa-LUFA/LUFA/Drivers/USB/LowLevel/Endpoint.h **** 				return ((UECONX & (1 << STALLRQ)) ? true : false);
 286               		.loc 2 511 0
 287 0028 9091 EB00 		lds r25,235
 288               	.LBE287:
 289               	.LBE286:
 126:../lufa-LUFA/LUFA/Drivers/USB/LowLevel/Endpoint.c **** 		  return ENDPOINT_READYWAIT_BusSuspended;
 127:../lufa-LUFA/LUFA/Drivers/USB/LowLevel/Endpoint.c **** 		else if (Endpoint_IsStalled())
 290               		.loc 1 127 0
 291 002c 95FD      		sbrc r25,5
 292 002e 00C0      		rjmp .L38
 128:../lufa-LUFA/LUFA/Drivers/USB/LowLevel/Endpoint.c **** 		  return ENDPOINT_READYWAIT_EndpointStalled;
 129:../lufa-LUFA/LUFA/Drivers/USB/LowLevel/Endpoint.c **** 			  
 130:../lufa-LUFA/LUFA/Drivers/USB/LowLevel/Endpoint.c **** 		if (USB_INT_HasOccurred(USB_INT_SOFI))
 293               		.loc 1 130 0
 294 0030 9091 E100 		lds r25,225
 295 0034 92FF      		sbrs r25,2
 296 0036 00C0      		rjmp .L32
 131:../lufa-LUFA/LUFA/Drivers/USB/LowLevel/Endpoint.c **** 		{
 132:../lufa-LUFA/LUFA/Drivers/USB/LowLevel/Endpoint.c **** 			USB_INT_Clear(USB_INT_SOFI);
 297               		.loc 1 132 0
 298 0038 9091 E100 		lds r25,225
 299 003c 9B7F      		andi r25,lo8(-5)
 300 003e 9093 E100 		sts 225,r25
 301               	.LVL13:
 302 0042 8150      		subi r24,lo8(-(-1))
 303               	.LVL14:
 133:../lufa-LUFA/LUFA/Drivers/USB/LowLevel/Endpoint.c **** 
 134:../lufa-LUFA/LUFA/Drivers/USB/LowLevel/Endpoint.c **** 			if (!(TimeoutMSRem--))
 304               		.loc 1 134 0
 305 0044 01F4      		brne .L32
 135:../lufa-LUFA/LUFA/Drivers/USB/LowLevel/Endpoint.c **** 			  return ENDPOINT_READYWAIT_Timeout;
 306               		.loc 1 135 0
 307 0046 84E0      		ldi r24,lo8(4)
 308               	.LVL15:
 136:../lufa-LUFA/LUFA/Drivers/USB/LowLevel/Endpoint.c **** 		}
 137:../lufa-LUFA/LUFA/Drivers/USB/LowLevel/Endpoint.c **** 	}
 138:../lufa-LUFA/LUFA/Drivers/USB/LowLevel/Endpoint.c **** }
 309               		.loc 1 138 0
 310 0048 0895      		ret
 311               	.LVL16:
 312               	.L35:
 115:../lufa-LUFA/LUFA/Drivers/USB/LowLevel/Endpoint.c **** 			  return ENDPOINT_READYWAIT_NoError;
 313               		.loc 1 115 0
 314 004a 80E0      		ldi r24,0
 315               	.LVL17:
 316 004c 0895      		ret
 317               	.LVL18:
 318               	.L36:
 124:../lufa-LUFA/LUFA/Drivers/USB/LowLevel/Endpoint.c **** 		  return ENDPOINT_READYWAIT_DeviceDisconnected;
 319               		.loc 1 124 0
 320 004e 82E0      		ldi r24,lo8(2)
 321               	.LVL19:
 322 0050 0895      		ret
 323               	.LVL20:
 324               	.L37:
 126:../lufa-LUFA/LUFA/Drivers/USB/LowLevel/Endpoint.c **** 		  return ENDPOINT_READYWAIT_BusSuspended;
 325               		.loc 1 126 0
 326 0052 83E0      		ldi r24,lo8(3)
 327               	.LVL21:
 328 0054 0895      		ret
 329               	.LVL22:
 330               	.L38:
 128:../lufa-LUFA/LUFA/Drivers/USB/LowLevel/Endpoint.c **** 		  return ENDPOINT_READYWAIT_EndpointStalled;
 331               		.loc 1 128 0
 332 0056 81E0      		ldi r24,lo8(1)
 333               	.LVL23:
 334 0058 0895      		ret
 335               		.cfi_endproc
 336               	.LFE68:
 338               		.section	.text.Endpoint_Discard_Stream,"ax",@progbits
 339               	.global	Endpoint_Discard_Stream
 341               	Endpoint_Discard_Stream:
 342               	.LFB69:
 139:../lufa-LUFA/LUFA/Drivers/USB/LowLevel/Endpoint.c **** 
 140:../lufa-LUFA/LUFA/Drivers/USB/LowLevel/Endpoint.c **** uint8_t Endpoint_Discard_Stream(uint16_t Length
 141:../lufa-LUFA/LUFA/Drivers/USB/LowLevel/Endpoint.c **** #if !defined(NO_STREAM_CALLBACKS)
 142:../lufa-LUFA/LUFA/Drivers/USB/LowLevel/Endpoint.c ****                                 , StreamCallbackPtr_t Callback
 143:../lufa-LUFA/LUFA/Drivers/USB/LowLevel/Endpoint.c **** #endif
 144:../lufa-LUFA/LUFA/Drivers/USB/LowLevel/Endpoint.c ****                                 )
 145:../lufa-LUFA/LUFA/Drivers/USB/LowLevel/Endpoint.c **** {
 343               		.loc 1 145 0
 344               		.cfi_startproc
 345               	.LVL24:
 346 0000 0F93      		push r16
 347               	.LCFI0:
 348               		.cfi_def_cfa_offset 3
 349               		.cfi_offset 16, -2
 350 0002 1F93      		push r17
 351               	.LCFI1:
 352               		.cfi_def_cfa_offset 4
 353               		.cfi_offset 17, -3
 354 0004 CF93      		push r28
 355               	.LCFI2:
 356               		.cfi_def_cfa_offset 5
 357               		.cfi_offset 28, -4
 358 0006 DF93      		push r29
 359               	.LCFI3:
 360               		.cfi_def_cfa_offset 6
 361               		.cfi_offset 29, -5
 362               	/* prologue: function */
 363               	/* frame size = 0 */
 364               	/* stack size = 4 */
 365               	.L__stack_usage = 4
 366 0008 EC01      		movw r28,r24
 367 000a 8B01      		movw r16,r22
 368               	.LVL25:
 369               	.L46:
 146:../lufa-LUFA/LUFA/Drivers/USB/LowLevel/Endpoint.c **** 	uint8_t  ErrorCode;
 147:../lufa-LUFA/LUFA/Drivers/USB/LowLevel/Endpoint.c **** 	
 148:../lufa-LUFA/LUFA/Drivers/USB/LowLevel/Endpoint.c **** 	if ((ErrorCode = Endpoint_WaitUntilReady()))
 149:../lufa-LUFA/LUFA/Drivers/USB/LowLevel/Endpoint.c **** 	  return ErrorCode;
 150:../lufa-LUFA/LUFA/Drivers/USB/LowLevel/Endpoint.c **** 
 151:../lufa-LUFA/LUFA/Drivers/USB/LowLevel/Endpoint.c **** 	#if defined(FAST_STREAM_TRANSFERS)
 152:../lufa-LUFA/LUFA/Drivers/USB/LowLevel/Endpoint.c **** 	uint8_t BytesRemToAlignment = (Endpoint_BytesInEndpoint() & 0x07);
 153:../lufa-LUFA/LUFA/Drivers/USB/LowLevel/Endpoint.c **** 
 154:../lufa-LUFA/LUFA/Drivers/USB/LowLevel/Endpoint.c **** 	if (Length >= 8)
 155:../lufa-LUFA/LUFA/Drivers/USB/LowLevel/Endpoint.c **** 	{
 156:../lufa-LUFA/LUFA/Drivers/USB/LowLevel/Endpoint.c **** 		Length -= BytesRemToAlignment;
 157:../lufa-LUFA/LUFA/Drivers/USB/LowLevel/Endpoint.c **** 
 158:../lufa-LUFA/LUFA/Drivers/USB/LowLevel/Endpoint.c **** 		switch (BytesRemToAlignment)
 159:../lufa-LUFA/LUFA/Drivers/USB/LowLevel/Endpoint.c **** 		{
 160:../lufa-LUFA/LUFA/Drivers/USB/LowLevel/Endpoint.c **** 			default:
 161:../lufa-LUFA/LUFA/Drivers/USB/LowLevel/Endpoint.c **** 				do
 162:../lufa-LUFA/LUFA/Drivers/USB/LowLevel/Endpoint.c **** 				{
 163:../lufa-LUFA/LUFA/Drivers/USB/LowLevel/Endpoint.c **** 					if (!(Endpoint_IsReadWriteAllowed()))
 164:../lufa-LUFA/LUFA/Drivers/USB/LowLevel/Endpoint.c **** 					{
 165:../lufa-LUFA/LUFA/Drivers/USB/LowLevel/Endpoint.c **** 						Endpoint_ClearOUT();
 166:../lufa-LUFA/LUFA/Drivers/USB/LowLevel/Endpoint.c **** 
 167:../lufa-LUFA/LUFA/Drivers/USB/LowLevel/Endpoint.c **** 						#if !defined(NO_STREAM_CALLBACKS)
 168:../lufa-LUFA/LUFA/Drivers/USB/LowLevel/Endpoint.c **** 						if ((Callback != NULL) && (Callback() == STREAMCALLBACK_Abort))
 169:../lufa-LUFA/LUFA/Drivers/USB/LowLevel/Endpoint.c **** 						  return ENDPOINT_RWSTREAM_CallbackAborted;
 170:../lufa-LUFA/LUFA/Drivers/USB/LowLevel/Endpoint.c **** 						#endif
 171:../lufa-LUFA/LUFA/Drivers/USB/LowLevel/Endpoint.c **** 
 172:../lufa-LUFA/LUFA/Drivers/USB/LowLevel/Endpoint.c **** 						if ((ErrorCode = Endpoint_WaitUntilReady()))
 173:../lufa-LUFA/LUFA/Drivers/USB/LowLevel/Endpoint.c **** 						  return ErrorCode;
 174:../lufa-LUFA/LUFA/Drivers/USB/LowLevel/Endpoint.c **** 					}
 175:../lufa-LUFA/LUFA/Drivers/USB/LowLevel/Endpoint.c **** 
 176:../lufa-LUFA/LUFA/Drivers/USB/LowLevel/Endpoint.c **** 					Length -= 8;
 177:../lufa-LUFA/LUFA/Drivers/USB/LowLevel/Endpoint.c **** 					
 178:../lufa-LUFA/LUFA/Drivers/USB/LowLevel/Endpoint.c **** 					Endpoint_Discard_Byte();
 179:../lufa-LUFA/LUFA/Drivers/USB/LowLevel/Endpoint.c **** 			case 7: Endpoint_Discard_Byte();
 180:../lufa-LUFA/LUFA/Drivers/USB/LowLevel/Endpoint.c **** 			case 6: Endpoint_Discard_Byte();
 181:../lufa-LUFA/LUFA/Drivers/USB/LowLevel/Endpoint.c **** 			case 5: Endpoint_Discard_Byte();
 182:../lufa-LUFA/LUFA/Drivers/USB/LowLevel/Endpoint.c **** 			case 4: Endpoint_Discard_Byte();
 183:../lufa-LUFA/LUFA/Drivers/USB/LowLevel/Endpoint.c **** 			case 3: Endpoint_Discard_Byte();
 184:../lufa-LUFA/LUFA/Drivers/USB/LowLevel/Endpoint.c **** 			case 2: Endpoint_Discard_Byte();
 185:../lufa-LUFA/LUFA/Drivers/USB/LowLevel/Endpoint.c **** 			case 1:	Endpoint_Discard_Byte();
 186:../lufa-LUFA/LUFA/Drivers/USB/LowLevel/Endpoint.c **** 				} while (Length >= 8);	
 187:../lufa-LUFA/LUFA/Drivers/USB/LowLevel/Endpoint.c **** 		}
 188:../lufa-LUFA/LUFA/Drivers/USB/LowLevel/Endpoint.c **** 	}
 189:../lufa-LUFA/LUFA/Drivers/USB/LowLevel/Endpoint.c **** 	#endif
 190:../lufa-LUFA/LUFA/Drivers/USB/LowLevel/Endpoint.c **** 
 191:../lufa-LUFA/LUFA/Drivers/USB/LowLevel/Endpoint.c **** 	while (Length)
 192:../lufa-LUFA/LUFA/Drivers/USB/LowLevel/Endpoint.c **** 	{
 193:../lufa-LUFA/LUFA/Drivers/USB/LowLevel/Endpoint.c **** 		if (!(Endpoint_IsReadWriteAllowed()))
 194:../lufa-LUFA/LUFA/Drivers/USB/LowLevel/Endpoint.c **** 		{
 195:../lufa-LUFA/LUFA/Drivers/USB/LowLevel/Endpoint.c **** 			Endpoint_ClearOUT();
 196:../lufa-LUFA/LUFA/Drivers/USB/LowLevel/Endpoint.c **** 
 197:../lufa-LUFA/LUFA/Drivers/USB/LowLevel/Endpoint.c **** 			#if !defined(NO_STREAM_CALLBACKS)
 198:../lufa-LUFA/LUFA/Drivers/USB/LowLevel/Endpoint.c **** 			if ((Callback != NULL) && (Callback() == STREAMCALLBACK_Abort))
 199:../lufa-LUFA/LUFA/Drivers/USB/LowLevel/Endpoint.c **** 			  return ENDPOINT_RWSTREAM_CallbackAborted;
 200:../lufa-LUFA/LUFA/Drivers/USB/LowLevel/Endpoint.c **** 			#endif
 201:../lufa-LUFA/LUFA/Drivers/USB/LowLevel/Endpoint.c **** 
 202:../lufa-LUFA/LUFA/Drivers/USB/LowLevel/Endpoint.c **** 			if ((ErrorCode = Endpoint_WaitUntilReady()))
 370               		.loc 1 202 0
 371 000c 0E94 0000 		call Endpoint_WaitUntilReady
 372               	.LVL26:
 373 0010 8111      		cpse r24,__zero_reg__
 374 0012 00C0      		rjmp .L41
 375               	.LVL27:
 376               	.L42:
 191:../lufa-LUFA/LUFA/Drivers/USB/LowLevel/Endpoint.c **** 	while (Length)
 377               		.loc 1 191 0 discriminator 1
 378 0014 2097      		sbiw r28,0
 379 0016 01F0      		breq .L52
 380               	.LBB288:
 381               	.LBB289:
 358:../lufa-LUFA/LUFA/Drivers/USB/LowLevel/Endpoint.h **** 				return ((UEINTX & (1 << RWAL)) ? true : false);
 382               		.loc 2 358 0
 383 0018 8091 E800 		lds r24,232
 384               	.LBE289:
 385               	.LBE288:
 193:../lufa-LUFA/LUFA/Drivers/USB/LowLevel/Endpoint.c **** 		if (!(Endpoint_IsReadWriteAllowed()))
 386               		.loc 1 193 0
 387 001c 85FD      		sbrc r24,5
 388 001e 00C0      		rjmp .L43
 389               	.LBB290:
 390               	.LBB291:
 469:../lufa-LUFA/LUFA/Drivers/USB/LowLevel/Endpoint.h **** 					UEINTX &= ~((1 << RXOUTI) | (1 << FIFOCON));
 391               		.loc 2 469 0
 392 0020 8091 E800 		lds r24,232
 393 0024 8B77      		andi r24,lo8(123)
 394 0026 8093 E800 		sts 232,r24
 395               	.LBE291:
 396               	.LBE290:
 198:../lufa-LUFA/LUFA/Drivers/USB/LowLevel/Endpoint.c **** 			if ((Callback != NULL) && (Callback() == STREAMCALLBACK_Abort))
 397               		.loc 1 198 0
 398 002a 0115      		cp r16,__zero_reg__
 399 002c 1105      		cpc r17,__zero_reg__
 400 002e 01F0      		breq .L46
 198:../lufa-LUFA/LUFA/Drivers/USB/LowLevel/Endpoint.c **** 			if ((Callback != NULL) && (Callback() == STREAMCALLBACK_Abort))
 401               		.loc 1 198 0 is_stmt 0 discriminator 1
 402 0030 F801      		movw r30,r16
 403 0032 0995      		icall
 404               	.LVL28:
 405 0034 8130      		cpi r24,lo8(1)
 406 0036 01F4      		brne .L46
 199:../lufa-LUFA/LUFA/Drivers/USB/LowLevel/Endpoint.c **** 			  return ENDPOINT_RWSTREAM_CallbackAborted;
 407               		.loc 1 199 0 is_stmt 1
 408 0038 85E0      		ldi r24,lo8(5)
 409 003a 00C0      		rjmp .L41
 410               	.L43:
 411               	.LBB292:
 412               	.LBB293:
 574:../lufa-LUFA/LUFA/Drivers/USB/LowLevel/Endpoint.h **** 				Dummy = UEDATX;
 413               		.loc 2 574 0
 414 003c 8091 F100 		lds r24,241
 415               	.LBE293:
 416               	.LBE292:
 203:../lufa-LUFA/LUFA/Drivers/USB/LowLevel/Endpoint.c **** 			  return ErrorCode;
 204:../lufa-LUFA/LUFA/Drivers/USB/LowLevel/Endpoint.c **** 		}
 205:../lufa-LUFA/LUFA/Drivers/USB/LowLevel/Endpoint.c **** 		else
 206:../lufa-LUFA/LUFA/Drivers/USB/LowLevel/Endpoint.c **** 		{
 207:../lufa-LUFA/LUFA/Drivers/USB/LowLevel/Endpoint.c **** 			Endpoint_Discard_Byte();
 208:../lufa-LUFA/LUFA/Drivers/USB/LowLevel/Endpoint.c **** 			Length--;
 417               		.loc 1 208 0
 418 0040 2197      		sbiw r28,1
 419               	.LVL29:
 420 0042 00C0      		rjmp .L42
 421               	.L52:
 209:../lufa-LUFA/LUFA/Drivers/USB/LowLevel/Endpoint.c **** 		}
 210:../lufa-LUFA/LUFA/Drivers/USB/LowLevel/Endpoint.c **** 	}
 211:../lufa-LUFA/LUFA/Drivers/USB/LowLevel/Endpoint.c **** 	
 212:../lufa-LUFA/LUFA/Drivers/USB/LowLevel/Endpoint.c **** 	return ENDPOINT_RWSTREAM_NoError;
 422               		.loc 1 212 0
 423 0044 80E0      		ldi r24,0
 424               	.L41:
 425               	/* epilogue start */
 213:../lufa-LUFA/LUFA/Drivers/USB/LowLevel/Endpoint.c **** }
 426               		.loc 1 213 0
 427 0046 DF91      		pop r29
 428 0048 CF91      		pop r28
 429               	.LVL30:
 430 004a 1F91      		pop r17
 431 004c 0F91      		pop r16
 432               	.LVL31:
 433 004e 0895      		ret
 434               		.cfi_endproc
 435               	.LFE69:
 437               		.section	.text.Endpoint_Write_Stream_LE,"ax",@progbits
 438               	.global	Endpoint_Write_Stream_LE
 440               	Endpoint_Write_Stream_LE:
 441               	.LFB70:
 442               		.file 3 "../lufa-LUFA/LUFA/Drivers/USB/LowLevel/Template/Template_Endpoint_RW.c"
   1:../lufa-LUFA/LUFA/Drivers/USB/LowLevel/Template/Template_Endpoint_RW.c **** uint8_t TEMPLATE_FUNC_NAME (TEMPLATE_BUFFER_TYPE Buffer,
   2:../lufa-LUFA/LUFA/Drivers/USB/LowLevel/Template/Template_Endpoint_RW.c ****                             uint16_t Length
   3:../lufa-LUFA/LUFA/Drivers/USB/LowLevel/Template/Template_Endpoint_RW.c ****                             __CALLBACK_PARAM)
   4:../lufa-LUFA/LUFA/Drivers/USB/LowLevel/Template/Template_Endpoint_RW.c **** {
 443               		.loc 3 4 0
 444               		.cfi_startproc
 445               	.LVL32:
 446 0000 EF92      		push r14
 447               	.LCFI4:
 448               		.cfi_def_cfa_offset 3
 449               		.cfi_offset 14, -2
 450 0002 FF92      		push r15
 451               	.LCFI5:
 452               		.cfi_def_cfa_offset 4
 453               		.cfi_offset 15, -3
 454 0004 0F93      		push r16
 455               	.LCFI6:
 456               		.cfi_def_cfa_offset 5
 457               		.cfi_offset 16, -4
 458 0006 1F93      		push r17
 459               	.LCFI7:
 460               		.cfi_def_cfa_offset 6
 461               		.cfi_offset 17, -5
 462 0008 CF93      		push r28
 463               	.LCFI8:
 464               		.cfi_def_cfa_offset 7
 465               		.cfi_offset 28, -6
 466 000a DF93      		push r29
 467               	.LCFI9:
 468               		.cfi_def_cfa_offset 8
 469               		.cfi_offset 29, -7
 470               	/* prologue: function */
 471               	/* frame size = 0 */
 472               	/* stack size = 6 */
 473               	.L__stack_usage = 6
 474 000c EC01      		movw r28,r24
 475 000e 8B01      		movw r16,r22
 476 0010 7A01      		movw r14,r20
 477               	.LVL33:
 478               	.L59:
   5:../lufa-LUFA/LUFA/Drivers/USB/LowLevel/Template/Template_Endpoint_RW.c **** 	uint8_t* DataStream = ((uint8_t*)Buffer + TEMPLATE_BUFFER_OFFSET(Length));
   6:../lufa-LUFA/LUFA/Drivers/USB/LowLevel/Template/Template_Endpoint_RW.c **** 	uint8_t  ErrorCode;
   7:../lufa-LUFA/LUFA/Drivers/USB/LowLevel/Template/Template_Endpoint_RW.c **** 	
   8:../lufa-LUFA/LUFA/Drivers/USB/LowLevel/Template/Template_Endpoint_RW.c **** 	if ((ErrorCode = Endpoint_WaitUntilReady()))
   9:../lufa-LUFA/LUFA/Drivers/USB/LowLevel/Template/Template_Endpoint_RW.c **** 	  return ErrorCode;
  10:../lufa-LUFA/LUFA/Drivers/USB/LowLevel/Template/Template_Endpoint_RW.c **** 
  11:../lufa-LUFA/LUFA/Drivers/USB/LowLevel/Template/Template_Endpoint_RW.c **** 	#if defined(FAST_STREAM_TRANSFERS)
  12:../lufa-LUFA/LUFA/Drivers/USB/LowLevel/Template/Template_Endpoint_RW.c **** 	uint8_t BytesRemToAlignment = (Endpoint_BytesInEndpoint() & 0x07);
  13:../lufa-LUFA/LUFA/Drivers/USB/LowLevel/Template/Template_Endpoint_RW.c **** 
  14:../lufa-LUFA/LUFA/Drivers/USB/LowLevel/Template/Template_Endpoint_RW.c **** 	if (Length >= 8)
  15:../lufa-LUFA/LUFA/Drivers/USB/LowLevel/Template/Template_Endpoint_RW.c **** 	{
  16:../lufa-LUFA/LUFA/Drivers/USB/LowLevel/Template/Template_Endpoint_RW.c **** 		Length -= BytesRemToAlignment;
  17:../lufa-LUFA/LUFA/Drivers/USB/LowLevel/Template/Template_Endpoint_RW.c **** 
  18:../lufa-LUFA/LUFA/Drivers/USB/LowLevel/Template/Template_Endpoint_RW.c **** 		switch (BytesRemToAlignment)
  19:../lufa-LUFA/LUFA/Drivers/USB/LowLevel/Template/Template_Endpoint_RW.c **** 		{
  20:../lufa-LUFA/LUFA/Drivers/USB/LowLevel/Template/Template_Endpoint_RW.c **** 			default:
  21:../lufa-LUFA/LUFA/Drivers/USB/LowLevel/Template/Template_Endpoint_RW.c **** 				do
  22:../lufa-LUFA/LUFA/Drivers/USB/LowLevel/Template/Template_Endpoint_RW.c **** 				{
  23:../lufa-LUFA/LUFA/Drivers/USB/LowLevel/Template/Template_Endpoint_RW.c **** 					if (!(Endpoint_IsReadWriteAllowed()))
  24:../lufa-LUFA/LUFA/Drivers/USB/LowLevel/Template/Template_Endpoint_RW.c **** 					{
  25:../lufa-LUFA/LUFA/Drivers/USB/LowLevel/Template/Template_Endpoint_RW.c **** 						TEMPLATE_CLEAR_ENDPOINT();
  26:../lufa-LUFA/LUFA/Drivers/USB/LowLevel/Template/Template_Endpoint_RW.c **** 
  27:../lufa-LUFA/LUFA/Drivers/USB/LowLevel/Template/Template_Endpoint_RW.c **** 						#if !defined(NO_STREAM_CALLBACKS)
  28:../lufa-LUFA/LUFA/Drivers/USB/LowLevel/Template/Template_Endpoint_RW.c **** 						if ((Callback != NULL) && (Callback() == STREAMCALLBACK_Abort))
  29:../lufa-LUFA/LUFA/Drivers/USB/LowLevel/Template/Template_Endpoint_RW.c **** 						  return ENDPOINT_RWSTREAM_CallbackAborted;
  30:../lufa-LUFA/LUFA/Drivers/USB/LowLevel/Template/Template_Endpoint_RW.c **** 						#endif
  31:../lufa-LUFA/LUFA/Drivers/USB/LowLevel/Template/Template_Endpoint_RW.c **** 
  32:../lufa-LUFA/LUFA/Drivers/USB/LowLevel/Template/Template_Endpoint_RW.c **** 						if ((ErrorCode = Endpoint_WaitUntilReady()))
  33:../lufa-LUFA/LUFA/Drivers/USB/LowLevel/Template/Template_Endpoint_RW.c **** 						  return ErrorCode;
  34:../lufa-LUFA/LUFA/Drivers/USB/LowLevel/Template/Template_Endpoint_RW.c **** 					}
  35:../lufa-LUFA/LUFA/Drivers/USB/LowLevel/Template/Template_Endpoint_RW.c **** 
  36:../lufa-LUFA/LUFA/Drivers/USB/LowLevel/Template/Template_Endpoint_RW.c **** 					Length -= 8;
  37:../lufa-LUFA/LUFA/Drivers/USB/LowLevel/Template/Template_Endpoint_RW.c **** 					
  38:../lufa-LUFA/LUFA/Drivers/USB/LowLevel/Template/Template_Endpoint_RW.c **** 					TEMPLATE_TRANSFER_BYTE(DataStream);
  39:../lufa-LUFA/LUFA/Drivers/USB/LowLevel/Template/Template_Endpoint_RW.c **** 			case 7: TEMPLATE_TRANSFER_BYTE(DataStream);
  40:../lufa-LUFA/LUFA/Drivers/USB/LowLevel/Template/Template_Endpoint_RW.c **** 			case 6: TEMPLATE_TRANSFER_BYTE(DataStream);
  41:../lufa-LUFA/LUFA/Drivers/USB/LowLevel/Template/Template_Endpoint_RW.c **** 			case 5: TEMPLATE_TRANSFER_BYTE(DataStream);
  42:../lufa-LUFA/LUFA/Drivers/USB/LowLevel/Template/Template_Endpoint_RW.c **** 			case 4: TEMPLATE_TRANSFER_BYTE(DataStream);
  43:../lufa-LUFA/LUFA/Drivers/USB/LowLevel/Template/Template_Endpoint_RW.c **** 			case 3: TEMPLATE_TRANSFER_BYTE(DataStream);
  44:../lufa-LUFA/LUFA/Drivers/USB/LowLevel/Template/Template_Endpoint_RW.c **** 			case 2: TEMPLATE_TRANSFER_BYTE(DataStream);
  45:../lufa-LUFA/LUFA/Drivers/USB/LowLevel/Template/Template_Endpoint_RW.c **** 			case 1:	TEMPLATE_TRANSFER_BYTE(DataStream);
  46:../lufa-LUFA/LUFA/Drivers/USB/LowLevel/Template/Template_Endpoint_RW.c **** 				} while (Length >= 8);	
  47:../lufa-LUFA/LUFA/Drivers/USB/LowLevel/Template/Template_Endpoint_RW.c **** 		}
  48:../lufa-LUFA/LUFA/Drivers/USB/LowLevel/Template/Template_Endpoint_RW.c **** 	}
  49:../lufa-LUFA/LUFA/Drivers/USB/LowLevel/Template/Template_Endpoint_RW.c **** 	#endif
  50:../lufa-LUFA/LUFA/Drivers/USB/LowLevel/Template/Template_Endpoint_RW.c **** 
  51:../lufa-LUFA/LUFA/Drivers/USB/LowLevel/Template/Template_Endpoint_RW.c **** 	while (Length)
  52:../lufa-LUFA/LUFA/Drivers/USB/LowLevel/Template/Template_Endpoint_RW.c **** 	{
  53:../lufa-LUFA/LUFA/Drivers/USB/LowLevel/Template/Template_Endpoint_RW.c **** 		if (!(Endpoint_IsReadWriteAllowed()))
  54:../lufa-LUFA/LUFA/Drivers/USB/LowLevel/Template/Template_Endpoint_RW.c **** 		{
  55:../lufa-LUFA/LUFA/Drivers/USB/LowLevel/Template/Template_Endpoint_RW.c **** 			TEMPLATE_CLEAR_ENDPOINT();
  56:../lufa-LUFA/LUFA/Drivers/USB/LowLevel/Template/Template_Endpoint_RW.c **** 
  57:../lufa-LUFA/LUFA/Drivers/USB/LowLevel/Template/Template_Endpoint_RW.c **** 			#if !defined(NO_STREAM_CALLBACKS)
  58:../lufa-LUFA/LUFA/Drivers/USB/LowLevel/Template/Template_Endpoint_RW.c **** 			if ((Callback != NULL) && (Callback() == STREAMCALLBACK_Abort))
  59:../lufa-LUFA/LUFA/Drivers/USB/LowLevel/Template/Template_Endpoint_RW.c **** 			  return ENDPOINT_RWSTREAM_CallbackAborted;
  60:../lufa-LUFA/LUFA/Drivers/USB/LowLevel/Template/Template_Endpoint_RW.c **** 			#endif
  61:../lufa-LUFA/LUFA/Drivers/USB/LowLevel/Template/Template_Endpoint_RW.c **** 
  62:../lufa-LUFA/LUFA/Drivers/USB/LowLevel/Template/Template_Endpoint_RW.c **** 			if ((ErrorCode = Endpoint_WaitUntilReady()))
 479               		.loc 3 62 0
 480 0012 0E94 0000 		call Endpoint_WaitUntilReady
 481               	.LVL34:
 482 0016 8111      		cpse r24,__zero_reg__
 483 0018 00C0      		rjmp .L54
 484               	.LVL35:
 485               	.L55:
  51:../lufa-LUFA/LUFA/Drivers/USB/LowLevel/Template/Template_Endpoint_RW.c **** 	while (Length)
 486               		.loc 3 51 0 discriminator 1
 487 001a 0115      		cp r16,__zero_reg__
 488 001c 1105      		cpc r17,__zero_reg__
 489 001e 01F0      		breq .L65
 490               	.LBB294:
 491               	.LBB295:
 358:../lufa-LUFA/LUFA/Drivers/USB/LowLevel/Endpoint.h **** 				return ((UEINTX & (1 << RWAL)) ? true : false);
 492               		.loc 2 358 0
 493 0020 8091 E800 		lds r24,232
 494               	.LBE295:
 495               	.LBE294:
  53:../lufa-LUFA/LUFA/Drivers/USB/LowLevel/Template/Template_Endpoint_RW.c **** 		if (!(Endpoint_IsReadWriteAllowed()))
 496               		.loc 3 53 0
 497 0024 85FD      		sbrc r24,5
 498 0026 00C0      		rjmp .L56
 499               	.LBB296:
 500               	.LBB297:
 454:../lufa-LUFA/LUFA/Drivers/USB/LowLevel/Endpoint.h **** 					UEINTX &= ~((1 << TXINI) | (1 << FIFOCON));
 501               		.loc 2 454 0
 502 0028 8091 E800 		lds r24,232
 503 002c 8E77      		andi r24,lo8(126)
 504 002e 8093 E800 		sts 232,r24
 505               	.LBE297:
 506               	.LBE296:
  58:../lufa-LUFA/LUFA/Drivers/USB/LowLevel/Template/Template_Endpoint_RW.c **** 			if ((Callback != NULL) && (Callback() == STREAMCALLBACK_Abort))
 507               		.loc 3 58 0
 508 0032 E114      		cp r14,__zero_reg__
 509 0034 F104      		cpc r15,__zero_reg__
 510 0036 01F0      		breq .L59
  58:../lufa-LUFA/LUFA/Drivers/USB/LowLevel/Template/Template_Endpoint_RW.c **** 			if ((Callback != NULL) && (Callback() == STREAMCALLBACK_Abort))
 511               		.loc 3 58 0 is_stmt 0 discriminator 1
 512 0038 F701      		movw r30,r14
 513 003a 0995      		icall
 514               	.LVL36:
 515 003c 8130      		cpi r24,lo8(1)
 516 003e 01F4      		brne .L59
  59:../lufa-LUFA/LUFA/Drivers/USB/LowLevel/Template/Template_Endpoint_RW.c **** 			  return ENDPOINT_RWSTREAM_CallbackAborted;
 517               		.loc 3 59 0 is_stmt 1
 518 0040 85E0      		ldi r24,lo8(5)
 519 0042 00C0      		rjmp .L54
 520               	.L56:
 521               	.LVL37:
  63:../lufa-LUFA/LUFA/Drivers/USB/LowLevel/Template/Template_Endpoint_RW.c **** 			  return ErrorCode;
  64:../lufa-LUFA/LUFA/Drivers/USB/LowLevel/Template/Template_Endpoint_RW.c **** 		}
  65:../lufa-LUFA/LUFA/Drivers/USB/LowLevel/Template/Template_Endpoint_RW.c **** 		else
  66:../lufa-LUFA/LUFA/Drivers/USB/LowLevel/Template/Template_Endpoint_RW.c **** 		{
  67:../lufa-LUFA/LUFA/Drivers/USB/LowLevel/Template/Template_Endpoint_RW.c **** 			TEMPLATE_TRANSFER_BYTE(DataStream);
 522               		.loc 3 67 0
 523 0044 8881      		ld r24,Y
 524               	.LVL38:
 525               	.LBB298:
 526               	.LBB299:
 562:../lufa-LUFA/LUFA/Drivers/USB/LowLevel/Endpoint.h **** 				UEDATX = Byte;
 527               		.loc 2 562 0
 528 0046 8093 F100 		sts 241,r24
 529               	.LBE299:
 530               	.LBE298:
  68:../lufa-LUFA/LUFA/Drivers/USB/LowLevel/Template/Template_Endpoint_RW.c **** 			Length--;
 531               		.loc 3 68 0
 532 004a 0150      		subi r16,1
 533 004c 1109      		sbc r17,__zero_reg__
 534               	.LVL39:
  67:../lufa-LUFA/LUFA/Drivers/USB/LowLevel/Template/Template_Endpoint_RW.c **** 			TEMPLATE_TRANSFER_BYTE(DataStream);
 535               		.loc 3 67 0
 536 004e 2196      		adiw r28,1
 537               	.LVL40:
 538 0050 00C0      		rjmp .L55
 539               	.LVL41:
 540               	.L65:
  69:../lufa-LUFA/LUFA/Drivers/USB/LowLevel/Template/Template_Endpoint_RW.c **** 		}
  70:../lufa-LUFA/LUFA/Drivers/USB/LowLevel/Template/Template_Endpoint_RW.c **** 	}
  71:../lufa-LUFA/LUFA/Drivers/USB/LowLevel/Template/Template_Endpoint_RW.c **** 
  72:../lufa-LUFA/LUFA/Drivers/USB/LowLevel/Template/Template_Endpoint_RW.c **** 	return ENDPOINT_RWSTREAM_NoError;
 541               		.loc 3 72 0
 542 0052 80E0      		ldi r24,0
 543               	.LVL42:
 544               	.L54:
 545               	/* epilogue start */
  73:../lufa-LUFA/LUFA/Drivers/USB/LowLevel/Template/Template_Endpoint_RW.c **** }
 546               		.loc 3 73 0
 547 0054 DF91      		pop r29
 548 0056 CF91      		pop r28
 549 0058 1F91      		pop r17
 550 005a 0F91      		pop r16
 551               	.LVL43:
 552 005c FF90      		pop r15
 553 005e EF90      		pop r14
 554               	.LVL44:
 555 0060 0895      		ret
 556               		.cfi_endproc
 557               	.LFE70:
 559               		.section	.text.Endpoint_Write_PStream_LE,"ax",@progbits
 560               	.global	Endpoint_Write_PStream_LE
 562               	Endpoint_Write_PStream_LE:
 563               	.LFB71:
   4:../lufa-LUFA/LUFA/Drivers/USB/LowLevel/Template/Template_Endpoint_RW.c **** {
 564               		.loc 3 4 0
 565               		.cfi_startproc
 566               	.LVL45:
 567 0000 EF92      		push r14
 568               	.LCFI10:
 569               		.cfi_def_cfa_offset 3
 570               		.cfi_offset 14, -2
 571 0002 FF92      		push r15
 572               	.LCFI11:
 573               		.cfi_def_cfa_offset 4
 574               		.cfi_offset 15, -3
 575 0004 0F93      		push r16
 576               	.LCFI12:
 577               		.cfi_def_cfa_offset 5
 578               		.cfi_offset 16, -4
 579 0006 1F93      		push r17
 580               	.LCFI13:
 581               		.cfi_def_cfa_offset 6
 582               		.cfi_offset 17, -5
 583 0008 CF93      		push r28
 584               	.LCFI14:
 585               		.cfi_def_cfa_offset 7
 586               		.cfi_offset 28, -6
 587 000a DF93      		push r29
 588               	.LCFI15:
 589               		.cfi_def_cfa_offset 8
 590               		.cfi_offset 29, -7
 591               	/* prologue: function */
 592               	/* frame size = 0 */
 593               	/* stack size = 6 */
 594               	.L__stack_usage = 6
 595 000c EC01      		movw r28,r24
 596 000e 8B01      		movw r16,r22
 597 0010 7A01      		movw r14,r20
 598               	.LVL46:
 599               	.L72:
  62:../lufa-LUFA/LUFA/Drivers/USB/LowLevel/Template/Template_Endpoint_RW.c **** 			if ((ErrorCode = Endpoint_WaitUntilReady()))
 600               		.loc 3 62 0
 601 0012 0E94 0000 		call Endpoint_WaitUntilReady
 602               	.LVL47:
 603 0016 8111      		cpse r24,__zero_reg__
 604 0018 00C0      		rjmp .L67
 605               	.LVL48:
 606               	.L68:
  51:../lufa-LUFA/LUFA/Drivers/USB/LowLevel/Template/Template_Endpoint_RW.c **** 	while (Length)
 607               		.loc 3 51 0 discriminator 1
 608 001a 0115      		cp r16,__zero_reg__
 609 001c 1105      		cpc r17,__zero_reg__
 610 001e 01F0      		breq .L78
 611               	.LBB300:
 612               	.LBB301:
 358:../lufa-LUFA/LUFA/Drivers/USB/LowLevel/Endpoint.h **** 				return ((UEINTX & (1 << RWAL)) ? true : false);
 613               		.loc 2 358 0
 614 0020 8091 E800 		lds r24,232
 615               	.LBE301:
 616               	.LBE300:
  53:../lufa-LUFA/LUFA/Drivers/USB/LowLevel/Template/Template_Endpoint_RW.c **** 		if (!(Endpoint_IsReadWriteAllowed()))
 617               		.loc 3 53 0
 618 0024 85FD      		sbrc r24,5
 619 0026 00C0      		rjmp .L69
 620               	.LBB302:
 621               	.LBB303:
 454:../lufa-LUFA/LUFA/Drivers/USB/LowLevel/Endpoint.h **** 					UEINTX &= ~((1 << TXINI) | (1 << FIFOCON));
 622               		.loc 2 454 0
 623 0028 8091 E800 		lds r24,232
 624 002c 8E77      		andi r24,lo8(126)
 625 002e 8093 E800 		sts 232,r24
 626               	.LBE303:
 627               	.LBE302:
  58:../lufa-LUFA/LUFA/Drivers/USB/LowLevel/Template/Template_Endpoint_RW.c **** 			if ((Callback != NULL) && (Callback() == STREAMCALLBACK_Abort))
 628               		.loc 3 58 0
 629 0032 E114      		cp r14,__zero_reg__
 630 0034 F104      		cpc r15,__zero_reg__
 631 0036 01F0      		breq .L72
  58:../lufa-LUFA/LUFA/Drivers/USB/LowLevel/Template/Template_Endpoint_RW.c **** 			if ((Callback != NULL) && (Callback() == STREAMCALLBACK_Abort))
 632               		.loc 3 58 0 is_stmt 0 discriminator 1
 633 0038 F701      		movw r30,r14
 634 003a 0995      		icall
 635               	.LVL49:
 636 003c 8130      		cpi r24,lo8(1)
 637 003e 01F4      		brne .L72
  59:../lufa-LUFA/LUFA/Drivers/USB/LowLevel/Template/Template_Endpoint_RW.c **** 			  return ENDPOINT_RWSTREAM_CallbackAborted;
 638               		.loc 3 59 0 is_stmt 1
 639 0040 85E0      		ldi r24,lo8(5)
 640 0042 00C0      		rjmp .L67
 641               	.L69:
 642               	.LVL50:
 643               	.LBB304:
  67:../lufa-LUFA/LUFA/Drivers/USB/LowLevel/Template/Template_Endpoint_RW.c **** 			TEMPLATE_TRANSFER_BYTE(DataStream);
 644               		.loc 3 67 0
 645 0044 FE01      		movw r30,r28
 646               	/* #APP */
 647               	 ;  67 "../lufa-LUFA/LUFA/Drivers/USB/LowLevel/Template/Template_Endpoint_RW.c" 1
 648 0046 8491      		lpm r24, Z
 649               		
 650               	 ;  0 "" 2
 651               	.LVL51:
 652               	/* #NOAPP */
 653               	.LBE304:
 654               	.LBB305:
 655               	.LBB306:
 562:../lufa-LUFA/LUFA/Drivers/USB/LowLevel/Endpoint.h **** 				UEDATX = Byte;
 656               		.loc 2 562 0
 657 0048 8093 F100 		sts 241,r24
 658               	.LBE306:
 659               	.LBE305:
  68:../lufa-LUFA/LUFA/Drivers/USB/LowLevel/Template/Template_Endpoint_RW.c **** 			Length--;
 660               		.loc 3 68 0
 661 004c 0150      		subi r16,1
 662 004e 1109      		sbc r17,__zero_reg__
 663               	.LVL52:
 664               	.LBB307:
  67:../lufa-LUFA/LUFA/Drivers/USB/LowLevel/Template/Template_Endpoint_RW.c **** 			TEMPLATE_TRANSFER_BYTE(DataStream);
 665               		.loc 3 67 0
 666 0050 2196      		adiw r28,1
 667               	.LVL53:
 668 0052 00C0      		rjmp .L68
 669               	.LVL54:
 670               	.L78:
 671               	.LBE307:
  72:../lufa-LUFA/LUFA/Drivers/USB/LowLevel/Template/Template_Endpoint_RW.c **** 	return ENDPOINT_RWSTREAM_NoError;
 672               		.loc 3 72 0
 673 0054 80E0      		ldi r24,0
 674               	.LVL55:
 675               	.L67:
 676               	/* epilogue start */
 677               		.loc 3 73 0
 678 0056 DF91      		pop r29
 679 0058 CF91      		pop r28
 680 005a 1F91      		pop r17
 681 005c 0F91      		pop r16
 682               	.LVL56:
 683 005e FF90      		pop r15
 684 0060 EF90      		pop r14
 685               	.LVL57:
 686 0062 0895      		ret
 687               		.cfi_endproc
 688               	.LFE71:
 690               		.section	.text.Endpoint_Write_EStream_LE,"ax",@progbits
 691               	.global	Endpoint_Write_EStream_LE
 693               	Endpoint_Write_EStream_LE:
 694               	.LFB72:
   4:../lufa-LUFA/LUFA/Drivers/USB/LowLevel/Template/Template_Endpoint_RW.c **** {
 695               		.loc 3 4 0
 696               		.cfi_startproc
 697               	.LVL58:
 698 0000 CF92      		push r12
 699               	.LCFI16:
 700               		.cfi_def_cfa_offset 3
 701               		.cfi_offset 12, -2
 702 0002 DF92      		push r13
 703               	.LCFI17:
 704               		.cfi_def_cfa_offset 4
 705               		.cfi_offset 13, -3
 706 0004 EF92      		push r14
 707               	.LCFI18:
 708               		.cfi_def_cfa_offset 5
 709               		.cfi_offset 14, -4
 710 0006 FF92      		push r15
 711               	.LCFI19:
 712               		.cfi_def_cfa_offset 6
 713               		.cfi_offset 15, -5
 714 0008 0F93      		push r16
 715               	.LCFI20:
 716               		.cfi_def_cfa_offset 7
 717               		.cfi_offset 16, -6
 718 000a 1F93      		push r17
 719               	.LCFI21:
 720               		.cfi_def_cfa_offset 8
 721               		.cfi_offset 17, -7
 722 000c CF93      		push r28
 723               	.LCFI22:
 724               		.cfi_def_cfa_offset 9
 725               		.cfi_offset 28, -8
 726 000e DF93      		push r29
 727               	.LCFI23:
 728               		.cfi_def_cfa_offset 10
 729               		.cfi_offset 29, -9
 730               	/* prologue: function */
 731               	/* frame size = 0 */
 732               	/* stack size = 8 */
 733               	.L__stack_usage = 8
 734 0010 EC01      		movw r28,r24
 735 0012 8B01      		movw r16,r22
 736 0014 7A01      		movw r14,r20
 737               	.LVL59:
 738               	.L85:
  62:../lufa-LUFA/LUFA/Drivers/USB/LowLevel/Template/Template_Endpoint_RW.c **** 			if ((ErrorCode = Endpoint_WaitUntilReady()))
 739               		.loc 3 62 0
 740 0016 0E94 0000 		call Endpoint_WaitUntilReady
 741               	.LVL60:
 742 001a 8111      		cpse r24,__zero_reg__
 743 001c 00C0      		rjmp .L80
 744               	.LVL61:
 745               	.L81:
  51:../lufa-LUFA/LUFA/Drivers/USB/LowLevel/Template/Template_Endpoint_RW.c **** 	while (Length)
 746               		.loc 3 51 0 discriminator 1
 747 001e 0115      		cp r16,__zero_reg__
 748 0020 1105      		cpc r17,__zero_reg__
 749 0022 01F0      		breq .L91
 750               	.LBB308:
 751               	.LBB309:
 358:../lufa-LUFA/LUFA/Drivers/USB/LowLevel/Endpoint.h **** 				return ((UEINTX & (1 << RWAL)) ? true : false);
 752               		.loc 2 358 0
 753 0024 8091 E800 		lds r24,232
 754               	.LBE309:
 755               	.LBE308:
  53:../lufa-LUFA/LUFA/Drivers/USB/LowLevel/Template/Template_Endpoint_RW.c **** 		if (!(Endpoint_IsReadWriteAllowed()))
 756               		.loc 3 53 0
 757 0028 85FD      		sbrc r24,5
 758 002a 00C0      		rjmp .L82
 759               	.LBB310:
 760               	.LBB311:
 454:../lufa-LUFA/LUFA/Drivers/USB/LowLevel/Endpoint.h **** 					UEINTX &= ~((1 << TXINI) | (1 << FIFOCON));
 761               		.loc 2 454 0
 762 002c 8091 E800 		lds r24,232
 763 0030 8E77      		andi r24,lo8(126)
 764 0032 8093 E800 		sts 232,r24
 765               	.LBE311:
 766               	.LBE310:
  58:../lufa-LUFA/LUFA/Drivers/USB/LowLevel/Template/Template_Endpoint_RW.c **** 			if ((Callback != NULL) && (Callback() == STREAMCALLBACK_Abort))
 767               		.loc 3 58 0
 768 0036 E114      		cp r14,__zero_reg__
 769 0038 F104      		cpc r15,__zero_reg__
 770 003a 01F0      		breq .L85
  58:../lufa-LUFA/LUFA/Drivers/USB/LowLevel/Template/Template_Endpoint_RW.c **** 			if ((Callback != NULL) && (Callback() == STREAMCALLBACK_Abort))
 771               		.loc 3 58 0 is_stmt 0 discriminator 1
 772 003c F701      		movw r30,r14
 773 003e 0995      		icall
 774               	.LVL62:
 775 0040 8130      		cpi r24,lo8(1)
 776 0042 01F4      		brne .L85
  59:../lufa-LUFA/LUFA/Drivers/USB/LowLevel/Template/Template_Endpoint_RW.c **** 			  return ENDPOINT_RWSTREAM_CallbackAborted;
 777               		.loc 3 59 0 is_stmt 1
 778 0044 85E0      		ldi r24,lo8(5)
 779 0046 00C0      		rjmp .L80
 780               	.L82:
  67:../lufa-LUFA/LUFA/Drivers/USB/LowLevel/Template/Template_Endpoint_RW.c **** 			TEMPLATE_TRANSFER_BYTE(DataStream);
 781               		.loc 3 67 0
 782 0048 6E01      		movw r12,r28
 783 004a FFEF      		ldi r31,-1
 784 004c CF1A      		sub r12,r31
 785 004e DF0A      		sbc r13,r31
 786               	.LVL63:
 787 0050 CE01      		movw r24,r28
 788 0052 0E94 0000 		call __eerd_byte_m8u2
 789               	.LVL64:
 790               	.LBB312:
 791               	.LBB313:
 562:../lufa-LUFA/LUFA/Drivers/USB/LowLevel/Endpoint.h **** 				UEDATX = Byte;
 792               		.loc 2 562 0
 793 0056 8093 F100 		sts 241,r24
 794               	.LBE313:
 795               	.LBE312:
  68:../lufa-LUFA/LUFA/Drivers/USB/LowLevel/Template/Template_Endpoint_RW.c **** 			Length--;
 796               		.loc 3 68 0
 797 005a 0150      		subi r16,1
 798 005c 1109      		sbc r17,__zero_reg__
 799               	.LVL65:
  67:../lufa-LUFA/LUFA/Drivers/USB/LowLevel/Template/Template_Endpoint_RW.c **** 			TEMPLATE_TRANSFER_BYTE(DataStream);
 800               		.loc 3 67 0
 801 005e E601      		movw r28,r12
 802 0060 00C0      		rjmp .L81
 803               	.LVL66:
 804               	.L91:
  72:../lufa-LUFA/LUFA/Drivers/USB/LowLevel/Template/Template_Endpoint_RW.c **** 	return ENDPOINT_RWSTREAM_NoError;
 805               		.loc 3 72 0
 806 0062 80E0      		ldi r24,0
 807               	.LVL67:
 808               	.L80:
 809               	/* epilogue start */
 810               		.loc 3 73 0
 811 0064 DF91      		pop r29
 812 0066 CF91      		pop r28
 813 0068 1F91      		pop r17
 814 006a 0F91      		pop r16
 815               	.LVL68:
 816 006c FF90      		pop r15
 817 006e EF90      		pop r14
 818               	.LVL69:
 819 0070 DF90      		pop r13
 820 0072 CF90      		pop r12
 821 0074 0895      		ret
 822               		.cfi_endproc
 823               	.LFE72:
 825               		.section	.text.Endpoint_Write_Stream_BE,"ax",@progbits
 826               	.global	Endpoint_Write_Stream_BE
 828               	Endpoint_Write_Stream_BE:
 829               	.LFB73:
   4:../lufa-LUFA/LUFA/Drivers/USB/LowLevel/Template/Template_Endpoint_RW.c **** {
 830               		.loc 3 4 0
 831               		.cfi_startproc
 832               	.LVL70:
 833 0000 CF92      		push r12
 834               	.LCFI24:
 835               		.cfi_def_cfa_offset 3
 836               		.cfi_offset 12, -2
 837 0002 DF92      		push r13
 838               	.LCFI25:
 839               		.cfi_def_cfa_offset 4
 840               		.cfi_offset 13, -3
 841 0004 EF92      		push r14
 842               	.LCFI26:
 843               		.cfi_def_cfa_offset 5
 844               		.cfi_offset 14, -4
 845 0006 FF92      		push r15
 846               	.LCFI27:
 847               		.cfi_def_cfa_offset 6
 848               		.cfi_offset 15, -5
 849 0008 0F93      		push r16
 850               	.LCFI28:
 851               		.cfi_def_cfa_offset 7
 852               		.cfi_offset 16, -6
 853 000a 1F93      		push r17
 854               	.LCFI29:
 855               		.cfi_def_cfa_offset 8
 856               		.cfi_offset 17, -7
 857 000c CF93      		push r28
 858               	.LCFI30:
 859               		.cfi_def_cfa_offset 9
 860               		.cfi_offset 28, -8
 861 000e DF93      		push r29
 862               	.LCFI31:
 863               		.cfi_def_cfa_offset 10
 864               		.cfi_offset 29, -9
 865               	/* prologue: function */
 866               	/* frame size = 0 */
 867               	/* stack size = 8 */
 868               	.L__stack_usage = 8
 869 0010 6C01      		movw r12,r24
 870 0012 8B01      		movw r16,r22
 871 0014 7A01      		movw r14,r20
 872               	.LVL71:
   8:../lufa-LUFA/LUFA/Drivers/USB/LowLevel/Template/Template_Endpoint_RW.c **** 	if ((ErrorCode = Endpoint_WaitUntilReady()))
 873               		.loc 3 8 0
 874 0016 0E94 0000 		call Endpoint_WaitUntilReady
 875               	.LVL72:
 876 001a 8111      		cpse r24,__zero_reg__
 877 001c 00C0      		rjmp .L93
   5:../lufa-LUFA/LUFA/Drivers/USB/LowLevel/Template/Template_Endpoint_RW.c **** 	uint8_t* DataStream = ((uint8_t*)Buffer + TEMPLATE_BUFFER_OFFSET(Length));
 878               		.loc 3 5 0
 879 001e E801      		movw r28,r16
 880 0020 2197      		sbiw r28,1
 881               	.LVL73:
 882 0022 CC0D      		add r28,r12
 883 0024 DD1D      		adc r29,r13
 884               	.LVL74:
 885               	.L94:
  51:../lufa-LUFA/LUFA/Drivers/USB/LowLevel/Template/Template_Endpoint_RW.c **** 	while (Length)
 886               		.loc 3 51 0 discriminator 1
 887 0026 0115      		cp r16,__zero_reg__
 888 0028 1105      		cpc r17,__zero_reg__
 889 002a 01F0      		breq .L103
 890               	.LBB314:
 891               	.LBB315:
 358:../lufa-LUFA/LUFA/Drivers/USB/LowLevel/Endpoint.h **** 				return ((UEINTX & (1 << RWAL)) ? true : false);
 892               		.loc 2 358 0
 893 002c 8091 E800 		lds r24,232
 894               	.LBE315:
 895               	.LBE314:
  53:../lufa-LUFA/LUFA/Drivers/USB/LowLevel/Template/Template_Endpoint_RW.c **** 		if (!(Endpoint_IsReadWriteAllowed()))
 896               		.loc 3 53 0
 897 0030 85FD      		sbrc r24,5
 898 0032 00C0      		rjmp .L95
 899               	.LBB316:
 900               	.LBB317:
 454:../lufa-LUFA/LUFA/Drivers/USB/LowLevel/Endpoint.h **** 					UEINTX &= ~((1 << TXINI) | (1 << FIFOCON));
 901               		.loc 2 454 0
 902 0034 8091 E800 		lds r24,232
 903 0038 8E77      		andi r24,lo8(126)
 904 003a 8093 E800 		sts 232,r24
 905               	.LBE317:
 906               	.LBE316:
  58:../lufa-LUFA/LUFA/Drivers/USB/LowLevel/Template/Template_Endpoint_RW.c **** 			if ((Callback != NULL) && (Callback() == STREAMCALLBACK_Abort))
 907               		.loc 3 58 0
 908 003e E114      		cp r14,__zero_reg__
 909 0040 F104      		cpc r15,__zero_reg__
 910 0042 01F4      		brne .L96
 911               	.L98:
  62:../lufa-LUFA/LUFA/Drivers/USB/LowLevel/Template/Template_Endpoint_RW.c **** 			if ((ErrorCode = Endpoint_WaitUntilReady()))
 912               		.loc 3 62 0
 913 0044 0E94 0000 		call Endpoint_WaitUntilReady
 914               	.LVL75:
 915 0048 8823      		tst r24
 916 004a 01F0      		breq .L94
 917 004c 00C0      		rjmp .L93
 918               	.LVL76:
 919               	.L96:
  58:../lufa-LUFA/LUFA/Drivers/USB/LowLevel/Template/Template_Endpoint_RW.c **** 			if ((Callback != NULL) && (Callback() == STREAMCALLBACK_Abort))
 920               		.loc 3 58 0 discriminator 1
 921 004e F701      		movw r30,r14
 922 0050 0995      		icall
 923               	.LVL77:
 924 0052 8130      		cpi r24,lo8(1)
 925 0054 01F4      		brne .L98
  59:../lufa-LUFA/LUFA/Drivers/USB/LowLevel/Template/Template_Endpoint_RW.c **** 			  return ENDPOINT_RWSTREAM_CallbackAborted;
 926               		.loc 3 59 0
 927 0056 85E0      		ldi r24,lo8(5)
 928 0058 00C0      		rjmp .L93
 929               	.L95:
 930               	.LVL78:
  67:../lufa-LUFA/LUFA/Drivers/USB/LowLevel/Template/Template_Endpoint_RW.c **** 			TEMPLATE_TRANSFER_BYTE(DataStream);
 931               		.loc 3 67 0
 932 005a 8881      		ld r24,Y
 933               	.LVL79:
 934               	.LBB318:
 935               	.LBB319:
 562:../lufa-LUFA/LUFA/Drivers/USB/LowLevel/Endpoint.h **** 				UEDATX = Byte;
 936               		.loc 2 562 0
 937 005c 8093 F100 		sts 241,r24
 938               	.LBE319:
 939               	.LBE318:
  68:../lufa-LUFA/LUFA/Drivers/USB/LowLevel/Template/Template_Endpoint_RW.c **** 			Length--;
 940               		.loc 3 68 0
 941 0060 0150      		subi r16,1
 942 0062 1109      		sbc r17,__zero_reg__
 943               	.LVL80:
  67:../lufa-LUFA/LUFA/Drivers/USB/LowLevel/Template/Template_Endpoint_RW.c **** 			TEMPLATE_TRANSFER_BYTE(DataStream);
 944               		.loc 3 67 0
 945 0064 2197      		sbiw r28,1
 946               	.LVL81:
 947 0066 00C0      		rjmp .L94
 948               	.LVL82:
 949               	.L103:
  72:../lufa-LUFA/LUFA/Drivers/USB/LowLevel/Template/Template_Endpoint_RW.c **** 	return ENDPOINT_RWSTREAM_NoError;
 950               		.loc 3 72 0
 951 0068 80E0      		ldi r24,0
 952               	.LVL83:
 953               	.L93:
 954               	/* epilogue start */
 955               		.loc 3 73 0
 956 006a DF91      		pop r29
 957 006c CF91      		pop r28
 958 006e 1F91      		pop r17
 959 0070 0F91      		pop r16
 960               	.LVL84:
 961 0072 FF90      		pop r15
 962 0074 EF90      		pop r14
 963               	.LVL85:
 964 0076 DF90      		pop r13
 965 0078 CF90      		pop r12
 966               	.LVL86:
 967 007a 0895      		ret
 968               		.cfi_endproc
 969               	.LFE73:
 971               		.section	.text.Endpoint_Write_EStream_BE,"ax",@progbits
 972               	.global	Endpoint_Write_EStream_BE
 974               	Endpoint_Write_EStream_BE:
 975               	.LFB74:
   4:../lufa-LUFA/LUFA/Drivers/USB/LowLevel/Template/Template_Endpoint_RW.c **** {
 976               		.loc 3 4 0
 977               		.cfi_startproc
 978               	.LVL87:
 979 0000 CF92      		push r12
 980               	.LCFI32:
 981               		.cfi_def_cfa_offset 3
 982               		.cfi_offset 12, -2
 983 0002 DF92      		push r13
 984               	.LCFI33:
 985               		.cfi_def_cfa_offset 4
 986               		.cfi_offset 13, -3
 987 0004 EF92      		push r14
 988               	.LCFI34:
 989               		.cfi_def_cfa_offset 5
 990               		.cfi_offset 14, -4
 991 0006 FF92      		push r15
 992               	.LCFI35:
 993               		.cfi_def_cfa_offset 6
 994               		.cfi_offset 15, -5
 995 0008 0F93      		push r16
 996               	.LCFI36:
 997               		.cfi_def_cfa_offset 7
 998               		.cfi_offset 16, -6
 999 000a 1F93      		push r17
 1000               	.LCFI37:
 1001               		.cfi_def_cfa_offset 8
 1002               		.cfi_offset 17, -7
 1003 000c CF93      		push r28
 1004               	.LCFI38:
 1005               		.cfi_def_cfa_offset 9
 1006               		.cfi_offset 28, -8
 1007 000e DF93      		push r29
 1008               	.LCFI39:
 1009               		.cfi_def_cfa_offset 10
 1010               		.cfi_offset 29, -9
 1011               	/* prologue: function */
 1012               	/* frame size = 0 */
 1013               	/* stack size = 8 */
 1014               	.L__stack_usage = 8
 1015 0010 6C01      		movw r12,r24
 1016 0012 8B01      		movw r16,r22
 1017 0014 7A01      		movw r14,r20
 1018               	.LVL88:
   8:../lufa-LUFA/LUFA/Drivers/USB/LowLevel/Template/Template_Endpoint_RW.c **** 	if ((ErrorCode = Endpoint_WaitUntilReady()))
 1019               		.loc 3 8 0
 1020 0016 0E94 0000 		call Endpoint_WaitUntilReady
 1021               	.LVL89:
 1022 001a 8111      		cpse r24,__zero_reg__
 1023 001c 00C0      		rjmp .L105
   5:../lufa-LUFA/LUFA/Drivers/USB/LowLevel/Template/Template_Endpoint_RW.c **** 	uint8_t* DataStream = ((uint8_t*)Buffer + TEMPLATE_BUFFER_OFFSET(Length));
 1024               		.loc 3 5 0
 1025 001e E801      		movw r28,r16
 1026 0020 2197      		sbiw r28,1
 1027               	.LVL90:
 1028 0022 CC0D      		add r28,r12
 1029 0024 DD1D      		adc r29,r13
 1030               	.LVL91:
 1031               	.L106:
  51:../lufa-LUFA/LUFA/Drivers/USB/LowLevel/Template/Template_Endpoint_RW.c **** 	while (Length)
 1032               		.loc 3 51 0 discriminator 1
 1033 0026 0115      		cp r16,__zero_reg__
 1034 0028 1105      		cpc r17,__zero_reg__
 1035 002a 01F0      		breq .L115
 1036               	.LBB320:
 1037               	.LBB321:
 358:../lufa-LUFA/LUFA/Drivers/USB/LowLevel/Endpoint.h **** 				return ((UEINTX & (1 << RWAL)) ? true : false);
 1038               		.loc 2 358 0
 1039 002c 8091 E800 		lds r24,232
 1040               	.LBE321:
 1041               	.LBE320:
  53:../lufa-LUFA/LUFA/Drivers/USB/LowLevel/Template/Template_Endpoint_RW.c **** 		if (!(Endpoint_IsReadWriteAllowed()))
 1042               		.loc 3 53 0
 1043 0030 85FD      		sbrc r24,5
 1044 0032 00C0      		rjmp .L107
 1045               	.LBB322:
 1046               	.LBB323:
 454:../lufa-LUFA/LUFA/Drivers/USB/LowLevel/Endpoint.h **** 					UEINTX &= ~((1 << TXINI) | (1 << FIFOCON));
 1047               		.loc 2 454 0
 1048 0034 8091 E800 		lds r24,232
 1049 0038 8E77      		andi r24,lo8(126)
 1050 003a 8093 E800 		sts 232,r24
 1051               	.LBE323:
 1052               	.LBE322:
  58:../lufa-LUFA/LUFA/Drivers/USB/LowLevel/Template/Template_Endpoint_RW.c **** 			if ((Callback != NULL) && (Callback() == STREAMCALLBACK_Abort))
 1053               		.loc 3 58 0
 1054 003e E114      		cp r14,__zero_reg__
 1055 0040 F104      		cpc r15,__zero_reg__
 1056 0042 01F4      		brne .L108
 1057               	.L110:
  62:../lufa-LUFA/LUFA/Drivers/USB/LowLevel/Template/Template_Endpoint_RW.c **** 			if ((ErrorCode = Endpoint_WaitUntilReady()))
 1058               		.loc 3 62 0
 1059 0044 0E94 0000 		call Endpoint_WaitUntilReady
 1060               	.LVL92:
 1061 0048 8823      		tst r24
 1062 004a 01F0      		breq .L106
 1063 004c 00C0      		rjmp .L105
 1064               	.LVL93:
 1065               	.L108:
  58:../lufa-LUFA/LUFA/Drivers/USB/LowLevel/Template/Template_Endpoint_RW.c **** 			if ((Callback != NULL) && (Callback() == STREAMCALLBACK_Abort))
 1066               		.loc 3 58 0 discriminator 1
 1067 004e F701      		movw r30,r14
 1068 0050 0995      		icall
 1069               	.LVL94:
 1070 0052 8130      		cpi r24,lo8(1)
 1071 0054 01F4      		brne .L110
  59:../lufa-LUFA/LUFA/Drivers/USB/LowLevel/Template/Template_Endpoint_RW.c **** 			  return ENDPOINT_RWSTREAM_CallbackAborted;
 1072               		.loc 3 59 0
 1073 0056 85E0      		ldi r24,lo8(5)
 1074 0058 00C0      		rjmp .L105
 1075               	.L107:
  67:../lufa-LUFA/LUFA/Drivers/USB/LowLevel/Template/Template_Endpoint_RW.c **** 			TEMPLATE_TRANSFER_BYTE(DataStream);
 1076               		.loc 3 67 0
 1077 005a 6E01      		movw r12,r28
 1078 005c F1E0      		ldi r31,1
 1079 005e CF1A      		sub r12,r31
 1080 0060 D108      		sbc r13,__zero_reg__
 1081               	.LVL95:
 1082 0062 CE01      		movw r24,r28
 1083 0064 0E94 0000 		call __eerd_byte_m8u2
 1084               	.LVL96:
 1085               	.LBB324:
 1086               	.LBB325:
 562:../lufa-LUFA/LUFA/Drivers/USB/LowLevel/Endpoint.h **** 				UEDATX = Byte;
 1087               		.loc 2 562 0
 1088 0068 8093 F100 		sts 241,r24
 1089               	.LBE325:
 1090               	.LBE324:
  68:../lufa-LUFA/LUFA/Drivers/USB/LowLevel/Template/Template_Endpoint_RW.c **** 			Length--;
 1091               		.loc 3 68 0
 1092 006c 0150      		subi r16,1
 1093 006e 1109      		sbc r17,__zero_reg__
 1094               	.LVL97:
  67:../lufa-LUFA/LUFA/Drivers/USB/LowLevel/Template/Template_Endpoint_RW.c **** 			TEMPLATE_TRANSFER_BYTE(DataStream);
 1095               		.loc 3 67 0
 1096 0070 E601      		movw r28,r12
 1097 0072 00C0      		rjmp .L106
 1098               	.LVL98:
 1099               	.L115:
  72:../lufa-LUFA/LUFA/Drivers/USB/LowLevel/Template/Template_Endpoint_RW.c **** 	return ENDPOINT_RWSTREAM_NoError;
 1100               		.loc 3 72 0
 1101 0074 80E0      		ldi r24,0
 1102               	.LVL99:
 1103               	.L105:
 1104               	/* epilogue start */
 1105               		.loc 3 73 0
 1106 0076 DF91      		pop r29
 1107 0078 CF91      		pop r28
 1108 007a 1F91      		pop r17
 1109 007c 0F91      		pop r16
 1110               	.LVL100:
 1111 007e FF90      		pop r15
 1112 0080 EF90      		pop r14
 1113               	.LVL101:
 1114 0082 DF90      		pop r13
 1115 0084 CF90      		pop r12
 1116 0086 0895      		ret
 1117               		.cfi_endproc
 1118               	.LFE74:
 1120               		.section	.text.Endpoint_Write_PStream_BE,"ax",@progbits
 1121               	.global	Endpoint_Write_PStream_BE
 1123               	Endpoint_Write_PStream_BE:
 1124               	.LFB75:
   4:../lufa-LUFA/LUFA/Drivers/USB/LowLevel/Template/Template_Endpoint_RW.c **** {
 1125               		.loc 3 4 0
 1126               		.cfi_startproc
 1127               	.LVL102:
 1128 0000 CF92      		push r12
 1129               	.LCFI40:
 1130               		.cfi_def_cfa_offset 3
 1131               		.cfi_offset 12, -2
 1132 0002 DF92      		push r13
 1133               	.LCFI41:
 1134               		.cfi_def_cfa_offset 4
 1135               		.cfi_offset 13, -3
 1136 0004 EF92      		push r14
 1137               	.LCFI42:
 1138               		.cfi_def_cfa_offset 5
 1139               		.cfi_offset 14, -4
 1140 0006 FF92      		push r15
 1141               	.LCFI43:
 1142               		.cfi_def_cfa_offset 6
 1143               		.cfi_offset 15, -5
 1144 0008 0F93      		push r16
 1145               	.LCFI44:
 1146               		.cfi_def_cfa_offset 7
 1147               		.cfi_offset 16, -6
 1148 000a 1F93      		push r17
 1149               	.LCFI45:
 1150               		.cfi_def_cfa_offset 8
 1151               		.cfi_offset 17, -7
 1152 000c CF93      		push r28
 1153               	.LCFI46:
 1154               		.cfi_def_cfa_offset 9
 1155               		.cfi_offset 28, -8
 1156 000e DF93      		push r29
 1157               	.LCFI47:
 1158               		.cfi_def_cfa_offset 10
 1159               		.cfi_offset 29, -9
 1160               	/* prologue: function */
 1161               	/* frame size = 0 */
 1162               	/* stack size = 8 */
 1163               	.L__stack_usage = 8
 1164 0010 6C01      		movw r12,r24
 1165 0012 8B01      		movw r16,r22
 1166 0014 7A01      		movw r14,r20
 1167               	.LVL103:
   8:../lufa-LUFA/LUFA/Drivers/USB/LowLevel/Template/Template_Endpoint_RW.c **** 	if ((ErrorCode = Endpoint_WaitUntilReady()))
 1168               		.loc 3 8 0
 1169 0016 0E94 0000 		call Endpoint_WaitUntilReady
 1170               	.LVL104:
 1171 001a 8111      		cpse r24,__zero_reg__
 1172 001c 00C0      		rjmp .L117
   5:../lufa-LUFA/LUFA/Drivers/USB/LowLevel/Template/Template_Endpoint_RW.c **** 	uint8_t* DataStream = ((uint8_t*)Buffer + TEMPLATE_BUFFER_OFFSET(Length));
 1173               		.loc 3 5 0
 1174 001e E801      		movw r28,r16
 1175 0020 2197      		sbiw r28,1
 1176               	.LVL105:
 1177 0022 CC0D      		add r28,r12
 1178 0024 DD1D      		adc r29,r13
 1179               	.LVL106:
 1180               	.L118:
  51:../lufa-LUFA/LUFA/Drivers/USB/LowLevel/Template/Template_Endpoint_RW.c **** 	while (Length)
 1181               		.loc 3 51 0 discriminator 1
 1182 0026 0115      		cp r16,__zero_reg__
 1183 0028 1105      		cpc r17,__zero_reg__
 1184 002a 01F0      		breq .L127
 1185               	.LBB326:
 1186               	.LBB327:
 358:../lufa-LUFA/LUFA/Drivers/USB/LowLevel/Endpoint.h **** 				return ((UEINTX & (1 << RWAL)) ? true : false);
 1187               		.loc 2 358 0
 1188 002c 8091 E800 		lds r24,232
 1189               	.LBE327:
 1190               	.LBE326:
  53:../lufa-LUFA/LUFA/Drivers/USB/LowLevel/Template/Template_Endpoint_RW.c **** 		if (!(Endpoint_IsReadWriteAllowed()))
 1191               		.loc 3 53 0
 1192 0030 85FD      		sbrc r24,5
 1193 0032 00C0      		rjmp .L119
 1194               	.LBB328:
 1195               	.LBB329:
 454:../lufa-LUFA/LUFA/Drivers/USB/LowLevel/Endpoint.h **** 					UEINTX &= ~((1 << TXINI) | (1 << FIFOCON));
 1196               		.loc 2 454 0
 1197 0034 8091 E800 		lds r24,232
 1198 0038 8E77      		andi r24,lo8(126)
 1199 003a 8093 E800 		sts 232,r24
 1200               	.LBE329:
 1201               	.LBE328:
  58:../lufa-LUFA/LUFA/Drivers/USB/LowLevel/Template/Template_Endpoint_RW.c **** 			if ((Callback != NULL) && (Callback() == STREAMCALLBACK_Abort))
 1202               		.loc 3 58 0
 1203 003e E114      		cp r14,__zero_reg__
 1204 0040 F104      		cpc r15,__zero_reg__
 1205 0042 01F4      		brne .L120
 1206               	.L122:
  62:../lufa-LUFA/LUFA/Drivers/USB/LowLevel/Template/Template_Endpoint_RW.c **** 			if ((ErrorCode = Endpoint_WaitUntilReady()))
 1207               		.loc 3 62 0
 1208 0044 0E94 0000 		call Endpoint_WaitUntilReady
 1209               	.LVL107:
 1210 0048 8823      		tst r24
 1211 004a 01F0      		breq .L118
 1212 004c 00C0      		rjmp .L117
 1213               	.LVL108:
 1214               	.L120:
  58:../lufa-LUFA/LUFA/Drivers/USB/LowLevel/Template/Template_Endpoint_RW.c **** 			if ((Callback != NULL) && (Callback() == STREAMCALLBACK_Abort))
 1215               		.loc 3 58 0 discriminator 1
 1216 004e F701      		movw r30,r14
 1217 0050 0995      		icall
 1218               	.LVL109:
 1219 0052 8130      		cpi r24,lo8(1)
 1220 0054 01F4      		brne .L122
  59:../lufa-LUFA/LUFA/Drivers/USB/LowLevel/Template/Template_Endpoint_RW.c **** 			  return ENDPOINT_RWSTREAM_CallbackAborted;
 1221               		.loc 3 59 0
 1222 0056 85E0      		ldi r24,lo8(5)
 1223 0058 00C0      		rjmp .L117
 1224               	.L119:
 1225               	.LVL110:
 1226               	.LBB330:
  67:../lufa-LUFA/LUFA/Drivers/USB/LowLevel/Template/Template_Endpoint_RW.c **** 			TEMPLATE_TRANSFER_BYTE(DataStream);
 1227               		.loc 3 67 0
 1228 005a FE01      		movw r30,r28
 1229               	/* #APP */
 1230               	 ;  67 "../lufa-LUFA/LUFA/Drivers/USB/LowLevel/Template/Template_Endpoint_RW.c" 1
 1231 005c 8491      		lpm r24, Z
 1232               		
 1233               	 ;  0 "" 2
 1234               	.LVL111:
 1235               	/* #NOAPP */
 1236               	.LBE330:
 1237               	.LBB331:
 1238               	.LBB332:
 562:../lufa-LUFA/LUFA/Drivers/USB/LowLevel/Endpoint.h **** 				UEDATX = Byte;
 1239               		.loc 2 562 0
 1240 005e 8093 F100 		sts 241,r24
 1241               	.LBE332:
 1242               	.LBE331:
  68:../lufa-LUFA/LUFA/Drivers/USB/LowLevel/Template/Template_Endpoint_RW.c **** 			Length--;
 1243               		.loc 3 68 0
 1244 0062 0150      		subi r16,1
 1245 0064 1109      		sbc r17,__zero_reg__
 1246               	.LVL112:
 1247               	.LBB333:
  67:../lufa-LUFA/LUFA/Drivers/USB/LowLevel/Template/Template_Endpoint_RW.c **** 			TEMPLATE_TRANSFER_BYTE(DataStream);
 1248               		.loc 3 67 0
 1249 0066 2197      		sbiw r28,1
 1250               	.LVL113:
 1251 0068 00C0      		rjmp .L118
 1252               	.LVL114:
 1253               	.L127:
 1254               	.LBE333:
  72:../lufa-LUFA/LUFA/Drivers/USB/LowLevel/Template/Template_Endpoint_RW.c **** 	return ENDPOINT_RWSTREAM_NoError;
 1255               		.loc 3 72 0
 1256 006a 80E0      		ldi r24,0
 1257               	.LVL115:
 1258               	.L117:
 1259               	/* epilogue start */
 1260               		.loc 3 73 0
 1261 006c DF91      		pop r29
 1262 006e CF91      		pop r28
 1263 0070 1F91      		pop r17
 1264 0072 0F91      		pop r16
 1265               	.LVL116:
 1266 0074 FF90      		pop r15
 1267 0076 EF90      		pop r14
 1268               	.LVL117:
 1269 0078 DF90      		pop r13
 1270 007a CF90      		pop r12
 1271               	.LVL118:
 1272 007c 0895      		ret
 1273               		.cfi_endproc
 1274               	.LFE75:
 1276               		.section	.text.Endpoint_Read_Stream_LE,"ax",@progbits
 1277               	.global	Endpoint_Read_Stream_LE
 1279               	Endpoint_Read_Stream_LE:
 1280               	.LFB76:
   4:../lufa-LUFA/LUFA/Drivers/USB/LowLevel/Template/Template_Endpoint_RW.c **** {
 1281               		.loc 3 4 0
 1282               		.cfi_startproc
 1283               	.LVL119:
 1284 0000 EF92      		push r14
 1285               	.LCFI48:
 1286               		.cfi_def_cfa_offset 3
 1287               		.cfi_offset 14, -2
 1288 0002 FF92      		push r15
 1289               	.LCFI49:
 1290               		.cfi_def_cfa_offset 4
 1291               		.cfi_offset 15, -3
 1292 0004 0F93      		push r16
 1293               	.LCFI50:
 1294               		.cfi_def_cfa_offset 5
 1295               		.cfi_offset 16, -4
 1296 0006 1F93      		push r17
 1297               	.LCFI51:
 1298               		.cfi_def_cfa_offset 6
 1299               		.cfi_offset 17, -5
 1300 0008 CF93      		push r28
 1301               	.LCFI52:
 1302               		.cfi_def_cfa_offset 7
 1303               		.cfi_offset 28, -6
 1304 000a DF93      		push r29
 1305               	.LCFI53:
 1306               		.cfi_def_cfa_offset 8
 1307               		.cfi_offset 29, -7
 1308               	/* prologue: function */
 1309               	/* frame size = 0 */
 1310               	/* stack size = 6 */
 1311               	.L__stack_usage = 6
 1312 000c EC01      		movw r28,r24
 1313 000e 8B01      		movw r16,r22
 1314 0010 7A01      		movw r14,r20
 1315               	.LVL120:
 1316               	.L134:
  62:../lufa-LUFA/LUFA/Drivers/USB/LowLevel/Template/Template_Endpoint_RW.c **** 			if ((ErrorCode = Endpoint_WaitUntilReady()))
 1317               		.loc 3 62 0
 1318 0012 0E94 0000 		call Endpoint_WaitUntilReady
 1319               	.LVL121:
 1320 0016 8111      		cpse r24,__zero_reg__
 1321 0018 00C0      		rjmp .L129
 1322               	.LVL122:
 1323               	.L130:
  51:../lufa-LUFA/LUFA/Drivers/USB/LowLevel/Template/Template_Endpoint_RW.c **** 	while (Length)
 1324               		.loc 3 51 0 discriminator 1
 1325 001a 0115      		cp r16,__zero_reg__
 1326 001c 1105      		cpc r17,__zero_reg__
 1327 001e 01F0      		breq .L140
 1328               	.LBB334:
 1329               	.LBB335:
 358:../lufa-LUFA/LUFA/Drivers/USB/LowLevel/Endpoint.h **** 				return ((UEINTX & (1 << RWAL)) ? true : false);
 1330               		.loc 2 358 0
 1331 0020 8091 E800 		lds r24,232
 1332               	.LBE335:
 1333               	.LBE334:
  53:../lufa-LUFA/LUFA/Drivers/USB/LowLevel/Template/Template_Endpoint_RW.c **** 		if (!(Endpoint_IsReadWriteAllowed()))
 1334               		.loc 3 53 0
 1335 0024 85FD      		sbrc r24,5
 1336 0026 00C0      		rjmp .L131
 1337               	.LBB336:
 1338               	.LBB337:
 469:../lufa-LUFA/LUFA/Drivers/USB/LowLevel/Endpoint.h **** 					UEINTX &= ~((1 << RXOUTI) | (1 << FIFOCON));
 1339               		.loc 2 469 0
 1340 0028 8091 E800 		lds r24,232
 1341 002c 8B77      		andi r24,lo8(123)
 1342 002e 8093 E800 		sts 232,r24
 1343               	.LBE337:
 1344               	.LBE336:
  58:../lufa-LUFA/LUFA/Drivers/USB/LowLevel/Template/Template_Endpoint_RW.c **** 			if ((Callback != NULL) && (Callback() == STREAMCALLBACK_Abort))
 1345               		.loc 3 58 0
 1346 0032 E114      		cp r14,__zero_reg__
 1347 0034 F104      		cpc r15,__zero_reg__
 1348 0036 01F0      		breq .L134
  58:../lufa-LUFA/LUFA/Drivers/USB/LowLevel/Template/Template_Endpoint_RW.c **** 			if ((Callback != NULL) && (Callback() == STREAMCALLBACK_Abort))
 1349               		.loc 3 58 0 is_stmt 0 discriminator 1
 1350 0038 F701      		movw r30,r14
 1351 003a 0995      		icall
 1352               	.LVL123:
 1353 003c 8130      		cpi r24,lo8(1)
 1354 003e 01F4      		brne .L134
  59:../lufa-LUFA/LUFA/Drivers/USB/LowLevel/Template/Template_Endpoint_RW.c **** 			  return ENDPOINT_RWSTREAM_CallbackAborted;
 1355               		.loc 3 59 0 is_stmt 1
 1356 0040 85E0      		ldi r24,lo8(5)
 1357 0042 00C0      		rjmp .L129
 1358               	.L131:
 1359               	.LVL124:
 1360               	.LBB338:
 1361               	.LBB339:
 550:../lufa-LUFA/LUFA/Drivers/USB/LowLevel/Endpoint.h **** 				return UEDATX;
 1362               		.loc 2 550 0
 1363 0044 8091 F100 		lds r24,241
 1364               	.LBE339:
 1365               	.LBE338:
  67:../lufa-LUFA/LUFA/Drivers/USB/LowLevel/Template/Template_Endpoint_RW.c **** 			TEMPLATE_TRANSFER_BYTE(DataStream);
 1366               		.loc 3 67 0
 1367 0048 8883      		st Y,r24
  68:../lufa-LUFA/LUFA/Drivers/USB/LowLevel/Template/Template_Endpoint_RW.c **** 			Length--;
 1368               		.loc 3 68 0
 1369 004a 0150      		subi r16,1
 1370 004c 1109      		sbc r17,__zero_reg__
 1371               	.LVL125:
  67:../lufa-LUFA/LUFA/Drivers/USB/LowLevel/Template/Template_Endpoint_RW.c **** 			TEMPLATE_TRANSFER_BYTE(DataStream);
 1372               		.loc 3 67 0
 1373 004e 2196      		adiw r28,1
 1374               	.LVL126:
 1375 0050 00C0      		rjmp .L130
 1376               	.L140:
  72:../lufa-LUFA/LUFA/Drivers/USB/LowLevel/Template/Template_Endpoint_RW.c **** 	return ENDPOINT_RWSTREAM_NoError;
 1377               		.loc 3 72 0
 1378 0052 80E0      		ldi r24,0
 1379               	.LVL127:
 1380               	.L129:
 1381               	/* epilogue start */
 1382               		.loc 3 73 0
 1383 0054 DF91      		pop r29
 1384 0056 CF91      		pop r28
 1385 0058 1F91      		pop r17
 1386 005a 0F91      		pop r16
 1387               	.LVL128:
 1388 005c FF90      		pop r15
 1389 005e EF90      		pop r14
 1390               	.LVL129:
 1391 0060 0895      		ret
 1392               		.cfi_endproc
 1393               	.LFE76:
 1395               		.section	.text.Endpoint_Read_EStream_LE,"ax",@progbits
 1396               	.global	Endpoint_Read_EStream_LE
 1398               	Endpoint_Read_EStream_LE:
 1399               	.LFB77:
   4:../lufa-LUFA/LUFA/Drivers/USB/LowLevel/Template/Template_Endpoint_RW.c **** {
 1400               		.loc 3 4 0
 1401               		.cfi_startproc
 1402               	.LVL130:
 1403 0000 CF92      		push r12
 1404               	.LCFI54:
 1405               		.cfi_def_cfa_offset 3
 1406               		.cfi_offset 12, -2
 1407 0002 DF92      		push r13
 1408               	.LCFI55:
 1409               		.cfi_def_cfa_offset 4
 1410               		.cfi_offset 13, -3
 1411 0004 EF92      		push r14
 1412               	.LCFI56:
 1413               		.cfi_def_cfa_offset 5
 1414               		.cfi_offset 14, -4
 1415 0006 FF92      		push r15
 1416               	.LCFI57:
 1417               		.cfi_def_cfa_offset 6
 1418               		.cfi_offset 15, -5
 1419 0008 0F93      		push r16
 1420               	.LCFI58:
 1421               		.cfi_def_cfa_offset 7
 1422               		.cfi_offset 16, -6
 1423 000a 1F93      		push r17
 1424               	.LCFI59:
 1425               		.cfi_def_cfa_offset 8
 1426               		.cfi_offset 17, -7
 1427 000c CF93      		push r28
 1428               	.LCFI60:
 1429               		.cfi_def_cfa_offset 9
 1430               		.cfi_offset 28, -8
 1431 000e DF93      		push r29
 1432               	.LCFI61:
 1433               		.cfi_def_cfa_offset 10
 1434               		.cfi_offset 29, -9
 1435               	/* prologue: function */
 1436               	/* frame size = 0 */
 1437               	/* stack size = 8 */
 1438               	.L__stack_usage = 8
 1439 0010 EC01      		movw r28,r24
 1440 0012 8B01      		movw r16,r22
 1441 0014 7A01      		movw r14,r20
 1442               	.LVL131:
 1443               	.L147:
  62:../lufa-LUFA/LUFA/Drivers/USB/LowLevel/Template/Template_Endpoint_RW.c **** 			if ((ErrorCode = Endpoint_WaitUntilReady()))
 1444               		.loc 3 62 0
 1445 0016 0E94 0000 		call Endpoint_WaitUntilReady
 1446               	.LVL132:
 1447 001a 8111      		cpse r24,__zero_reg__
 1448 001c 00C0      		rjmp .L142
 1449               	.LVL133:
 1450               	.L143:
  51:../lufa-LUFA/LUFA/Drivers/USB/LowLevel/Template/Template_Endpoint_RW.c **** 	while (Length)
 1451               		.loc 3 51 0 discriminator 1
 1452 001e 0115      		cp r16,__zero_reg__
 1453 0020 1105      		cpc r17,__zero_reg__
 1454 0022 01F0      		breq .L153
 1455               	.LBB340:
 1456               	.LBB341:
 358:../lufa-LUFA/LUFA/Drivers/USB/LowLevel/Endpoint.h **** 				return ((UEINTX & (1 << RWAL)) ? true : false);
 1457               		.loc 2 358 0
 1458 0024 8091 E800 		lds r24,232
 1459               	.LBE341:
 1460               	.LBE340:
  53:../lufa-LUFA/LUFA/Drivers/USB/LowLevel/Template/Template_Endpoint_RW.c **** 		if (!(Endpoint_IsReadWriteAllowed()))
 1461               		.loc 3 53 0
 1462 0028 85FD      		sbrc r24,5
 1463 002a 00C0      		rjmp .L144
 1464               	.LBB342:
 1465               	.LBB343:
 469:../lufa-LUFA/LUFA/Drivers/USB/LowLevel/Endpoint.h **** 					UEINTX &= ~((1 << RXOUTI) | (1 << FIFOCON));
 1466               		.loc 2 469 0
 1467 002c 8091 E800 		lds r24,232
 1468 0030 8B77      		andi r24,lo8(123)
 1469 0032 8093 E800 		sts 232,r24
 1470               	.LBE343:
 1471               	.LBE342:
  58:../lufa-LUFA/LUFA/Drivers/USB/LowLevel/Template/Template_Endpoint_RW.c **** 			if ((Callback != NULL) && (Callback() == STREAMCALLBACK_Abort))
 1472               		.loc 3 58 0
 1473 0036 E114      		cp r14,__zero_reg__
 1474 0038 F104      		cpc r15,__zero_reg__
 1475 003a 01F0      		breq .L147
  58:../lufa-LUFA/LUFA/Drivers/USB/LowLevel/Template/Template_Endpoint_RW.c **** 			if ((Callback != NULL) && (Callback() == STREAMCALLBACK_Abort))
 1476               		.loc 3 58 0 is_stmt 0 discriminator 1
 1477 003c F701      		movw r30,r14
 1478 003e 0995      		icall
 1479               	.LVL134:
 1480 0040 8130      		cpi r24,lo8(1)
 1481 0042 01F4      		brne .L147
  59:../lufa-LUFA/LUFA/Drivers/USB/LowLevel/Template/Template_Endpoint_RW.c **** 			  return ENDPOINT_RWSTREAM_CallbackAborted;
 1482               		.loc 3 59 0 is_stmt 1
 1483 0044 85E0      		ldi r24,lo8(5)
 1484 0046 00C0      		rjmp .L142
 1485               	.L144:
 1486               	.LBB344:
 1487               	.LBB345:
 550:../lufa-LUFA/LUFA/Drivers/USB/LowLevel/Endpoint.h **** 				return UEDATX;
 1488               		.loc 2 550 0
 1489 0048 6091 F100 		lds r22,241
 1490               	.LBE345:
 1491               	.LBE344:
  67:../lufa-LUFA/LUFA/Drivers/USB/LowLevel/Template/Template_Endpoint_RW.c **** 			TEMPLATE_TRANSFER_BYTE(DataStream);
 1492               		.loc 3 67 0
 1493 004c 6E01      		movw r12,r28
 1494 004e FFEF      		ldi r31,-1
 1495 0050 CF1A      		sub r12,r31
 1496 0052 DF0A      		sbc r13,r31
 1497               	.LVL135:
 1498 0054 CE01      		movw r24,r28
 1499 0056 0E94 0000 		call __eeupd_byte_m8u2
 1500               	.LVL136:
  68:../lufa-LUFA/LUFA/Drivers/USB/LowLevel/Template/Template_Endpoint_RW.c **** 			Length--;
 1501               		.loc 3 68 0
 1502 005a 0150      		subi r16,1
 1503 005c 1109      		sbc r17,__zero_reg__
 1504               	.LVL137:
  67:../lufa-LUFA/LUFA/Drivers/USB/LowLevel/Template/Template_Endpoint_RW.c **** 			TEMPLATE_TRANSFER_BYTE(DataStream);
 1505               		.loc 3 67 0
 1506 005e E601      		movw r28,r12
 1507 0060 00C0      		rjmp .L143
 1508               	.LVL138:
 1509               	.L153:
  72:../lufa-LUFA/LUFA/Drivers/USB/LowLevel/Template/Template_Endpoint_RW.c **** 	return ENDPOINT_RWSTREAM_NoError;
 1510               		.loc 3 72 0
 1511 0062 80E0      		ldi r24,0
 1512               	.LVL139:
 1513               	.L142:
 1514               	/* epilogue start */
 1515               		.loc 3 73 0
 1516 0064 DF91      		pop r29
 1517 0066 CF91      		pop r28
 1518 0068 1F91      		pop r17
 1519 006a 0F91      		pop r16
 1520               	.LVL140:
 1521 006c FF90      		pop r15
 1522 006e EF90      		pop r14
 1523               	.LVL141:
 1524 0070 DF90      		pop r13
 1525 0072 CF90      		pop r12
 1526 0074 0895      		ret
 1527               		.cfi_endproc
 1528               	.LFE77:
 1530               		.section	.text.Endpoint_Read_Stream_BE,"ax",@progbits
 1531               	.global	Endpoint_Read_Stream_BE
 1533               	Endpoint_Read_Stream_BE:
 1534               	.LFB78:
   4:../lufa-LUFA/LUFA/Drivers/USB/LowLevel/Template/Template_Endpoint_RW.c **** {
 1535               		.loc 3 4 0
 1536               		.cfi_startproc
 1537               	.LVL142:
 1538 0000 CF92      		push r12
 1539               	.LCFI62:
 1540               		.cfi_def_cfa_offset 3
 1541               		.cfi_offset 12, -2
 1542 0002 DF92      		push r13
 1543               	.LCFI63:
 1544               		.cfi_def_cfa_offset 4
 1545               		.cfi_offset 13, -3
 1546 0004 EF92      		push r14
 1547               	.LCFI64:
 1548               		.cfi_def_cfa_offset 5
 1549               		.cfi_offset 14, -4
 1550 0006 FF92      		push r15
 1551               	.LCFI65:
 1552               		.cfi_def_cfa_offset 6
 1553               		.cfi_offset 15, -5
 1554 0008 0F93      		push r16
 1555               	.LCFI66:
 1556               		.cfi_def_cfa_offset 7
 1557               		.cfi_offset 16, -6
 1558 000a 1F93      		push r17
 1559               	.LCFI67:
 1560               		.cfi_def_cfa_offset 8
 1561               		.cfi_offset 17, -7
 1562 000c CF93      		push r28
 1563               	.LCFI68:
 1564               		.cfi_def_cfa_offset 9
 1565               		.cfi_offset 28, -8
 1566 000e DF93      		push r29
 1567               	.LCFI69:
 1568               		.cfi_def_cfa_offset 10
 1569               		.cfi_offset 29, -9
 1570               	/* prologue: function */
 1571               	/* frame size = 0 */
 1572               	/* stack size = 8 */
 1573               	.L__stack_usage = 8
 1574 0010 6C01      		movw r12,r24
 1575 0012 8B01      		movw r16,r22
 1576 0014 7A01      		movw r14,r20
 1577               	.LVL143:
   8:../lufa-LUFA/LUFA/Drivers/USB/LowLevel/Template/Template_Endpoint_RW.c **** 	if ((ErrorCode = Endpoint_WaitUntilReady()))
 1578               		.loc 3 8 0
 1579 0016 0E94 0000 		call Endpoint_WaitUntilReady
 1580               	.LVL144:
 1581 001a 8111      		cpse r24,__zero_reg__
 1582 001c 00C0      		rjmp .L155
   5:../lufa-LUFA/LUFA/Drivers/USB/LowLevel/Template/Template_Endpoint_RW.c **** 	uint8_t* DataStream = ((uint8_t*)Buffer + TEMPLATE_BUFFER_OFFSET(Length));
 1583               		.loc 3 5 0
 1584 001e E801      		movw r28,r16
 1585 0020 2197      		sbiw r28,1
 1586               	.LVL145:
 1587 0022 CC0D      		add r28,r12
 1588 0024 DD1D      		adc r29,r13
 1589               	.LVL146:
 1590               	.L156:
  51:../lufa-LUFA/LUFA/Drivers/USB/LowLevel/Template/Template_Endpoint_RW.c **** 	while (Length)
 1591               		.loc 3 51 0 discriminator 1
 1592 0026 0115      		cp r16,__zero_reg__
 1593 0028 1105      		cpc r17,__zero_reg__
 1594 002a 01F0      		breq .L165
 1595               	.LBB346:
 1596               	.LBB347:
 358:../lufa-LUFA/LUFA/Drivers/USB/LowLevel/Endpoint.h **** 				return ((UEINTX & (1 << RWAL)) ? true : false);
 1597               		.loc 2 358 0
 1598 002c 8091 E800 		lds r24,232
 1599               	.LBE347:
 1600               	.LBE346:
  53:../lufa-LUFA/LUFA/Drivers/USB/LowLevel/Template/Template_Endpoint_RW.c **** 		if (!(Endpoint_IsReadWriteAllowed()))
 1601               		.loc 3 53 0
 1602 0030 85FD      		sbrc r24,5
 1603 0032 00C0      		rjmp .L157
 1604               	.LBB348:
 1605               	.LBB349:
 469:../lufa-LUFA/LUFA/Drivers/USB/LowLevel/Endpoint.h **** 					UEINTX &= ~((1 << RXOUTI) | (1 << FIFOCON));
 1606               		.loc 2 469 0
 1607 0034 8091 E800 		lds r24,232
 1608 0038 8B77      		andi r24,lo8(123)
 1609 003a 8093 E800 		sts 232,r24
 1610               	.LBE349:
 1611               	.LBE348:
  58:../lufa-LUFA/LUFA/Drivers/USB/LowLevel/Template/Template_Endpoint_RW.c **** 			if ((Callback != NULL) && (Callback() == STREAMCALLBACK_Abort))
 1612               		.loc 3 58 0
 1613 003e E114      		cp r14,__zero_reg__
 1614 0040 F104      		cpc r15,__zero_reg__
 1615 0042 01F4      		brne .L158
 1616               	.L160:
  62:../lufa-LUFA/LUFA/Drivers/USB/LowLevel/Template/Template_Endpoint_RW.c **** 			if ((ErrorCode = Endpoint_WaitUntilReady()))
 1617               		.loc 3 62 0
 1618 0044 0E94 0000 		call Endpoint_WaitUntilReady
 1619               	.LVL147:
 1620 0048 8823      		tst r24
 1621 004a 01F0      		breq .L156
 1622 004c 00C0      		rjmp .L155
 1623               	.LVL148:
 1624               	.L158:
  58:../lufa-LUFA/LUFA/Drivers/USB/LowLevel/Template/Template_Endpoint_RW.c **** 			if ((Callback != NULL) && (Callback() == STREAMCALLBACK_Abort))
 1625               		.loc 3 58 0 discriminator 1
 1626 004e F701      		movw r30,r14
 1627 0050 0995      		icall
 1628               	.LVL149:
 1629 0052 8130      		cpi r24,lo8(1)
 1630 0054 01F4      		brne .L160
  59:../lufa-LUFA/LUFA/Drivers/USB/LowLevel/Template/Template_Endpoint_RW.c **** 			  return ENDPOINT_RWSTREAM_CallbackAborted;
 1631               		.loc 3 59 0
 1632 0056 85E0      		ldi r24,lo8(5)
 1633 0058 00C0      		rjmp .L155
 1634               	.L157:
 1635               	.LVL150:
 1636               	.LBB350:
 1637               	.LBB351:
 550:../lufa-LUFA/LUFA/Drivers/USB/LowLevel/Endpoint.h **** 				return UEDATX;
 1638               		.loc 2 550 0
 1639 005a 8091 F100 		lds r24,241
 1640               	.LBE351:
 1641               	.LBE350:
  67:../lufa-LUFA/LUFA/Drivers/USB/LowLevel/Template/Template_Endpoint_RW.c **** 			TEMPLATE_TRANSFER_BYTE(DataStream);
 1642               		.loc 3 67 0
 1643 005e 8883      		st Y,r24
  68:../lufa-LUFA/LUFA/Drivers/USB/LowLevel/Template/Template_Endpoint_RW.c **** 			Length--;
 1644               		.loc 3 68 0
 1645 0060 0150      		subi r16,1
 1646 0062 1109      		sbc r17,__zero_reg__
 1647               	.LVL151:
  67:../lufa-LUFA/LUFA/Drivers/USB/LowLevel/Template/Template_Endpoint_RW.c **** 			TEMPLATE_TRANSFER_BYTE(DataStream);
 1648               		.loc 3 67 0
 1649 0064 2197      		sbiw r28,1
 1650               	.LVL152:
 1651 0066 00C0      		rjmp .L156
 1652               	.L165:
  72:../lufa-LUFA/LUFA/Drivers/USB/LowLevel/Template/Template_Endpoint_RW.c **** 	return ENDPOINT_RWSTREAM_NoError;
 1653               		.loc 3 72 0
 1654 0068 80E0      		ldi r24,0
 1655               	.LVL153:
 1656               	.L155:
 1657               	/* epilogue start */
 1658               		.loc 3 73 0
 1659 006a DF91      		pop r29
 1660 006c CF91      		pop r28
 1661 006e 1F91      		pop r17
 1662 0070 0F91      		pop r16
 1663               	.LVL154:
 1664 0072 FF90      		pop r15
 1665 0074 EF90      		pop r14
 1666               	.LVL155:
 1667 0076 DF90      		pop r13
 1668 0078 CF90      		pop r12
 1669               	.LVL156:
 1670 007a 0895      		ret
 1671               		.cfi_endproc
 1672               	.LFE78:
 1674               		.section	.text.Endpoint_Read_EStream_BE,"ax",@progbits
 1675               	.global	Endpoint_Read_EStream_BE
 1677               	Endpoint_Read_EStream_BE:
 1678               	.LFB79:
   4:../lufa-LUFA/LUFA/Drivers/USB/LowLevel/Template/Template_Endpoint_RW.c **** {
 1679               		.loc 3 4 0
 1680               		.cfi_startproc
 1681               	.LVL157:
 1682 0000 CF92      		push r12
 1683               	.LCFI70:
 1684               		.cfi_def_cfa_offset 3
 1685               		.cfi_offset 12, -2
 1686 0002 DF92      		push r13
 1687               	.LCFI71:
 1688               		.cfi_def_cfa_offset 4
 1689               		.cfi_offset 13, -3
 1690 0004 EF92      		push r14
 1691               	.LCFI72:
 1692               		.cfi_def_cfa_offset 5
 1693               		.cfi_offset 14, -4
 1694 0006 FF92      		push r15
 1695               	.LCFI73:
 1696               		.cfi_def_cfa_offset 6
 1697               		.cfi_offset 15, -5
 1698 0008 0F93      		push r16
 1699               	.LCFI74:
 1700               		.cfi_def_cfa_offset 7
 1701               		.cfi_offset 16, -6
 1702 000a 1F93      		push r17
 1703               	.LCFI75:
 1704               		.cfi_def_cfa_offset 8
 1705               		.cfi_offset 17, -7
 1706 000c CF93      		push r28
 1707               	.LCFI76:
 1708               		.cfi_def_cfa_offset 9
 1709               		.cfi_offset 28, -8
 1710 000e DF93      		push r29
 1711               	.LCFI77:
 1712               		.cfi_def_cfa_offset 10
 1713               		.cfi_offset 29, -9
 1714               	/* prologue: function */
 1715               	/* frame size = 0 */
 1716               	/* stack size = 8 */
 1717               	.L__stack_usage = 8
 1718 0010 6C01      		movw r12,r24
 1719 0012 8B01      		movw r16,r22
 1720 0014 7A01      		movw r14,r20
 1721               	.LVL158:
   8:../lufa-LUFA/LUFA/Drivers/USB/LowLevel/Template/Template_Endpoint_RW.c **** 	if ((ErrorCode = Endpoint_WaitUntilReady()))
 1722               		.loc 3 8 0
 1723 0016 0E94 0000 		call Endpoint_WaitUntilReady
 1724               	.LVL159:
 1725 001a 8111      		cpse r24,__zero_reg__
 1726 001c 00C0      		rjmp .L167
   5:../lufa-LUFA/LUFA/Drivers/USB/LowLevel/Template/Template_Endpoint_RW.c **** 	uint8_t* DataStream = ((uint8_t*)Buffer + TEMPLATE_BUFFER_OFFSET(Length));
 1727               		.loc 3 5 0
 1728 001e E801      		movw r28,r16
 1729 0020 2197      		sbiw r28,1
 1730               	.LVL160:
 1731 0022 CC0D      		add r28,r12
 1732 0024 DD1D      		adc r29,r13
 1733               	.LVL161:
 1734               	.L168:
  51:../lufa-LUFA/LUFA/Drivers/USB/LowLevel/Template/Template_Endpoint_RW.c **** 	while (Length)
 1735               		.loc 3 51 0 discriminator 1
 1736 0026 0115      		cp r16,__zero_reg__
 1737 0028 1105      		cpc r17,__zero_reg__
 1738 002a 01F0      		breq .L177
 1739               	.LBB352:
 1740               	.LBB353:
 358:../lufa-LUFA/LUFA/Drivers/USB/LowLevel/Endpoint.h **** 				return ((UEINTX & (1 << RWAL)) ? true : false);
 1741               		.loc 2 358 0
 1742 002c 8091 E800 		lds r24,232
 1743               	.LBE353:
 1744               	.LBE352:
  53:../lufa-LUFA/LUFA/Drivers/USB/LowLevel/Template/Template_Endpoint_RW.c **** 		if (!(Endpoint_IsReadWriteAllowed()))
 1745               		.loc 3 53 0
 1746 0030 85FD      		sbrc r24,5
 1747 0032 00C0      		rjmp .L169
 1748               	.LBB354:
 1749               	.LBB355:
 469:../lufa-LUFA/LUFA/Drivers/USB/LowLevel/Endpoint.h **** 					UEINTX &= ~((1 << RXOUTI) | (1 << FIFOCON));
 1750               		.loc 2 469 0
 1751 0034 8091 E800 		lds r24,232
 1752 0038 8B77      		andi r24,lo8(123)
 1753 003a 8093 E800 		sts 232,r24
 1754               	.LBE355:
 1755               	.LBE354:
  58:../lufa-LUFA/LUFA/Drivers/USB/LowLevel/Template/Template_Endpoint_RW.c **** 			if ((Callback != NULL) && (Callback() == STREAMCALLBACK_Abort))
 1756               		.loc 3 58 0
 1757 003e E114      		cp r14,__zero_reg__
 1758 0040 F104      		cpc r15,__zero_reg__
 1759 0042 01F4      		brne .L170
 1760               	.L172:
  62:../lufa-LUFA/LUFA/Drivers/USB/LowLevel/Template/Template_Endpoint_RW.c **** 			if ((ErrorCode = Endpoint_WaitUntilReady()))
 1761               		.loc 3 62 0
 1762 0044 0E94 0000 		call Endpoint_WaitUntilReady
 1763               	.LVL162:
 1764 0048 8823      		tst r24
 1765 004a 01F0      		breq .L168
 1766 004c 00C0      		rjmp .L167
 1767               	.LVL163:
 1768               	.L170:
  58:../lufa-LUFA/LUFA/Drivers/USB/LowLevel/Template/Template_Endpoint_RW.c **** 			if ((Callback != NULL) && (Callback() == STREAMCALLBACK_Abort))
 1769               		.loc 3 58 0 discriminator 1
 1770 004e F701      		movw r30,r14
 1771 0050 0995      		icall
 1772               	.LVL164:
 1773 0052 8130      		cpi r24,lo8(1)
 1774 0054 01F4      		brne .L172
  59:../lufa-LUFA/LUFA/Drivers/USB/LowLevel/Template/Template_Endpoint_RW.c **** 			  return ENDPOINT_RWSTREAM_CallbackAborted;
 1775               		.loc 3 59 0
 1776 0056 85E0      		ldi r24,lo8(5)
 1777 0058 00C0      		rjmp .L167
 1778               	.L169:
 1779               	.LBB356:
 1780               	.LBB357:
 550:../lufa-LUFA/LUFA/Drivers/USB/LowLevel/Endpoint.h **** 				return UEDATX;
 1781               		.loc 2 550 0
 1782 005a 6091 F100 		lds r22,241
 1783               	.LBE357:
 1784               	.LBE356:
  67:../lufa-LUFA/LUFA/Drivers/USB/LowLevel/Template/Template_Endpoint_RW.c **** 			TEMPLATE_TRANSFER_BYTE(DataStream);
 1785               		.loc 3 67 0
 1786 005e 6E01      		movw r12,r28
 1787 0060 F1E0      		ldi r31,1
 1788 0062 CF1A      		sub r12,r31
 1789 0064 D108      		sbc r13,__zero_reg__
 1790               	.LVL165:
 1791 0066 CE01      		movw r24,r28
 1792 0068 0E94 0000 		call __eeupd_byte_m8u2
 1793               	.LVL166:
  68:../lufa-LUFA/LUFA/Drivers/USB/LowLevel/Template/Template_Endpoint_RW.c **** 			Length--;
 1794               		.loc 3 68 0
 1795 006c 0150      		subi r16,1
 1796 006e 1109      		sbc r17,__zero_reg__
 1797               	.LVL167:
  67:../lufa-LUFA/LUFA/Drivers/USB/LowLevel/Template/Template_Endpoint_RW.c **** 			TEMPLATE_TRANSFER_BYTE(DataStream);
 1798               		.loc 3 67 0
 1799 0070 E601      		movw r28,r12
 1800 0072 00C0      		rjmp .L168
 1801               	.LVL168:
 1802               	.L177:
  72:../lufa-LUFA/LUFA/Drivers/USB/LowLevel/Template/Template_Endpoint_RW.c **** 	return ENDPOINT_RWSTREAM_NoError;
 1803               		.loc 3 72 0
 1804 0074 80E0      		ldi r24,0
 1805               	.LVL169:
 1806               	.L167:
 1807               	/* epilogue start */
 1808               		.loc 3 73 0
 1809 0076 DF91      		pop r29
 1810 0078 CF91      		pop r28
 1811 007a 1F91      		pop r17
 1812 007c 0F91      		pop r16
 1813               	.LVL170:
 1814 007e FF90      		pop r15
 1815 0080 EF90      		pop r14
 1816               	.LVL171:
 1817 0082 DF90      		pop r13
 1818 0084 CF90      		pop r12
 1819 0086 0895      		ret
 1820               		.cfi_endproc
 1821               	.LFE79:
 1823               		.section	.text.Endpoint_Write_Control_Stream_LE,"ax",@progbits
 1824               	.global	Endpoint_Write_Control_Stream_LE
 1826               	Endpoint_Write_Control_Stream_LE:
 1827               	.LFB80:
 1828               		.file 4 "../lufa-LUFA/LUFA/Drivers/USB/LowLevel/Template/Template_Endpoint_Control_W.c"
   1:../lufa-LUFA/LUFA/Drivers/USB/LowLevel/Template/Template_Endpoint_Control_W.c **** uint8_t TEMPLATE_FUNC_NAME (const void* Buffer,
   2:../lufa-LUFA/LUFA/Drivers/USB/LowLevel/Template/Template_Endpoint_Control_W.c ****                             uint16_t Length)
   3:../lufa-LUFA/LUFA/Drivers/USB/LowLevel/Template/Template_Endpoint_Control_W.c **** {
 1829               		.loc 4 3 0
 1830               		.cfi_startproc
 1831               	.LVL172:
 1832               	/* prologue: function */
 1833               	/* frame size = 0 */
 1834               	/* stack size = 0 */
 1835               	.L__stack_usage = 0
   4:../lufa-LUFA/LUFA/Drivers/USB/LowLevel/Template/Template_Endpoint_Control_W.c **** 	uint8_t* DataStream     = ((uint8_t*)Buffer + TEMPLATE_BUFFER_OFFSET(Length));
   5:../lufa-LUFA/LUFA/Drivers/USB/LowLevel/Template/Template_Endpoint_Control_W.c **** 	bool     LastPacketFull = false;
   6:../lufa-LUFA/LUFA/Drivers/USB/LowLevel/Template/Template_Endpoint_Control_W.c **** 	
   7:../lufa-LUFA/LUFA/Drivers/USB/LowLevel/Template/Template_Endpoint_Control_W.c **** 	if (Length > USB_ControlRequest.wLength)
 1836               		.loc 4 7 0
 1837 0000 2091 0000 		lds r18,USB_ControlRequest+6
 1838 0004 3091 0000 		lds r19,USB_ControlRequest+6+1
 1839 0008 2617      		cp r18,r22
 1840 000a 3707      		cpc r19,r23
 1841 000c 00F0      		brlo .L193
   8:../lufa-LUFA/LUFA/Drivers/USB/LowLevel/Template/Template_Endpoint_Control_W.c **** 	  Length = USB_ControlRequest.wLength;
   9:../lufa-LUFA/LUFA/Drivers/USB/LowLevel/Template/Template_Endpoint_Control_W.c **** 	else if (!(Length))
 1842               		.loc 4 9 0
 1843 000e 6115      		cp r22,__zero_reg__
 1844 0010 7105      		cpc r23,__zero_reg__
 1845 0012 01F4      		brne .L179
 1846               	.LBB358:
 1847               	.LBB359:
 454:../lufa-LUFA/LUFA/Drivers/USB/LowLevel/Endpoint.h **** 					UEINTX &= ~((1 << TXINI) | (1 << FIFOCON));
 1848               		.loc 2 454 0
 1849 0014 2091 E800 		lds r18,232
 1850 0018 2E77      		andi r18,lo8(126)
 1851 001a 2093 E800 		sts 232,r18
 1852 001e 00C0      		rjmp .L179
 1853               	.L193:
 1854               	.LBE359:
 1855               	.LBE358:
 1856 0020 B901      		movw r22,r18
 1857               	.LVL173:
 1858               	.L179:
 1859 0022 30E0      		ldi r19,0
 1860               	.LVL174:
 1861               	.L185:
  10:../lufa-LUFA/LUFA/Drivers/USB/LowLevel/Template/Template_Endpoint_Control_W.c **** 	  Endpoint_ClearIN();
  11:../lufa-LUFA/LUFA/Drivers/USB/LowLevel/Template/Template_Endpoint_Control_W.c **** 
  12:../lufa-LUFA/LUFA/Drivers/USB/LowLevel/Template/Template_Endpoint_Control_W.c **** 	while (Length || LastPacketFull)
 1862               		.loc 4 12 0 discriminator 1
 1863 0024 6115      		cp r22,__zero_reg__
 1864 0026 7105      		cpc r23,__zero_reg__
 1865 0028 01F0      		breq .L205
 1866               	.L190:
 1867               	.LBB360:
 1868               	.LBB361:
 429:../lufa-LUFA/LUFA/Drivers/USB/LowLevel/Endpoint.h **** 				return ((UEINTX & (1 << RXSTPI)) ? true : false);
 1869               		.loc 2 429 0
 1870 002a 2091 E800 		lds r18,232
 1871               	.LBE361:
 1872               	.LBE360:
  13:../lufa-LUFA/LUFA/Drivers/USB/LowLevel/Template/Template_Endpoint_Control_W.c **** 	{
  14:../lufa-LUFA/LUFA/Drivers/USB/LowLevel/Template/Template_Endpoint_Control_W.c **** 		if (Endpoint_IsSETUPReceived())
 1873               		.loc 4 14 0
 1874 002e 23FD      		sbrc r18,3
 1875 0030 00C0      		rjmp .L194
 1876               	.LBB362:
 1877               	.LBB363:
 417:../lufa-LUFA/LUFA/Drivers/USB/LowLevel/Endpoint.h **** 				return ((UEINTX & (1 << RXOUTI)) ? true : false);
 1878               		.loc 2 417 0
 1879 0032 2091 E800 		lds r18,232
 1880               	.LBE363:
 1881               	.LBE362:
  15:../lufa-LUFA/LUFA/Drivers/USB/LowLevel/Template/Template_Endpoint_Control_W.c **** 		  return ENDPOINT_RWCSTREAM_HostAborted;
  16:../lufa-LUFA/LUFA/Drivers/USB/LowLevel/Template/Template_Endpoint_Control_W.c **** 
  17:../lufa-LUFA/LUFA/Drivers/USB/LowLevel/Template/Template_Endpoint_Control_W.c **** 		if (Endpoint_IsOUTReceived())
 1882               		.loc 4 17 0
 1883 0036 22FF      		sbrs r18,2
 1884 0038 00C0      		rjmp .L182
 1885               	.LVL175:
 1886               	.L192:
 1887               	.LBB364:
 1888               	.LBB365:
 417:../lufa-LUFA/LUFA/Drivers/USB/LowLevel/Endpoint.h **** 				return ((UEINTX & (1 << RXOUTI)) ? true : false);
 1889               		.loc 2 417 0 discriminator 1
 1890 003a 8091 E800 		lds r24,232
 1891               	.LBE365:
 1892               	.LBE364:
  18:../lufa-LUFA/LUFA/Drivers/USB/LowLevel/Template/Template_Endpoint_Control_W.c **** 		  break;
  19:../lufa-LUFA/LUFA/Drivers/USB/LowLevel/Template/Template_Endpoint_Control_W.c **** 		
  20:../lufa-LUFA/LUFA/Drivers/USB/LowLevel/Template/Template_Endpoint_Control_W.c **** 		if (USB_DeviceState == DEVICE_STATE_Unattached)
  21:../lufa-LUFA/LUFA/Drivers/USB/LowLevel/Template/Template_Endpoint_Control_W.c **** 		  return ENDPOINT_RWCSTREAM_DeviceDisconnected;
  22:../lufa-LUFA/LUFA/Drivers/USB/LowLevel/Template/Template_Endpoint_Control_W.c **** 		else if (USB_DeviceState == DEVICE_STATE_Suspended)
  23:../lufa-LUFA/LUFA/Drivers/USB/LowLevel/Template/Template_Endpoint_Control_W.c **** 		  return ENDPOINT_RWCSTREAM_BusSuspended;
  24:../lufa-LUFA/LUFA/Drivers/USB/LowLevel/Template/Template_Endpoint_Control_W.c **** 		  
  25:../lufa-LUFA/LUFA/Drivers/USB/LowLevel/Template/Template_Endpoint_Control_W.c **** 		if (Endpoint_IsINReady())
  26:../lufa-LUFA/LUFA/Drivers/USB/LowLevel/Template/Template_Endpoint_Control_W.c **** 		{
  27:../lufa-LUFA/LUFA/Drivers/USB/LowLevel/Template/Template_Endpoint_Control_W.c **** 			uint8_t BytesInEndpoint = Endpoint_BytesInEndpoint();
  28:../lufa-LUFA/LUFA/Drivers/USB/LowLevel/Template/Template_Endpoint_Control_W.c **** 		
  29:../lufa-LUFA/LUFA/Drivers/USB/LowLevel/Template/Template_Endpoint_Control_W.c **** 			while (Length && (BytesInEndpoint < USB_ControlEndpointSize))
  30:../lufa-LUFA/LUFA/Drivers/USB/LowLevel/Template/Template_Endpoint_Control_W.c **** 			{
  31:../lufa-LUFA/LUFA/Drivers/USB/LowLevel/Template/Template_Endpoint_Control_W.c **** 				TEMPLATE_TRANSFER_BYTE(DataStream);
  32:../lufa-LUFA/LUFA/Drivers/USB/LowLevel/Template/Template_Endpoint_Control_W.c **** 				Length--;
  33:../lufa-LUFA/LUFA/Drivers/USB/LowLevel/Template/Template_Endpoint_Control_W.c **** 				BytesInEndpoint++;
  34:../lufa-LUFA/LUFA/Drivers/USB/LowLevel/Template/Template_Endpoint_Control_W.c **** 			}
  35:../lufa-LUFA/LUFA/Drivers/USB/LowLevel/Template/Template_Endpoint_Control_W.c **** 			
  36:../lufa-LUFA/LUFA/Drivers/USB/LowLevel/Template/Template_Endpoint_Control_W.c **** 			LastPacketFull = (BytesInEndpoint == USB_ControlEndpointSize);
  37:../lufa-LUFA/LUFA/Drivers/USB/LowLevel/Template/Template_Endpoint_Control_W.c **** 			Endpoint_ClearIN();
  38:../lufa-LUFA/LUFA/Drivers/USB/LowLevel/Template/Template_Endpoint_Control_W.c **** 		}
  39:../lufa-LUFA/LUFA/Drivers/USB/LowLevel/Template/Template_Endpoint_Control_W.c **** 	}
  40:../lufa-LUFA/LUFA/Drivers/USB/LowLevel/Template/Template_Endpoint_Control_W.c **** 	
  41:../lufa-LUFA/LUFA/Drivers/USB/LowLevel/Template/Template_Endpoint_Control_W.c **** 	while (!(Endpoint_IsOUTReceived()))
 1893               		.loc 4 41 0 discriminator 1
 1894 003e 82FF      		sbrs r24,2
 1895 0040 00C0      		rjmp .L183
  42:../lufa-LUFA/LUFA/Drivers/USB/LowLevel/Template/Template_Endpoint_Control_W.c **** 	{
  43:../lufa-LUFA/LUFA/Drivers/USB/LowLevel/Template/Template_Endpoint_Control_W.c **** 		if (USB_DeviceState == DEVICE_STATE_Unattached)
  44:../lufa-LUFA/LUFA/Drivers/USB/LowLevel/Template/Template_Endpoint_Control_W.c **** 		  return ENDPOINT_RWCSTREAM_DeviceDisconnected;
  45:../lufa-LUFA/LUFA/Drivers/USB/LowLevel/Template/Template_Endpoint_Control_W.c **** 		else if (USB_DeviceState == DEVICE_STATE_Suspended)
  46:../lufa-LUFA/LUFA/Drivers/USB/LowLevel/Template/Template_Endpoint_Control_W.c **** 		  return ENDPOINT_RWCSTREAM_BusSuspended;
  47:../lufa-LUFA/LUFA/Drivers/USB/LowLevel/Template/Template_Endpoint_Control_W.c **** 	}
  48:../lufa-LUFA/LUFA/Drivers/USB/LowLevel/Template/Template_Endpoint_Control_W.c **** 
  49:../lufa-LUFA/LUFA/Drivers/USB/LowLevel/Template/Template_Endpoint_Control_W.c **** 	return ENDPOINT_RWCSTREAM_NoError;
 1896               		.loc 4 49 0
 1897 0042 80E0      		ldi r24,0
 1898 0044 0895      		ret
 1899               	.LVL176:
 1900               	.L182:
  20:../lufa-LUFA/LUFA/Drivers/USB/LowLevel/Template/Template_Endpoint_Control_W.c **** 		if (USB_DeviceState == DEVICE_STATE_Unattached)
 1901               		.loc 4 20 0
 1902 0046 2EB3      		in r18,0x1e
 1903 0048 2223      		tst r18
 1904 004a 01F0      		breq .L197
  22:../lufa-LUFA/LUFA/Drivers/USB/LowLevel/Template/Template_Endpoint_Control_W.c **** 		else if (USB_DeviceState == DEVICE_STATE_Suspended)
 1905               		.loc 4 22 0
 1906 004c 2EB3      		in r18,0x1e
 1907 004e 2530      		cpi r18,lo8(5)
 1908 0050 01F0      		breq .L198
 1909               	.LBB366:
 1910               	.LBB367:
 405:../lufa-LUFA/LUFA/Drivers/USB/LowLevel/Endpoint.h **** 				return ((UEINTX & (1 << TXINI))  ? true : false);
 1911               		.loc 2 405 0
 1912 0052 2091 E800 		lds r18,232
 1913               	.LBE367:
 1914               	.LBE366:
  25:../lufa-LUFA/LUFA/Drivers/USB/LowLevel/Template/Template_Endpoint_Control_W.c **** 		if (Endpoint_IsINReady())
 1915               		.loc 4 25 0
 1916 0056 20FF      		sbrs r18,0
 1917 0058 00C0      		rjmp .L185
 1918               	.LBB368:
 1919               	.LBB369:
 1920               	.LBB370:
 266:../lufa-LUFA/LUFA/Drivers/USB/LowLevel/Endpoint.h **** 					return UEBCLX;
 1921               		.loc 2 266 0
 1922 005a 2091 F200 		lds r18,242
 1923               	.LVL177:
 1924 005e FC01      		movw r30,r24
 1925               	.LVL178:
 1926               	.L186:
 1927 0060 CF01      		movw r24,r30
 1928               	.LVL179:
 1929               	.LBE370:
 1930               	.LBE369:
  29:../lufa-LUFA/LUFA/Drivers/USB/LowLevel/Template/Template_Endpoint_Control_W.c **** 			while (Length && (BytesInEndpoint < USB_ControlEndpointSize))
 1931               		.loc 4 29 0 discriminator 1
 1932 0062 6115      		cp r22,__zero_reg__
 1933 0064 7105      		cpc r23,__zero_reg__
 1934 0066 01F0      		breq .L187
  29:../lufa-LUFA/LUFA/Drivers/USB/LowLevel/Template/Template_Endpoint_Control_W.c **** 			while (Length && (BytesInEndpoint < USB_ControlEndpointSize))
 1935               		.loc 4 29 0 is_stmt 0 discriminator 2
 1936 0068 2830      		cpi r18,lo8(8)
 1937 006a 00F4      		brsh .L187
 1938               	.LVL180:
  31:../lufa-LUFA/LUFA/Drivers/USB/LowLevel/Template/Template_Endpoint_Control_W.c **** 				TEMPLATE_TRANSFER_BYTE(DataStream);
 1939               		.loc 4 31 0 is_stmt 1
 1940 006c 8191      		ld r24,Z+
 1941               	.LVL181:
 1942               	.LBB371:
 1943               	.LBB372:
 562:../lufa-LUFA/LUFA/Drivers/USB/LowLevel/Endpoint.h **** 				UEDATX = Byte;
 1944               		.loc 2 562 0
 1945 006e 8093 F100 		sts 241,r24
 1946               	.LBE372:
 1947               	.LBE371:
  32:../lufa-LUFA/LUFA/Drivers/USB/LowLevel/Template/Template_Endpoint_Control_W.c **** 				Length--;
 1948               		.loc 4 32 0
 1949 0072 6150      		subi r22,1
 1950 0074 7109      		sbc r23,__zero_reg__
 1951               	.LVL182:
  33:../lufa-LUFA/LUFA/Drivers/USB/LowLevel/Template/Template_Endpoint_Control_W.c **** 				BytesInEndpoint++;
 1952               		.loc 4 33 0
 1953 0076 2F5F      		subi r18,lo8(-(1))
 1954               	.LVL183:
 1955 0078 00C0      		rjmp .L186
 1956               	.LVL184:
 1957               	.L187:
  36:../lufa-LUFA/LUFA/Drivers/USB/LowLevel/Template/Template_Endpoint_Control_W.c **** 			LastPacketFull = (BytesInEndpoint == USB_ControlEndpointSize);
 1958               		.loc 4 36 0
 1959 007a 31E0      		ldi r19,lo8(1)
 1960               	.LVL185:
 1961 007c 2830      		cpi r18,lo8(8)
 1962 007e 01F0      		breq .L189
 1963 0080 30E0      		ldi r19,0
 1964               	.L189:
 1965               	.LVL186:
 1966               	.LBB373:
 1967               	.LBB374:
 454:../lufa-LUFA/LUFA/Drivers/USB/LowLevel/Endpoint.h **** 					UEINTX &= ~((1 << TXINI) | (1 << FIFOCON));
 1968               		.loc 2 454 0
 1969 0082 2091 E800 		lds r18,232
 1970               	.LVL187:
 1971 0086 2E77      		andi r18,lo8(126)
 1972 0088 2093 E800 		sts 232,r18
 1973 008c 00C0      		rjmp .L185
 1974               	.LVL188:
 1975               	.L205:
 1976               	.LBE374:
 1977               	.LBE373:
 1978               	.LBE368:
  12:../lufa-LUFA/LUFA/Drivers/USB/LowLevel/Template/Template_Endpoint_Control_W.c **** 	while (Length || LastPacketFull)
 1979               		.loc 4 12 0 discriminator 2
 1980 008e 3111      		cpse r19,__zero_reg__
 1981 0090 00C0      		rjmp .L190
 1982 0092 00C0      		rjmp .L192
 1983               	.LVL189:
 1984               	.L183:
  43:../lufa-LUFA/LUFA/Drivers/USB/LowLevel/Template/Template_Endpoint_Control_W.c **** 		if (USB_DeviceState == DEVICE_STATE_Unattached)
 1985               		.loc 4 43 0
 1986 0094 8EB3      		in r24,0x1e
 1987 0096 8823      		tst r24
 1988 0098 01F0      		breq .L197
  45:../lufa-LUFA/LUFA/Drivers/USB/LowLevel/Template/Template_Endpoint_Control_W.c **** 		else if (USB_DeviceState == DEVICE_STATE_Suspended)
 1989               		.loc 4 45 0
 1990 009a 8EB3      		in r24,0x1e
 1991 009c 8530      		cpi r24,lo8(5)
 1992 009e 01F4      		brne .L192
 1993 00a0 00C0      		rjmp .L198
 1994               	.LVL190:
 1995               	.L194:
  15:../lufa-LUFA/LUFA/Drivers/USB/LowLevel/Template/Template_Endpoint_Control_W.c **** 		  return ENDPOINT_RWCSTREAM_HostAborted;
 1996               		.loc 4 15 0
 1997 00a2 81E0      		ldi r24,lo8(1)
 1998               	.LVL191:
 1999 00a4 0895      		ret
 2000               	.L197:
  21:../lufa-LUFA/LUFA/Drivers/USB/LowLevel/Template/Template_Endpoint_Control_W.c **** 		  return ENDPOINT_RWCSTREAM_DeviceDisconnected;
 2001               		.loc 4 21 0
 2002 00a6 82E0      		ldi r24,lo8(2)
 2003 00a8 0895      		ret
 2004               	.L198:
  23:../lufa-LUFA/LUFA/Drivers/USB/LowLevel/Template/Template_Endpoint_Control_W.c **** 		  return ENDPOINT_RWCSTREAM_BusSuspended;
 2005               		.loc 4 23 0
 2006 00aa 83E0      		ldi r24,lo8(3)
  50:../lufa-LUFA/LUFA/Drivers/USB/LowLevel/Template/Template_Endpoint_Control_W.c **** }
 2007               		.loc 4 50 0
 2008 00ac 0895      		ret
 2009               		.cfi_endproc
 2010               	.LFE80:
 2012               		.section	.text.Endpoint_Write_Control_PStream_LE,"ax",@progbits
 2013               	.global	Endpoint_Write_Control_PStream_LE
 2015               	Endpoint_Write_Control_PStream_LE:
 2016               	.LFB81:
   3:../lufa-LUFA/LUFA/Drivers/USB/LowLevel/Template/Template_Endpoint_Control_W.c **** {
 2017               		.loc 4 3 0
 2018               		.cfi_startproc
 2019               	.LVL192:
 2020               	/* prologue: function */
 2021               	/* frame size = 0 */
 2022               	/* stack size = 0 */
 2023               	.L__stack_usage = 0
   7:../lufa-LUFA/LUFA/Drivers/USB/LowLevel/Template/Template_Endpoint_Control_W.c **** 	if (Length > USB_ControlRequest.wLength)
 2024               		.loc 4 7 0
 2025 0000 2091 0000 		lds r18,USB_ControlRequest+6
 2026 0004 3091 0000 		lds r19,USB_ControlRequest+6+1
 2027 0008 2617      		cp r18,r22
 2028 000a 3707      		cpc r19,r23
 2029 000c 00F0      		brlo .L221
   9:../lufa-LUFA/LUFA/Drivers/USB/LowLevel/Template/Template_Endpoint_Control_W.c **** 	else if (!(Length))
 2030               		.loc 4 9 0
 2031 000e 6115      		cp r22,__zero_reg__
 2032 0010 7105      		cpc r23,__zero_reg__
 2033 0012 01F4      		brne .L207
 2034               	.LBB375:
 2035               	.LBB376:
 454:../lufa-LUFA/LUFA/Drivers/USB/LowLevel/Endpoint.h **** 					UEINTX &= ~((1 << TXINI) | (1 << FIFOCON));
 2036               		.loc 2 454 0
 2037 0014 2091 E800 		lds r18,232
 2038 0018 2E77      		andi r18,lo8(126)
 2039 001a 2093 E800 		sts 232,r18
 2040 001e 00C0      		rjmp .L207
 2041               	.L221:
 2042               	.LBE376:
 2043               	.LBE375:
 2044 0020 B901      		movw r22,r18
 2045               	.LVL193:
 2046               	.L207:
 2047               	.LBB377:
  29:../lufa-LUFA/LUFA/Drivers/USB/LowLevel/Template/Template_Endpoint_Control_W.c **** 			while (Length && (BytesInEndpoint < USB_ControlEndpointSize))
 2048               		.loc 4 29 0 discriminator 1
 2049 0022 30E0      		ldi r19,0
 2050               	.LVL194:
 2051               	.L213:
 2052               	.LBE377:
  12:../lufa-LUFA/LUFA/Drivers/USB/LowLevel/Template/Template_Endpoint_Control_W.c **** 	while (Length || LastPacketFull)
 2053               		.loc 4 12 0 discriminator 1
 2054 0024 6115      		cp r22,__zero_reg__
 2055 0026 7105      		cpc r23,__zero_reg__
 2056 0028 01F0      		breq .L233
 2057               	.L218:
 2058               	.LBB385:
 2059               	.LBB386:
 429:../lufa-LUFA/LUFA/Drivers/USB/LowLevel/Endpoint.h **** 				return ((UEINTX & (1 << RXSTPI)) ? true : false);
 2060               		.loc 2 429 0
 2061 002a 2091 E800 		lds r18,232
 2062               	.LBE386:
 2063               	.LBE385:
  14:../lufa-LUFA/LUFA/Drivers/USB/LowLevel/Template/Template_Endpoint_Control_W.c **** 		if (Endpoint_IsSETUPReceived())
 2064               		.loc 4 14 0
 2065 002e 23FD      		sbrc r18,3
 2066 0030 00C0      		rjmp .L222
 2067               	.LBB387:
 2068               	.LBB388:
 417:../lufa-LUFA/LUFA/Drivers/USB/LowLevel/Endpoint.h **** 				return ((UEINTX & (1 << RXOUTI)) ? true : false);
 2069               		.loc 2 417 0
 2070 0032 2091 E800 		lds r18,232
 2071               	.LBE388:
 2072               	.LBE387:
  17:../lufa-LUFA/LUFA/Drivers/USB/LowLevel/Template/Template_Endpoint_Control_W.c **** 		if (Endpoint_IsOUTReceived())
 2073               		.loc 4 17 0
 2074 0036 22FF      		sbrs r18,2
 2075 0038 00C0      		rjmp .L210
 2076               	.LVL195:
 2077               	.L220:
 2078               	.LBB389:
 2079               	.LBB390:
 417:../lufa-LUFA/LUFA/Drivers/USB/LowLevel/Endpoint.h **** 				return ((UEINTX & (1 << RXOUTI)) ? true : false);
 2080               		.loc 2 417 0 discriminator 1
 2081 003a 8091 E800 		lds r24,232
 2082               	.LBE390:
 2083               	.LBE389:
  41:../lufa-LUFA/LUFA/Drivers/USB/LowLevel/Template/Template_Endpoint_Control_W.c **** 	while (!(Endpoint_IsOUTReceived()))
 2084               		.loc 4 41 0 discriminator 1
 2085 003e 82FF      		sbrs r24,2
 2086 0040 00C0      		rjmp .L211
  49:../lufa-LUFA/LUFA/Drivers/USB/LowLevel/Template/Template_Endpoint_Control_W.c **** 	return ENDPOINT_RWCSTREAM_NoError;
 2087               		.loc 4 49 0
 2088 0042 80E0      		ldi r24,0
 2089 0044 0895      		ret
 2090               	.LVL196:
 2091               	.L210:
  20:../lufa-LUFA/LUFA/Drivers/USB/LowLevel/Template/Template_Endpoint_Control_W.c **** 		if (USB_DeviceState == DEVICE_STATE_Unattached)
 2092               		.loc 4 20 0
 2093 0046 2EB3      		in r18,0x1e
 2094 0048 2223      		tst r18
 2095 004a 01F0      		breq .L225
  22:../lufa-LUFA/LUFA/Drivers/USB/LowLevel/Template/Template_Endpoint_Control_W.c **** 		else if (USB_DeviceState == DEVICE_STATE_Suspended)
 2096               		.loc 4 22 0
 2097 004c 2EB3      		in r18,0x1e
 2098 004e 2530      		cpi r18,lo8(5)
 2099 0050 01F0      		breq .L226
 2100               	.LBB391:
 2101               	.LBB392:
 405:../lufa-LUFA/LUFA/Drivers/USB/LowLevel/Endpoint.h **** 				return ((UEINTX & (1 << TXINI))  ? true : false);
 2102               		.loc 2 405 0
 2103 0052 2091 E800 		lds r18,232
 2104               	.LBE392:
 2105               	.LBE391:
  25:../lufa-LUFA/LUFA/Drivers/USB/LowLevel/Template/Template_Endpoint_Control_W.c **** 		if (Endpoint_IsINReady())
 2106               		.loc 4 25 0
 2107 0056 20FF      		sbrs r18,0
 2108 0058 00C0      		rjmp .L213
 2109               	.LBB393:
 2110               	.LBB378:
 2111               	.LBB379:
 266:../lufa-LUFA/LUFA/Drivers/USB/LowLevel/Endpoint.h **** 					return UEBCLX;
 2112               		.loc 2 266 0
 2113 005a 2091 F200 		lds r18,242
 2114               	.LVL197:
 2115               	.LBE379:
 2116               	.LBE378:
  29:../lufa-LUFA/LUFA/Drivers/USB/LowLevel/Template/Template_Endpoint_Control_W.c **** 			while (Length && (BytesInEndpoint < USB_ControlEndpointSize))
 2117               		.loc 4 29 0
 2118 005e FC01      		movw r30,r24
 2119               	.LVL198:
 2120               	.L214:
 2121 0060 CF01      		movw r24,r30
 2122               	.LVL199:
  29:../lufa-LUFA/LUFA/Drivers/USB/LowLevel/Template/Template_Endpoint_Control_W.c **** 			while (Length && (BytesInEndpoint < USB_ControlEndpointSize))
 2123               		.loc 4 29 0 is_stmt 0 discriminator 1
 2124 0062 6115      		cp r22,__zero_reg__
 2125 0064 7105      		cpc r23,__zero_reg__
 2126 0066 01F0      		breq .L215
  29:../lufa-LUFA/LUFA/Drivers/USB/LowLevel/Template/Template_Endpoint_Control_W.c **** 			while (Length && (BytesInEndpoint < USB_ControlEndpointSize))
 2127               		.loc 4 29 0 discriminator 2
 2128 0068 2830      		cpi r18,lo8(8)
 2129 006a 00F4      		brsh .L215
 2130               	.LVL200:
 2131               	.LBB380:
  31:../lufa-LUFA/LUFA/Drivers/USB/LowLevel/Template/Template_Endpoint_Control_W.c **** 				TEMPLATE_TRANSFER_BYTE(DataStream);
 2132               		.loc 4 31 0 is_stmt 1
 2133               	/* #APP */
 2134               	 ;  31 "../lufa-LUFA/LUFA/Drivers/USB/LowLevel/Template/Template_Endpoint_Control_W.c" 1
 2135 006c 8491      		lpm r24, Z
 2136               		
 2137               	 ;  0 "" 2
 2138               	.LVL201:
 2139               	/* #NOAPP */
 2140               	.LBE380:
 2141               	.LBB381:
 2142               	.LBB382:
 562:../lufa-LUFA/LUFA/Drivers/USB/LowLevel/Endpoint.h **** 				UEDATX = Byte;
 2143               		.loc 2 562 0
 2144 006e 8093 F100 		sts 241,r24
 2145               	.LBE382:
 2146               	.LBE381:
  32:../lufa-LUFA/LUFA/Drivers/USB/LowLevel/Template/Template_Endpoint_Control_W.c **** 				Length--;
 2147               		.loc 4 32 0
 2148 0072 6150      		subi r22,1
 2149 0074 7109      		sbc r23,__zero_reg__
 2150               	.LVL202:
  33:../lufa-LUFA/LUFA/Drivers/USB/LowLevel/Template/Template_Endpoint_Control_W.c **** 				BytesInEndpoint++;
 2151               		.loc 4 33 0
 2152 0076 2F5F      		subi r18,lo8(-(1))
 2153               	.LVL203:
 2154 0078 3196      		adiw r30,1
 2155               	.LVL204:
 2156 007a 00C0      		rjmp .L214
 2157               	.LVL205:
 2158               	.L215:
  36:../lufa-LUFA/LUFA/Drivers/USB/LowLevel/Template/Template_Endpoint_Control_W.c **** 			LastPacketFull = (BytesInEndpoint == USB_ControlEndpointSize);
 2159               		.loc 4 36 0
 2160 007c 31E0      		ldi r19,lo8(1)
 2161               	.LVL206:
 2162 007e 2830      		cpi r18,lo8(8)
 2163 0080 01F0      		breq .L217
 2164 0082 30E0      		ldi r19,0
 2165               	.L217:
 2166               	.LVL207:
 2167               	.LBB383:
 2168               	.LBB384:
 454:../lufa-LUFA/LUFA/Drivers/USB/LowLevel/Endpoint.h **** 					UEINTX &= ~((1 << TXINI) | (1 << FIFOCON));
 2169               		.loc 2 454 0
 2170 0084 2091 E800 		lds r18,232
 2171               	.LVL208:
 2172 0088 2E77      		andi r18,lo8(126)
 2173 008a 2093 E800 		sts 232,r18
 2174 008e 00C0      		rjmp .L213
 2175               	.LVL209:
 2176               	.L233:
 2177               	.LBE384:
 2178               	.LBE383:
 2179               	.LBE393:
  12:../lufa-LUFA/LUFA/Drivers/USB/LowLevel/Template/Template_Endpoint_Control_W.c **** 	while (Length || LastPacketFull)
 2180               		.loc 4 12 0 discriminator 2
 2181 0090 3111      		cpse r19,__zero_reg__
 2182 0092 00C0      		rjmp .L218
 2183 0094 00C0      		rjmp .L220
 2184               	.LVL210:
 2185               	.L211:
  43:../lufa-LUFA/LUFA/Drivers/USB/LowLevel/Template/Template_Endpoint_Control_W.c **** 		if (USB_DeviceState == DEVICE_STATE_Unattached)
 2186               		.loc 4 43 0
 2187 0096 8EB3      		in r24,0x1e
 2188 0098 8823      		tst r24
 2189 009a 01F0      		breq .L225
  45:../lufa-LUFA/LUFA/Drivers/USB/LowLevel/Template/Template_Endpoint_Control_W.c **** 		else if (USB_DeviceState == DEVICE_STATE_Suspended)
 2190               		.loc 4 45 0
 2191 009c 8EB3      		in r24,0x1e
 2192 009e 8530      		cpi r24,lo8(5)
 2193 00a0 01F4      		brne .L220
 2194 00a2 00C0      		rjmp .L226
 2195               	.LVL211:
 2196               	.L222:
  15:../lufa-LUFA/LUFA/Drivers/USB/LowLevel/Template/Template_Endpoint_Control_W.c **** 		  return ENDPOINT_RWCSTREAM_HostAborted;
 2197               		.loc 4 15 0
 2198 00a4 81E0      		ldi r24,lo8(1)
 2199               	.LVL212:
 2200 00a6 0895      		ret
 2201               	.L225:
  21:../lufa-LUFA/LUFA/Drivers/USB/LowLevel/Template/Template_Endpoint_Control_W.c **** 		  return ENDPOINT_RWCSTREAM_DeviceDisconnected;
 2202               		.loc 4 21 0
 2203 00a8 82E0      		ldi r24,lo8(2)
 2204 00aa 0895      		ret
 2205               	.L226:
  23:../lufa-LUFA/LUFA/Drivers/USB/LowLevel/Template/Template_Endpoint_Control_W.c **** 		  return ENDPOINT_RWCSTREAM_BusSuspended;
 2206               		.loc 4 23 0
 2207 00ac 83E0      		ldi r24,lo8(3)
 2208               		.loc 4 50 0
 2209 00ae 0895      		ret
 2210               		.cfi_endproc
 2211               	.LFE81:
 2213               		.section	.text.Endpoint_Write_Control_EStream_LE,"ax",@progbits
 2214               	.global	Endpoint_Write_Control_EStream_LE
 2216               	Endpoint_Write_Control_EStream_LE:
 2217               	.LFB82:
   3:../lufa-LUFA/LUFA/Drivers/USB/LowLevel/Template/Template_Endpoint_Control_W.c **** {
 2218               		.loc 4 3 0
 2219               		.cfi_startproc
 2220               	.LVL213:
 2221 0000 EF92      		push r14
 2222               	.LCFI78:
 2223               		.cfi_def_cfa_offset 3
 2224               		.cfi_offset 14, -2
 2225 0002 FF92      		push r15
 2226               	.LCFI79:
 2227               		.cfi_def_cfa_offset 4
 2228               		.cfi_offset 15, -3
 2229 0004 0F93      		push r16
 2230               	.LCFI80:
 2231               		.cfi_def_cfa_offset 5
 2232               		.cfi_offset 16, -4
 2233 0006 1F93      		push r17
 2234               	.LCFI81:
 2235               		.cfi_def_cfa_offset 6
 2236               		.cfi_offset 17, -5
 2237 0008 CF93      		push r28
 2238               	.LCFI82:
 2239               		.cfi_def_cfa_offset 7
 2240               		.cfi_offset 28, -6
 2241 000a DF93      		push r29
 2242               	.LCFI83:
 2243               		.cfi_def_cfa_offset 8
 2244               		.cfi_offset 29, -7
 2245 000c 1F92      		push __zero_reg__
 2246               	.LCFI84:
 2247               		.cfi_def_cfa_offset 9
 2248 000e CDB7      		in r28,__SP_L__
 2249 0010 DEB7      		in r29,__SP_H__
 2250               	.LCFI85:
 2251               		.cfi_def_cfa_register 28
 2252               	/* prologue: function */
 2253               	/* frame size = 1 */
 2254               	/* stack size = 7 */
 2255               	.L__stack_usage = 7
 2256 0012 7B01      		movw r14,r22
 2257               	.LVL214:
   7:../lufa-LUFA/LUFA/Drivers/USB/LowLevel/Template/Template_Endpoint_Control_W.c **** 	if (Length > USB_ControlRequest.wLength)
 2258               		.loc 4 7 0
 2259 0014 2091 0000 		lds r18,USB_ControlRequest+6
 2260 0018 3091 0000 		lds r19,USB_ControlRequest+6+1
 2261 001c 2617      		cp r18,r22
 2262 001e 3707      		cpc r19,r23
 2263 0020 00F0      		brlo .L249
   9:../lufa-LUFA/LUFA/Drivers/USB/LowLevel/Template/Template_Endpoint_Control_W.c **** 	else if (!(Length))
 2264               		.loc 4 9 0
 2265 0022 6115      		cp r22,__zero_reg__
 2266 0024 7105      		cpc r23,__zero_reg__
 2267 0026 01F4      		brne .L235
 2268               	.LBB394:
 2269               	.LBB395:
 454:../lufa-LUFA/LUFA/Drivers/USB/LowLevel/Endpoint.h **** 					UEINTX &= ~((1 << TXINI) | (1 << FIFOCON));
 2270               		.loc 2 454 0
 2271 0028 2091 E800 		lds r18,232
 2272 002c 2E77      		andi r18,lo8(126)
 2273 002e 2093 E800 		sts 232,r18
 2274 0032 00C0      		rjmp .L235
 2275               	.L249:
 2276               	.LBE395:
 2277               	.LBE394:
 2278 0034 7901      		movw r14,r18
 2279               	.L235:
 2280               	.LBB396:
  31:../lufa-LUFA/LUFA/Drivers/USB/LowLevel/Template/Template_Endpoint_Control_W.c **** 				TEMPLATE_TRANSFER_BYTE(DataStream);
 2281               		.loc 4 31 0 discriminator 1
 2282 0036 30E0      		ldi r19,0
 2283               	.LVL215:
 2284               	.L241:
 2285               	.LBE396:
  12:../lufa-LUFA/LUFA/Drivers/USB/LowLevel/Template/Template_Endpoint_Control_W.c **** 	while (Length || LastPacketFull)
 2286               		.loc 4 12 0 discriminator 1
 2287 0038 E114      		cp r14,__zero_reg__
 2288 003a F104      		cpc r15,__zero_reg__
 2289 003c 01F0      		breq .L261
 2290               	.L246:
 2291               	.LBB403:
 2292               	.LBB404:
 429:../lufa-LUFA/LUFA/Drivers/USB/LowLevel/Endpoint.h **** 				return ((UEINTX & (1 << RXSTPI)) ? true : false);
 2293               		.loc 2 429 0
 2294 003e 2091 E800 		lds r18,232
 2295               	.LBE404:
 2296               	.LBE403:
  14:../lufa-LUFA/LUFA/Drivers/USB/LowLevel/Template/Template_Endpoint_Control_W.c **** 		if (Endpoint_IsSETUPReceived())
 2297               		.loc 4 14 0
 2298 0042 23FD      		sbrc r18,3
 2299 0044 00C0      		rjmp .L250
 2300               	.LBB405:
 2301               	.LBB406:
 417:../lufa-LUFA/LUFA/Drivers/USB/LowLevel/Endpoint.h **** 				return ((UEINTX & (1 << RXOUTI)) ? true : false);
 2302               		.loc 2 417 0
 2303 0046 2091 E800 		lds r18,232
 2304               	.LBE406:
 2305               	.LBE405:
  17:../lufa-LUFA/LUFA/Drivers/USB/LowLevel/Template/Template_Endpoint_Control_W.c **** 		if (Endpoint_IsOUTReceived())
 2306               		.loc 4 17 0
 2307 004a 22FF      		sbrs r18,2
 2308 004c 00C0      		rjmp .L238
 2309               	.LVL216:
 2310               	.L248:
 2311               	.LBB407:
 2312               	.LBB408:
 417:../lufa-LUFA/LUFA/Drivers/USB/LowLevel/Endpoint.h **** 				return ((UEINTX & (1 << RXOUTI)) ? true : false);
 2313               		.loc 2 417 0 discriminator 1
 2314 004e 8091 E800 		lds r24,232
 2315               	.LBE408:
 2316               	.LBE407:
  41:../lufa-LUFA/LUFA/Drivers/USB/LowLevel/Template/Template_Endpoint_Control_W.c **** 	while (!(Endpoint_IsOUTReceived()))
 2317               		.loc 4 41 0 discriminator 1
 2318 0052 82FF      		sbrs r24,2
 2319 0054 00C0      		rjmp .L239
  49:../lufa-LUFA/LUFA/Drivers/USB/LowLevel/Template/Template_Endpoint_Control_W.c **** 	return ENDPOINT_RWCSTREAM_NoError;
 2320               		.loc 4 49 0
 2321 0056 80E0      		ldi r24,0
 2322 0058 00C0      		rjmp .L237
 2323               	.LVL217:
 2324               	.L238:
  20:../lufa-LUFA/LUFA/Drivers/USB/LowLevel/Template/Template_Endpoint_Control_W.c **** 		if (USB_DeviceState == DEVICE_STATE_Unattached)
 2325               		.loc 4 20 0
 2326 005a 2EB3      		in r18,0x1e
 2327 005c 2223      		tst r18
 2328 005e 01F0      		breq .L253
  22:../lufa-LUFA/LUFA/Drivers/USB/LowLevel/Template/Template_Endpoint_Control_W.c **** 		else if (USB_DeviceState == DEVICE_STATE_Suspended)
 2329               		.loc 4 22 0
 2330 0060 2EB3      		in r18,0x1e
 2331 0062 2530      		cpi r18,lo8(5)
 2332 0064 01F0      		breq .L254
 2333               	.LBB409:
 2334               	.LBB410:
 405:../lufa-LUFA/LUFA/Drivers/USB/LowLevel/Endpoint.h **** 				return ((UEINTX & (1 << TXINI))  ? true : false);
 2335               		.loc 2 405 0
 2336 0066 2091 E800 		lds r18,232
 2337               	.LBE410:
 2338               	.LBE409:
  25:../lufa-LUFA/LUFA/Drivers/USB/LowLevel/Template/Template_Endpoint_Control_W.c **** 		if (Endpoint_IsINReady())
 2339               		.loc 4 25 0
 2340 006a 20FF      		sbrs r18,0
 2341 006c 00C0      		rjmp .L241
 2342               	.LBB411:
 2343               	.LBB397:
 2344               	.LBB398:
 266:../lufa-LUFA/LUFA/Drivers/USB/LowLevel/Endpoint.h **** 					return UEBCLX;
 2345               		.loc 2 266 0
 2346 006e 2091 F200 		lds r18,242
 2347               	.LVL218:
 2348               	.L242:
 2349               	.LBE398:
 2350               	.LBE397:
  29:../lufa-LUFA/LUFA/Drivers/USB/LowLevel/Template/Template_Endpoint_Control_W.c **** 			while (Length && (BytesInEndpoint < USB_ControlEndpointSize))
 2351               		.loc 4 29 0 discriminator 1
 2352 0072 E114      		cp r14,__zero_reg__
 2353 0074 F104      		cpc r15,__zero_reg__
 2354 0076 01F0      		breq .L243
  29:../lufa-LUFA/LUFA/Drivers/USB/LowLevel/Template/Template_Endpoint_Control_W.c **** 			while (Length && (BytesInEndpoint < USB_ControlEndpointSize))
 2355               		.loc 4 29 0 is_stmt 0 discriminator 2
 2356 0078 2830      		cpi r18,lo8(8)
 2357 007a 00F4      		brsh .L243
  31:../lufa-LUFA/LUFA/Drivers/USB/LowLevel/Template/Template_Endpoint_Control_W.c **** 				TEMPLATE_TRANSFER_BYTE(DataStream);
 2358               		.loc 4 31 0 is_stmt 1
 2359 007c 8C01      		movw r16,r24
 2360 007e 0F5F      		subi r16,-1
 2361 0080 1F4F      		sbci r17,-1
 2362               	.LVL219:
 2363 0082 2983      		std Y+1,r18
 2364 0084 0E94 0000 		call __eerd_byte_m8u2
 2365               	.LVL220:
 2366               	.LBB399:
 2367               	.LBB400:
 562:../lufa-LUFA/LUFA/Drivers/USB/LowLevel/Endpoint.h **** 				UEDATX = Byte;
 2368               		.loc 2 562 0
 2369 0088 8093 F100 		sts 241,r24
 2370               	.LBE400:
 2371               	.LBE399:
  32:../lufa-LUFA/LUFA/Drivers/USB/LowLevel/Template/Template_Endpoint_Control_W.c **** 				Length--;
 2372               		.loc 4 32 0
 2373 008c 81E0      		ldi r24,1
 2374 008e E81A      		sub r14,r24
 2375 0090 F108      		sbc r15,__zero_reg__
 2376               	.LVL221:
  33:../lufa-LUFA/LUFA/Drivers/USB/LowLevel/Template/Template_Endpoint_Control_W.c **** 				BytesInEndpoint++;
 2377               		.loc 4 33 0
 2378 0092 2981      		ldd r18,Y+1
 2379 0094 2F5F      		subi r18,lo8(-(1))
 2380               	.LVL222:
  31:../lufa-LUFA/LUFA/Drivers/USB/LowLevel/Template/Template_Endpoint_Control_W.c **** 				TEMPLATE_TRANSFER_BYTE(DataStream);
 2381               		.loc 4 31 0
 2382 0096 C801      		movw r24,r16
 2383 0098 00C0      		rjmp .L242
 2384               	.LVL223:
 2385               	.L243:
  36:../lufa-LUFA/LUFA/Drivers/USB/LowLevel/Template/Template_Endpoint_Control_W.c **** 			LastPacketFull = (BytesInEndpoint == USB_ControlEndpointSize);
 2386               		.loc 4 36 0
 2387 009a 31E0      		ldi r19,lo8(1)
 2388 009c 2830      		cpi r18,lo8(8)
 2389 009e 01F0      		breq .L245
 2390 00a0 30E0      		ldi r19,0
 2391               	.L245:
 2392               	.LVL224:
 2393               	.LBB401:
 2394               	.LBB402:
 454:../lufa-LUFA/LUFA/Drivers/USB/LowLevel/Endpoint.h **** 					UEINTX &= ~((1 << TXINI) | (1 << FIFOCON));
 2395               		.loc 2 454 0
 2396 00a2 2091 E800 		lds r18,232
 2397               	.LVL225:
 2398 00a6 2E77      		andi r18,lo8(126)
 2399 00a8 2093 E800 		sts 232,r18
 2400 00ac 00C0      		rjmp .L241
 2401               	.L261:
 2402               	.LBE402:
 2403               	.LBE401:
 2404               	.LBE411:
  12:../lufa-LUFA/LUFA/Drivers/USB/LowLevel/Template/Template_Endpoint_Control_W.c **** 	while (Length || LastPacketFull)
 2405               		.loc 4 12 0 discriminator 2
 2406 00ae 3111      		cpse r19,__zero_reg__
 2407 00b0 00C0      		rjmp .L246
 2408 00b2 00C0      		rjmp .L248
 2409               	.LVL226:
 2410               	.L239:
  43:../lufa-LUFA/LUFA/Drivers/USB/LowLevel/Template/Template_Endpoint_Control_W.c **** 		if (USB_DeviceState == DEVICE_STATE_Unattached)
 2411               		.loc 4 43 0
 2412 00b4 8EB3      		in r24,0x1e
 2413 00b6 8823      		tst r24
 2414 00b8 01F0      		breq .L253
  45:../lufa-LUFA/LUFA/Drivers/USB/LowLevel/Template/Template_Endpoint_Control_W.c **** 		else if (USB_DeviceState == DEVICE_STATE_Suspended)
 2415               		.loc 4 45 0
 2416 00ba 8EB3      		in r24,0x1e
 2417 00bc 8530      		cpi r24,lo8(5)
 2418 00be 01F4      		brne .L248
 2419 00c0 00C0      		rjmp .L254
 2420               	.LVL227:
 2421               	.L250:
  15:../lufa-LUFA/LUFA/Drivers/USB/LowLevel/Template/Template_Endpoint_Control_W.c **** 		  return ENDPOINT_RWCSTREAM_HostAborted;
 2422               		.loc 4 15 0
 2423 00c2 81E0      		ldi r24,lo8(1)
 2424               	.LVL228:
 2425 00c4 00C0      		rjmp .L237
 2426               	.L253:
  21:../lufa-LUFA/LUFA/Drivers/USB/LowLevel/Template/Template_Endpoint_Control_W.c **** 		  return ENDPOINT_RWCSTREAM_DeviceDisconnected;
 2427               		.loc 4 21 0
 2428 00c6 82E0      		ldi r24,lo8(2)
 2429 00c8 00C0      		rjmp .L237
 2430               	.L254:
  23:../lufa-LUFA/LUFA/Drivers/USB/LowLevel/Template/Template_Endpoint_Control_W.c **** 		  return ENDPOINT_RWCSTREAM_BusSuspended;
 2431               		.loc 4 23 0
 2432 00ca 83E0      		ldi r24,lo8(3)
 2433               	.L237:
 2434               	/* epilogue start */
 2435               		.loc 4 50 0
 2436 00cc 0F90      		pop __tmp_reg__
 2437 00ce DF91      		pop r29
 2438 00d0 CF91      		pop r28
 2439 00d2 1F91      		pop r17
 2440 00d4 0F91      		pop r16
 2441 00d6 FF90      		pop r15
 2442 00d8 EF90      		pop r14
 2443               	.LVL229:
 2444 00da 0895      		ret
 2445               		.cfi_endproc
 2446               	.LFE82:
 2448               		.section	.text.Endpoint_Write_Control_Stream_BE,"ax",@progbits
 2449               	.global	Endpoint_Write_Control_Stream_BE
 2451               	Endpoint_Write_Control_Stream_BE:
 2452               	.LFB83:
   3:../lufa-LUFA/LUFA/Drivers/USB/LowLevel/Template/Template_Endpoint_Control_W.c **** {
 2453               		.loc 4 3 0
 2454               		.cfi_startproc
 2455               	.LVL230:
 2456               	/* prologue: function */
 2457               	/* frame size = 0 */
 2458               	/* stack size = 0 */
 2459               	.L__stack_usage = 0
   4:../lufa-LUFA/LUFA/Drivers/USB/LowLevel/Template/Template_Endpoint_Control_W.c **** 	uint8_t* DataStream     = ((uint8_t*)Buffer + TEMPLATE_BUFFER_OFFSET(Length));
 2460               		.loc 4 4 0
 2461 0000 9B01      		movw r18,r22
 2462 0002 2150      		subi r18,1
 2463 0004 3109      		sbc r19,__zero_reg__
 2464 0006 280F      		add r18,r24
 2465 0008 391F      		adc r19,r25
 2466               	.LVL231:
   7:../lufa-LUFA/LUFA/Drivers/USB/LowLevel/Template/Template_Endpoint_Control_W.c **** 	if (Length > USB_ControlRequest.wLength)
 2467               		.loc 4 7 0
 2468 000a 8091 0000 		lds r24,USB_ControlRequest+6
 2469 000e 9091 0000 		lds r25,USB_ControlRequest+6+1
 2470               	.LVL232:
 2471 0012 8617      		cp r24,r22
 2472 0014 9707      		cpc r25,r23
 2473 0016 00F0      		brlo .L277
   9:../lufa-LUFA/LUFA/Drivers/USB/LowLevel/Template/Template_Endpoint_Control_W.c **** 	else if (!(Length))
 2474               		.loc 4 9 0
 2475 0018 6115      		cp r22,__zero_reg__
 2476 001a 7105      		cpc r23,__zero_reg__
 2477 001c 01F4      		brne .L263
 2478               	.LBB412:
 2479               	.LBB413:
 454:../lufa-LUFA/LUFA/Drivers/USB/LowLevel/Endpoint.h **** 					UEINTX &= ~((1 << TXINI) | (1 << FIFOCON));
 2480               		.loc 2 454 0
 2481 001e 8091 E800 		lds r24,232
 2482 0022 8E77      		andi r24,lo8(126)
 2483 0024 8093 E800 		sts 232,r24
 2484 0028 00C0      		rjmp .L263
 2485               	.L277:
 2486               	.LBE413:
 2487               	.LBE412:
 2488 002a BC01      		movw r22,r24
 2489               	.LVL233:
 2490               	.L263:
 2491 002c 90E0      		ldi r25,0
 2492               	.LVL234:
 2493               	.L269:
  12:../lufa-LUFA/LUFA/Drivers/USB/LowLevel/Template/Template_Endpoint_Control_W.c **** 	while (Length || LastPacketFull)
 2494               		.loc 4 12 0 discriminator 1
 2495 002e 6115      		cp r22,__zero_reg__
 2496 0030 7105      		cpc r23,__zero_reg__
 2497 0032 01F0      		breq .L289
 2498               	.L274:
 2499               	.LBB414:
 2500               	.LBB415:
 429:../lufa-LUFA/LUFA/Drivers/USB/LowLevel/Endpoint.h **** 				return ((UEINTX & (1 << RXSTPI)) ? true : false);
 2501               		.loc 2 429 0
 2502 0034 8091 E800 		lds r24,232
 2503               	.LBE415:
 2504               	.LBE414:
  14:../lufa-LUFA/LUFA/Drivers/USB/LowLevel/Template/Template_Endpoint_Control_W.c **** 		if (Endpoint_IsSETUPReceived())
 2505               		.loc 4 14 0
 2506 0038 83FD      		sbrc r24,3
 2507 003a 00C0      		rjmp .L278
 2508               	.LBB416:
 2509               	.LBB417:
 417:../lufa-LUFA/LUFA/Drivers/USB/LowLevel/Endpoint.h **** 				return ((UEINTX & (1 << RXOUTI)) ? true : false);
 2510               		.loc 2 417 0
 2511 003c 8091 E800 		lds r24,232
 2512               	.LBE417:
 2513               	.LBE416:
  17:../lufa-LUFA/LUFA/Drivers/USB/LowLevel/Template/Template_Endpoint_Control_W.c **** 		if (Endpoint_IsOUTReceived())
 2514               		.loc 4 17 0
 2515 0040 82FF      		sbrs r24,2
 2516 0042 00C0      		rjmp .L266
 2517               	.L276:
 2518               	.LBB418:
 2519               	.LBB419:
 417:../lufa-LUFA/LUFA/Drivers/USB/LowLevel/Endpoint.h **** 				return ((UEINTX & (1 << RXOUTI)) ? true : false);
 2520               		.loc 2 417 0 discriminator 1
 2521 0044 8091 E800 		lds r24,232
 2522               	.LBE419:
 2523               	.LBE418:
  41:../lufa-LUFA/LUFA/Drivers/USB/LowLevel/Template/Template_Endpoint_Control_W.c **** 	while (!(Endpoint_IsOUTReceived()))
 2524               		.loc 4 41 0 discriminator 1
 2525 0048 82FF      		sbrs r24,2
 2526 004a 00C0      		rjmp .L267
  49:../lufa-LUFA/LUFA/Drivers/USB/LowLevel/Template/Template_Endpoint_Control_W.c **** 	return ENDPOINT_RWCSTREAM_NoError;
 2527               		.loc 4 49 0
 2528 004c 80E0      		ldi r24,0
 2529 004e 0895      		ret
 2530               	.L266:
  20:../lufa-LUFA/LUFA/Drivers/USB/LowLevel/Template/Template_Endpoint_Control_W.c **** 		if (USB_DeviceState == DEVICE_STATE_Unattached)
 2531               		.loc 4 20 0
 2532 0050 8EB3      		in r24,0x1e
 2533 0052 8823      		tst r24
 2534 0054 01F0      		breq .L281
  22:../lufa-LUFA/LUFA/Drivers/USB/LowLevel/Template/Template_Endpoint_Control_W.c **** 		else if (USB_DeviceState == DEVICE_STATE_Suspended)
 2535               		.loc 4 22 0
 2536 0056 8EB3      		in r24,0x1e
 2537 0058 8530      		cpi r24,lo8(5)
 2538 005a 01F0      		breq .L282
 2539               	.LBB420:
 2540               	.LBB421:
 405:../lufa-LUFA/LUFA/Drivers/USB/LowLevel/Endpoint.h **** 				return ((UEINTX & (1 << TXINI))  ? true : false);
 2541               		.loc 2 405 0
 2542 005c 8091 E800 		lds r24,232
 2543               	.LBE421:
 2544               	.LBE420:
  25:../lufa-LUFA/LUFA/Drivers/USB/LowLevel/Template/Template_Endpoint_Control_W.c **** 		if (Endpoint_IsINReady())
 2545               		.loc 4 25 0
 2546 0060 80FF      		sbrs r24,0
 2547 0062 00C0      		rjmp .L269
 2548               	.LBB422:
 2549               	.LBB423:
 2550               	.LBB424:
 266:../lufa-LUFA/LUFA/Drivers/USB/LowLevel/Endpoint.h **** 					return UEBCLX;
 2551               		.loc 2 266 0
 2552 0064 8091 F200 		lds r24,242
 2553               	.LVL235:
 2554 0068 F901      		movw r30,r18
 2555               	.LVL236:
 2556               	.L270:
 2557 006a 9F01      		movw r18,r30
 2558               	.LVL237:
 2559               	.LBE424:
 2560               	.LBE423:
  29:../lufa-LUFA/LUFA/Drivers/USB/LowLevel/Template/Template_Endpoint_Control_W.c **** 			while (Length && (BytesInEndpoint < USB_ControlEndpointSize))
 2561               		.loc 4 29 0 discriminator 1
 2562 006c 6115      		cp r22,__zero_reg__
 2563 006e 7105      		cpc r23,__zero_reg__
 2564 0070 01F0      		breq .L271
  29:../lufa-LUFA/LUFA/Drivers/USB/LowLevel/Template/Template_Endpoint_Control_W.c **** 			while (Length && (BytesInEndpoint < USB_ControlEndpointSize))
 2565               		.loc 4 29 0 is_stmt 0 discriminator 2
 2566 0072 8830      		cpi r24,lo8(8)
 2567 0074 00F4      		brsh .L271
 2568               	.LVL238:
  31:../lufa-LUFA/LUFA/Drivers/USB/LowLevel/Template/Template_Endpoint_Control_W.c **** 				TEMPLATE_TRANSFER_BYTE(DataStream);
 2569               		.loc 4 31 0 is_stmt 1
 2570 0076 9081      		ld r25,Z
 2571               	.LVL239:
 2572               	.LBB425:
 2573               	.LBB426:
 562:../lufa-LUFA/LUFA/Drivers/USB/LowLevel/Endpoint.h **** 				UEDATX = Byte;
 2574               		.loc 2 562 0
 2575 0078 9093 F100 		sts 241,r25
 2576               	.LBE426:
 2577               	.LBE425:
  32:../lufa-LUFA/LUFA/Drivers/USB/LowLevel/Template/Template_Endpoint_Control_W.c **** 				Length--;
 2578               		.loc 4 32 0
 2579 007c 6150      		subi r22,1
 2580 007e 7109      		sbc r23,__zero_reg__
 2581               	.LVL240:
  33:../lufa-LUFA/LUFA/Drivers/USB/LowLevel/Template/Template_Endpoint_Control_W.c **** 				BytesInEndpoint++;
 2582               		.loc 4 33 0
 2583 0080 8F5F      		subi r24,lo8(-(1))
 2584               	.LVL241:
 2585 0082 3197      		sbiw r30,1
 2586               	.LVL242:
 2587 0084 00C0      		rjmp .L270
 2588               	.LVL243:
 2589               	.L271:
  36:../lufa-LUFA/LUFA/Drivers/USB/LowLevel/Template/Template_Endpoint_Control_W.c **** 			LastPacketFull = (BytesInEndpoint == USB_ControlEndpointSize);
 2590               		.loc 4 36 0
 2591 0086 91E0      		ldi r25,lo8(1)
 2592 0088 8830      		cpi r24,lo8(8)
 2593 008a 01F0      		breq .L273
 2594 008c 90E0      		ldi r25,0
 2595               	.L273:
 2596               	.LVL244:
 2597               	.LBB427:
 2598               	.LBB428:
 454:../lufa-LUFA/LUFA/Drivers/USB/LowLevel/Endpoint.h **** 					UEINTX &= ~((1 << TXINI) | (1 << FIFOCON));
 2599               		.loc 2 454 0
 2600 008e 8091 E800 		lds r24,232
 2601               	.LVL245:
 2602 0092 8E77      		andi r24,lo8(126)
 2603 0094 8093 E800 		sts 232,r24
 2604 0098 00C0      		rjmp .L269
 2605               	.L289:
 2606               	.LBE428:
 2607               	.LBE427:
 2608               	.LBE422:
  12:../lufa-LUFA/LUFA/Drivers/USB/LowLevel/Template/Template_Endpoint_Control_W.c **** 	while (Length || LastPacketFull)
 2609               		.loc 4 12 0 discriminator 2
 2610 009a 9111      		cpse r25,__zero_reg__
 2611 009c 00C0      		rjmp .L274
 2612 009e 00C0      		rjmp .L276
 2613               	.L267:
  43:../lufa-LUFA/LUFA/Drivers/USB/LowLevel/Template/Template_Endpoint_Control_W.c **** 		if (USB_DeviceState == DEVICE_STATE_Unattached)
 2614               		.loc 4 43 0
 2615 00a0 8EB3      		in r24,0x1e
 2616 00a2 8823      		tst r24
 2617 00a4 01F0      		breq .L281
  45:../lufa-LUFA/LUFA/Drivers/USB/LowLevel/Template/Template_Endpoint_Control_W.c **** 		else if (USB_DeviceState == DEVICE_STATE_Suspended)
 2618               		.loc 4 45 0
 2619 00a6 8EB3      		in r24,0x1e
 2620 00a8 8530      		cpi r24,lo8(5)
 2621 00aa 01F4      		brne .L276
 2622 00ac 00C0      		rjmp .L282
 2623               	.L278:
  15:../lufa-LUFA/LUFA/Drivers/USB/LowLevel/Template/Template_Endpoint_Control_W.c **** 		  return ENDPOINT_RWCSTREAM_HostAborted;
 2624               		.loc 4 15 0
 2625 00ae 81E0      		ldi r24,lo8(1)
 2626 00b0 0895      		ret
 2627               	.L281:
  21:../lufa-LUFA/LUFA/Drivers/USB/LowLevel/Template/Template_Endpoint_Control_W.c **** 		  return ENDPOINT_RWCSTREAM_DeviceDisconnected;
 2628               		.loc 4 21 0
 2629 00b2 82E0      		ldi r24,lo8(2)
 2630 00b4 0895      		ret
 2631               	.L282:
  23:../lufa-LUFA/LUFA/Drivers/USB/LowLevel/Template/Template_Endpoint_Control_W.c **** 		  return ENDPOINT_RWCSTREAM_BusSuspended;
 2632               		.loc 4 23 0
 2633 00b6 83E0      		ldi r24,lo8(3)
 2634               		.loc 4 50 0
 2635 00b8 0895      		ret
 2636               		.cfi_endproc
 2637               	.LFE83:
 2639               		.section	.text.Endpoint_Write_Control_PStream_BE,"ax",@progbits
 2640               	.global	Endpoint_Write_Control_PStream_BE
 2642               	Endpoint_Write_Control_PStream_BE:
 2643               	.LFB84:
   3:../lufa-LUFA/LUFA/Drivers/USB/LowLevel/Template/Template_Endpoint_Control_W.c **** {
 2644               		.loc 4 3 0
 2645               		.cfi_startproc
 2646               	.LVL246:
 2647               	/* prologue: function */
 2648               	/* frame size = 0 */
 2649               	/* stack size = 0 */
 2650               	.L__stack_usage = 0
   4:../lufa-LUFA/LUFA/Drivers/USB/LowLevel/Template/Template_Endpoint_Control_W.c **** 	uint8_t* DataStream     = ((uint8_t*)Buffer + TEMPLATE_BUFFER_OFFSET(Length));
 2651               		.loc 4 4 0
 2652 0000 9B01      		movw r18,r22
 2653 0002 2150      		subi r18,1
 2654 0004 3109      		sbc r19,__zero_reg__
 2655 0006 280F      		add r18,r24
 2656 0008 391F      		adc r19,r25
 2657               	.LVL247:
   7:../lufa-LUFA/LUFA/Drivers/USB/LowLevel/Template/Template_Endpoint_Control_W.c **** 	if (Length > USB_ControlRequest.wLength)
 2658               		.loc 4 7 0
 2659 000a 8091 0000 		lds r24,USB_ControlRequest+6
 2660 000e 9091 0000 		lds r25,USB_ControlRequest+6+1
 2661               	.LVL248:
 2662 0012 8617      		cp r24,r22
 2663 0014 9707      		cpc r25,r23
 2664 0016 00F0      		brlo .L305
   9:../lufa-LUFA/LUFA/Drivers/USB/LowLevel/Template/Template_Endpoint_Control_W.c **** 	else if (!(Length))
 2665               		.loc 4 9 0
 2666 0018 6115      		cp r22,__zero_reg__
 2667 001a 7105      		cpc r23,__zero_reg__
 2668 001c 01F4      		brne .L291
 2669               	.LBB429:
 2670               	.LBB430:
 454:../lufa-LUFA/LUFA/Drivers/USB/LowLevel/Endpoint.h **** 					UEINTX &= ~((1 << TXINI) | (1 << FIFOCON));
 2671               		.loc 2 454 0
 2672 001e 8091 E800 		lds r24,232
 2673 0022 8E77      		andi r24,lo8(126)
 2674 0024 8093 E800 		sts 232,r24
 2675 0028 00C0      		rjmp .L291
 2676               	.L305:
 2677               	.LBE430:
 2678               	.LBE429:
 2679 002a BC01      		movw r22,r24
 2680               	.LVL249:
 2681               	.L291:
 2682               	.LBB431:
  29:../lufa-LUFA/LUFA/Drivers/USB/LowLevel/Template/Template_Endpoint_Control_W.c **** 			while (Length && (BytesInEndpoint < USB_ControlEndpointSize))
 2683               		.loc 4 29 0 discriminator 1
 2684 002c 90E0      		ldi r25,0
 2685               	.LVL250:
 2686               	.L297:
 2687               	.LBE431:
  12:../lufa-LUFA/LUFA/Drivers/USB/LowLevel/Template/Template_Endpoint_Control_W.c **** 	while (Length || LastPacketFull)
 2688               		.loc 4 12 0 discriminator 1
 2689 002e 6115      		cp r22,__zero_reg__
 2690 0030 7105      		cpc r23,__zero_reg__
 2691 0032 01F0      		breq .L317
 2692               	.L302:
 2693               	.LBB439:
 2694               	.LBB440:
 429:../lufa-LUFA/LUFA/Drivers/USB/LowLevel/Endpoint.h **** 				return ((UEINTX & (1 << RXSTPI)) ? true : false);
 2695               		.loc 2 429 0
 2696 0034 8091 E800 		lds r24,232
 2697               	.LBE440:
 2698               	.LBE439:
  14:../lufa-LUFA/LUFA/Drivers/USB/LowLevel/Template/Template_Endpoint_Control_W.c **** 		if (Endpoint_IsSETUPReceived())
 2699               		.loc 4 14 0
 2700 0038 83FD      		sbrc r24,3
 2701 003a 00C0      		rjmp .L306
 2702               	.LBB441:
 2703               	.LBB442:
 417:../lufa-LUFA/LUFA/Drivers/USB/LowLevel/Endpoint.h **** 				return ((UEINTX & (1 << RXOUTI)) ? true : false);
 2704               		.loc 2 417 0
 2705 003c 8091 E800 		lds r24,232
 2706               	.LBE442:
 2707               	.LBE441:
  17:../lufa-LUFA/LUFA/Drivers/USB/LowLevel/Template/Template_Endpoint_Control_W.c **** 		if (Endpoint_IsOUTReceived())
 2708               		.loc 4 17 0
 2709 0040 82FF      		sbrs r24,2
 2710 0042 00C0      		rjmp .L294
 2711               	.L304:
 2712               	.LBB443:
 2713               	.LBB444:
 417:../lufa-LUFA/LUFA/Drivers/USB/LowLevel/Endpoint.h **** 				return ((UEINTX & (1 << RXOUTI)) ? true : false);
 2714               		.loc 2 417 0 discriminator 1
 2715 0044 8091 E800 		lds r24,232
 2716               	.LBE444:
 2717               	.LBE443:
  41:../lufa-LUFA/LUFA/Drivers/USB/LowLevel/Template/Template_Endpoint_Control_W.c **** 	while (!(Endpoint_IsOUTReceived()))
 2718               		.loc 4 41 0 discriminator 1
 2719 0048 82FF      		sbrs r24,2
 2720 004a 00C0      		rjmp .L295
  49:../lufa-LUFA/LUFA/Drivers/USB/LowLevel/Template/Template_Endpoint_Control_W.c **** 	return ENDPOINT_RWCSTREAM_NoError;
 2721               		.loc 4 49 0
 2722 004c 80E0      		ldi r24,0
 2723 004e 0895      		ret
 2724               	.L294:
  20:../lufa-LUFA/LUFA/Drivers/USB/LowLevel/Template/Template_Endpoint_Control_W.c **** 		if (USB_DeviceState == DEVICE_STATE_Unattached)
 2725               		.loc 4 20 0
 2726 0050 8EB3      		in r24,0x1e
 2727 0052 8823      		tst r24
 2728 0054 01F0      		breq .L309
  22:../lufa-LUFA/LUFA/Drivers/USB/LowLevel/Template/Template_Endpoint_Control_W.c **** 		else if (USB_DeviceState == DEVICE_STATE_Suspended)
 2729               		.loc 4 22 0
 2730 0056 8EB3      		in r24,0x1e
 2731 0058 8530      		cpi r24,lo8(5)
 2732 005a 01F0      		breq .L310
 2733               	.LBB445:
 2734               	.LBB446:
 405:../lufa-LUFA/LUFA/Drivers/USB/LowLevel/Endpoint.h **** 				return ((UEINTX & (1 << TXINI))  ? true : false);
 2735               		.loc 2 405 0
 2736 005c 8091 E800 		lds r24,232
 2737               	.LBE446:
 2738               	.LBE445:
  25:../lufa-LUFA/LUFA/Drivers/USB/LowLevel/Template/Template_Endpoint_Control_W.c **** 		if (Endpoint_IsINReady())
 2739               		.loc 4 25 0
 2740 0060 80FF      		sbrs r24,0
 2741 0062 00C0      		rjmp .L297
 2742               	.LBB447:
 2743               	.LBB432:
 2744               	.LBB433:
 266:../lufa-LUFA/LUFA/Drivers/USB/LowLevel/Endpoint.h **** 					return UEBCLX;
 2745               		.loc 2 266 0
 2746 0064 8091 F200 		lds r24,242
 2747               	.LVL251:
 2748               	.LBE433:
 2749               	.LBE432:
  29:../lufa-LUFA/LUFA/Drivers/USB/LowLevel/Template/Template_Endpoint_Control_W.c **** 			while (Length && (BytesInEndpoint < USB_ControlEndpointSize))
 2750               		.loc 4 29 0
 2751 0068 F901      		movw r30,r18
 2752               	.LVL252:
 2753               	.L298:
 2754 006a 9F01      		movw r18,r30
 2755               	.LVL253:
  29:../lufa-LUFA/LUFA/Drivers/USB/LowLevel/Template/Template_Endpoint_Control_W.c **** 			while (Length && (BytesInEndpoint < USB_ControlEndpointSize))
 2756               		.loc 4 29 0 is_stmt 0 discriminator 1
 2757 006c 6115      		cp r22,__zero_reg__
 2758 006e 7105      		cpc r23,__zero_reg__
 2759 0070 01F0      		breq .L299
  29:../lufa-LUFA/LUFA/Drivers/USB/LowLevel/Template/Template_Endpoint_Control_W.c **** 			while (Length && (BytesInEndpoint < USB_ControlEndpointSize))
 2760               		.loc 4 29 0 discriminator 2
 2761 0072 8830      		cpi r24,lo8(8)
 2762 0074 00F4      		brsh .L299
 2763               	.LVL254:
 2764               	.LBB434:
  31:../lufa-LUFA/LUFA/Drivers/USB/LowLevel/Template/Template_Endpoint_Control_W.c **** 				TEMPLATE_TRANSFER_BYTE(DataStream);
 2765               		.loc 4 31 0 is_stmt 1
 2766               	/* #APP */
 2767               	 ;  31 "../lufa-LUFA/LUFA/Drivers/USB/LowLevel/Template/Template_Endpoint_Control_W.c" 1
 2768 0076 9491      		lpm r25, Z
 2769               		
 2770               	 ;  0 "" 2
 2771               	.LVL255:
 2772               	/* #NOAPP */
 2773               	.LBE434:
 2774               	.LBB435:
 2775               	.LBB436:
 562:../lufa-LUFA/LUFA/Drivers/USB/LowLevel/Endpoint.h **** 				UEDATX = Byte;
 2776               		.loc 2 562 0
 2777 0078 9093 F100 		sts 241,r25
 2778               	.LBE436:
 2779               	.LBE435:
  32:../lufa-LUFA/LUFA/Drivers/USB/LowLevel/Template/Template_Endpoint_Control_W.c **** 				Length--;
 2780               		.loc 4 32 0
 2781 007c 6150      		subi r22,1
 2782 007e 7109      		sbc r23,__zero_reg__
 2783               	.LVL256:
  33:../lufa-LUFA/LUFA/Drivers/USB/LowLevel/Template/Template_Endpoint_Control_W.c **** 				BytesInEndpoint++;
 2784               		.loc 4 33 0
 2785 0080 8F5F      		subi r24,lo8(-(1))
 2786               	.LVL257:
 2787 0082 3197      		sbiw r30,1
 2788               	.LVL258:
 2789 0084 00C0      		rjmp .L298
 2790               	.LVL259:
 2791               	.L299:
  36:../lufa-LUFA/LUFA/Drivers/USB/LowLevel/Template/Template_Endpoint_Control_W.c **** 			LastPacketFull = (BytesInEndpoint == USB_ControlEndpointSize);
 2792               		.loc 4 36 0
 2793 0086 91E0      		ldi r25,lo8(1)
 2794 0088 8830      		cpi r24,lo8(8)
 2795 008a 01F0      		breq .L301
 2796 008c 90E0      		ldi r25,0
 2797               	.L301:
 2798               	.LVL260:
 2799               	.LBB437:
 2800               	.LBB438:
 454:../lufa-LUFA/LUFA/Drivers/USB/LowLevel/Endpoint.h **** 					UEINTX &= ~((1 << TXINI) | (1 << FIFOCON));
 2801               		.loc 2 454 0
 2802 008e 8091 E800 		lds r24,232
 2803               	.LVL261:
 2804 0092 8E77      		andi r24,lo8(126)
 2805 0094 8093 E800 		sts 232,r24
 2806 0098 00C0      		rjmp .L297
 2807               	.L317:
 2808               	.LBE438:
 2809               	.LBE437:
 2810               	.LBE447:
  12:../lufa-LUFA/LUFA/Drivers/USB/LowLevel/Template/Template_Endpoint_Control_W.c **** 	while (Length || LastPacketFull)
 2811               		.loc 4 12 0 discriminator 2
 2812 009a 9111      		cpse r25,__zero_reg__
 2813 009c 00C0      		rjmp .L302
 2814 009e 00C0      		rjmp .L304
 2815               	.L295:
  43:../lufa-LUFA/LUFA/Drivers/USB/LowLevel/Template/Template_Endpoint_Control_W.c **** 		if (USB_DeviceState == DEVICE_STATE_Unattached)
 2816               		.loc 4 43 0
 2817 00a0 8EB3      		in r24,0x1e
 2818 00a2 8823      		tst r24
 2819 00a4 01F0      		breq .L309
  45:../lufa-LUFA/LUFA/Drivers/USB/LowLevel/Template/Template_Endpoint_Control_W.c **** 		else if (USB_DeviceState == DEVICE_STATE_Suspended)
 2820               		.loc 4 45 0
 2821 00a6 8EB3      		in r24,0x1e
 2822 00a8 8530      		cpi r24,lo8(5)
 2823 00aa 01F4      		brne .L304
 2824 00ac 00C0      		rjmp .L310
 2825               	.L306:
  15:../lufa-LUFA/LUFA/Drivers/USB/LowLevel/Template/Template_Endpoint_Control_W.c **** 		  return ENDPOINT_RWCSTREAM_HostAborted;
 2826               		.loc 4 15 0
 2827 00ae 81E0      		ldi r24,lo8(1)
 2828 00b0 0895      		ret
 2829               	.L309:
  21:../lufa-LUFA/LUFA/Drivers/USB/LowLevel/Template/Template_Endpoint_Control_W.c **** 		  return ENDPOINT_RWCSTREAM_DeviceDisconnected;
 2830               		.loc 4 21 0
 2831 00b2 82E0      		ldi r24,lo8(2)
 2832 00b4 0895      		ret
 2833               	.L310:
  23:../lufa-LUFA/LUFA/Drivers/USB/LowLevel/Template/Template_Endpoint_Control_W.c **** 		  return ENDPOINT_RWCSTREAM_BusSuspended;
 2834               		.loc 4 23 0
 2835 00b6 83E0      		ldi r24,lo8(3)
 2836               		.loc 4 50 0
 2837 00b8 0895      		ret
 2838               		.cfi_endproc
 2839               	.LFE84:
 2841               		.section	.text.Endpoint_Write_Control_EStream_BE,"ax",@progbits
 2842               	.global	Endpoint_Write_Control_EStream_BE
 2844               	Endpoint_Write_Control_EStream_BE:
 2845               	.LFB85:
   3:../lufa-LUFA/LUFA/Drivers/USB/LowLevel/Template/Template_Endpoint_Control_W.c **** {
 2846               		.loc 4 3 0
 2847               		.cfi_startproc
 2848               	.LVL262:
 2849 0000 EF92      		push r14
 2850               	.LCFI86:
 2851               		.cfi_def_cfa_offset 3
 2852               		.cfi_offset 14, -2
 2853 0002 FF92      		push r15
 2854               	.LCFI87:
 2855               		.cfi_def_cfa_offset 4
 2856               		.cfi_offset 15, -3
 2857 0004 0F93      		push r16
 2858               	.LCFI88:
 2859               		.cfi_def_cfa_offset 5
 2860               		.cfi_offset 16, -4
 2861 0006 1F93      		push r17
 2862               	.LCFI89:
 2863               		.cfi_def_cfa_offset 6
 2864               		.cfi_offset 17, -5
 2865 0008 CF93      		push r28
 2866               	.LCFI90:
 2867               		.cfi_def_cfa_offset 7
 2868               		.cfi_offset 28, -6
 2869 000a DF93      		push r29
 2870               	.LCFI91:
 2871               		.cfi_def_cfa_offset 8
 2872               		.cfi_offset 29, -7
 2873 000c 1F92      		push __zero_reg__
 2874               	.LCFI92:
 2875               		.cfi_def_cfa_offset 9
 2876 000e CDB7      		in r28,__SP_L__
 2877 0010 DEB7      		in r29,__SP_H__
 2878               	.LCFI93:
 2879               		.cfi_def_cfa_register 28
 2880               	/* prologue: function */
 2881               	/* frame size = 1 */
 2882               	/* stack size = 7 */
 2883               	.L__stack_usage = 7
   4:../lufa-LUFA/LUFA/Drivers/USB/LowLevel/Template/Template_Endpoint_Control_W.c **** 	uint8_t* DataStream     = ((uint8_t*)Buffer + TEMPLATE_BUFFER_OFFSET(Length));
 2884               		.loc 4 4 0
 2885 0012 9B01      		movw r18,r22
 2886 0014 2150      		subi r18,1
 2887 0016 3109      		sbc r19,__zero_reg__
 2888 0018 280F      		add r18,r24
 2889 001a 391F      		adc r19,r25
 2890               	.LVL263:
   7:../lufa-LUFA/LUFA/Drivers/USB/LowLevel/Template/Template_Endpoint_Control_W.c **** 	if (Length > USB_ControlRequest.wLength)
 2891               		.loc 4 7 0
 2892 001c 8091 0000 		lds r24,USB_ControlRequest+6
 2893 0020 9091 0000 		lds r25,USB_ControlRequest+6+1
 2894               	.LVL264:
 2895 0024 8617      		cp r24,r22
 2896 0026 9707      		cpc r25,r23
 2897 0028 00F0      		brlo .L333
   9:../lufa-LUFA/LUFA/Drivers/USB/LowLevel/Template/Template_Endpoint_Control_W.c **** 	else if (!(Length))
 2898               		.loc 4 9 0
 2899 002a 6115      		cp r22,__zero_reg__
 2900 002c 7105      		cpc r23,__zero_reg__
 2901 002e 01F4      		brne .L319
 2902               	.LBB448:
 2903               	.LBB449:
 454:../lufa-LUFA/LUFA/Drivers/USB/LowLevel/Endpoint.h **** 					UEINTX &= ~((1 << TXINI) | (1 << FIFOCON));
 2904               		.loc 2 454 0
 2905 0030 8091 E800 		lds r24,232
 2906 0034 8E77      		andi r24,lo8(126)
 2907 0036 8093 E800 		sts 232,r24
 2908 003a 00C0      		rjmp .L319
 2909               	.L333:
 2910               	.LBE449:
 2911               	.LBE448:
 2912 003c BC01      		movw r22,r24
 2913               	.LVL265:
 2914               	.L319:
 2915               	.LBB450:
  29:../lufa-LUFA/LUFA/Drivers/USB/LowLevel/Template/Template_Endpoint_Control_W.c **** 			while (Length && (BytesInEndpoint < USB_ControlEndpointSize))
 2916               		.loc 4 29 0 discriminator 1
 2917 003e 50E0      		ldi r21,0
 2918               	.LVL266:
 2919               	.L325:
 2920               	.LBE450:
  12:../lufa-LUFA/LUFA/Drivers/USB/LowLevel/Template/Template_Endpoint_Control_W.c **** 	while (Length || LastPacketFull)
 2921               		.loc 4 12 0 discriminator 1
 2922 0040 6115      		cp r22,__zero_reg__
 2923 0042 7105      		cpc r23,__zero_reg__
 2924 0044 01F0      		breq .L345
 2925               	.L330:
 2926               	.LBB457:
 2927               	.LBB458:
 429:../lufa-LUFA/LUFA/Drivers/USB/LowLevel/Endpoint.h **** 				return ((UEINTX & (1 << RXSTPI)) ? true : false);
 2928               		.loc 2 429 0
 2929 0046 8091 E800 		lds r24,232
 2930               	.LBE458:
 2931               	.LBE457:
  14:../lufa-LUFA/LUFA/Drivers/USB/LowLevel/Template/Template_Endpoint_Control_W.c **** 		if (Endpoint_IsSETUPReceived())
 2932               		.loc 4 14 0
 2933 004a 83FD      		sbrc r24,3
 2934 004c 00C0      		rjmp .L334
 2935               	.LBB459:
 2936               	.LBB460:
 417:../lufa-LUFA/LUFA/Drivers/USB/LowLevel/Endpoint.h **** 				return ((UEINTX & (1 << RXOUTI)) ? true : false);
 2937               		.loc 2 417 0
 2938 004e 8091 E800 		lds r24,232
 2939               	.LBE460:
 2940               	.LBE459:
  17:../lufa-LUFA/LUFA/Drivers/USB/LowLevel/Template/Template_Endpoint_Control_W.c **** 		if (Endpoint_IsOUTReceived())
 2941               		.loc 4 17 0
 2942 0052 82FF      		sbrs r24,2
 2943 0054 00C0      		rjmp .L322
 2944               	.L332:
 2945               	.LBB461:
 2946               	.LBB462:
 417:../lufa-LUFA/LUFA/Drivers/USB/LowLevel/Endpoint.h **** 				return ((UEINTX & (1 << RXOUTI)) ? true : false);
 2947               		.loc 2 417 0 discriminator 1
 2948 0056 8091 E800 		lds r24,232
 2949               	.LBE462:
 2950               	.LBE461:
  41:../lufa-LUFA/LUFA/Drivers/USB/LowLevel/Template/Template_Endpoint_Control_W.c **** 	while (!(Endpoint_IsOUTReceived()))
 2951               		.loc 4 41 0 discriminator 1
 2952 005a 82FF      		sbrs r24,2
 2953 005c 00C0      		rjmp .L323
  49:../lufa-LUFA/LUFA/Drivers/USB/LowLevel/Template/Template_Endpoint_Control_W.c **** 	return ENDPOINT_RWCSTREAM_NoError;
 2954               		.loc 4 49 0
 2955 005e 80E0      		ldi r24,0
 2956 0060 00C0      		rjmp .L321
 2957               	.L322:
  20:../lufa-LUFA/LUFA/Drivers/USB/LowLevel/Template/Template_Endpoint_Control_W.c **** 		if (USB_DeviceState == DEVICE_STATE_Unattached)
 2958               		.loc 4 20 0
 2959 0062 8EB3      		in r24,0x1e
 2960 0064 8823      		tst r24
 2961 0066 01F0      		breq .L337
  22:../lufa-LUFA/LUFA/Drivers/USB/LowLevel/Template/Template_Endpoint_Control_W.c **** 		else if (USB_DeviceState == DEVICE_STATE_Suspended)
 2962               		.loc 4 22 0
 2963 0068 8EB3      		in r24,0x1e
 2964 006a 8530      		cpi r24,lo8(5)
 2965 006c 01F0      		breq .L338
 2966               	.LBB463:
 2967               	.LBB464:
 405:../lufa-LUFA/LUFA/Drivers/USB/LowLevel/Endpoint.h **** 				return ((UEINTX & (1 << TXINI))  ? true : false);
 2968               		.loc 2 405 0
 2969 006e 8091 E800 		lds r24,232
 2970               	.LBE464:
 2971               	.LBE463:
  25:../lufa-LUFA/LUFA/Drivers/USB/LowLevel/Template/Template_Endpoint_Control_W.c **** 		if (Endpoint_IsINReady())
 2972               		.loc 4 25 0
 2973 0072 80FF      		sbrs r24,0
 2974 0074 00C0      		rjmp .L325
 2975               	.LBB465:
 2976               	.LBB451:
 2977               	.LBB452:
 266:../lufa-LUFA/LUFA/Drivers/USB/LowLevel/Endpoint.h **** 					return UEBCLX;
 2978               		.loc 2 266 0
 2979 0076 4091 F200 		lds r20,242
 2980               	.LVL267:
 2981               	.LBE452:
 2982               	.LBE451:
  29:../lufa-LUFA/LUFA/Drivers/USB/LowLevel/Template/Template_Endpoint_Control_W.c **** 			while (Length && (BytesInEndpoint < USB_ControlEndpointSize))
 2983               		.loc 4 29 0
 2984 007a 7B01      		movw r14,r22
 2985 007c 8901      		movw r16,r18
 2986 007e 061B      		sub r16,r22
 2987 0080 170B      		sbc r17,r23
 2988               	.LVL268:
 2989               	.L326:
 2990 0082 C801      		movw r24,r16
 2991 0084 8E0D      		add r24,r14
 2992 0086 9F1D      		adc r25,r15
 2993               	.LVL269:
  29:../lufa-LUFA/LUFA/Drivers/USB/LowLevel/Template/Template_Endpoint_Control_W.c **** 			while (Length && (BytesInEndpoint < USB_ControlEndpointSize))
 2994               		.loc 4 29 0 is_stmt 0 discriminator 1
 2995 0088 E114      		cp r14,__zero_reg__
 2996 008a F104      		cpc r15,__zero_reg__
 2997 008c 01F0      		breq .L327
  29:../lufa-LUFA/LUFA/Drivers/USB/LowLevel/Template/Template_Endpoint_Control_W.c **** 			while (Length && (BytesInEndpoint < USB_ControlEndpointSize))
 2998               		.loc 4 29 0 discriminator 2
 2999 008e 4830      		cpi r20,lo8(8)
 3000 0090 00F4      		brsh .L327
 3001               	.LVL270:
  31:../lufa-LUFA/LUFA/Drivers/USB/LowLevel/Template/Template_Endpoint_Control_W.c **** 				TEMPLATE_TRANSFER_BYTE(DataStream);
 3002               		.loc 4 31 0 is_stmt 1
 3003 0092 4983      		std Y+1,r20
 3004 0094 0E94 0000 		call __eerd_byte_m8u2
 3005               	.LVL271:
 3006               	.LBB453:
 3007               	.LBB454:
 562:../lufa-LUFA/LUFA/Drivers/USB/LowLevel/Endpoint.h **** 				UEDATX = Byte;
 3008               		.loc 2 562 0
 3009 0098 8093 F100 		sts 241,r24
 3010               	.LBE454:
 3011               	.LBE453:
  32:../lufa-LUFA/LUFA/Drivers/USB/LowLevel/Template/Template_Endpoint_Control_W.c **** 				Length--;
 3012               		.loc 4 32 0
 3013 009c 81E0      		ldi r24,1
 3014 009e E81A      		sub r14,r24
 3015 00a0 F108      		sbc r15,__zero_reg__
 3016               	.LVL272:
  33:../lufa-LUFA/LUFA/Drivers/USB/LowLevel/Template/Template_Endpoint_Control_W.c **** 				BytesInEndpoint++;
 3017               		.loc 4 33 0
 3018 00a2 4981      		ldd r20,Y+1
 3019 00a4 4F5F      		subi r20,lo8(-(1))
 3020               	.LVL273:
 3021 00a6 00C0      		rjmp .L326
 3022               	.LVL274:
 3023               	.L327:
  36:../lufa-LUFA/LUFA/Drivers/USB/LowLevel/Template/Template_Endpoint_Control_W.c **** 			LastPacketFull = (BytesInEndpoint == USB_ControlEndpointSize);
 3024               		.loc 4 36 0
 3025 00a8 51E0      		ldi r21,lo8(1)
 3026 00aa 4830      		cpi r20,lo8(8)
 3027 00ac 01F0      		breq .L329
 3028 00ae 50E0      		ldi r21,0
 3029               	.L329:
 3030               	.LVL275:
 3031               	.LBB455:
 3032               	.LBB456:
 454:../lufa-LUFA/LUFA/Drivers/USB/LowLevel/Endpoint.h **** 					UEINTX &= ~((1 << TXINI) | (1 << FIFOCON));
 3033               		.loc 2 454 0
 3034 00b0 2091 E800 		lds r18,232
 3035 00b4 2E77      		andi r18,lo8(126)
 3036 00b6 2093 E800 		sts 232,r18
 3037 00ba 9C01      		movw r18,r24
 3038 00bc B701      		movw r22,r14
 3039 00be 00C0      		rjmp .L325
 3040               	.LVL276:
 3041               	.L345:
 3042               	.LBE456:
 3043               	.LBE455:
 3044               	.LBE465:
  12:../lufa-LUFA/LUFA/Drivers/USB/LowLevel/Template/Template_Endpoint_Control_W.c **** 	while (Length || LastPacketFull)
 3045               		.loc 4 12 0 discriminator 2
 3046 00c0 5111      		cpse r21,__zero_reg__
 3047 00c2 00C0      		rjmp .L330
 3048 00c4 00C0      		rjmp .L332
 3049               	.L323:
  43:../lufa-LUFA/LUFA/Drivers/USB/LowLevel/Template/Template_Endpoint_Control_W.c **** 		if (USB_DeviceState == DEVICE_STATE_Unattached)
 3050               		.loc 4 43 0
 3051 00c6 8EB3      		in r24,0x1e
 3052 00c8 8823      		tst r24
 3053 00ca 01F0      		breq .L337
  45:../lufa-LUFA/LUFA/Drivers/USB/LowLevel/Template/Template_Endpoint_Control_W.c **** 		else if (USB_DeviceState == DEVICE_STATE_Suspended)
 3054               		.loc 4 45 0
 3055 00cc 8EB3      		in r24,0x1e
 3056 00ce 8530      		cpi r24,lo8(5)
 3057 00d0 01F4      		brne .L332
 3058 00d2 00C0      		rjmp .L338
 3059               	.L334:
  15:../lufa-LUFA/LUFA/Drivers/USB/LowLevel/Template/Template_Endpoint_Control_W.c **** 		  return ENDPOINT_RWCSTREAM_HostAborted;
 3060               		.loc 4 15 0
 3061 00d4 81E0      		ldi r24,lo8(1)
 3062 00d6 00C0      		rjmp .L321
 3063               	.L337:
  21:../lufa-LUFA/LUFA/Drivers/USB/LowLevel/Template/Template_Endpoint_Control_W.c **** 		  return ENDPOINT_RWCSTREAM_DeviceDisconnected;
 3064               		.loc 4 21 0
 3065 00d8 82E0      		ldi r24,lo8(2)
 3066 00da 00C0      		rjmp .L321
 3067               	.L338:
  23:../lufa-LUFA/LUFA/Drivers/USB/LowLevel/Template/Template_Endpoint_Control_W.c **** 		  return ENDPOINT_RWCSTREAM_BusSuspended;
 3068               		.loc 4 23 0
 3069 00dc 83E0      		ldi r24,lo8(3)
 3070               	.L321:
 3071               	/* epilogue start */
 3072               		.loc 4 50 0
 3073 00de 0F90      		pop __tmp_reg__
 3074 00e0 DF91      		pop r29
 3075 00e2 CF91      		pop r28
 3076 00e4 1F91      		pop r17
 3077 00e6 0F91      		pop r16
 3078 00e8 FF90      		pop r15
 3079 00ea EF90      		pop r14
 3080 00ec 0895      		ret
 3081               		.cfi_endproc
 3082               	.LFE85:
 3084               		.section	.text.Endpoint_Read_Control_Stream_LE,"ax",@progbits
 3085               	.global	Endpoint_Read_Control_Stream_LE
 3087               	Endpoint_Read_Control_Stream_LE:
 3088               	.LFB86:
 3089               		.file 5 "../lufa-LUFA/LUFA/Drivers/USB/LowLevel/Template/Template_Endpoint_Control_R.c"
   1:../lufa-LUFA/LUFA/Drivers/USB/LowLevel/Template/Template_Endpoint_Control_R.c **** uint8_t TEMPLATE_FUNC_NAME (void* Buffer,
   2:../lufa-LUFA/LUFA/Drivers/USB/LowLevel/Template/Template_Endpoint_Control_R.c ****                             uint16_t Length)
   3:../lufa-LUFA/LUFA/Drivers/USB/LowLevel/Template/Template_Endpoint_Control_R.c **** {
 3090               		.loc 5 3 0
 3091               		.cfi_startproc
 3092               	.LVL277:
 3093               	/* prologue: function */
 3094               	/* frame size = 0 */
 3095               	/* stack size = 0 */
 3096               	.L__stack_usage = 0
   4:../lufa-LUFA/LUFA/Drivers/USB/LowLevel/Template/Template_Endpoint_Control_R.c **** 	uint8_t* DataStream = ((uint8_t*)Buffer + TEMPLATE_BUFFER_OFFSET(Length));
   5:../lufa-LUFA/LUFA/Drivers/USB/LowLevel/Template/Template_Endpoint_Control_R.c **** 	
   6:../lufa-LUFA/LUFA/Drivers/USB/LowLevel/Template/Template_Endpoint_Control_R.c **** 	if (!(Length))
 3097               		.loc 5 6 0
 3098 0000 6115      		cp r22,__zero_reg__
 3099 0002 7105      		cpc r23,__zero_reg__
 3100 0004 01F4      		brne .L348
 3101               	.LVL278:
 3102               	.L353:
 3103               	.LBB466:
 3104               	.LBB467:
 469:../lufa-LUFA/LUFA/Drivers/USB/LowLevel/Endpoint.h **** 					UEINTX &= ~((1 << RXOUTI) | (1 << FIFOCON));
 3105               		.loc 2 469 0
 3106 0006 2091 E800 		lds r18,232
 3107 000a 2B77      		andi r18,lo8(123)
 3108 000c 2093 E800 		sts 232,r18
 3109               	.L348:
 3110               	.LVL279:
 3111               	.LBE467:
 3112               	.LBE466:
   7:../lufa-LUFA/LUFA/Drivers/USB/LowLevel/Template/Template_Endpoint_Control_R.c **** 	  Endpoint_ClearOUT();
   8:../lufa-LUFA/LUFA/Drivers/USB/LowLevel/Template/Template_Endpoint_Control_R.c **** 	
   9:../lufa-LUFA/LUFA/Drivers/USB/LowLevel/Template/Template_Endpoint_Control_R.c **** 	while (Length)
 3113               		.loc 5 9 0 discriminator 1
 3114 0010 6115      		cp r22,__zero_reg__
 3115 0012 7105      		cpc r23,__zero_reg__
 3116 0014 01F0      		breq .L356
 3117               	.LVL280:
 3118               	.L351:
 3119               	.LBB468:
 3120               	.LBB469:
 429:../lufa-LUFA/LUFA/Drivers/USB/LowLevel/Endpoint.h **** 				return ((UEINTX & (1 << RXSTPI)) ? true : false);
 3121               		.loc 2 429 0
 3122 0016 2091 E800 		lds r18,232
 3123               	.LBE469:
 3124               	.LBE468:
  10:../lufa-LUFA/LUFA/Drivers/USB/LowLevel/Template/Template_Endpoint_Control_R.c **** 	{
  11:../lufa-LUFA/LUFA/Drivers/USB/LowLevel/Template/Template_Endpoint_Control_R.c **** 		if (Endpoint_IsSETUPReceived())
 3125               		.loc 5 11 0
 3126 001a 23FD      		sbrc r18,3
 3127 001c 00C0      		rjmp .L357
  12:../lufa-LUFA/LUFA/Drivers/USB/LowLevel/Template/Template_Endpoint_Control_R.c **** 		  return ENDPOINT_RWCSTREAM_HostAborted;
  13:../lufa-LUFA/LUFA/Drivers/USB/LowLevel/Template/Template_Endpoint_Control_R.c **** 
  14:../lufa-LUFA/LUFA/Drivers/USB/LowLevel/Template/Template_Endpoint_Control_R.c **** 		if (USB_DeviceState == DEVICE_STATE_Unattached)
 3128               		.loc 5 14 0
 3129 001e 2EB3      		in r18,0x1e
 3130 0020 2223      		tst r18
 3131 0022 01F0      		breq .L361
  15:../lufa-LUFA/LUFA/Drivers/USB/LowLevel/Template/Template_Endpoint_Control_R.c **** 		  return ENDPOINT_RWCSTREAM_DeviceDisconnected;
  16:../lufa-LUFA/LUFA/Drivers/USB/LowLevel/Template/Template_Endpoint_Control_R.c **** 		else if (USB_DeviceState == DEVICE_STATE_Suspended)
 3132               		.loc 5 16 0
 3133 0024 2EB3      		in r18,0x1e
 3134 0026 2530      		cpi r18,lo8(5)
 3135 0028 01F0      		breq .L362
 3136               	.LBB470:
 3137               	.LBB471:
 417:../lufa-LUFA/LUFA/Drivers/USB/LowLevel/Endpoint.h **** 				return ((UEINTX & (1 << RXOUTI)) ? true : false);
 3138               		.loc 2 417 0
 3139 002a 2091 E800 		lds r18,232
 3140               	.LBE471:
 3141               	.LBE470:
  17:../lufa-LUFA/LUFA/Drivers/USB/LowLevel/Template/Template_Endpoint_Control_R.c **** 		  return ENDPOINT_RWCSTREAM_BusSuspended;
  18:../lufa-LUFA/LUFA/Drivers/USB/LowLevel/Template/Template_Endpoint_Control_R.c **** 		  
  19:../lufa-LUFA/LUFA/Drivers/USB/LowLevel/Template/Template_Endpoint_Control_R.c **** 		if (Endpoint_IsOUTReceived())
 3142               		.loc 5 19 0
 3143 002e 22FF      		sbrs r18,2
 3144 0030 00C0      		rjmp .L351
 3145 0032 FC01      		movw r30,r24
 3146               	.LVL281:
 3147               	.L352:
 3148               	.LBB472:
 3149               	.LBB473:
 266:../lufa-LUFA/LUFA/Drivers/USB/LowLevel/Endpoint.h **** 					return UEBCLX;
 3150               		.loc 2 266 0
 3151 0034 8091 F200 		lds r24,242
 3152               	.LBE473:
 3153               	.LBE472:
  20:../lufa-LUFA/LUFA/Drivers/USB/LowLevel/Template/Template_Endpoint_Control_R.c **** 		{
  21:../lufa-LUFA/LUFA/Drivers/USB/LowLevel/Template/Template_Endpoint_Control_R.c **** 			while (Length && Endpoint_BytesInEndpoint())
 3154               		.loc 5 21 0
 3155 0038 8823      		tst r24
 3156 003a 01F0      		breq .L366
 3157 003c 9F01      		movw r18,r30
 3158 003e 2F5F      		subi r18,-1
 3159 0040 3F4F      		sbci r19,-1
 3160 0042 C901      		movw r24,r18
 3161               	.LVL282:
 3162               	.LBB474:
 3163               	.LBB475:
 550:../lufa-LUFA/LUFA/Drivers/USB/LowLevel/Endpoint.h **** 				return UEDATX;
 3164               		.loc 2 550 0
 3165 0044 4091 F100 		lds r20,241
 3166               	.LBE475:
 3167               	.LBE474:
  22:../lufa-LUFA/LUFA/Drivers/USB/LowLevel/Template/Template_Endpoint_Control_R.c **** 			{
  23:../lufa-LUFA/LUFA/Drivers/USB/LowLevel/Template/Template_Endpoint_Control_R.c **** 				TEMPLATE_TRANSFER_BYTE(DataStream);
 3168               		.loc 5 23 0
 3169 0048 4083      		st Z,r20
  24:../lufa-LUFA/LUFA/Drivers/USB/LowLevel/Template/Template_Endpoint_Control_R.c **** 				Length--;
 3170               		.loc 5 24 0
 3171 004a 6150      		subi r22,1
 3172 004c 7109      		sbc r23,__zero_reg__
 3173               	.LVL283:
  21:../lufa-LUFA/LUFA/Drivers/USB/LowLevel/Template/Template_Endpoint_Control_R.c **** 			while (Length && Endpoint_BytesInEndpoint())
 3174               		.loc 5 21 0
 3175 004e 6115      		cp r22,__zero_reg__
 3176 0050 7105      		cpc r23,__zero_reg__
 3177 0052 01F0      		breq .L353
 3178 0054 F901      		movw r30,r18
 3179 0056 00C0      		rjmp .L352
 3180               	.LVL284:
 3181               	.L366:
 3182 0058 CF01      		movw r24,r30
 3183 005a 00C0      		rjmp .L353
 3184               	.LVL285:
 3185               	.L367:
  25:../lufa-LUFA/LUFA/Drivers/USB/LowLevel/Template/Template_Endpoint_Control_R.c **** 			}
  26:../lufa-LUFA/LUFA/Drivers/USB/LowLevel/Template/Template_Endpoint_Control_R.c **** 			
  27:../lufa-LUFA/LUFA/Drivers/USB/LowLevel/Template/Template_Endpoint_Control_R.c **** 			Endpoint_ClearOUT();
  28:../lufa-LUFA/LUFA/Drivers/USB/LowLevel/Template/Template_Endpoint_Control_R.c **** 		}		  
  29:../lufa-LUFA/LUFA/Drivers/USB/LowLevel/Template/Template_Endpoint_Control_R.c **** 	}
  30:../lufa-LUFA/LUFA/Drivers/USB/LowLevel/Template/Template_Endpoint_Control_R.c **** 	
  31:../lufa-LUFA/LUFA/Drivers/USB/LowLevel/Template/Template_Endpoint_Control_R.c **** 	while (!(Endpoint_IsINReady()))
  32:../lufa-LUFA/LUFA/Drivers/USB/LowLevel/Template/Template_Endpoint_Control_R.c **** 	{
  33:../lufa-LUFA/LUFA/Drivers/USB/LowLevel/Template/Template_Endpoint_Control_R.c **** 		if (USB_DeviceState == DEVICE_STATE_Unattached)
 3186               		.loc 5 33 0
 3187 005c 8EB3      		in r24,0x1e
 3188 005e 8823      		tst r24
 3189 0060 01F0      		breq .L361
  34:../lufa-LUFA/LUFA/Drivers/USB/LowLevel/Template/Template_Endpoint_Control_R.c **** 		  return ENDPOINT_RWCSTREAM_DeviceDisconnected;
  35:../lufa-LUFA/LUFA/Drivers/USB/LowLevel/Template/Template_Endpoint_Control_R.c **** 		else if (USB_DeviceState == DEVICE_STATE_Suspended)
 3190               		.loc 5 35 0
 3191 0062 8EB3      		in r24,0x1e
 3192 0064 8530      		cpi r24,lo8(5)
 3193 0066 01F0      		breq .L362
 3194               	.L356:
 3195               	.LBB476:
 3196               	.LBB477:
 405:../lufa-LUFA/LUFA/Drivers/USB/LowLevel/Endpoint.h **** 				return ((UEINTX & (1 << TXINI))  ? true : false);
 3197               		.loc 2 405 0
 3198 0068 8091 E800 		lds r24,232
 3199               	.LBE477:
 3200               	.LBE476:
  31:../lufa-LUFA/LUFA/Drivers/USB/LowLevel/Template/Template_Endpoint_Control_R.c **** 	while (!(Endpoint_IsINReady()))
 3201               		.loc 5 31 0
 3202 006c 80FF      		sbrs r24,0
 3203 006e 00C0      		rjmp .L367
 3204 0070 00C0      		rjmp .L360
 3205               	.LVL286:
 3206               	.L357:
  12:../lufa-LUFA/LUFA/Drivers/USB/LowLevel/Template/Template_Endpoint_Control_R.c **** 		  return ENDPOINT_RWCSTREAM_HostAborted;
 3207               		.loc 5 12 0
 3208 0072 81E0      		ldi r24,lo8(1)
 3209               	.LVL287:
 3210 0074 0895      		ret
 3211               	.L360:
  36:../lufa-LUFA/LUFA/Drivers/USB/LowLevel/Template/Template_Endpoint_Control_R.c **** 		  return ENDPOINT_RWCSTREAM_BusSuspended;
  37:../lufa-LUFA/LUFA/Drivers/USB/LowLevel/Template/Template_Endpoint_Control_R.c **** 	}
  38:../lufa-LUFA/LUFA/Drivers/USB/LowLevel/Template/Template_Endpoint_Control_R.c **** 	
  39:../lufa-LUFA/LUFA/Drivers/USB/LowLevel/Template/Template_Endpoint_Control_R.c **** 	return ENDPOINT_RWCSTREAM_NoError;
 3212               		.loc 5 39 0
 3213 0076 80E0      		ldi r24,0
 3214 0078 0895      		ret
 3215               	.L361:
  15:../lufa-LUFA/LUFA/Drivers/USB/LowLevel/Template/Template_Endpoint_Control_R.c **** 		  return ENDPOINT_RWCSTREAM_DeviceDisconnected;
 3216               		.loc 5 15 0
 3217 007a 82E0      		ldi r24,lo8(2)
 3218 007c 0895      		ret
 3219               	.L362:
  17:../lufa-LUFA/LUFA/Drivers/USB/LowLevel/Template/Template_Endpoint_Control_R.c **** 		  return ENDPOINT_RWCSTREAM_BusSuspended;
 3220               		.loc 5 17 0
 3221 007e 83E0      		ldi r24,lo8(3)
  40:../lufa-LUFA/LUFA/Drivers/USB/LowLevel/Template/Template_Endpoint_Control_R.c **** }
 3222               		.loc 5 40 0
 3223 0080 0895      		ret
 3224               		.cfi_endproc
 3225               	.LFE86:
 3227               		.section	.text.Endpoint_Read_Control_EStream_LE,"ax",@progbits
 3228               	.global	Endpoint_Read_Control_EStream_LE
 3230               	Endpoint_Read_Control_EStream_LE:
 3231               	.LFB87:
   3:../lufa-LUFA/LUFA/Drivers/USB/LowLevel/Template/Template_Endpoint_Control_R.c **** {
 3232               		.loc 5 3 0
 3233               		.cfi_startproc
 3234               	.LVL288:
 3235 0000 0F93      		push r16
 3236               	.LCFI94:
 3237               		.cfi_def_cfa_offset 3
 3238               		.cfi_offset 16, -2
 3239 0002 1F93      		push r17
 3240               	.LCFI95:
 3241               		.cfi_def_cfa_offset 4
 3242               		.cfi_offset 17, -3
 3243 0004 CF93      		push r28
 3244               	.LCFI96:
 3245               		.cfi_def_cfa_offset 5
 3246               		.cfi_offset 28, -4
 3247 0006 DF93      		push r29
 3248               	.LCFI97:
 3249               		.cfi_def_cfa_offset 6
 3250               		.cfi_offset 29, -5
 3251               	/* prologue: function */
 3252               	/* frame size = 0 */
 3253               	/* stack size = 4 */
 3254               	.L__stack_usage = 4
 3255 0008 EC01      		movw r28,r24
 3256 000a 8B01      		movw r16,r22
 3257               	.LVL289:
   6:../lufa-LUFA/LUFA/Drivers/USB/LowLevel/Template/Template_Endpoint_Control_R.c **** 	if (!(Length))
 3258               		.loc 5 6 0
 3259 000c 6115      		cp r22,__zero_reg__
 3260 000e 7105      		cpc r23,__zero_reg__
 3261 0010 01F4      		brne .L370
 3262               	.LVL290:
 3263               	.L375:
 3264               	.LBB478:
 3265               	.LBB479:
 469:../lufa-LUFA/LUFA/Drivers/USB/LowLevel/Endpoint.h **** 					UEINTX &= ~((1 << RXOUTI) | (1 << FIFOCON));
 3266               		.loc 2 469 0
 3267 0012 8091 E800 		lds r24,232
 3268 0016 8B77      		andi r24,lo8(123)
 3269 0018 8093 E800 		sts 232,r24
 3270               	.L370:
 3271               	.LBE479:
 3272               	.LBE478:
   9:../lufa-LUFA/LUFA/Drivers/USB/LowLevel/Template/Template_Endpoint_Control_R.c **** 	while (Length)
 3273               		.loc 5 9 0 discriminator 1
 3274 001c 0115      		cp r16,__zero_reg__
 3275 001e 1105      		cpc r17,__zero_reg__
 3276 0020 01F0      		breq .L378
 3277               	.L373:
 3278               	.LBB480:
 3279               	.LBB481:
 429:../lufa-LUFA/LUFA/Drivers/USB/LowLevel/Endpoint.h **** 				return ((UEINTX & (1 << RXSTPI)) ? true : false);
 3280               		.loc 2 429 0
 3281 0022 8091 E800 		lds r24,232
 3282               	.LBE481:
 3283               	.LBE480:
  11:../lufa-LUFA/LUFA/Drivers/USB/LowLevel/Template/Template_Endpoint_Control_R.c **** 		if (Endpoint_IsSETUPReceived())
 3284               		.loc 5 11 0
 3285 0026 83FD      		sbrc r24,3
 3286 0028 00C0      		rjmp .L379
  14:../lufa-LUFA/LUFA/Drivers/USB/LowLevel/Template/Template_Endpoint_Control_R.c **** 		if (USB_DeviceState == DEVICE_STATE_Unattached)
 3287               		.loc 5 14 0
 3288 002a 8EB3      		in r24,0x1e
 3289 002c 8823      		tst r24
 3290 002e 01F0      		breq .L383
  16:../lufa-LUFA/LUFA/Drivers/USB/LowLevel/Template/Template_Endpoint_Control_R.c **** 		else if (USB_DeviceState == DEVICE_STATE_Suspended)
 3291               		.loc 5 16 0
 3292 0030 8EB3      		in r24,0x1e
 3293 0032 8530      		cpi r24,lo8(5)
 3294 0034 01F0      		breq .L384
 3295               	.LBB482:
 3296               	.LBB483:
 417:../lufa-LUFA/LUFA/Drivers/USB/LowLevel/Endpoint.h **** 				return ((UEINTX & (1 << RXOUTI)) ? true : false);
 3297               		.loc 2 417 0
 3298 0036 8091 E800 		lds r24,232
 3299               	.LBE483:
 3300               	.LBE482:
  19:../lufa-LUFA/LUFA/Drivers/USB/LowLevel/Template/Template_Endpoint_Control_R.c **** 		if (Endpoint_IsOUTReceived())
 3301               		.loc 5 19 0
 3302 003a 82FF      		sbrs r24,2
 3303 003c 00C0      		rjmp .L373
 3304               	.L388:
  23:../lufa-LUFA/LUFA/Drivers/USB/LowLevel/Template/Template_Endpoint_Control_R.c **** 				TEMPLATE_TRANSFER_BYTE(DataStream);
 3305               		.loc 5 23 0
 3306 003e CE01      		movw r24,r28
 3307               	.LVL291:
 3308               	.LBB484:
 3309               	.LBB485:
 266:../lufa-LUFA/LUFA/Drivers/USB/LowLevel/Endpoint.h **** 					return UEBCLX;
 3310               		.loc 2 266 0
 3311 0040 2091 F200 		lds r18,242
 3312               	.LBE485:
 3313               	.LBE484:
  21:../lufa-LUFA/LUFA/Drivers/USB/LowLevel/Template/Template_Endpoint_Control_R.c **** 			while (Length && Endpoint_BytesInEndpoint())
 3314               		.loc 5 21 0
 3315 0044 2223      		tst r18
 3316 0046 01F0      		breq .L375
 3317               	.LBB486:
 3318               	.LBB487:
 550:../lufa-LUFA/LUFA/Drivers/USB/LowLevel/Endpoint.h **** 				return UEDATX;
 3319               		.loc 2 550 0
 3320 0048 6091 F100 		lds r22,241
 3321               	.LBE487:
 3322               	.LBE486:
  23:../lufa-LUFA/LUFA/Drivers/USB/LowLevel/Template/Template_Endpoint_Control_R.c **** 				TEMPLATE_TRANSFER_BYTE(DataStream);
 3323               		.loc 5 23 0
 3324 004c 2196      		adiw r28,1
 3325               	.LVL292:
 3326 004e 0E94 0000 		call __eeupd_byte_m8u2
 3327               	.LVL293:
  24:../lufa-LUFA/LUFA/Drivers/USB/LowLevel/Template/Template_Endpoint_Control_R.c **** 				Length--;
 3328               		.loc 5 24 0
 3329 0052 0150      		subi r16,1
 3330 0054 1109      		sbc r17,__zero_reg__
 3331               	.LVL294:
  21:../lufa-LUFA/LUFA/Drivers/USB/LowLevel/Template/Template_Endpoint_Control_R.c **** 			while (Length && Endpoint_BytesInEndpoint())
 3332               		.loc 5 21 0
 3333 0056 0115      		cp r16,__zero_reg__
 3334 0058 1105      		cpc r17,__zero_reg__
 3335 005a 01F4      		brne .L388
 3336 005c 00C0      		rjmp .L375
 3337               	.L389:
  33:../lufa-LUFA/LUFA/Drivers/USB/LowLevel/Template/Template_Endpoint_Control_R.c **** 		if (USB_DeviceState == DEVICE_STATE_Unattached)
 3338               		.loc 5 33 0
 3339 005e 8EB3      		in r24,0x1e
 3340 0060 8823      		tst r24
 3341 0062 01F0      		breq .L383
  35:../lufa-LUFA/LUFA/Drivers/USB/LowLevel/Template/Template_Endpoint_Control_R.c **** 		else if (USB_DeviceState == DEVICE_STATE_Suspended)
 3342               		.loc 5 35 0
 3343 0064 8EB3      		in r24,0x1e
 3344 0066 8530      		cpi r24,lo8(5)
 3345 0068 01F0      		breq .L384
 3346               	.L378:
 3347               	.LBB488:
 3348               	.LBB489:
 405:../lufa-LUFA/LUFA/Drivers/USB/LowLevel/Endpoint.h **** 				return ((UEINTX & (1 << TXINI))  ? true : false);
 3349               		.loc 2 405 0
 3350 006a 8091 E800 		lds r24,232
 3351               	.LBE489:
 3352               	.LBE488:
  31:../lufa-LUFA/LUFA/Drivers/USB/LowLevel/Template/Template_Endpoint_Control_R.c **** 	while (!(Endpoint_IsINReady()))
 3353               		.loc 5 31 0
 3354 006e 80FF      		sbrs r24,0
 3355 0070 00C0      		rjmp .L389
 3356 0072 00C0      		rjmp .L382
 3357               	.L379:
  12:../lufa-LUFA/LUFA/Drivers/USB/LowLevel/Template/Template_Endpoint_Control_R.c **** 		  return ENDPOINT_RWCSTREAM_HostAborted;
 3358               		.loc 5 12 0
 3359 0074 81E0      		ldi r24,lo8(1)
 3360 0076 00C0      		rjmp .L371
 3361               	.L382:
  39:../lufa-LUFA/LUFA/Drivers/USB/LowLevel/Template/Template_Endpoint_Control_R.c **** 	return ENDPOINT_RWCSTREAM_NoError;
 3362               		.loc 5 39 0
 3363 0078 80E0      		ldi r24,0
 3364 007a 00C0      		rjmp .L371
 3365               	.L383:
  15:../lufa-LUFA/LUFA/Drivers/USB/LowLevel/Template/Template_Endpoint_Control_R.c **** 		  return ENDPOINT_RWCSTREAM_DeviceDisconnected;
 3366               		.loc 5 15 0
 3367 007c 82E0      		ldi r24,lo8(2)
 3368 007e 00C0      		rjmp .L371
 3369               	.L384:
  17:../lufa-LUFA/LUFA/Drivers/USB/LowLevel/Template/Template_Endpoint_Control_R.c **** 		  return ENDPOINT_RWCSTREAM_BusSuspended;
 3370               		.loc 5 17 0
 3371 0080 83E0      		ldi r24,lo8(3)
 3372               	.L371:
 3373               	/* epilogue start */
 3374               		.loc 5 40 0
 3375 0082 DF91      		pop r29
 3376 0084 CF91      		pop r28
 3377               	.LVL295:
 3378 0086 1F91      		pop r17
 3379 0088 0F91      		pop r16
 3380               	.LVL296:
 3381 008a 0895      		ret
 3382               		.cfi_endproc
 3383               	.LFE87:
 3385               		.section	.text.Endpoint_Read_Control_Stream_BE,"ax",@progbits
 3386               	.global	Endpoint_Read_Control_Stream_BE
 3388               	Endpoint_Read_Control_Stream_BE:
 3389               	.LFB88:
   3:../lufa-LUFA/LUFA/Drivers/USB/LowLevel/Template/Template_Endpoint_Control_R.c **** {
 3390               		.loc 5 3 0
 3391               		.cfi_startproc
 3392               	.LVL297:
 3393               	/* prologue: function */
 3394               	/* frame size = 0 */
 3395               	/* stack size = 0 */
 3396               	.L__stack_usage = 0
   4:../lufa-LUFA/LUFA/Drivers/USB/LowLevel/Template/Template_Endpoint_Control_R.c **** 	uint8_t* DataStream = ((uint8_t*)Buffer + TEMPLATE_BUFFER_OFFSET(Length));
 3397               		.loc 5 4 0
 3398 0000 9B01      		movw r18,r22
 3399 0002 2150      		subi r18,1
 3400 0004 3109      		sbc r19,__zero_reg__
 3401 0006 280F      		add r18,r24
 3402 0008 391F      		adc r19,r25
 3403               	.LVL298:
   6:../lufa-LUFA/LUFA/Drivers/USB/LowLevel/Template/Template_Endpoint_Control_R.c **** 	if (!(Length))
 3404               		.loc 5 6 0
 3405 000a 6115      		cp r22,__zero_reg__
 3406 000c 7105      		cpc r23,__zero_reg__
 3407 000e 01F4      		brne .L392
 3408               	.LVL299:
 3409               	.L397:
 3410               	.LBB490:
 3411               	.LBB491:
 469:../lufa-LUFA/LUFA/Drivers/USB/LowLevel/Endpoint.h **** 					UEINTX &= ~((1 << RXOUTI) | (1 << FIFOCON));
 3412               		.loc 2 469 0
 3413 0010 8091 E800 		lds r24,232
 3414 0014 8B77      		andi r24,lo8(123)
 3415 0016 8093 E800 		sts 232,r24
 3416               	.L392:
 3417               	.LBE491:
 3418               	.LBE490:
   9:../lufa-LUFA/LUFA/Drivers/USB/LowLevel/Template/Template_Endpoint_Control_R.c **** 	while (Length)
 3419               		.loc 5 9 0 discriminator 1
 3420 001a 6115      		cp r22,__zero_reg__
 3421 001c 7105      		cpc r23,__zero_reg__
 3422 001e 01F0      		breq .L400
 3423               	.L395:
 3424               	.LBB492:
 3425               	.LBB493:
 429:../lufa-LUFA/LUFA/Drivers/USB/LowLevel/Endpoint.h **** 				return ((UEINTX & (1 << RXSTPI)) ? true : false);
 3426               		.loc 2 429 0
 3427 0020 8091 E800 		lds r24,232
 3428               	.LBE493:
 3429               	.LBE492:
  11:../lufa-LUFA/LUFA/Drivers/USB/LowLevel/Template/Template_Endpoint_Control_R.c **** 		if (Endpoint_IsSETUPReceived())
 3430               		.loc 5 11 0
 3431 0024 83FD      		sbrc r24,3
 3432 0026 00C0      		rjmp .L401
  14:../lufa-LUFA/LUFA/Drivers/USB/LowLevel/Template/Template_Endpoint_Control_R.c **** 		if (USB_DeviceState == DEVICE_STATE_Unattached)
 3433               		.loc 5 14 0
 3434 0028 8EB3      		in r24,0x1e
 3435 002a 8823      		tst r24
 3436 002c 01F0      		breq .L405
  16:../lufa-LUFA/LUFA/Drivers/USB/LowLevel/Template/Template_Endpoint_Control_R.c **** 		else if (USB_DeviceState == DEVICE_STATE_Suspended)
 3437               		.loc 5 16 0
 3438 002e 8EB3      		in r24,0x1e
 3439 0030 8530      		cpi r24,lo8(5)
 3440 0032 01F0      		breq .L406
 3441               	.LBB494:
 3442               	.LBB495:
 417:../lufa-LUFA/LUFA/Drivers/USB/LowLevel/Endpoint.h **** 				return ((UEINTX & (1 << RXOUTI)) ? true : false);
 3443               		.loc 2 417 0
 3444 0034 8091 E800 		lds r24,232
 3445               	.LBE495:
 3446               	.LBE494:
  19:../lufa-LUFA/LUFA/Drivers/USB/LowLevel/Template/Template_Endpoint_Control_R.c **** 		if (Endpoint_IsOUTReceived())
 3447               		.loc 5 19 0
 3448 0038 82FF      		sbrs r24,2
 3449 003a 00C0      		rjmp .L395
 3450 003c F901      		movw r30,r18
 3451               	.L396:
 3452               	.LBB496:
 3453               	.LBB497:
 266:../lufa-LUFA/LUFA/Drivers/USB/LowLevel/Endpoint.h **** 					return UEBCLX;
 3454               		.loc 2 266 0
 3455 003e 8091 F200 		lds r24,242
 3456               	.LBE497:
 3457               	.LBE496:
  21:../lufa-LUFA/LUFA/Drivers/USB/LowLevel/Template/Template_Endpoint_Control_R.c **** 			while (Length && Endpoint_BytesInEndpoint())
 3458               		.loc 5 21 0
 3459 0042 8823      		tst r24
 3460 0044 01F0      		breq .L397
 3461 0046 2150      		subi r18,1
 3462 0048 3109      		sbc r19,__zero_reg__
 3463               	.LVL300:
 3464               	.LBB498:
 3465               	.LBB499:
 550:../lufa-LUFA/LUFA/Drivers/USB/LowLevel/Endpoint.h **** 				return UEDATX;
 3466               		.loc 2 550 0
 3467 004a 8091 F100 		lds r24,241
 3468               	.LBE499:
 3469               	.LBE498:
  23:../lufa-LUFA/LUFA/Drivers/USB/LowLevel/Template/Template_Endpoint_Control_R.c **** 				TEMPLATE_TRANSFER_BYTE(DataStream);
 3470               		.loc 5 23 0
 3471 004e 8083      		st Z,r24
  24:../lufa-LUFA/LUFA/Drivers/USB/LowLevel/Template/Template_Endpoint_Control_R.c **** 				Length--;
 3472               		.loc 5 24 0
 3473 0050 6150      		subi r22,1
 3474 0052 7109      		sbc r23,__zero_reg__
 3475               	.LVL301:
 3476 0054 F901      		movw r30,r18
  21:../lufa-LUFA/LUFA/Drivers/USB/LowLevel/Template/Template_Endpoint_Control_R.c **** 			while (Length && Endpoint_BytesInEndpoint())
 3477               		.loc 5 21 0
 3478 0056 6115      		cp r22,__zero_reg__
 3479 0058 7105      		cpc r23,__zero_reg__
 3480 005a 01F4      		brne .L396
 3481 005c 00C0      		rjmp .L397
 3482               	.L410:
  33:../lufa-LUFA/LUFA/Drivers/USB/LowLevel/Template/Template_Endpoint_Control_R.c **** 		if (USB_DeviceState == DEVICE_STATE_Unattached)
 3483               		.loc 5 33 0
 3484 005e 8EB3      		in r24,0x1e
 3485 0060 8823      		tst r24
 3486 0062 01F0      		breq .L405
  35:../lufa-LUFA/LUFA/Drivers/USB/LowLevel/Template/Template_Endpoint_Control_R.c **** 		else if (USB_DeviceState == DEVICE_STATE_Suspended)
 3487               		.loc 5 35 0
 3488 0064 8EB3      		in r24,0x1e
 3489 0066 8530      		cpi r24,lo8(5)
 3490 0068 01F0      		breq .L406
 3491               	.L400:
 3492               	.LBB500:
 3493               	.LBB501:
 405:../lufa-LUFA/LUFA/Drivers/USB/LowLevel/Endpoint.h **** 				return ((UEINTX & (1 << TXINI))  ? true : false);
 3494               		.loc 2 405 0
 3495 006a 8091 E800 		lds r24,232
 3496               	.LBE501:
 3497               	.LBE500:
  31:../lufa-LUFA/LUFA/Drivers/USB/LowLevel/Template/Template_Endpoint_Control_R.c **** 	while (!(Endpoint_IsINReady()))
 3498               		.loc 5 31 0
 3499 006e 80FF      		sbrs r24,0
 3500 0070 00C0      		rjmp .L410
 3501 0072 00C0      		rjmp .L404
 3502               	.L401:
  12:../lufa-LUFA/LUFA/Drivers/USB/LowLevel/Template/Template_Endpoint_Control_R.c **** 		  return ENDPOINT_RWCSTREAM_HostAborted;
 3503               		.loc 5 12 0
 3504 0074 81E0      		ldi r24,lo8(1)
 3505 0076 0895      		ret
 3506               	.L404:
  39:../lufa-LUFA/LUFA/Drivers/USB/LowLevel/Template/Template_Endpoint_Control_R.c **** 	return ENDPOINT_RWCSTREAM_NoError;
 3507               		.loc 5 39 0
 3508 0078 80E0      		ldi r24,0
 3509 007a 0895      		ret
 3510               	.L405:
  15:../lufa-LUFA/LUFA/Drivers/USB/LowLevel/Template/Template_Endpoint_Control_R.c **** 		  return ENDPOINT_RWCSTREAM_DeviceDisconnected;
 3511               		.loc 5 15 0
 3512 007c 82E0      		ldi r24,lo8(2)
 3513 007e 0895      		ret
 3514               	.L406:
  17:../lufa-LUFA/LUFA/Drivers/USB/LowLevel/Template/Template_Endpoint_Control_R.c **** 		  return ENDPOINT_RWCSTREAM_BusSuspended;
 3515               		.loc 5 17 0
 3516 0080 83E0      		ldi r24,lo8(3)
 3517               		.loc 5 40 0
 3518 0082 0895      		ret
 3519               		.cfi_endproc
 3520               	.LFE88:
 3522               		.section	.text.Endpoint_Read_Control_EStream_BE,"ax",@progbits
 3523               	.global	Endpoint_Read_Control_EStream_BE
 3525               	Endpoint_Read_Control_EStream_BE:
 3526               	.LFB89:
   3:../lufa-LUFA/LUFA/Drivers/USB/LowLevel/Template/Template_Endpoint_Control_R.c **** {
 3527               		.loc 5 3 0
 3528               		.cfi_startproc
 3529               	.LVL302:
 3530 0000 0F93      		push r16
 3531               	.LCFI98:
 3532               		.cfi_def_cfa_offset 3
 3533               		.cfi_offset 16, -2
 3534 0002 1F93      		push r17
 3535               	.LCFI99:
 3536               		.cfi_def_cfa_offset 4
 3537               		.cfi_offset 17, -3
 3538 0004 CF93      		push r28
 3539               	.LCFI100:
 3540               		.cfi_def_cfa_offset 5
 3541               		.cfi_offset 28, -4
 3542 0006 DF93      		push r29
 3543               	.LCFI101:
 3544               		.cfi_def_cfa_offset 6
 3545               		.cfi_offset 29, -5
 3546               	/* prologue: function */
 3547               	/* frame size = 0 */
 3548               	/* stack size = 4 */
 3549               	.L__stack_usage = 4
 3550 0008 8B01      		movw r16,r22
   4:../lufa-LUFA/LUFA/Drivers/USB/LowLevel/Template/Template_Endpoint_Control_R.c **** 	uint8_t* DataStream = ((uint8_t*)Buffer + TEMPLATE_BUFFER_OFFSET(Length));
 3551               		.loc 5 4 0
 3552 000a EB01      		movw r28,r22
 3553 000c 2197      		sbiw r28,1
 3554 000e C80F      		add r28,r24
 3555 0010 D91F      		adc r29,r25
 3556               	.LVL303:
   6:../lufa-LUFA/LUFA/Drivers/USB/LowLevel/Template/Template_Endpoint_Control_R.c **** 	if (!(Length))
 3557               		.loc 5 6 0
 3558 0012 6115      		cp r22,__zero_reg__
 3559 0014 7105      		cpc r23,__zero_reg__
 3560 0016 01F4      		brne .L413
 3561               	.LVL304:
 3562               	.L418:
 3563               	.LBB502:
 3564               	.LBB503:
 469:../lufa-LUFA/LUFA/Drivers/USB/LowLevel/Endpoint.h **** 					UEINTX &= ~((1 << RXOUTI) | (1 << FIFOCON));
 3565               		.loc 2 469 0
 3566 0018 8091 E800 		lds r24,232
 3567 001c 8B77      		andi r24,lo8(123)
 3568 001e 8093 E800 		sts 232,r24
 3569               	.L413:
 3570               	.LBE503:
 3571               	.LBE502:
   9:../lufa-LUFA/LUFA/Drivers/USB/LowLevel/Template/Template_Endpoint_Control_R.c **** 	while (Length)
 3572               		.loc 5 9 0 discriminator 1
 3573 0022 0115      		cp r16,__zero_reg__
 3574 0024 1105      		cpc r17,__zero_reg__
 3575 0026 01F0      		breq .L421
 3576               	.L416:
 3577               	.LBB504:
 3578               	.LBB505:
 429:../lufa-LUFA/LUFA/Drivers/USB/LowLevel/Endpoint.h **** 				return ((UEINTX & (1 << RXSTPI)) ? true : false);
 3579               		.loc 2 429 0
 3580 0028 8091 E800 		lds r24,232
 3581               	.LBE505:
 3582               	.LBE504:
  11:../lufa-LUFA/LUFA/Drivers/USB/LowLevel/Template/Template_Endpoint_Control_R.c **** 		if (Endpoint_IsSETUPReceived())
 3583               		.loc 5 11 0
 3584 002c 83FD      		sbrc r24,3
 3585 002e 00C0      		rjmp .L422
  14:../lufa-LUFA/LUFA/Drivers/USB/LowLevel/Template/Template_Endpoint_Control_R.c **** 		if (USB_DeviceState == DEVICE_STATE_Unattached)
 3586               		.loc 5 14 0
 3587 0030 8EB3      		in r24,0x1e
 3588 0032 8823      		tst r24
 3589 0034 01F0      		breq .L426
  16:../lufa-LUFA/LUFA/Drivers/USB/LowLevel/Template/Template_Endpoint_Control_R.c **** 		else if (USB_DeviceState == DEVICE_STATE_Suspended)
 3590               		.loc 5 16 0
 3591 0036 8EB3      		in r24,0x1e
 3592 0038 8530      		cpi r24,lo8(5)
 3593 003a 01F0      		breq .L427
 3594               	.LBB506:
 3595               	.LBB507:
 417:../lufa-LUFA/LUFA/Drivers/USB/LowLevel/Endpoint.h **** 				return ((UEINTX & (1 << RXOUTI)) ? true : false);
 3596               		.loc 2 417 0
 3597 003c 8091 E800 		lds r24,232
 3598               	.LBE507:
 3599               	.LBE506:
  19:../lufa-LUFA/LUFA/Drivers/USB/LowLevel/Template/Template_Endpoint_Control_R.c **** 		if (Endpoint_IsOUTReceived())
 3600               		.loc 5 19 0
 3601 0040 82FF      		sbrs r24,2
 3602 0042 00C0      		rjmp .L416
 3603               	.L431:
  23:../lufa-LUFA/LUFA/Drivers/USB/LowLevel/Template/Template_Endpoint_Control_R.c **** 				TEMPLATE_TRANSFER_BYTE(DataStream);
 3604               		.loc 5 23 0
 3605 0044 CE01      		movw r24,r28
 3606               	.LVL305:
 3607               	.LBB508:
 3608               	.LBB509:
 266:../lufa-LUFA/LUFA/Drivers/USB/LowLevel/Endpoint.h **** 					return UEBCLX;
 3609               		.loc 2 266 0
 3610 0046 2091 F200 		lds r18,242
 3611               	.LBE509:
 3612               	.LBE508:
  21:../lufa-LUFA/LUFA/Drivers/USB/LowLevel/Template/Template_Endpoint_Control_R.c **** 			while (Length && Endpoint_BytesInEndpoint())
 3613               		.loc 5 21 0
 3614 004a 2223      		tst r18
 3615 004c 01F0      		breq .L418
 3616               	.LBB510:
 3617               	.LBB511:
 550:../lufa-LUFA/LUFA/Drivers/USB/LowLevel/Endpoint.h **** 				return UEDATX;
 3618               		.loc 2 550 0
 3619 004e 6091 F100 		lds r22,241
 3620               	.LBE511:
 3621               	.LBE510:
  23:../lufa-LUFA/LUFA/Drivers/USB/LowLevel/Template/Template_Endpoint_Control_R.c **** 				TEMPLATE_TRANSFER_BYTE(DataStream);
 3622               		.loc 5 23 0
 3623 0052 2197      		sbiw r28,1
 3624               	.LVL306:
 3625 0054 0E94 0000 		call __eeupd_byte_m8u2
 3626               	.LVL307:
  24:../lufa-LUFA/LUFA/Drivers/USB/LowLevel/Template/Template_Endpoint_Control_R.c **** 				Length--;
 3627               		.loc 5 24 0
 3628 0058 0150      		subi r16,1
 3629 005a 1109      		sbc r17,__zero_reg__
 3630               	.LVL308:
  21:../lufa-LUFA/LUFA/Drivers/USB/LowLevel/Template/Template_Endpoint_Control_R.c **** 			while (Length && Endpoint_BytesInEndpoint())
 3631               		.loc 5 21 0
 3632 005c 0115      		cp r16,__zero_reg__
 3633 005e 1105      		cpc r17,__zero_reg__
 3634 0060 01F4      		brne .L431
 3635 0062 00C0      		rjmp .L418
 3636               	.L432:
  33:../lufa-LUFA/LUFA/Drivers/USB/LowLevel/Template/Template_Endpoint_Control_R.c **** 		if (USB_DeviceState == DEVICE_STATE_Unattached)
 3637               		.loc 5 33 0
 3638 0064 8EB3      		in r24,0x1e
 3639 0066 8823      		tst r24
 3640 0068 01F0      		breq .L426
  35:../lufa-LUFA/LUFA/Drivers/USB/LowLevel/Template/Template_Endpoint_Control_R.c **** 		else if (USB_DeviceState == DEVICE_STATE_Suspended)
 3641               		.loc 5 35 0
 3642 006a 8EB3      		in r24,0x1e
 3643 006c 8530      		cpi r24,lo8(5)
 3644 006e 01F0      		breq .L427
 3645               	.L421:
 3646               	.LBB512:
 3647               	.LBB513:
 405:../lufa-LUFA/LUFA/Drivers/USB/LowLevel/Endpoint.h **** 				return ((UEINTX & (1 << TXINI))  ? true : false);
 3648               		.loc 2 405 0
 3649 0070 8091 E800 		lds r24,232
 3650               	.LBE513:
 3651               	.LBE512:
  31:../lufa-LUFA/LUFA/Drivers/USB/LowLevel/Template/Template_Endpoint_Control_R.c **** 	while (!(Endpoint_IsINReady()))
 3652               		.loc 5 31 0
 3653 0074 80FF      		sbrs r24,0
 3654 0076 00C0      		rjmp .L432
 3655 0078 00C0      		rjmp .L425
 3656               	.L422:
  12:../lufa-LUFA/LUFA/Drivers/USB/LowLevel/Template/Template_Endpoint_Control_R.c **** 		  return ENDPOINT_RWCSTREAM_HostAborted;
 3657               		.loc 5 12 0
 3658 007a 81E0      		ldi r24,lo8(1)
 3659 007c 00C0      		rjmp .L414
 3660               	.L425:
  39:../lufa-LUFA/LUFA/Drivers/USB/LowLevel/Template/Template_Endpoint_Control_R.c **** 	return ENDPOINT_RWCSTREAM_NoError;
 3661               		.loc 5 39 0
 3662 007e 80E0      		ldi r24,0
 3663 0080 00C0      		rjmp .L414
 3664               	.L426:
  15:../lufa-LUFA/LUFA/Drivers/USB/LowLevel/Template/Template_Endpoint_Control_R.c **** 		  return ENDPOINT_RWCSTREAM_DeviceDisconnected;
 3665               		.loc 5 15 0
 3666 0082 82E0      		ldi r24,lo8(2)
 3667 0084 00C0      		rjmp .L414
 3668               	.L427:
  17:../lufa-LUFA/LUFA/Drivers/USB/LowLevel/Template/Template_Endpoint_Control_R.c **** 		  return ENDPOINT_RWCSTREAM_BusSuspended;
 3669               		.loc 5 17 0
 3670 0086 83E0      		ldi r24,lo8(3)
 3671               	.L414:
 3672               	/* epilogue start */
 3673               		.loc 5 40 0
 3674 0088 DF91      		pop r29
 3675 008a CF91      		pop r28
 3676               	.LVL309:
 3677 008c 1F91      		pop r17
 3678 008e 0F91      		pop r16
 3679               	.LVL310:
 3680 0090 0895      		ret
 3681               		.cfi_endproc
 3682               	.LFE89:
 3684               		.text
 3685               	.Letext0:
 3686               		.file 6 "/usr/lib/avr/include/stdint.h"
 3687               		.file 7 "../lufa-LUFA/LUFA/Drivers/USB/LowLevel/../HighLevel/../LowLevel/../HighLevel/StdRequestTy
 3688               		.file 8 "../lufa-LUFA/LUFA/Drivers/USB/LowLevel/../HighLevel/../LowLevel/Device.h"
 3689               		.file 9 "../lufa-LUFA/LUFA/Drivers/USB/LowLevel/../HighLevel/StreamCallbacks.h"
 3690               		.file 10 "../lufa-LUFA/LUFA/Drivers/USB/LowLevel/../HighLevel/USBTask.h"
 3691               		.file 11 "/usr/lib/avr/include/avr/eeprom.h"
DEFINED SYMBOLS
                            *ABS*:0000000000000000 Endpoint.c
     /tmp/ccKPRXiM.s:2      *ABS*:000000000000003e __SP_H__
     /tmp/ccKPRXiM.s:3      *ABS*:000000000000003d __SP_L__
     /tmp/ccKPRXiM.s:4      *ABS*:000000000000003f __SREG__
     /tmp/ccKPRXiM.s:5      *ABS*:0000000000000000 __tmp_reg__
     /tmp/ccKPRXiM.s:6      *ABS*:0000000000000001 __zero_reg__
     /tmp/ccKPRXiM.s:13     .text.Endpoint_BytesToEPSizeMaskDynamic:0000000000000000 Endpoint_BytesToEPSizeMaskDynamic
     /tmp/ccKPRXiM.s:60     .text.Endpoint_ConfigureEndpoint_Prv:0000000000000000 Endpoint_ConfigureEndpoint_Prv
     /tmp/ccKPRXiM.s:112    .text.Endpoint_ClearEndpoints:0000000000000000 Endpoint_ClearEndpoints
     /tmp/ccKPRXiM.s:163    .text.Endpoint_ClearStatusStage:0000000000000000 Endpoint_ClearStatusStage
     /tmp/ccKPRXiM.s:233    .text.Endpoint_WaitUntilReady:0000000000000000 Endpoint_WaitUntilReady
     /tmp/ccKPRXiM.s:341    .text.Endpoint_Discard_Stream:0000000000000000 Endpoint_Discard_Stream
     /tmp/ccKPRXiM.s:440    .text.Endpoint_Write_Stream_LE:0000000000000000 Endpoint_Write_Stream_LE
     /tmp/ccKPRXiM.s:562    .text.Endpoint_Write_PStream_LE:0000000000000000 Endpoint_Write_PStream_LE
     /tmp/ccKPRXiM.s:693    .text.Endpoint_Write_EStream_LE:0000000000000000 Endpoint_Write_EStream_LE
     /tmp/ccKPRXiM.s:828    .text.Endpoint_Write_Stream_BE:0000000000000000 Endpoint_Write_Stream_BE
     /tmp/ccKPRXiM.s:974    .text.Endpoint_Write_EStream_BE:0000000000000000 Endpoint_Write_EStream_BE
     /tmp/ccKPRXiM.s:1123   .text.Endpoint_Write_PStream_BE:0000000000000000 Endpoint_Write_PStream_BE
     /tmp/ccKPRXiM.s:1279   .text.Endpoint_Read_Stream_LE:0000000000000000 Endpoint_Read_Stream_LE
     /tmp/ccKPRXiM.s:1398   .text.Endpoint_Read_EStream_LE:0000000000000000 Endpoint_Read_EStream_LE
     /tmp/ccKPRXiM.s:1533   .text.Endpoint_Read_Stream_BE:0000000000000000 Endpoint_Read_Stream_BE
     /tmp/ccKPRXiM.s:1677   .text.Endpoint_Read_EStream_BE:0000000000000000 Endpoint_Read_EStream_BE
     /tmp/ccKPRXiM.s:1826   .text.Endpoint_Write_Control_Stream_LE:0000000000000000 Endpoint_Write_Control_Stream_LE
     /tmp/ccKPRXiM.s:2015   .text.Endpoint_Write_Control_PStream_LE:0000000000000000 Endpoint_Write_Control_PStream_LE
     /tmp/ccKPRXiM.s:2216   .text.Endpoint_Write_Control_EStream_LE:0000000000000000 Endpoint_Write_Control_EStream_LE
     /tmp/ccKPRXiM.s:2451   .text.Endpoint_Write_Control_Stream_BE:0000000000000000 Endpoint_Write_Control_Stream_BE
     /tmp/ccKPRXiM.s:2642   .text.Endpoint_Write_Control_PStream_BE:0000000000000000 Endpoint_Write_Control_PStream_BE
     /tmp/ccKPRXiM.s:2844   .text.Endpoint_Write_Control_EStream_BE:0000000000000000 Endpoint_Write_Control_EStream_BE
     /tmp/ccKPRXiM.s:3087   .text.Endpoint_Read_Control_Stream_LE:0000000000000000 Endpoint_Read_Control_Stream_LE
     /tmp/ccKPRXiM.s:3230   .text.Endpoint_Read_Control_EStream_LE:0000000000000000 Endpoint_Read_Control_EStream_LE
     /tmp/ccKPRXiM.s:3388   .text.Endpoint_Read_Control_Stream_BE:0000000000000000 Endpoint_Read_Control_Stream_BE
     /tmp/ccKPRXiM.s:3525   .text.Endpoint_Read_Control_EStream_BE:0000000000000000 Endpoint_Read_Control_EStream_BE

UNDEFINED SYMBOLS
USB_ControlRequest
__eerd_byte_m8u2
__eeupd_byte_m8u2
