
MouseHostWithParser.elf:     file format elf32-avr

Sections:
Idx Name          Size      VMA       LMA       File off  Algn
  0 .data         00000012  00800100  000022aa  0000233e  2**0
                  CONTENTS, ALLOC, LOAD, DATA
  1 .text         000022aa  00000000  00000000  00000094  2**1
                  CONTENTS, ALLOC, LOAD, READONLY, CODE
  2 .bss          000003fd  00800112  00800112  00002350  2**0
                  ALLOC
  3 .stab         00002820  00000000  00000000  00002350  2**2
                  CONTENTS, READONLY, DEBUGGING
  4 .stabstr      000010b2  00000000  00000000  00004b70  2**0
                  CONTENTS, READONLY, DEBUGGING
  5 .comment      00000011  00000000  00000000  00005c22  2**0
                  CONTENTS, READONLY
  6 .debug_aranges 000003e8  00000000  00000000  00005c33  2**0
                  CONTENTS, READONLY, DEBUGGING
  7 .debug_info   00006305  00000000  00000000  0000601b  2**0
                  CONTENTS, READONLY, DEBUGGING
  8 .debug_abbrev 00001cd9  00000000  00000000  0000c320  2**0
                  CONTENTS, READONLY, DEBUGGING
  9 .debug_line   000028cc  00000000  00000000  0000dff9  2**0
                  CONTENTS, READONLY, DEBUGGING
 10 .debug_frame  00000ac0  00000000  00000000  000108c8  2**2
                  CONTENTS, READONLY, DEBUGGING
 11 .debug_str    000027aa  00000000  00000000  00011388  2**0
                  CONTENTS, READONLY, DEBUGGING
 12 .debug_loc    00003f75  00000000  00000000  00013b32  2**0
                  CONTENTS, READONLY, DEBUGGING
 13 .debug_ranges 00000440  00000000  00000000  00017aa7  2**0
                  CONTENTS, READONLY, DEBUGGING

Disassembly of section .text:

00000000 <__vectors>:
       0:	63 c1       	rjmp	.+710    	; 0x2c8 <__ctors_end>
       2:	00 00       	nop
       4:	7f c1       	rjmp	.+766    	; 0x304 <__bad_interrupt>
       6:	00 00       	nop
       8:	7d c1       	rjmp	.+762    	; 0x304 <__bad_interrupt>
       a:	00 00       	nop
       c:	7b c1       	rjmp	.+758    	; 0x304 <__bad_interrupt>
       e:	00 00       	nop
      10:	79 c1       	rjmp	.+754    	; 0x304 <__bad_interrupt>
      12:	00 00       	nop
      14:	77 c1       	rjmp	.+750    	; 0x304 <__bad_interrupt>
      16:	00 00       	nop
      18:	75 c1       	rjmp	.+746    	; 0x304 <__bad_interrupt>
      1a:	00 00       	nop
      1c:	73 c1       	rjmp	.+742    	; 0x304 <__bad_interrupt>
      1e:	00 00       	nop
      20:	71 c1       	rjmp	.+738    	; 0x304 <__bad_interrupt>
      22:	00 00       	nop
      24:	6f c1       	rjmp	.+734    	; 0x304 <__bad_interrupt>
      26:	00 00       	nop
      28:	0c 94 9c 0b 	jmp	0x1738	; 0x1738 <__vector_10>
      2c:	6b c1       	rjmp	.+726    	; 0x304 <__bad_interrupt>
      2e:	00 00       	nop
      30:	69 c1       	rjmp	.+722    	; 0x304 <__bad_interrupt>
      32:	00 00       	nop
      34:	67 c1       	rjmp	.+718    	; 0x304 <__bad_interrupt>
      36:	00 00       	nop
      38:	65 c1       	rjmp	.+714    	; 0x304 <__bad_interrupt>
      3a:	00 00       	nop
      3c:	63 c1       	rjmp	.+710    	; 0x304 <__bad_interrupt>
      3e:	00 00       	nop
      40:	61 c1       	rjmp	.+706    	; 0x304 <__bad_interrupt>
      42:	00 00       	nop
      44:	5f c1       	rjmp	.+702    	; 0x304 <__bad_interrupt>
      46:	00 00       	nop
      48:	5d c1       	rjmp	.+698    	; 0x304 <__bad_interrupt>
      4a:	00 00       	nop
      4c:	5b c1       	rjmp	.+694    	; 0x304 <__bad_interrupt>
      4e:	00 00       	nop
      50:	59 c1       	rjmp	.+690    	; 0x304 <__bad_interrupt>
      52:	00 00       	nop
      54:	57 c1       	rjmp	.+686    	; 0x304 <__bad_interrupt>
      56:	00 00       	nop
      58:	55 c1       	rjmp	.+682    	; 0x304 <__bad_interrupt>
      5a:	00 00       	nop
      5c:	53 c1       	rjmp	.+678    	; 0x304 <__bad_interrupt>
      5e:	00 00       	nop
      60:	51 c1       	rjmp	.+674    	; 0x304 <__bad_interrupt>
      62:	00 00       	nop
      64:	4f c1       	rjmp	.+670    	; 0x304 <__bad_interrupt>
      66:	00 00       	nop
      68:	4d c1       	rjmp	.+666    	; 0x304 <__bad_interrupt>
      6a:	00 00       	nop
      6c:	4b c1       	rjmp	.+662    	; 0x304 <__bad_interrupt>
      6e:	00 00       	nop
      70:	49 c1       	rjmp	.+658    	; 0x304 <__bad_interrupt>
      72:	00 00       	nop
      74:	47 c1       	rjmp	.+654    	; 0x304 <__bad_interrupt>
      76:	00 00       	nop
      78:	45 c1       	rjmp	.+650    	; 0x304 <__bad_interrupt>
      7a:	00 00       	nop
      7c:	43 c1       	rjmp	.+646    	; 0x304 <__bad_interrupt>
      7e:	00 00       	nop
      80:	41 c1       	rjmp	.+642    	; 0x304 <__bad_interrupt>
      82:	00 00       	nop
      84:	3f c1       	rjmp	.+638    	; 0x304 <__bad_interrupt>
      86:	00 00       	nop
      88:	3d c1       	rjmp	.+634    	; 0x304 <__bad_interrupt>
      8a:	00 00       	nop
      8c:	3b c1       	rjmp	.+630    	; 0x304 <__bad_interrupt>
      8e:	00 00       	nop
      90:	39 c1       	rjmp	.+626    	; 0x304 <__bad_interrupt>
      92:	00 00       	nop
      94:	37 c1       	rjmp	.+622    	; 0x304 <__bad_interrupt>
      96:	00 00       	nop

00000098 <__c.4584>:
      98:	1b 5b 33 31 6d 44 65 76 20 45 6e 75 6d 20 45 72     .[31mDev Enum Er
      a8:	72 6f 72 0d 0a 20 2d 2d 20 45 72 72 6f 72 20 43     ror.. -- Error C
      b8:	6f 64 65 20 25 64 0d 0a 20 2d 2d 20 53 75 62 20     ode %d.. -- Sub 
      c8:	45 72 72 6f 72 20 43 6f 64 65 20 25 64 0d 0a 20     Error Code %d.. 
      d8:	2d 2d 20 49 6e 20 53 74 61 74 65 20 25 64 0d 0a     -- In State %d..
      e8:	1b 5b 33 37 6d 00                                   .[37m.

000000ee <__c.4577>:
      ee:	1b 5b 33 31 6d 48 6f 73 74 20 4d 6f 64 65 20 45     .[31mHost Mode E
      fe:	72 72 6f 72 0d 0a 20 2d 2d 20 45 72 72 6f 72 20     rror.. -- Error 
     10e:	43 6f 64 65 20 25 64 0d 0a 1b 5b 33 37 6d 00        Code %d...[37m.

0000011d <__c.4572>:
     11d:	4d 6f 75 73 65 20 45 6e 75 6d 65 72 61 74 65 64     Mouse Enumerated
     12d:	2e 0d 0a 00                                         ....

00000131 <__c.4570>:
     131:	20 2d 2d 20 45 72 72 6f 72 20 43 6f 64 65 3a 20      -- Error Code: 
     141:	25 64 0d 0a 1b 5b 33 37 6d 00                       %d...[37m.

0000014b <__c.4568>:
     14b:	4e 6f 74 20 61 20 76 61 6c 69 64 20 4d 6f 75 73     Not a valid Mous
     15b:	65 2e 1b 5b 33 37 6d 00                             e..[37m.

00000163 <__c.4566>:
     163:	1b 5b 33 31 6d 52 65 70 6f 72 74 20 50 61 72 73     .[31mReport Pars
     173:	65 20 45 72 72 6f 72 2e 0d 0a 00                    e Error....

0000017e <__c.4564>:
     17e:	50 72 6f 63 65 73 73 69 6e 67 20 48 49 44 20 52     Processing HID R
     18e:	65 70 6f 72 74 20 28 53 69 7a 65 20 25 64 20 42     eport (Size %d B
     19e:	79 74 65 73 29 2e 0d 0a 00                          ytes)....

000001a7 <__c.4562>:
     1a7:	1b 5b 33 31 6d 43 6f 6e 74 72 6f 6c 20 45 72 72     .[31mControl Err
     1b7:	6f 72 20 28 53 65 74 20 43 6f 6e 66 69 67 75 72     or (Set Configur
     1c7:	61 74 69 6f 6e 29 2e 0d 0a 20 2d 2d 20 45 72 72     ation)... -- Err
     1d7:	6f 72 20 43 6f 64 65 3a 20 25 64 0d 0a 1b 5b 33     or Code: %d...[3
     1e7:	37 6d 00                                            7m.

000001ea <__c.4560>:
     1ea:	20 2d 2d 20 45 72 72 6f 72 20 43 6f 64 65 3a 20      -- Error Code: 
     1fa:	25 64 0d 0a 1b 5b 33 37 6d 00                       %d...[37m.

00000204 <__c.4558>:
     204:	1b 5b 33 31 6d 49 6e 76 61 6c 69 64 20 44 65 76     .[31mInvalid Dev
     214:	69 63 65 2e 0d 0a 00                                ice....

0000021b <__c.4556>:
     21b:	1b 5b 33 31 6d 43 6f 6e 74 72 6f 6c 20 45 72 72     .[31mControl Err
     22b:	6f 72 20 28 47 65 74 20 43 6f 6e 66 69 67 75 72     or (Get Configur
     23b:	61 74 69 6f 6e 29 2e 0d 0a 00                       ation)....

00000245 <__c.4553>:
     245:	47 65 74 74 69 6e 67 20 43 6f 6e 66 69 67 20 44     Getting Config D
     255:	61 74 61 2e 0d 0a 00                                ata....

0000025c <__c.4548>:
     25c:	1b 5b 33 32 6d 44 65 76 69 63 65 20 55 6e 61 74     .[32mDevice Unat
     26c:	74 61 63 68 65 64 2e 0d 0a 1b 5b 33 37 6d 00        tached....[37m.

0000027b <__c.4543>:
     27b:	1b 5b 33 32 6d 44 65 76 69 63 65 20 41 74 74 61     .[32mDevice Atta
     28b:	63 68 65 64 2e 0d 0a 1b 5b 33 37 6d 00              ched....[37m.

00000298 <__c.4534>:
     298:	1b 5b 33 36 6d 4d 6f 75 73 65 20 48 49 44 20 50     .[36mMouse HID P
     2a8:	61 72 73 65 72 20 48 6f 73 74 20 44 65 6d 6f 20     arser Host Demo 
     2b8:	72 75 6e 6e 69 6e 67 2e 0d 0a 1b 5b 33 37 6d 00     running....[37m.

000002c8 <__ctors_end>:
     2c8:	11 24       	eor	r1, r1
     2ca:	1f be       	out	0x3f, r1	; 63
     2cc:	cf ef       	ldi	r28, 0xFF	; 255
     2ce:	d0 e2       	ldi	r29, 0x20	; 32
     2d0:	de bf       	out	0x3e, r29	; 62
     2d2:	cd bf       	out	0x3d, r28	; 61

000002d4 <__do_copy_data>:
     2d4:	11 e0       	ldi	r17, 0x01	; 1
     2d6:	a0 e0       	ldi	r26, 0x00	; 0
     2d8:	b1 e0       	ldi	r27, 0x01	; 1
     2da:	ea ea       	ldi	r30, 0xAA	; 170
     2dc:	f2 e2       	ldi	r31, 0x22	; 34
     2de:	00 e0       	ldi	r16, 0x00	; 0
     2e0:	0b bf       	out	0x3b, r16	; 59
     2e2:	02 c0       	rjmp	.+4      	; 0x2e8 <__do_copy_data+0x14>
     2e4:	07 90       	elpm	r0, Z+
     2e6:	0d 92       	st	X+, r0
     2e8:	a2 31       	cpi	r26, 0x12	; 18
     2ea:	b1 07       	cpc	r27, r17
     2ec:	d9 f7       	brne	.-10     	; 0x2e4 <__do_copy_data+0x10>

000002ee <__do_clear_bss>:
     2ee:	15 e0       	ldi	r17, 0x05	; 5
     2f0:	a2 e1       	ldi	r26, 0x12	; 18
     2f2:	b1 e0       	ldi	r27, 0x01	; 1
     2f4:	01 c0       	rjmp	.+2      	; 0x2f8 <.do_clear_bss_start>

000002f6 <.do_clear_bss_loop>:
     2f6:	1d 92       	st	X+, r1

000002f8 <.do_clear_bss_start>:
     2f8:	af 30       	cpi	r26, 0x0F	; 15
     2fa:	b1 07       	cpc	r27, r17
     2fc:	e1 f7       	brne	.-8      	; 0x2f6 <.do_clear_bss_loop>
     2fe:	c8 d1       	rcall	.+912    	; 0x690 <main>
     300:	0c 94 53 11 	jmp	0x22a6	; 0x22a6 <_exit>

00000304 <__bad_interrupt>:
     304:	7d ce       	rjmp	.-774    	; 0x0 <__vectors>

00000306 <LEDs_SetAllLEDs>:
				PORTD &= ~LEDMask;
			}

			static inline void LEDs_SetAllLEDs(const uint8_t LEDMask)
			{
				PORTD = ((PORTD & ~LEDS_ALL_LEDS) | LEDMask);
     306:	9b b1       	in	r25, 0x0b	; 11
     308:	9f 70       	andi	r25, 0x0F	; 15
     30a:	98 2b       	or	r25, r24
     30c:	9b b9       	out	0x0b, r25	; 11
     30e:	08 95       	ret

00000310 <SetupHardware>:
/** Configures the board hardware and chip peripherals for the demo's functionality. */
void SetupHardware(void)
{
#if (ARCH == ARCH_AVR8)
	/* Disable watchdog if enabled by bootloader/fuses */
	MCUSR &= ~(1 << WDRF);
     310:	84 b7       	in	r24, 0x34	; 52
     312:	87 7f       	andi	r24, 0xF7	; 247
     314:	84 bf       	out	0x34, r24	; 52
	wdt_disable();
     316:	88 e1       	ldi	r24, 0x18	; 24
     318:	0f b6       	in	r0, 0x3f	; 63
     31a:	f8 94       	cli
     31c:	80 93 60 00 	sts	0x0060, r24
     320:	10 92 60 00 	sts	0x0060, r1
     324:	0f be       	out	0x3f, r0	; 63
The type of x is clock_div_t.
*/
void clock_prescale_set(clock_div_t __x)
{
    uint8_t __tmp = _BV(CLKPCE);
    __asm__ __volatile__ (
     326:	90 e0       	ldi	r25, 0x00	; 0
     328:	80 e8       	ldi	r24, 0x80	; 128
     32a:	0f b6       	in	r0, 0x3f	; 63
     32c:	f8 94       	cli
     32e:	80 93 61 00 	sts	0x0061, r24
     332:	90 93 61 00 	sts	0x0061, r25
     336:	0f be       	out	0x3f, r0	; 63
			static inline void Serial_Init(const uint32_t BaudRate,
			                               const bool DoubleSpeed);
			static inline void Serial_Init(const uint32_t BaudRate,
			                               const bool DoubleSpeed)
			{
				UBRR1  = (DoubleSpeed ? SERIAL_2X_UBBRVAL(BaudRate) : SERIAL_UBBRVAL(BaudRate));
     338:	83 e3       	ldi	r24, 0x33	; 51
     33a:	90 e0       	ldi	r25, 0x00	; 0
     33c:	90 93 cd 00 	sts	0x00CD, r25
     340:	80 93 cc 00 	sts	0x00CC, r24

				UCSR1C = ((1 << UCSZ11) | (1 << UCSZ10));
     344:	86 e0       	ldi	r24, 0x06	; 6
     346:	80 93 ca 00 	sts	0x00CA, r24
				UCSR1A = (DoubleSpeed ? (1 << U2X1) : 0);
     34a:	10 92 c8 00 	sts	0x00C8, r1
				UCSR1B = ((1 << TXEN1)  | (1 << RXEN1));
     34e:	88 e1       	ldi	r24, 0x18	; 24
     350:	80 93 c9 00 	sts	0x00C9, r24

				DDRD  |= (1 << 3);
     354:	53 9a       	sbi	0x0a, 3	; 10
				PORTD |= (1 << 2);
     356:	5a 9a       	sbi	0x0b, 2	; 11

		/* Inline Functions: */
		#if !defined(__DOXYGEN__)
			static inline void LEDs_Init(void)
			{
				DDRD  |=  LEDS_ALL_LEDS;
     358:	8a b1       	in	r24, 0x0a	; 10
     35a:	80 6f       	ori	r24, 0xF0	; 240
     35c:	8a b9       	out	0x0a, r24	; 10
				PORTD &= ~LEDS_ALL_LEDS;
     35e:	8b b1       	in	r24, 0x0b	; 11
     360:	8f 70       	andi	r24, 0x0F	; 15
     362:	8b b9       	out	0x0b, r24	; 11
#endif

	/* Hardware Initialization */
	Serial_Init(9600, false);
	LEDs_Init();
	USB_Init();
     364:	0e 94 81 0b 	call	0x1702	; 0x1702 <USB_Init>

	/* Create a stdio stream for the serial port for stdin and stdout */
	Serial_CreateStream(NULL);
     368:	80 e0       	ldi	r24, 0x00	; 0
     36a:	90 e0       	ldi	r25, 0x00	; 0
     36c:	0c 94 4f 0e 	jmp	0x1c9e	; 0x1c9e <Serial_CreateStream>

00000370 <EVENT_USB_Host_DeviceAttached>:
/** Event handler for the USB_DeviceAttached event. This indicates that a device has been attached to the host, and
 *  starts the library USB task to begin the enumeration and USB management process.
 */
void EVENT_USB_Host_DeviceAttached(void)
{
	puts_P(PSTR(ESC_FG_GREEN "Device Attached.\r\n" ESC_FG_WHITE));
     370:	8b e7       	ldi	r24, 0x7B	; 123
     372:	92 e0       	ldi	r25, 0x02	; 2
     374:	0e 94 90 0e 	call	0x1d20	; 0x1d20 <puts_P>
	LEDs_SetAllLEDs(LEDMASK_USB_ENUMERATING);
     378:	80 ea       	ldi	r24, 0xA0	; 160
     37a:	c5 cf       	rjmp	.-118    	; 0x306 <LEDs_SetAllLEDs>

0000037c <EVENT_USB_Host_DeviceUnattached>:
     37c:	8c e5       	ldi	r24, 0x5C	; 92
/** Event handler for the USB_DeviceUnattached event. This indicates that a device has been removed from the host, and
 *  stops the library USB task management process.
 */
void EVENT_USB_Host_DeviceUnattached(void)
{
	puts_P(PSTR(ESC_FG_GREEN "Device Unattached.\r\n" ESC_FG_WHITE));
     37e:	92 e0       	ldi	r25, 0x02	; 2
     380:	0e 94 90 0e 	call	0x1d20	; 0x1d20 <puts_P>
	LEDs_SetAllLEDs(LEDMASK_USB_NOTREADY);
     384:	80 e1       	ldi	r24, 0x10	; 16
     386:	bf cf       	rjmp	.-130    	; 0x306 <LEDs_SetAllLEDs>

00000388 <EVENT_USB_Host_DeviceEnumerationComplete>:
     388:	cf 93       	push	r28
/** Event handler for the USB_DeviceEnumerationComplete event. This indicates that a device has been successfully
 *  enumerated by the host and is now ready to be used by the application.
 */
void EVENT_USB_Host_DeviceEnumerationComplete(void)
{
	puts_P(PSTR("Getting Config Data.\r\n"));
     38a:	85 e4       	ldi	r24, 0x45	; 69
     38c:	92 e0       	ldi	r25, 0x02	; 2
     38e:	0e 94 90 0e 	call	0x1d20	; 0x1d20 <puts_P>

	uint8_t ErrorCode;

	/* Get and process the configuration descriptor data */
	if ((ErrorCode = ProcessConfigurationDescriptor()) != SuccessfulConfigRead)
     392:	a9 d1       	rcall	.+850    	; 0x6e6 <ProcessConfigurationDescriptor>
     394:	c8 2f       	mov	r28, r24
     396:	88 23       	and	r24, r24
     398:	b9 f0       	breq	.+46     	; 0x3c8 <EVENT_USB_Host_DeviceEnumerationComplete+0x40>
     39a:	81 30       	cpi	r24, 0x01	; 1
	{
		if (ErrorCode == ControlError)
     39c:	19 f4       	brne	.+6      	; 0x3a4 <EVENT_USB_Host_DeviceEnumerationComplete+0x1c>
     39e:	8b e1       	ldi	r24, 0x1B	; 27
		  puts_P(PSTR(ESC_FG_RED "Control Error (Get Configuration).\r\n"));
     3a0:	92 e0       	ldi	r25, 0x02	; 2
     3a2:	02 c0       	rjmp	.+4      	; 0x3a8 <EVENT_USB_Host_DeviceEnumerationComplete+0x20>
     3a4:	84 e0       	ldi	r24, 0x04	; 4
		else
		  puts_P(PSTR(ESC_FG_RED "Invalid Device.\r\n"));
     3a6:	92 e0       	ldi	r25, 0x02	; 2
     3a8:	0e 94 90 0e 	call	0x1d20	; 0x1d20 <puts_P>
     3ac:	1f 92       	push	r1

		printf_P(PSTR(" -- Error Code: %d\r\n" ESC_FG_WHITE), ErrorCode);
     3ae:	cf 93       	push	r28
     3b0:	8a ee       	ldi	r24, 0xEA	; 234
     3b2:	91 e0       	ldi	r25, 0x01	; 1
     3b4:	9f 93       	push	r25
     3b6:	8f 93       	push	r24
     3b8:	0e 94 6d 0e 	call	0x1cda	; 0x1cda <printf_P>
     3bc:	0f 90       	pop	r0

		LEDs_SetAllLEDs(LEDMASK_USB_ERROR);
     3be:	0f 90       	pop	r0
     3c0:	0f 90       	pop	r0
     3c2:	0f 90       	pop	r0
     3c4:	80 e9       	ldi	r24, 0x90	; 144
     3c6:	42 c0       	rjmp	.+132    	; 0x44c <EVENT_USB_Host_DeviceEnumerationComplete+0xc4>
     3c8:	81 e0       	ldi	r24, 0x01	; 1
		return;
	}

	/* Set the device configuration to the first configuration (rarely do devices use multiple configurations) */
	if ((ErrorCode = USB_Host_SetDeviceConfiguration(1)) != HOST_SENDCONTROL_Successful)
     3ca:	0e 94 00 0e 	call	0x1c00	; 0x1c00 <USB_Host_SetDeviceConfiguration>
     3ce:	88 23       	and	r24, r24
     3d0:	29 f0       	breq	.+10     	; 0x3dc <EVENT_USB_Host_DeviceEnumerationComplete+0x54>
     3d2:	1f 92       	push	r1
	{
		printf_P(PSTR(ESC_FG_RED "Control Error (Set Configuration).\r\n"
     3d4:	8f 93       	push	r24
     3d6:	87 ea       	ldi	r24, 0xA7	; 167
     3d8:	91 e0       	ldi	r25, 0x01	; 1
     3da:	ec cf       	rjmp	.-40     	; 0x3b4 <EVENT_USB_Host_DeviceEnumerationComplete+0x2c>
     3dc:	80 91 ef 04 	lds	r24, 0x04EF

		LEDs_SetAllLEDs(LEDMASK_USB_ERROR);
		return;
	}

	printf_P(PSTR("Processing HID Report (Size %d Bytes).\r\n"), HIDReportSize);
     3e0:	8f 93       	push	r24
     3e2:	80 91 ee 04 	lds	r24, 0x04EE
     3e6:	8f 93       	push	r24
     3e8:	8e e7       	ldi	r24, 0x7E	; 126
     3ea:	91 e0       	ldi	r25, 0x01	; 1
     3ec:	9f 93       	push	r25
     3ee:	8f 93       	push	r24
     3f0:	0e 94 6d 0e 	call	0x1cda	; 0x1cda <printf_P>
     3f4:	13 d2       	rcall	.+1062   	; 0x81c <GetHIDReportData>

	/* Get and process the device's first HID report descriptor */
	if ((ErrorCode = GetHIDReportData()) != ParseSuccessful)
     3f6:	c8 2f       	mov	r28, r24
     3f8:	0f 90       	pop	r0
     3fa:	0f 90       	pop	r0
     3fc:	0f 90       	pop	r0
     3fe:	0f 90       	pop	r0
     400:	88 23       	and	r24, r24
     402:	f9 f0       	breq	.+62     	; 0x442 <EVENT_USB_Host_DeviceEnumerationComplete+0xba>
     404:	83 e6       	ldi	r24, 0x63	; 99
     406:	91 e0       	ldi	r25, 0x01	; 1
	{
		puts_P(PSTR(ESC_FG_RED "Report Parse Error.\r\n"));
     408:	0e 94 90 0e 	call	0x1d20	; 0x1d20 <puts_P>
     40c:	80 91 15 01 	lds	r24, 0x0115

		if (!(HIDReportInfo.TotalReportItems))
     410:	81 11       	cpse	r24, r1
     412:	05 c0       	rjmp	.+10     	; 0x41e <EVENT_USB_Host_DeviceEnumerationComplete+0x96>
     414:	8b e4       	ldi	r24, 0x4B	; 75
     416:	91 e0       	ldi	r25, 0x01	; 1
			puts_P(PSTR("Not a valid Mouse." ESC_FG_WHITE));
     418:	0e 94 90 0e 	call	0x1d20	; 0x1d20 <puts_P>
     41c:	0c c0       	rjmp	.+24     	; 0x436 <EVENT_USB_Host_DeviceEnumerationComplete+0xae>
     41e:	1f 92       	push	r1
     420:	cf 93       	push	r28
		else
			printf_P(PSTR(" -- Error Code: %d\r\n" ESC_FG_WHITE), ErrorCode);
     422:	81 e3       	ldi	r24, 0x31	; 49
     424:	91 e0       	ldi	r25, 0x01	; 1
     426:	9f 93       	push	r25
     428:	8f 93       	push	r24
     42a:	0e 94 6d 0e 	call	0x1cda	; 0x1cda <printf_P>
     42e:	0f 90       	pop	r0
     430:	0f 90       	pop	r0
     432:	0f 90       	pop	r0
     434:	0f 90       	pop	r0
     436:	80 e9       	ldi	r24, 0x90	; 144
     438:	66 df       	rcall	.-308    	; 0x306 <LEDs_SetAllLEDs>

		LEDs_SetAllLEDs(LEDMASK_USB_ERROR);
     43a:	80 e0       	ldi	r24, 0x00	; 0
     43c:	cf 91       	pop	r28
     43e:	0c 94 00 0e 	jmp	0x1c00	; 0x1c00 <USB_Host_SetDeviceConfiguration>
		return;
	}

	puts_P(PSTR("Mouse Enumerated.\r\n"));
	LEDs_SetAllLEDs(LEDMASK_USB_READY);
}
     442:	8d e1       	ldi	r24, 0x1D	; 29
			puts_P(PSTR("Not a valid Mouse." ESC_FG_WHITE));
		else
			printf_P(PSTR(" -- Error Code: %d\r\n" ESC_FG_WHITE), ErrorCode);

		LEDs_SetAllLEDs(LEDMASK_USB_ERROR);
		USB_Host_SetDeviceConfiguration(0);
     444:	91 e0       	ldi	r25, 0x01	; 1
     446:	0e 94 90 0e 	call	0x1d20	; 0x1d20 <puts_P>
		return;
	}

	puts_P(PSTR("Mouse Enumerated.\r\n"));
     44a:	80 e6       	ldi	r24, 0x60	; 96
     44c:	cf 91       	pop	r28
     44e:	5b cf       	rjmp	.-330    	; 0x306 <LEDs_SetAllLEDs>

00000450 <EVENT_USB_Host_HostError>:
	LEDs_SetAllLEDs(LEDMASK_USB_READY);
     450:	cf 93       	push	r28
}
     452:	df 93       	push	r29
		USB_Host_SetDeviceConfiguration(0);
		return;
	}

	puts_P(PSTR("Mouse Enumerated.\r\n"));
	LEDs_SetAllLEDs(LEDMASK_USB_READY);
     454:	1f 92       	push	r1
     456:	cd b7       	in	r28, 0x3d	; 61
}

/** Event handler for the USB_HostError event. This indicates that a hardware error occurred while in host mode. */
void EVENT_USB_Host_HostError(const uint8_t ErrorCode)
{
     458:	de b7       	in	r29, 0x3e	; 62
	USB_Disable();
     45a:	89 83       	std	Y+1, r24	; 0x01
     45c:	0e 94 19 0b 	call	0x1632	; 0x1632 <USB_Disable>

	printf_P(PSTR(ESC_FG_RED "Host Mode Error\r\n"
     460:	1f 92       	push	r1
     462:	89 81       	ldd	r24, Y+1	; 0x01
     464:	8f 93       	push	r24
     466:	8e ee       	ldi	r24, 0xEE	; 238
     468:	90 e0       	ldi	r25, 0x00	; 0
     46a:	9f 93       	push	r25
     46c:	8f 93       	push	r24
     46e:	0e 94 6d 0e 	call	0x1cda	; 0x1cda <printf_P>
	                         " -- Error Code %d\r\n" ESC_FG_WHITE), ErrorCode);

	LEDs_SetAllLEDs(LEDMASK_USB_ERROR);
     472:	80 e9       	ldi	r24, 0x90	; 144
     474:	48 df       	rcall	.-368    	; 0x306 <LEDs_SetAllLEDs>
     476:	0f 90       	pop	r0
     478:	0f 90       	pop	r0
     47a:	0f 90       	pop	r0
     47c:	0f 90       	pop	r0
     47e:	ff cf       	rjmp	.-2      	; 0x47e <EVENT_USB_Host_HostError+0x2e>

00000480 <EVENT_USB_Host_DeviceEnumerationFailed>:
     480:	90 91 fa 04 	lds	r25, 0x04FA
 *  enumerating an attached USB device.
 */
void EVENT_USB_Host_DeviceEnumerationFailed(const uint8_t ErrorCode,
                                            const uint8_t SubErrorCode)
{
	printf_P(PSTR(ESC_FG_RED "Dev Enum Error\r\n"
     484:	1f 92       	push	r1
     486:	9f 93       	push	r25
     488:	1f 92       	push	r1
     48a:	6f 93       	push	r22
     48c:	1f 92       	push	r1
     48e:	8f 93       	push	r24
     490:	88 e9       	ldi	r24, 0x98	; 152
     492:	90 e0       	ldi	r25, 0x00	; 0
     494:	9f 93       	push	r25
     496:	8f 93       	push	r24
     498:	0e 94 6d 0e 	call	0x1cda	; 0x1cda <printf_P>
	                         " -- Error Code %d\r\n"
	                         " -- Sub Error Code %d\r\n"
	                         " -- In State %d\r\n" ESC_FG_WHITE), ErrorCode, SubErrorCode, USB_HostState);

	LEDs_SetAllLEDs(LEDMASK_USB_ERROR);
     49c:	8d b7       	in	r24, 0x3d	; 61
     49e:	9e b7       	in	r25, 0x3e	; 62
     4a0:	08 96       	adiw	r24, 0x08	; 8
     4a2:	0f b6       	in	r0, 0x3f	; 63
     4a4:	f8 94       	cli
     4a6:	9e bf       	out	0x3e, r25	; 62
     4a8:	0f be       	out	0x3f, r0	; 63
     4aa:	8d bf       	out	0x3d, r24	; 61
     4ac:	80 e9       	ldi	r24, 0x90	; 144
     4ae:	2b cf       	rjmp	.-426    	; 0x306 <LEDs_SetAllLEDs>

000004b0 <ProcessMouseReport>:
     4b0:	bf 92       	push	r11
 *  as required and displays movement and button presses on the board LEDs.
 *
 *  \param[in] MouseReport  Pointer to a HID report from an attached mouse device
 */
void ProcessMouseReport(uint8_t* MouseReport)
{
     4b2:	cf 92       	push	r12
     4b4:	df 92       	push	r13
     4b6:	ef 92       	push	r14
     4b8:	ff 92       	push	r15
     4ba:	0f 93       	push	r16
     4bc:	1f 93       	push	r17
     4be:	cf 93       	push	r28
     4c0:	df 93       	push	r29
     4c2:	6c 01       	movw	r12, r24
	uint8_t LEDMask = LEDS_NO_LEDS;

	/* Check each HID report item in turn, looking for mouse X/Y/button reports */
	for (uint8_t ReportNumber = 0; ReportNumber < HIDReportInfo.TotalReportItems; ReportNumber++)
     4c4:	f1 2c       	mov	r15, r1
 *
 *  \param[in] MouseReport  Pointer to a HID report from an attached mouse device
 */
void ProcessMouseReport(uint8_t* MouseReport)
{
	uint8_t LEDMask = LEDS_NO_LEDS;
     4c6:	b1 2c       	mov	r11, r1

	/* Check each HID report item in turn, looking for mouse X/Y/button reports */
	for (uint8_t ReportNumber = 0; ReportNumber < HIDReportInfo.TotalReportItems; ReportNumber++)
	{
		/* Create a temporary item pointer to the next report item */
		HID_ReportItem_t* ReportItem = &HIDReportInfo.ReportItems[ReportNumber];
     4c8:	3a e2       	ldi	r19, 0x2A	; 42
     4ca:	e3 2e       	mov	r14, r19

			/* For multi-report devices - if the requested data was not in the issued report, continue */
			if (!(FoundData))
			  continue;

			int16_t DeltaMovement = HID_ALIGN_DATA(ReportItem, int16_t);
     4cc:	00 e1       	ldi	r16, 0x10	; 16
     4ce:	10 e0       	ldi	r17, 0x00	; 0
void ProcessMouseReport(uint8_t* MouseReport)
{
	uint8_t LEDMask = LEDS_NO_LEDS;

	/* Check each HID report item in turn, looking for mouse X/Y/button reports */
	for (uint8_t ReportNumber = 0; ReportNumber < HIDReportInfo.TotalReportItems; ReportNumber++)
     4d0:	80 91 15 01 	lds	r24, 0x0115
     4d4:	f8 16       	cp	r15, r24
     4d6:	08 f0       	brcs	.+2      	; 0x4da <ProcessMouseReport+0x2a>
     4d8:	7c c0       	rjmp	.+248    	; 0x5d2 <ProcessMouseReport+0x122>
	{
		/* Create a temporary item pointer to the next report item */
		HID_ReportItem_t* ReportItem = &HIDReportInfo.ReportItems[ReportNumber];
     4da:	ef 9c       	mul	r14, r15
     4dc:	e0 01       	movw	r28, r0
     4de:	11 24       	eor	r1, r1
     4e0:	ca 5e       	subi	r28, 0xEA	; 234
     4e2:	de 4f       	sbci	r29, 0xFE	; 254

		bool FoundData;

		if ((ReportItem->Attributes.Usage.Page        == USAGE_PAGE_BUTTON) &&
     4e4:	89 85       	ldd	r24, Y+9	; 0x09
     4e6:	9a 85       	ldd	r25, Y+10	; 0x0a
     4e8:	89 30       	cpi	r24, 0x09	; 9
     4ea:	91 05       	cpc	r25, r1
     4ec:	a9 f4       	brne	.+42     	; 0x518 <ProcessMouseReport+0x68>
     4ee:	8a 81       	ldd	r24, Y+2	; 0x02
     4f0:	81 11       	cpse	r24, r1
     4f2:	6d c0       	rjmp	.+218    	; 0x5ce <ProcessMouseReport+0x11e>
			(ReportItem->ItemType                     == HID_REPORT_ITEM_In))
		{
			/* Get the mouse button value */
			FoundData = USB_GetHIDReportItemInfo(MouseReport, ReportItem);
     4f4:	be 01       	movw	r22, r28
     4f6:	c6 01       	movw	r24, r12
     4f8:	86 d5       	rcall	.+2828   	; 0x1006 <USB_GetHIDReportItemInfo>
     4fa:	88 23       	and	r24, r24

			/* For multi-report devices - if the requested data was not in the issued report, continue */
			if (!(FoundData))
     4fc:	09 f4       	brne	.+2      	; 0x500 <ProcessMouseReport+0x50>
     4fe:	67 c0       	rjmp	.+206    	; 0x5ce <ProcessMouseReport+0x11e>
     500:	4a a1       	ldd	r20, Y+34	; 0x22
			  continue;

			/* If button is pressed, all LEDs are turned on */
			if (ReportItem->Value)
     502:	5b a1       	ldd	r21, Y+35	; 0x23
     504:	6c a1       	ldd	r22, Y+36	; 0x24
     506:	7d a1       	ldd	r23, Y+37	; 0x25
     508:	45 2b       	or	r20, r21
     50a:	46 2b       	or	r20, r22
     50c:	47 2b       	or	r20, r23
     50e:	09 f4       	brne	.+2      	; 0x512 <ProcessMouseReport+0x62>
     510:	5e c0       	rjmp	.+188    	; 0x5ce <ProcessMouseReport+0x11e>
     512:	90 ef       	ldi	r25, 0xF0	; 240
			  LEDMask = LEDS_ALL_LEDS;
     514:	b9 2e       	mov	r11, r25
     516:	5b c0       	rjmp	.+182    	; 0x5ce <ProcessMouseReport+0x11e>
     518:	01 97       	sbiw	r24, 0x01	; 1
		}
		else if ((ReportItem->Attributes.Usage.Page   == USAGE_PAGE_GENERIC_DCTRL) &&
     51a:	09 f0       	breq	.+2      	; 0x51e <ProcessMouseReport+0x6e>
     51c:	58 c0       	rjmp	.+176    	; 0x5ce <ProcessMouseReport+0x11e>
     51e:	8b 85       	ldd	r24, Y+11	; 0x0b
				 (ReportItem->Attributes.Usage.Usage  == USAGE_SCROLL_WHEEL)       &&
     520:	9c 85       	ldd	r25, Y+12	; 0x0c
     522:	88 33       	cpi	r24, 0x38	; 56

			/* If button is pressed, all LEDs are turned on */
			if (ReportItem->Value)
			  LEDMask = LEDS_ALL_LEDS;
		}
		else if ((ReportItem->Attributes.Usage.Page   == USAGE_PAGE_GENERIC_DCTRL) &&
     524:	91 05       	cpc	r25, r1
     526:	01 f5       	brne	.+64     	; 0x568 <ProcessMouseReport+0xb8>
     528:	2a 81       	ldd	r18, Y+2	; 0x02
				 (ReportItem->Attributes.Usage.Usage  == USAGE_SCROLL_WHEEL)       &&
     52a:	21 11       	cpse	r18, r1
     52c:	1d c0       	rjmp	.+58     	; 0x568 <ProcessMouseReport+0xb8>
     52e:	be 01       	movw	r22, r28
				 (ReportItem->ItemType                == HID_REPORT_ITEM_In))
		{
			/* Get the mouse wheel value if it is contained within the current
			 * report, if not, skip to the next item in the parser list
			 */
			if (!(USB_GetHIDReportItemInfo(MouseReport, ReportItem)))
     530:	c6 01       	movw	r24, r12
     532:	69 d5       	rcall	.+2770   	; 0x1006 <USB_GetHIDReportItemInfo>
     534:	88 23       	and	r24, r24
     536:	09 f4       	brne	.+2      	; 0x53a <ProcessMouseReport+0x8a>
     538:	4a c0       	rjmp	.+148    	; 0x5ce <ProcessMouseReport+0x11e>
     53a:	88 85       	ldd	r24, Y+8	; 0x08
     53c:	98 01       	movw	r18, r16
			  continue;

			int16_t WheelDelta = HID_ALIGN_DATA(ReportItem, int16_t);
     53e:	28 1b       	sub	r18, r24
     540:	31 09       	sbc	r19, r1
     542:	4a a1       	ldd	r20, Y+34	; 0x22
     544:	5b a1       	ldd	r21, Y+35	; 0x23
     546:	6c a1       	ldd	r22, Y+36	; 0x24
     548:	7d a1       	ldd	r23, Y+37	; 0x25
     54a:	02 2e       	mov	r0, r18
     54c:	04 c0       	rjmp	.+8      	; 0x556 <ProcessMouseReport+0xa6>
     54e:	44 0f       	add	r20, r20
     550:	55 1f       	adc	r21, r21
     552:	66 1f       	adc	r22, r22
     554:	77 1f       	adc	r23, r23
     556:	0a 94       	dec	r0
     558:	d2 f7       	brpl	.-12     	; 0x54e <ProcessMouseReport+0x9e>
     55a:	41 15       	cp	r20, r1
     55c:	51 05       	cpc	r21, r1

			if (WheelDelta)
     55e:	b9 f1       	breq	.+110    	; 0x5ce <ProcessMouseReport+0x11e>
     560:	a4 f1       	brlt	.+104    	; 0x5ca <ProcessMouseReport+0x11a>
     562:	20 eb       	ldi	r18, 0xB0	; 176
			  LEDMask = (LEDS_LED1 | LEDS_LED2 | ((WheelDelta > 0) ? LEDS_LED3 : LEDS_LED4));
     564:	b2 2e       	mov	r11, r18
     566:	33 c0       	rjmp	.+102    	; 0x5ce <ProcessMouseReport+0x11e>
     568:	c0 97       	sbiw	r24, 0x30	; 48
     56a:	02 97       	sbiw	r24, 0x02	; 2
		}
		else if ((ReportItem->Attributes.Usage.Page   == USAGE_PAGE_GENERIC_DCTRL) &&
				 ((ReportItem->Attributes.Usage.Usage == USAGE_X)                  ||
     56c:	80 f5       	brcc	.+96     	; 0x5ce <ProcessMouseReport+0x11e>
			int16_t WheelDelta = HID_ALIGN_DATA(ReportItem, int16_t);

			if (WheelDelta)
			  LEDMask = (LEDS_LED1 | LEDS_LED2 | ((WheelDelta > 0) ? LEDS_LED3 : LEDS_LED4));
		}
		else if ((ReportItem->Attributes.Usage.Page   == USAGE_PAGE_GENERIC_DCTRL) &&
     56e:	8a 81       	ldd	r24, Y+2	; 0x02
     570:	81 11       	cpse	r24, r1
				 ((ReportItem->Attributes.Usage.Usage == USAGE_X)                  ||
				  (ReportItem->Attributes.Usage.Usage == USAGE_Y))                 &&
     572:	2d c0       	rjmp	.+90     	; 0x5ce <ProcessMouseReport+0x11e>
     574:	be 01       	movw	r22, r28
     576:	c6 01       	movw	r24, r12
				 (ReportItem->ItemType                == HID_REPORT_ITEM_In))
		{
			/* Get the mouse relative position value */
			FoundData = USB_GetHIDReportItemInfo(MouseReport, ReportItem);
     578:	46 d5       	rcall	.+2700   	; 0x1006 <USB_GetHIDReportItemInfo>
     57a:	88 23       	and	r24, r24
     57c:	41 f1       	breq	.+80     	; 0x5ce <ProcessMouseReport+0x11e>
     57e:	88 85       	ldd	r24, Y+8	; 0x08

			/* For multi-report devices - if the requested data was not in the issued report, continue */
			if (!(FoundData))
     580:	98 01       	movw	r18, r16
     582:	28 1b       	sub	r18, r24
			  continue;

			int16_t DeltaMovement = HID_ALIGN_DATA(ReportItem, int16_t);
     584:	31 09       	sbc	r19, r1
     586:	4a a1       	ldd	r20, Y+34	; 0x22
     588:	5b a1       	ldd	r21, Y+35	; 0x23
     58a:	6c a1       	ldd	r22, Y+36	; 0x24
     58c:	7d a1       	ldd	r23, Y+37	; 0x25
     58e:	02 2e       	mov	r0, r18
     590:	04 c0       	rjmp	.+8      	; 0x59a <ProcessMouseReport+0xea>
     592:	44 0f       	add	r20, r20
     594:	55 1f       	adc	r21, r21
     596:	66 1f       	adc	r22, r22
     598:	77 1f       	adc	r23, r23
     59a:	0a 94       	dec	r0
     59c:	d2 f7       	brpl	.-12     	; 0x592 <ProcessMouseReport+0xe2>
     59e:	41 15       	cp	r20, r1
     5a0:	51 05       	cpc	r21, r1
     5a2:	a9 f0       	breq	.+42     	; 0x5ce <ProcessMouseReport+0x11e>

			/* Check to see if a (non-zero) delta movement has been indicated */
			if (DeltaMovement)
     5a4:	8b 85       	ldd	r24, Y+11	; 0x0b
     5a6:	9c 85       	ldd	r25, Y+12	; 0x0c
     5a8:	c0 97       	sbiw	r24, 0x30	; 48
			{
				/* Determine if the report is for the X or Y delta movement, light LEDs as appropriate */
				if (ReportItem->Attributes.Usage.Usage == USAGE_X)
     5aa:	39 f4       	brne	.+14     	; 0x5ba <ProcessMouseReport+0x10a>
     5ac:	14 16       	cp	r1, r20
     5ae:	15 06       	cpc	r1, r21
     5b0:	14 f4       	brge	.+4      	; 0x5b6 <ProcessMouseReport+0x106>
				  LEDMask |= ((DeltaMovement > 0) ? LEDS_LED1 : LEDS_LED2);
     5b2:	80 e1       	ldi	r24, 0x10	; 16
     5b4:	08 c0       	rjmp	.+16     	; 0x5c6 <ProcessMouseReport+0x116>
     5b6:	80 e2       	ldi	r24, 0x20	; 32
     5b8:	06 c0       	rjmp	.+12     	; 0x5c6 <ProcessMouseReport+0x116>
     5ba:	14 16       	cp	r1, r20
     5bc:	15 06       	cpc	r1, r21
     5be:	14 f4       	brge	.+4      	; 0x5c4 <ProcessMouseReport+0x114>
				else
				  LEDMask |= ((DeltaMovement > 0) ? LEDS_LED3 : LEDS_LED4);
     5c0:	80 e8       	ldi	r24, 0x80	; 128
     5c2:	01 c0       	rjmp	.+2      	; 0x5c6 <ProcessMouseReport+0x116>
     5c4:	80 e4       	ldi	r24, 0x40	; 64
     5c6:	b8 2a       	or	r11, r24
     5c8:	02 c0       	rjmp	.+4      	; 0x5ce <ProcessMouseReport+0x11e>
     5ca:	80 e7       	ldi	r24, 0x70	; 112
     5cc:	b8 2e       	mov	r11, r24
     5ce:	f3 94       	inc	r15
			  continue;

			int16_t WheelDelta = HID_ALIGN_DATA(ReportItem, int16_t);

			if (WheelDelta)
			  LEDMask = (LEDS_LED1 | LEDS_LED2 | ((WheelDelta > 0) ? LEDS_LED3 : LEDS_LED4));
     5d0:	7f cf       	rjmp	.-258    	; 0x4d0 <ProcessMouseReport+0x20>
     5d2:	8b 2d       	mov	r24, r11
void ProcessMouseReport(uint8_t* MouseReport)
{
	uint8_t LEDMask = LEDS_NO_LEDS;

	/* Check each HID report item in turn, looking for mouse X/Y/button reports */
	for (uint8_t ReportNumber = 0; ReportNumber < HIDReportInfo.TotalReportItems; ReportNumber++)
     5d4:	df 91       	pop	r29
     5d6:	cf 91       	pop	r28
			}
		}
	}

	/* Display the button information on the board LEDs */
	LEDs_SetAllLEDs(LEDMask);
     5d8:	1f 91       	pop	r17
}
     5da:	0f 91       	pop	r16
     5dc:	ff 90       	pop	r15
     5de:	ef 90       	pop	r14
     5e0:	df 90       	pop	r13
     5e2:	cf 90       	pop	r12
     5e4:	bf 90       	pop	r11
     5e6:	8f ce       	rjmp	.-738    	; 0x306 <LEDs_SetAllLEDs>

000005e8 <MouseHost_Task>:
     5e8:	ef 92       	push	r14
     5ea:	ff 92       	push	r15
			}
		}
	}

	/* Display the button information on the board LEDs */
	LEDs_SetAllLEDs(LEDMask);
     5ec:	0f 93       	push	r16
     5ee:	1f 93       	push	r17

/** Task to read and process the HID report descriptor and HID reports from the device and display the
 *  results onto the board LEDs.
 */
void MouseHost_Task(void)
{
     5f0:	cf 93       	push	r28
     5f2:	df 93       	push	r29
     5f4:	cd b7       	in	r28, 0x3d	; 61
     5f6:	de b7       	in	r29, 0x3e	; 62
		Pipe_ClearIN();
	}

	/* Freeze mouse data pipe */
	Pipe_Freeze();
}
     5f8:	ed b6       	in	r14, 0x3d	; 61
     5fa:	fe b6       	in	r15, 0x3e	; 62
/** Task to read and process the HID report descriptor and HID reports from the device and display the
 *  results onto the board LEDs.
 */
void MouseHost_Task(void)
{
	if (USB_HostState != HOST_STATE_Configured)
     5fc:	80 91 fa 04 	lds	r24, 0x04FA
     600:	8b 30       	cpi	r24, 0x0B	; 11
     602:	d1 f5       	brne	.+116    	; 0x678 <MouseHost_Task+0x90>
			 *  \param[in] Address  Address of the pipe to select.
			 */
			static inline void Pipe_SelectPipe(const uint8_t Address) ATTR_ALWAYS_INLINE;
			static inline void Pipe_SelectPipe(const uint8_t Address)
			{
				UPNUM = (Address & PIPE_PIPENUM_MASK);
     604:	81 e0       	ldi	r24, 0x01	; 1
     606:	80 93 a7 00 	sts	0x00A7, r24

			/** Unfreezes the selected pipe, allowing it to communicate with an attached device. */
			static inline void Pipe_Unfreeze(void) ATTR_ALWAYS_INLINE;
			static inline void Pipe_Unfreeze(void)
			{
				UPCONX &= ~(1 << PFREEZE);
     60a:	80 91 a9 00 	lds	r24, 0x00A9
     60e:	8f 7b       	andi	r24, 0xBF	; 191
     610:	80 93 a9 00 	sts	0x00A9, r24
			 *  \return Boolean \c true if the current pipe has received an IN packet, \c false otherwise.
			 */
			static inline bool Pipe_IsINReceived(void) ATTR_WARN_UNUSED_RESULT ATTR_ALWAYS_INLINE;
			static inline bool Pipe_IsINReceived(void)
			{
				return ((UPINTX & (1 << RXINI)) ? true : false);
     614:	80 91 a6 00 	lds	r24, 0x00A6
	/* Select and unfreeze mouse data pipe */
	Pipe_SelectPipe(MOUSE_DATA_IN_PIPE);
	Pipe_Unfreeze();

	/* Check to see if a packet has been received */
	if (Pipe_IsINReceived())
     618:	80 ff       	sbrs	r24, 0
     61a:	29 c0       	rjmp	.+82     	; 0x66e <MouseHost_Task+0x86>
			 *          on its direction.
			 */
			static inline bool Pipe_IsReadWriteAllowed(void) ATTR_WARN_UNUSED_RESULT ATTR_ALWAYS_INLINE;
			static inline bool Pipe_IsReadWriteAllowed(void)
			{
				return ((UPINTX & (1 << RWAL)) ? true : false);
     61c:	80 91 a6 00 	lds	r24, 0x00A6
	{
		/* Check if data has been received from the attached mouse */
		if (Pipe_IsReadWriteAllowed())
     620:	85 ff       	sbrs	r24, 5
     622:	20 c0       	rjmp	.+64     	; 0x664 <MouseHost_Task+0x7c>
			 *  \return Total number of bytes in the currently selected pipe's FIFO buffer.
			 */
			static inline uint16_t Pipe_BytesInPipe(void) ATTR_WARN_UNUSED_RESULT ATTR_ALWAYS_INLINE;
			static inline uint16_t Pipe_BytesInPipe(void)
			{
				return UPBCX;
     624:	80 91 f6 00 	lds	r24, 0x00F6
     628:	90 91 f7 00 	lds	r25, 0x00F7
		{
			/* Create buffer big enough for the report */
			uint8_t MouseReport[Pipe_BytesInPipe()];
     62c:	2d b7       	in	r18, 0x3d	; 61
     62e:	3e b7       	in	r19, 0x3e	; 62
     630:	28 1b       	sub	r18, r24
     632:	39 0b       	sbc	r19, r25
     634:	0f b6       	in	r0, 0x3f	; 63
     636:	f8 94       	cli
     638:	3e bf       	out	0x3e, r19	; 62
     63a:	0f be       	out	0x3f, r0	; 63
     63c:	2d bf       	out	0x3d, r18	; 61
     63e:	0d b7       	in	r16, 0x3d	; 61
     640:	1e b7       	in	r17, 0x3e	; 62
     642:	0f 5f       	subi	r16, 0xFF	; 255
     644:	1f 4f       	sbci	r17, 0xFF	; 255
     646:	60 91 f6 00 	lds	r22, 0x00F6
     64a:	70 91 f7 00 	lds	r23, 0x00F7

			/* Load in the mouse report */
			Pipe_Read_Stream_LE(MouseReport, Pipe_BytesInPipe(), NULL);
     64e:	40 e0       	ldi	r20, 0x00	; 0
     650:	50 e0       	ldi	r21, 0x00	; 0
     652:	c8 01       	movw	r24, r16
     654:	f7 d6       	rcall	.+3566   	; 0x1444 <Pipe_Read_Stream_LE>
     656:	c8 01       	movw	r24, r16

			/* Process the read in mouse report from the device */
			ProcessMouseReport(MouseReport);
     658:	2b df       	rcall	.-426    	; 0x4b0 <ProcessMouseReport>
     65a:	0f b6       	in	r0, 0x3f	; 63
     65c:	f8 94       	cli
     65e:	fe be       	out	0x3e, r15	; 62
     660:	0f be       	out	0x3f, r0	; 63
     662:	ed be       	out	0x3d, r14	; 61
     664:	80 91 a6 00 	lds	r24, 0x00A6
			 *  \ingroup Group_PipePacketManagement_AVR8
			 */
			static inline void Pipe_ClearIN(void) ATTR_ALWAYS_INLINE;
			static inline void Pipe_ClearIN(void)
			{
				UPINTX &= ~((1 << RXINI) | (1 << FIFOCON));
     668:	8e 77       	andi	r24, 0x7E	; 126
     66a:	80 93 a6 00 	sts	0x00A6, r24
     66e:	80 91 a9 00 	lds	r24, 0x00A9

			/** Freezes the selected pipe, preventing it from communicating with an attached device. */
			static inline void Pipe_Freeze(void) ATTR_ALWAYS_INLINE;
			static inline void Pipe_Freeze(void)
			{
				UPCONX |= (1 << PFREEZE);
     672:	80 64       	ori	r24, 0x40	; 64
     674:	80 93 a9 00 	sts	0x00A9, r24
     678:	0f b6       	in	r0, 0x3f	; 63
     67a:	f8 94       	cli
		Pipe_ClearIN();
	}

	/* Freeze mouse data pipe */
	Pipe_Freeze();
}
     67c:	fe be       	out	0x3e, r15	; 62
     67e:	0f be       	out	0x3f, r0	; 63
     680:	ed be       	out	0x3d, r14	; 61
     682:	df 91       	pop	r29
     684:	cf 91       	pop	r28
     686:	1f 91       	pop	r17
     688:	0f 91       	pop	r16
     68a:	ff 90       	pop	r15
     68c:	ef 90       	pop	r14
     68e:	08 95       	ret

00000690 <main>:
     690:	3f de       	rcall	.-898    	; 0x310 <SetupHardware>
     692:	88 e9       	ldi	r24, 0x98	; 152
 */
int main(void)
{
	SetupHardware();

	puts_P(PSTR(ESC_FG_CYAN "Mouse HID Parser Host Demo running.\r\n" ESC_FG_WHITE));
     694:	92 e0       	ldi	r25, 0x02	; 2
     696:	0e 94 90 0e 	call	0x1d20	; 0x1d20 <puts_P>
     69a:	80 e1       	ldi	r24, 0x10	; 16

	LEDs_SetAllLEDs(LEDMASK_USB_NOTREADY);
     69c:	34 de       	rcall	.-920    	; 0x306 <LEDs_SetAllLEDs>
     69e:	78 94       	sei
     6a0:	a3 df       	rcall	.-186    	; 0x5e8 <MouseHost_Task>
			static inline void GlobalInterruptEnable(void)
			{
				GCC_MEMORY_BARRIER();

				#if (ARCH == ARCH_AVR8)
				sei();
     6a2:	0e 94 27 0e 	call	0x1c4e	; 0x1c4e <USB_USBTask>
	GlobalInterruptEnable();

	for (;;)
	{
		MouseHost_Task();
     6a6:	fc cf       	rjmp	.-8      	; 0x6a0 <main+0x10>

000006a8 <DComp_NextMouseInterface>:
 */
uint8_t DComp_NextMouseInterface(void* CurrentDescriptor)
{
	USB_Descriptor_Header_t* Header = DESCRIPTOR_PCAST(CurrentDescriptor, USB_Descriptor_Header_t);

	if (Header->Type == DTYPE_Interface)
     6a8:	fc 01       	movw	r30, r24
     6aa:	21 81       	ldd	r18, Z+1	; 0x01
     6ac:	24 30       	cpi	r18, 0x04	; 4
     6ae:	29 f4       	brne	.+10     	; 0x6ba <DComp_NextMouseInterface+0x12>
	{
		USB_Descriptor_Interface_t* Interface = DESCRIPTOR_PCAST(CurrentDescriptor, USB_Descriptor_Interface_t);

		/* Check the HID descriptor class, break out if correct class interface found */
		if (Interface->Class == HID_CSCP_HIDClass)
     6b0:	85 81       	ldd	r24, Z+5	; 0x05
     6b2:	83 30       	cpi	r24, 0x03	; 3
     6b4:	11 f4       	brne	.+4      	; 0x6ba <DComp_NextMouseInterface+0x12>
		{
			return DESCRIPTOR_SEARCH_Found;
     6b6:	80 e0       	ldi	r24, 0x00	; 0
     6b8:	08 95       	ret
		}
	}

	return DESCRIPTOR_SEARCH_NotFound;
     6ba:	82 e0       	ldi	r24, 0x02	; 2
}
     6bc:	08 95       	ret

000006be <DComp_NextMouseInterfaceDataEndpoint>:
 */
uint8_t DComp_NextMouseInterfaceDataEndpoint(void* CurrentDescriptor)
{
	USB_Descriptor_Header_t* Header = DESCRIPTOR_PCAST(CurrentDescriptor, USB_Descriptor_Header_t);

	if (Header->Type == DTYPE_Endpoint)
     6be:	fc 01       	movw	r30, r24
     6c0:	81 81       	ldd	r24, Z+1	; 0x01
     6c2:	85 30       	cpi	r24, 0x05	; 5
     6c4:	21 f0       	breq	.+8      	; 0x6ce <DComp_NextMouseInterfaceDataEndpoint+0x10>
	  return DESCRIPTOR_SEARCH_Found;
	else if (Header->Type == DTYPE_Interface)
     6c6:	84 30       	cpi	r24, 0x04	; 4
     6c8:	21 f4       	brne	.+8      	; 0x6d2 <DComp_NextMouseInterfaceDataEndpoint+0x14>
	  return DESCRIPTOR_SEARCH_Fail;
     6ca:	81 e0       	ldi	r24, 0x01	; 1
     6cc:	08 95       	ret
uint8_t DComp_NextMouseInterfaceDataEndpoint(void* CurrentDescriptor)
{
	USB_Descriptor_Header_t* Header = DESCRIPTOR_PCAST(CurrentDescriptor, USB_Descriptor_Header_t);

	if (Header->Type == DTYPE_Endpoint)
	  return DESCRIPTOR_SEARCH_Found;
     6ce:	80 e0       	ldi	r24, 0x00	; 0
     6d0:	08 95       	ret
	else if (Header->Type == DTYPE_Interface)
	  return DESCRIPTOR_SEARCH_Fail;
	else
	  return DESCRIPTOR_SEARCH_NotFound;
     6d2:	82 e0       	ldi	r24, 0x02	; 2
}
     6d4:	08 95       	ret

000006d6 <DComp_NextHID>:
 */
uint8_t DComp_NextHID(void* CurrentDescriptor)
{
	USB_Descriptor_Header_t* Header = DESCRIPTOR_PCAST(CurrentDescriptor, USB_Descriptor_Header_t);

	if (Header->Type == HID_DTYPE_HID)
     6d6:	fc 01       	movw	r30, r24
     6d8:	81 81       	ldd	r24, Z+1	; 0x01
     6da:	81 32       	cpi	r24, 0x21	; 33
     6dc:	11 f4       	brne	.+4      	; 0x6e2 <DComp_NextHID+0xc>
	  return DESCRIPTOR_SEARCH_Found;
     6de:	80 e0       	ldi	r24, 0x00	; 0
     6e0:	08 95       	ret
	else
	  return DESCRIPTOR_SEARCH_NotFound;
     6e2:	82 e0       	ldi	r24, 0x02	; 2
}
     6e4:	08 95       	ret

000006e6 <ProcessConfigurationDescriptor>:
 *  This routine searches for a HID interface descriptor containing at least one Interrupt type IN endpoint and HID descriptor.
 *
 *  \return An error code from the \ref MouseHostWithParser_GetConfigDescriptorDataCodes_t enum.
 */
uint8_t ProcessConfigurationDescriptor(void)
{
     6e6:	cf 92       	push	r12
     6e8:	df 92       	push	r13
     6ea:	ef 92       	push	r14
     6ec:	ff 92       	push	r15
     6ee:	0f 93       	push	r16
     6f0:	1f 93       	push	r17
     6f2:	cf 93       	push	r28
     6f4:	df 93       	push	r29
     6f6:	cd b7       	in	r28, 0x3d	; 61
     6f8:	de b7       	in	r29, 0x3e	; 62
     6fa:	c4 50       	subi	r28, 0x04	; 4
     6fc:	d2 40       	sbci	r29, 0x02	; 2
     6fe:	0f b6       	in	r0, 0x3f	; 63
     700:	f8 94       	cli
     702:	de bf       	out	0x3e, r29	; 62
     704:	0f be       	out	0x3f, r0	; 63
     706:	cd bf       	out	0x3d, r28	; 61
	uint8_t  ConfigDescriptorData[512];
	void*    CurrConfigLocation = ConfigDescriptorData;
     708:	ae 01       	movw	r20, r28
     70a:	4f 5f       	subi	r20, 0xFF	; 255
     70c:	5f 4f       	sbci	r21, 0xFF	; 255
     70e:	cd 5f       	subi	r28, 0xFD	; 253
     710:	dd 4f       	sbci	r29, 0xFD	; 253
     712:	59 83       	std	Y+1, r21	; 0x01
     714:	48 83       	st	Y, r20
     716:	c3 50       	subi	r28, 0x03	; 3
     718:	d2 40       	sbci	r29, 0x02	; 2
	USB_Descriptor_Interface_t* HIDInterface   = NULL;
	USB_HID_Descriptor_HID_t*   HIDDescriptor  = NULL;
	USB_Descriptor_Endpoint_t*  DataINEndpoint = NULL;

	/* Retrieve the entire configuration descriptor into the allocated buffer */
	switch (USB_Host_GetDeviceConfigDescriptor(1, &CurrConfigBytesRem, ConfigDescriptorData, sizeof(ConfigDescriptorData)))
     71a:	20 e0       	ldi	r18, 0x00	; 0
     71c:	32 e0       	ldi	r19, 0x02	; 2
     71e:	be 01       	movw	r22, r28
     720:	6f 5f       	subi	r22, 0xFF	; 255
     722:	7d 4f       	sbci	r23, 0xFD	; 253
     724:	81 e0       	ldi	r24, 0x01	; 1
     726:	0e 94 51 0c 	call	0x18a2	; 0x18a2 <USB_Host_GetDeviceConfigDescriptor>
     72a:	85 30       	cpi	r24, 0x05	; 5
     72c:	09 f4       	brne	.+2      	; 0x730 <ProcessConfigurationDescriptor+0x4a>
     72e:	65 c0       	rjmp	.+202    	; 0x7fa <ProcessConfigurationDescriptor+0x114>
     730:	86 30       	cpi	r24, 0x06	; 6
     732:	21 f0       	breq	.+8      	; 0x73c <ProcessConfigurationDescriptor+0x56>
     734:	88 23       	and	r24, r24
     736:	21 f0       	breq	.+8      	; 0x740 <ProcessConfigurationDescriptor+0x5a>
		case HOST_GETCONFIG_InvalidData:
			return InvalidConfigDataReturned;
		case HOST_GETCONFIG_BuffOverflow:
			return DescriptorTooLarge;
		default:
			return ControlError;
     738:	81 e0       	ldi	r24, 0x01	; 1
     73a:	60 c0       	rjmp	.+192    	; 0x7fc <ProcessConfigurationDescriptor+0x116>
	switch (USB_Host_GetDeviceConfigDescriptor(1, &CurrConfigBytesRem, ConfigDescriptorData, sizeof(ConfigDescriptorData)))
	{
		case HOST_GETCONFIG_Successful:
			break;
		case HOST_GETCONFIG_InvalidData:
			return InvalidConfigDataReturned;
     73c:	83 e0       	ldi	r24, 0x03	; 3
     73e:	5e c0       	rjmp	.+188    	; 0x7fc <ProcessConfigurationDescriptor+0x116>
	USB_Descriptor_Interface_t* HIDInterface   = NULL;
	USB_HID_Descriptor_HID_t*   HIDDescriptor  = NULL;
	USB_Descriptor_Endpoint_t*  DataINEndpoint = NULL;

	/* Retrieve the entire configuration descriptor into the allocated buffer */
	switch (USB_Host_GetDeviceConfigDescriptor(1, &CurrConfigBytesRem, ConfigDescriptorData, sizeof(ConfigDescriptorData)))
     740:	c1 2c       	mov	r12, r1
     742:	d1 2c       	mov	r13, r1
     744:	00 e0       	ldi	r16, 0x00	; 0
     746:	10 e0       	ldi	r17, 0x00	; 0
	}

	while (!(DataINEndpoint))
	{
		/* See if we've found a likely compatible interface, and if there is an endpoint within that interface */
		if (!(HIDInterface) ||
     748:	01 15       	cp	r16, r1
     74a:	11 05       	cpc	r17, r1
     74c:	69 f4       	brne	.+26     	; 0x768 <ProcessConfigurationDescriptor+0x82>
		    USB_GetNextDescriptorComp(&CurrConfigBytesRem, &CurrConfigLocation,
		                              DComp_NextMouseInterfaceDataEndpoint) != DESCRIPTOR_SEARCH_COMP_Found)
		{
			/* Get the next HID interface from the configuration descriptor */
			if (USB_GetNextDescriptorComp(&CurrConfigBytesRem, &CurrConfigLocation,
     74e:	44 e5       	ldi	r20, 0x54	; 84
     750:	53 e0       	ldi	r21, 0x03	; 3
     752:	be 01       	movw	r22, r28
     754:	6d 5f       	subi	r22, 0xFD	; 253
     756:	7d 4f       	sbci	r23, 0xFD	; 253
     758:	ce 01       	movw	r24, r28
     75a:	8f 5f       	subi	r24, 0xFF	; 255
     75c:	9d 4f       	sbci	r25, 0xFD	; 253
     75e:	0e 94 ab 0c 	call	0x1956	; 0x1956 <USB_GetNextDescriptorComp>
     762:	88 23       	and	r24, r24
     764:	81 f0       	breq	.+32     	; 0x786 <ProcessConfigurationDescriptor+0xa0>
     766:	0d c0       	rjmp	.+26     	; 0x782 <ProcessConfigurationDescriptor+0x9c>

	while (!(DataINEndpoint))
	{
		/* See if we've found a likely compatible interface, and if there is an endpoint within that interface */
		if (!(HIDInterface) ||
		    USB_GetNextDescriptorComp(&CurrConfigBytesRem, &CurrConfigLocation,
     768:	4f e5       	ldi	r20, 0x5F	; 95
     76a:	53 e0       	ldi	r21, 0x03	; 3
     76c:	be 01       	movw	r22, r28
     76e:	6d 5f       	subi	r22, 0xFD	; 253
     770:	7d 4f       	sbci	r23, 0xFD	; 253
     772:	ce 01       	movw	r24, r28
     774:	8f 5f       	subi	r24, 0xFF	; 255
     776:	9d 4f       	sbci	r25, 0xFD	; 253
     778:	0e 94 ab 0c 	call	0x1956	; 0x1956 <USB_GetNextDescriptorComp>
	}

	while (!(DataINEndpoint))
	{
		/* See if we've found a likely compatible interface, and if there is an endpoint within that interface */
		if (!(HIDInterface) ||
     77c:	81 11       	cpse	r24, r1
     77e:	e7 cf       	rjmp	.-50     	; 0x74e <ProcessConfigurationDescriptor+0x68>
     780:	1b c0       	rjmp	.+54     	; 0x7b8 <ProcessConfigurationDescriptor+0xd2>
			/* Get the next HID interface from the configuration descriptor */
			if (USB_GetNextDescriptorComp(&CurrConfigBytesRem, &CurrConfigLocation,
										  DComp_NextMouseInterface) != DESCRIPTOR_SEARCH_COMP_Found)
			{
				/* Descriptor not found, error out */
				return NoCompatibleInterfaceFound;
     782:	84 e0       	ldi	r24, 0x04	; 4
     784:	3b c0       	rjmp	.+118    	; 0x7fc <ProcessConfigurationDescriptor+0x116>
			}

			/* Save the interface in case we need to refer back to it later */
			HIDInterface = DESCRIPTOR_PCAST(CurrConfigLocation, USB_Descriptor_Interface_t);
     786:	cd 5f       	subi	r28, 0xFD	; 253
     788:	dd 4f       	sbci	r29, 0xFD	; 253
     78a:	08 81       	ld	r16, Y
     78c:	19 81       	ldd	r17, Y+1	; 0x01
     78e:	c3 50       	subi	r28, 0x03	; 3
     790:	d2 40       	sbci	r29, 0x02	; 2

			/* Get the HID descriptor from the configuration descriptor */
			if (USB_GetNextDescriptorComp(&CurrConfigBytesRem, &CurrConfigLocation,
     792:	4b e6       	ldi	r20, 0x6B	; 107
     794:	53 e0       	ldi	r21, 0x03	; 3
     796:	be 01       	movw	r22, r28
     798:	6d 5f       	subi	r22, 0xFD	; 253
     79a:	7d 4f       	sbci	r23, 0xFD	; 253
     79c:	ce 01       	movw	r24, r28
     79e:	8f 5f       	subi	r24, 0xFF	; 255
     7a0:	9d 4f       	sbci	r25, 0xFD	; 253
     7a2:	0e 94 ab 0c 	call	0x1956	; 0x1956 <USB_GetNextDescriptorComp>
     7a6:	81 11       	cpse	r24, r1
     7a8:	ec cf       	rjmp	.-40     	; 0x782 <ProcessConfigurationDescriptor+0x9c>
				/* Descriptor not found, error out */
				return NoCompatibleInterfaceFound;
			}

			/* Save the HID descriptor for later use */
			HIDDescriptor = DESCRIPTOR_PCAST(CurrConfigLocation, USB_HID_Descriptor_HID_t);
     7aa:	cd 5f       	subi	r28, 0xFD	; 253
     7ac:	dd 4f       	sbci	r29, 0xFD	; 253
     7ae:	c8 80       	ld	r12, Y
     7b0:	d9 80       	ldd	r13, Y+1	; 0x01
     7b2:	c3 50       	subi	r28, 0x03	; 3
     7b4:	d2 40       	sbci	r29, 0x02	; 2

			/* Skip the remainder of the loop as we have not found an endpoint yet */
			continue;
     7b6:	c8 cf       	rjmp	.-112    	; 0x748 <ProcessConfigurationDescriptor+0x62>
		}

		/* Retrieve the endpoint address from the endpoint descriptor */
		USB_Descriptor_Endpoint_t* EndpointData = DESCRIPTOR_PCAST(CurrConfigLocation, USB_Descriptor_Endpoint_t);
     7b8:	cd 5f       	subi	r28, 0xFD	; 253
     7ba:	dd 4f       	sbci	r29, 0xFD	; 253
     7bc:	e8 80       	ld	r14, Y
     7be:	f9 80       	ldd	r15, Y+1	; 0x01
     7c0:	c3 50       	subi	r28, 0x03	; 3
     7c2:	d2 40       	sbci	r29, 0x02	; 2

		/* If the endpoint is a IN type endpoint */
		if ((EndpointData->EndpointAddress & ENDPOINT_DIR_MASK) == ENDPOINT_DIR_IN)
     7c4:	f7 01       	movw	r30, r14
     7c6:	42 81       	ldd	r20, Z+2	; 0x02
     7c8:	47 ff       	sbrs	r20, 7
     7ca:	be cf       	rjmp	.-132    	; 0x748 <ProcessConfigurationDescriptor+0x62>
			return DescriptorTooLarge;
		default:
			return ControlError;
	}

	while (!(DataINEndpoint))
     7cc:	e1 14       	cp	r14, r1
     7ce:	f1 04       	cpc	r15, r1
     7d0:	09 f4       	brne	.+2      	; 0x7d4 <ProcessConfigurationDescriptor+0xee>
     7d2:	ba cf       	rjmp	.-140    	; 0x748 <ProcessConfigurationDescriptor+0x62>
		if ((EndpointData->EndpointAddress & ENDPOINT_DIR_MASK) == ENDPOINT_DIR_IN)
		  DataINEndpoint = EndpointData;
	}

	/* Configure the HID data IN pipe */
	Pipe_ConfigurePipe(MOUSE_DATA_IN_PIPE, EP_TYPE_INTERRUPT, DataINEndpoint->EndpointAddress, DataINEndpoint->EndpointSize, 1);
     7d4:	24 81       	ldd	r18, Z+4	; 0x04
     7d6:	35 81       	ldd	r19, Z+5	; 0x05
     7d8:	01 e0       	ldi	r16, 0x01	; 1
     7da:	63 e0       	ldi	r22, 0x03	; 3
     7dc:	81 e8       	ldi	r24, 0x81	; 129
     7de:	7f d6       	rcall	.+3326   	; 0x14de <Pipe_ConfigurePipe>
     7e0:	f7 01       	movw	r30, r14
	Pipe_SetInterruptPeriod(DataINEndpoint->PollingIntervalMS);
     7e2:	86 81       	ldd	r24, Z+6	; 0x06
     7e4:	80 93 ad 00 	sts	0x00AD, r24
			 *  \param[in] Milliseconds  Number of milliseconds between each pipe poll.
			 */
			static inline void Pipe_SetInterruptPeriod(const uint8_t Milliseconds) ATTR_ALWAYS_INLINE;
			static inline void Pipe_SetInterruptPeriod(const uint8_t Milliseconds)
			{
				UPCFG2X = Milliseconds;
     7e8:	f6 01       	movw	r30, r12

	/* Get the HID report size from the HID report descriptor */
	HIDReportSize = HIDDescriptor->HIDReportLength;
     7ea:	87 81       	ldd	r24, Z+7	; 0x07
     7ec:	90 85       	ldd	r25, Z+8	; 0x08
     7ee:	90 93 ef 04 	sts	0x04EF, r25
     7f2:	80 93 ee 04 	sts	0x04EE, r24
     7f6:	80 e0       	ldi	r24, 0x00	; 0

	/* Valid data found, return success */
	return SuccessfulConfigRead;
     7f8:	01 c0       	rjmp	.+2      	; 0x7fc <ProcessConfigurationDescriptor+0x116>
     7fa:	82 e0       	ldi	r24, 0x02	; 2
		case HOST_GETCONFIG_Successful:
			break;
		case HOST_GETCONFIG_InvalidData:
			return InvalidConfigDataReturned;
		case HOST_GETCONFIG_BuffOverflow:
			return DescriptorTooLarge;
     7fc:	cc 5f       	subi	r28, 0xFC	; 252
	/* Get the HID report size from the HID report descriptor */
	HIDReportSize = HIDDescriptor->HIDReportLength;

	/* Valid data found, return success */
	return SuccessfulConfigRead;
}
     7fe:	dd 4f       	sbci	r29, 0xFD	; 253
     800:	0f b6       	in	r0, 0x3f	; 63
     802:	f8 94       	cli
     804:	de bf       	out	0x3e, r29	; 62
     806:	0f be       	out	0x3f, r0	; 63
     808:	cd bf       	out	0x3d, r28	; 61
     80a:	df 91       	pop	r29
     80c:	cf 91       	pop	r28
     80e:	1f 91       	pop	r17
     810:	0f 91       	pop	r16
     812:	ff 90       	pop	r15
     814:	ef 90       	pop	r14
     816:	df 90       	pop	r13
     818:	cf 90       	pop	r12
     81a:	08 95       	ret

0000081c <GetHIDReportData>:
 *  structures via the HID parser routines in the LUFA library.
 *
 *  \return  A value from the \ref MouseHostWithParser_GetHIDReportDataCodes_t enum
 */
uint8_t GetHIDReportData(void)
{
     81c:	ef 92       	push	r14
     81e:	ff 92       	push	r15
     820:	0f 93       	push	r16
     822:	1f 93       	push	r17
     824:	cf 93       	push	r28
     826:	df 93       	push	r29
     828:	cd b7       	in	r28, 0x3d	; 61
     82a:	de b7       	in	r29, 0x3e	; 62
	/* Send the HID report to the parser for processing */
	if (USB_ProcessHIDReport(HIDReportData, HIDReportSize, &HIDReportInfo) != HID_PARSE_Successful)
	  return ParseError;

	return ParseSuccessful;
}
     82c:	ed b6       	in	r14, 0x3d	; 61
     82e:	fe b6       	in	r15, 0x3e	; 62
 *  \return  A value from the \ref MouseHostWithParser_GetHIDReportDataCodes_t enum
 */
uint8_t GetHIDReportData(void)
{
	/* Create a buffer big enough to hold the entire returned HID report */
	uint8_t HIDReportData[HIDReportSize];
     830:	80 91 ee 04 	lds	r24, 0x04EE
     834:	90 91 ef 04 	lds	r25, 0x04EF
     838:	2d b7       	in	r18, 0x3d	; 61
     83a:	3e b7       	in	r19, 0x3e	; 62
     83c:	28 1b       	sub	r18, r24
     83e:	39 0b       	sbc	r19, r25
     840:	0f b6       	in	r0, 0x3f	; 63
     842:	f8 94       	cli
     844:	3e bf       	out	0x3e, r19	; 62
     846:	0f be       	out	0x3f, r0	; 63
     848:	2d bf       	out	0x3d, r18	; 61
     84a:	0d b7       	in	r16, 0x3d	; 61
     84c:	1e b7       	in	r17, 0x3e	; 62
     84e:	0f 5f       	subi	r16, 0xFF	; 255
     850:	1f 4f       	sbci	r17, 0xFF	; 255

	USB_ControlRequest = (USB_Request_Header_t)
     852:	21 e8       	ldi	r18, 0x81	; 129
     854:	20 93 f2 04 	sts	0x04F2, r18
     858:	26 e0       	ldi	r18, 0x06	; 6
     85a:	20 93 f3 04 	sts	0x04F3, r18
     85e:	20 e0       	ldi	r18, 0x00	; 0
     860:	32 e2       	ldi	r19, 0x22	; 34
     862:	30 93 f5 04 	sts	0x04F5, r19
     866:	20 93 f4 04 	sts	0x04F4, r18
     86a:	10 92 f7 04 	sts	0x04F7, r1
     86e:	10 92 f6 04 	sts	0x04F6, r1
     872:	90 93 f9 04 	sts	0x04F9, r25
     876:	80 93 f8 04 	sts	0x04F8, r24
			 *  \param[in] Address  Address of the pipe to select.
			 */
			static inline void Pipe_SelectPipe(const uint8_t Address) ATTR_ALWAYS_INLINE;
			static inline void Pipe_SelectPipe(const uint8_t Address)
			{
				UPNUM = (Address & PIPE_PIPENUM_MASK);
     87a:	10 92 a7 00 	sts	0x00A7, r1

	/* Select the control pipe for the request transfer */
	Pipe_SelectPipe(PIPE_CONTROLPIPE);

	/* Send control request to retrieve the HID report from the attached device */
	if (USB_Host_SendControlRequest(HIDReportData) != HOST_SENDCONTROL_Successful)
     87e:	c8 01       	movw	r24, r16
     880:	0e 94 05 0d 	call	0x1a0a	; 0x1a0a <USB_Host_SendControlRequest>
     884:	81 11       	cpse	r24, r1
     886:	0d c0       	rjmp	.+26     	; 0x8a2 <GetHIDReportData+0x86>
	  return ParseControlError;

	/* Send the HID report to the parser for processing */
	if (USB_ProcessHIDReport(HIDReportData, HIDReportSize, &HIDReportInfo) != HID_PARSE_Successful)
     888:	60 91 ee 04 	lds	r22, 0x04EE
     88c:	70 91 ef 04 	lds	r23, 0x04EF
     890:	45 e1       	ldi	r20, 0x15	; 21
     892:	51 e0       	ldi	r21, 0x01	; 1
     894:	c8 01       	movw	r24, r16
     896:	32 d0       	rcall	.+100    	; 0x8fc <USB_ProcessHIDReport>
     898:	91 e0       	ldi	r25, 0x01	; 1
     89a:	81 11       	cpse	r24, r1
     89c:	03 c0       	rjmp	.+6      	; 0x8a4 <GetHIDReportData+0x88>
     89e:	90 e0       	ldi	r25, 0x00	; 0
     8a0:	01 c0       	rjmp	.+2      	; 0x8a4 <GetHIDReportData+0x88>
     8a2:	92 e0       	ldi	r25, 0x02	; 2
	/* Select the control pipe for the request transfer */
	Pipe_SelectPipe(PIPE_CONTROLPIPE);

	/* Send control request to retrieve the HID report from the attached device */
	if (USB_Host_SendControlRequest(HIDReportData) != HOST_SENDCONTROL_Successful)
	  return ParseControlError;
     8a4:	89 2f       	mov	r24, r25
	/* Send the HID report to the parser for processing */
	if (USB_ProcessHIDReport(HIDReportData, HIDReportSize, &HIDReportInfo) != HID_PARSE_Successful)
	  return ParseError;

	return ParseSuccessful;
}
     8a6:	0f b6       	in	r0, 0x3f	; 63
     8a8:	f8 94       	cli
     8aa:	fe be       	out	0x3e, r15	; 62
     8ac:	0f be       	out	0x3f, r0	; 63
     8ae:	ed be       	out	0x3d, r14	; 61
     8b0:	df 91       	pop	r29
     8b2:	cf 91       	pop	r28
     8b4:	1f 91       	pop	r17
     8b6:	0f 91       	pop	r16
     8b8:	ff 90       	pop	r15
     8ba:	ef 90       	pop	r14
     8bc:	08 95       	ret

000008be <CALLBACK_HIDParser_FilterHIDReportItem>:
     8be:	dc 01       	movw	r26, r24

	/* Iterate through the item's collection path, until either the root collection node or a collection with the
	 * Mouse Usage is found - this prevents Joysticks, which use identical descriptors except for the Joystick usage
	 * parent node, from being erroneously treated as a mouse
	 */
	for (HID_CollectionPath_t* CurrPath = CurrentItem->CollectionPath; CurrPath != NULL; CurrPath = CurrPath->Parent)
     8c0:	16 96       	adiw	r26, 0x06	; 6
     8c2:	ed 91       	ld	r30, X+
     8c4:	fc 91       	ld	r31, X
     8c6:	17 97       	sbiw	r26, 0x07	; 7
     8c8:	30 97       	sbiw	r30, 0x00	; 0
     8ca:	b1 f0       	breq	.+44     	; 0x8f8 <CALLBACK_HIDParser_FilterHIDReportItem+0x3a>
	{
		if ((CurrPath->Usage.Page  == USAGE_PAGE_GENERIC_DCTRL) &&
     8cc:	21 81       	ldd	r18, Z+1	; 0x01
     8ce:	32 81       	ldd	r19, Z+2	; 0x02
     8d0:	21 30       	cpi	r18, 0x01	; 1
     8d2:	31 05       	cpc	r19, r1
     8d4:	29 f4       	brne	.+10     	; 0x8e0 <CALLBACK_HIDParser_FilterHIDReportItem+0x22>
     8d6:	23 81       	ldd	r18, Z+3	; 0x03
     8d8:	34 81       	ldd	r19, Z+4	; 0x04
     8da:	22 30       	cpi	r18, 0x02	; 2
     8dc:	31 05       	cpc	r19, r1
     8de:	21 f0       	breq	.+8      	; 0x8e8 <CALLBACK_HIDParser_FilterHIDReportItem+0x2a>

	/* Iterate through the item's collection path, until either the root collection node or a collection with the
	 * Mouse Usage is found - this prevents Joysticks, which use identical descriptors except for the Joystick usage
	 * parent node, from being erroneously treated as a mouse
	 */
	for (HID_CollectionPath_t* CurrPath = CurrentItem->CollectionPath; CurrPath != NULL; CurrPath = CurrPath->Parent)
     8e0:	05 80       	ldd	r0, Z+5	; 0x05
     8e2:	f6 81       	ldd	r31, Z+6	; 0x06
     8e4:	e0 2d       	mov	r30, r0
     8e6:	f0 cf       	rjmp	.-32     	; 0x8c8 <CALLBACK_HIDParser_FilterHIDReportItem+0xa>

	/* Check the attributes of the current mouse item - see if we are interested in it or not;
	 * only store BUTTON and GENERIC_DESKTOP_CONTROL items into the Processed HID Report
	 * structure to save RAM and ignore the rest
	 */
	return ((CurrentItem->Attributes.Usage.Page == USAGE_PAGE_BUTTON) ||
     8e8:	fc 01       	movw	r30, r24
     8ea:	21 85       	ldd	r18, Z+9	; 0x09
     8ec:	32 85       	ldd	r19, Z+10	; 0x0a
     8ee:	27 7f       	andi	r18, 0xF7	; 247
     8f0:	81 e0       	ldi	r24, 0x01	; 1
     8f2:	21 30       	cpi	r18, 0x01	; 1
     8f4:	31 05       	cpc	r19, r1
     8f6:	09 f0       	breq	.+2      	; 0x8fa <CALLBACK_HIDParser_FilterHIDReportItem+0x3c>
     8f8:	80 e0       	ldi	r24, 0x00	; 0
	        (CurrentItem->Attributes.Usage.Page == USAGE_PAGE_GENERIC_DCTRL));
}
     8fa:	08 95       	ret

000008fc <USB_ProcessHIDReport>:
#include "HIDParser.h"

uint8_t USB_ProcessHIDReport(const uint8_t* ReportData,
                             uint16_t ReportSize,
                             HID_ReportInfo_t* const ParserData)
{
     8fc:	2f 92       	push	r2
     8fe:	3f 92       	push	r3
     900:	4f 92       	push	r4
     902:	5f 92       	push	r5
     904:	6f 92       	push	r6
     906:	7f 92       	push	r7
     908:	8f 92       	push	r8
     90a:	9f 92       	push	r9
     90c:	af 92       	push	r10
     90e:	bf 92       	push	r11
     910:	cf 92       	push	r12
     912:	df 92       	push	r13
     914:	ef 92       	push	r14
     916:	ff 92       	push	r15
     918:	0f 93       	push	r16
     91a:	1f 93       	push	r17
     91c:	cf 93       	push	r28
     91e:	df 93       	push	r29
     920:	cd b7       	in	r28, 0x3d	; 61
     922:	de b7       	in	r29, 0x3e	; 62
     924:	cd 58       	subi	r28, 0x8D	; 141
     926:	d1 09       	sbc	r29, r1
     928:	0f b6       	in	r0, 0x3f	; 63
     92a:	f8 94       	cli
     92c:	de bf       	out	0x3e, r29	; 62
     92e:	0f be       	out	0x3f, r0	; 63
     930:	cd bf       	out	0x3d, r28	; 61
     932:	1c 01       	movw	r2, r24
	HID_StateTable_t      StateTable[HID_STATETABLE_STACK_DEPTH];
	HID_StateTable_t*     CurrStateTable     = &StateTable[0];
	HID_CollectionPath_t* CurrCollectionPath = NULL;
	HID_ReportSizeInfo_t* CurrReportIDInfo   = &ParserData->ReportIDSizes[0];
     934:	9a 01       	movw	r18, r20
     936:	20 57       	subi	r18, 0x70	; 112
     938:	3c 4f       	sbci	r19, 0xFC	; 252
     93a:	e8 96       	adiw	r28, 0x38	; 56
     93c:	3f af       	std	Y+63, r19	; 0x3f
     93e:	2e af       	std	Y+62, r18	; 0x3e
     940:	e8 97       	sbiw	r28, 0x38	; 56
	uint16_t              UsageList[HID_USAGE_STACK_DEPTH];
	uint8_t               UsageListSize      = 0;
	HID_MinMax_t          UsageMinMax        = {0, 0};

	memset(ParserData,       0x00, sizeof(HID_ReportInfo_t));
     942:	89 ed       	ldi	r24, 0xD9	; 217
     944:	93 e0       	ldi	r25, 0x03	; 3
     946:	da 01       	movw	r26, r20
     948:	fc 01       	movw	r30, r24
     94a:	1d 92       	st	X+, r1
     94c:	31 97       	sbiw	r30, 0x01	; 1
     94e:	e9 f7       	brne	.-6      	; 0x94a <USB_ProcessHIDReport+0x4e>
	memset(CurrStateTable,   0x00, sizeof(HID_StateTable_t));
     950:	fe 01       	movw	r30, r28
     952:	31 96       	adiw	r30, 0x01	; 1
     954:	8c e1       	ldi	r24, 0x1C	; 28
     956:	df 01       	movw	r26, r30
     958:	1d 92       	st	X+, r1
     95a:	8a 95       	dec	r24
     95c:	e9 f7       	brne	.-6      	; 0x958 <USB_ProcessHIDReport+0x5c>
	memset(CurrReportIDInfo, 0x00, sizeof(HID_ReportSizeInfo_t));
     95e:	87 e0       	ldi	r24, 0x07	; 7
     960:	d9 01       	movw	r26, r18
     962:	1d 92       	st	X+, r1
     964:	8a 95       	dec	r24
     966:	e9 f7       	brne	.-6      	; 0x962 <USB_ProcessHIDReport+0x66>

	ParserData->TotalDeviceReports = 1;
     968:	9a 01       	movw	r18, r20
     96a:	21 57       	subi	r18, 0x71	; 113
     96c:	3c 4f       	sbci	r19, 0xFC	; 252
     96e:	eb 96       	adiw	r28, 0x3b	; 59
     970:	3f af       	std	Y+63, r19	; 0x3f
     972:	2e af       	std	Y+62, r18	; 0x3e
     974:	eb 97       	sbiw	r28, 0x3b	; 59
     976:	81 e0       	ldi	r24, 0x01	; 1
     978:	d9 01       	movw	r26, r18
     97a:	8c 93       	st	X, r24
	HID_StateTable_t*     CurrStateTable     = &StateTable[0];
	HID_CollectionPath_t* CurrCollectionPath = NULL;
	HID_ReportSizeInfo_t* CurrReportIDInfo   = &ParserData->ReportIDSizes[0];
	uint16_t              UsageList[HID_USAGE_STACK_DEPTH];
	uint8_t               UsageListSize      = 0;
	HID_MinMax_t          UsageMinMax        = {0, 0};
     97c:	41 2c       	mov	r4, r1
     97e:	51 2c       	mov	r5, r1
     980:	32 01       	movw	r6, r4
     982:	81 2c       	mov	r8, r1
     984:	91 2c       	mov	r9, r1
     986:	54 01       	movw	r10, r8
	HID_StateTable_t      StateTable[HID_STATETABLE_STACK_DEPTH];
	HID_StateTable_t*     CurrStateTable     = &StateTable[0];
	HID_CollectionPath_t* CurrCollectionPath = NULL;
	HID_ReportSizeInfo_t* CurrReportIDInfo   = &ParserData->ReportIDSizes[0];
	uint16_t              UsageList[HID_USAGE_STACK_DEPTH];
	uint8_t               UsageListSize      = 0;
     988:	e4 96       	adiw	r28, 0x34	; 52
     98a:	1f ae       	std	Y+63, r1	; 0x3f
     98c:	e4 97       	sbiw	r28, 0x34	; 52
                             uint16_t ReportSize,
                             HID_ReportInfo_t* const ParserData)
{
	HID_StateTable_t      StateTable[HID_STATETABLE_STACK_DEPTH];
	HID_StateTable_t*     CurrStateTable     = &StateTable[0];
	HID_CollectionPath_t* CurrCollectionPath = NULL;
     98e:	e6 96       	adiw	r28, 0x36	; 54
     990:	1f ae       	std	Y+63, r1	; 0x3f
     992:	1e ae       	std	Y+62, r1	; 0x3e
     994:	e6 97       	sbiw	r28, 0x36	; 54
uint8_t USB_ProcessHIDReport(const uint8_t* ReportData,
                             uint16_t ReportSize,
                             HID_ReportInfo_t* const ParserData)
{
	HID_StateTable_t      StateTable[HID_STATETABLE_STACK_DEPTH];
	HID_StateTable_t*     CurrStateTable     = &StateTable[0];
     996:	8f 01       	movw	r16, r30

					NewReportItem.BitOffset = CurrReportIDInfo->ReportSizeBits[NewReportItem.ItemType];

					CurrReportIDInfo->ReportSizeBits[NewReportItem.ItemType] += CurrStateTable->Attributes.BitSize;

					ParserData->LargestReportSizeBits = MAX(ParserData->LargestReportSizeBits, CurrReportIDInfo->ReportSizeBits[NewReportItem.ItemType]);
     998:	9a 01       	movw	r18, r20
     99a:	2a 52       	subi	r18, 0x2A	; 42
     99c:	3c 4f       	sbci	r19, 0xFC	; 252
     99e:	ed 96       	adiw	r28, 0x3d	; 61
     9a0:	3f af       	std	Y+63, r19	; 0x3f
     9a2:	2e af       	std	Y+62, r18	; 0x3e
     9a4:	ed 97       	sbiw	r28, 0x3d	; 61

					CurrCollectionPath = &ParserData->CollectionPaths[1];

					while (CurrCollectionPath->Parent != NULL)
					{
						if (CurrCollectionPath == &ParserData->CollectionPaths[HID_MAX_COLLECTIONS - 1])
     9a6:	9a 01       	movw	r18, r20
     9a8:	28 57       	subi	r18, 0x78	; 120
     9aa:	3c 4f       	sbci	r19, 0xFC	; 252
     9ac:	cd 57       	subi	r28, 0x7D	; 125
     9ae:	df 4f       	sbci	r29, 0xFF	; 255
     9b0:	39 83       	std	Y+1, r19	; 0x01
     9b2:	28 83       	st	Y, r18
     9b4:	c3 58       	subi	r28, 0x83	; 131
     9b6:	d0 40       	sbci	r29, 0x00	; 0
				break;

			case HID_RI_REPORT_ID(0):
				CurrStateTable->ReportID                    = ReportItemData;

				if (ParserData->UsingReportIDs)
     9b8:	9a 01       	movw	r18, r20
     9ba:	28 52       	subi	r18, 0x28	; 40
     9bc:	3c 4f       	sbci	r19, 0xFC	; 252
     9be:	ef 96       	adiw	r28, 0x3f	; 63
     9c0:	3f af       	std	Y+63, r19	; 0x3f
     9c2:	2e af       	std	Y+62, r18	; 0x3e
     9c4:	ef 97       	sbiw	r28, 0x3f	; 63
				{
					CurrReportIDInfo = NULL;

					for (uint8_t i = 0; i < ParserData->TotalDeviceReports; i++)
     9c6:	cb 57       	subi	r28, 0x7B	; 123
     9c8:	df 4f       	sbci	r29, 0xFF	; 255
     9ca:	b9 83       	std	Y+1, r27	; 0x01
     9cc:	a8 83       	st	Y, r26
     9ce:	c5 58       	subi	r28, 0x85	; 133
     9d0:	d0 40       	sbci	r29, 0x00	; 0
	memset(CurrStateTable,   0x00, sizeof(HID_StateTable_t));
	memset(CurrReportIDInfo, 0x00, sizeof(HID_ReportSizeInfo_t));

	ParserData->TotalDeviceReports = 1;

	while (ReportSize)
     9d2:	61 15       	cp	r22, r1
     9d4:	71 05       	cpc	r23, r1
     9d6:	09 f4       	brne	.+2      	; 0x9da <USB_ProcessHIDReport+0xde>
     9d8:	e9 c2       	rjmp	.+1490   	; 0xfac <USB_ProcessHIDReport+0x6b0>
	{
		uint8_t  HIDReportItem  = *ReportData;
     9da:	d1 01       	movw	r26, r2
     9dc:	bc 91       	ld	r27, X
     9de:	e9 96       	adiw	r28, 0x39	; 57
     9e0:	bf af       	std	Y+63, r27	; 0x3f
     9e2:	e9 97       	sbiw	r28, 0x39	; 57
		uint32_t ReportItemData;

		ReportData++;
		ReportSize--;

		switch (HIDReportItem & HID_RI_DATA_SIZE_MASK)
     9e4:	8b 2f       	mov	r24, r27
     9e6:	83 70       	andi	r24, 0x03	; 3
     9e8:	82 30       	cpi	r24, 0x02	; 2
     9ea:	81 f1       	breq	.+96     	; 0xa4c <USB_ProcessHIDReport+0x150>
     9ec:	83 30       	cpi	r24, 0x03	; 3
     9ee:	59 f0       	breq	.+22     	; 0xa06 <USB_ProcessHIDReport+0x10a>
     9f0:	81 30       	cpi	r24, 0x01	; 1
     9f2:	d9 f1       	breq	.+118    	; 0xa6a <USB_ProcessHIDReport+0x16e>
	while (ReportSize)
	{
		uint8_t  HIDReportItem  = *ReportData;
		uint32_t ReportItemData;

		ReportData++;
     9f4:	ef ef       	ldi	r30, 0xFF	; 255
     9f6:	2e 1a       	sub	r2, r30
     9f8:	3e 0a       	sbc	r3, r30
		ReportSize--;
     9fa:	61 50       	subi	r22, 0x01	; 1
     9fc:	71 09       	sbc	r23, r1
				ReportSize     -= 1;
				ReportData     += 1;
				break;

			default:
				ReportItemData  = 0;
     9fe:	c1 2c       	mov	r12, r1
     a00:	d1 2c       	mov	r13, r1
     a02:	76 01       	movw	r14, r12
     a04:	3d c0       	rjmp	.+122    	; 0xa80 <USB_ProcessHIDReport+0x184>
		ReportSize--;

		switch (HIDReportItem & HID_RI_DATA_SIZE_MASK)
		{
			case HID_RI_DATA_BITS_32:
				ReportItemData  = (((uint32_t)ReportData[3] << 24) | ((uint32_t)ReportData[2] << 16) |
     a06:	d1 01       	movw	r26, r2
     a08:	14 96       	adiw	r26, 0x04	; 4
     a0a:	8c 91       	ld	r24, X
     a0c:	14 97       	sbiw	r26, 0x04	; 4
     a0e:	13 96       	adiw	r26, 0x03	; 3
     a10:	cc 90       	ld	r12, X
     a12:	13 97       	sbiw	r26, 0x03	; 3
     a14:	d1 2c       	mov	r13, r1
     a16:	e1 2c       	mov	r14, r1
     a18:	f1 2c       	mov	r15, r1
     a1a:	76 01       	movw	r14, r12
     a1c:	dd 24       	eor	r13, r13
     a1e:	cc 24       	eor	r12, r12
     a20:	f8 2a       	or	r15, r24
			                       ((uint16_t)ReportData[1] << 8)  | ReportData[0]);
     a22:	11 96       	adiw	r26, 0x01	; 1
     a24:	8c 91       	ld	r24, X
     a26:	11 97       	sbiw	r26, 0x01	; 1
		ReportSize--;

		switch (HIDReportItem & HID_RI_DATA_SIZE_MASK)
		{
			case HID_RI_DATA_BITS_32:
				ReportItemData  = (((uint32_t)ReportData[3] << 24) | ((uint32_t)ReportData[2] << 16) |
     a28:	c8 2a       	or	r12, r24
			                       ((uint16_t)ReportData[1] << 8)  | ReportData[0]);
     a2a:	12 96       	adiw	r26, 0x02	; 2
     a2c:	8c 91       	ld	r24, X
     a2e:	90 e0       	ldi	r25, 0x00	; 0
     a30:	98 2f       	mov	r25, r24
     a32:	88 27       	eor	r24, r24
		ReportSize--;

		switch (HIDReportItem & HID_RI_DATA_SIZE_MASK)
		{
			case HID_RI_DATA_BITS_32:
				ReportItemData  = (((uint32_t)ReportData[3] << 24) | ((uint32_t)ReportData[2] << 16) |
     a34:	a0 e0       	ldi	r26, 0x00	; 0
     a36:	b0 e0       	ldi	r27, 0x00	; 0
     a38:	c8 2a       	or	r12, r24
     a3a:	d9 2a       	or	r13, r25
     a3c:	ea 2a       	or	r14, r26
     a3e:	fb 2a       	or	r15, r27
			                       ((uint16_t)ReportData[1] << 8)  | ReportData[0]);
				ReportSize     -= 4;
     a40:	65 50       	subi	r22, 0x05	; 5
     a42:	71 09       	sbc	r23, r1
				ReportData     += 4;
     a44:	b5 e0       	ldi	r27, 0x05	; 5
     a46:	2b 0e       	add	r2, r27
     a48:	31 1c       	adc	r3, r1
				break;
     a4a:	1a c0       	rjmp	.+52     	; 0xa80 <USB_ProcessHIDReport+0x184>

			case HID_RI_DATA_BITS_16:
				ReportItemData  = (((uint16_t)ReportData[1] << 8) | (ReportData[0]));
     a4c:	f1 01       	movw	r30, r2
     a4e:	c2 80       	ldd	r12, Z+2	; 0x02
     a50:	d1 2c       	mov	r13, r1
     a52:	dc 2c       	mov	r13, r12
     a54:	cc 24       	eor	r12, r12
     a56:	81 81       	ldd	r24, Z+1	; 0x01
     a58:	c8 2a       	or	r12, r24
     a5a:	e1 2c       	mov	r14, r1
     a5c:	f1 2c       	mov	r15, r1
				ReportSize     -= 2;
     a5e:	63 50       	subi	r22, 0x03	; 3
     a60:	71 09       	sbc	r23, r1
				ReportData     += 2;
     a62:	f3 e0       	ldi	r31, 0x03	; 3
     a64:	2f 0e       	add	r2, r31
     a66:	31 1c       	adc	r3, r1
				break;
     a68:	0b c0       	rjmp	.+22     	; 0xa80 <USB_ProcessHIDReport+0x184>

			case HID_RI_DATA_BITS_8:
				ReportItemData  = ReportData[0];
     a6a:	d1 01       	movw	r26, r2
     a6c:	11 96       	adiw	r26, 0x01	; 1
     a6e:	cc 90       	ld	r12, X
     a70:	d1 2c       	mov	r13, r1
     a72:	e1 2c       	mov	r14, r1
     a74:	f1 2c       	mov	r15, r1
				ReportSize     -= 1;
     a76:	62 50       	subi	r22, 0x02	; 2
     a78:	71 09       	sbc	r23, r1
				ReportData     += 1;
     a7a:	b2 e0       	ldi	r27, 0x02	; 2
     a7c:	2b 0e       	add	r2, r27
     a7e:	31 1c       	adc	r3, r1
			default:
				ReportItemData  = 0;
				break;
		}

		switch (HIDReportItem & (HID_RI_TYPE_MASK | HID_RI_TAG_MASK))
     a80:	e9 96       	adiw	r28, 0x39	; 57
     a82:	2f ad       	ldd	r18, Y+63	; 0x3f
     a84:	e9 97       	sbiw	r28, 0x39	; 57
     a86:	2c 7f       	andi	r18, 0xFC	; 252
     a88:	24 36       	cpi	r18, 0x64	; 100
     a8a:	09 f4       	brne	.+2      	; 0xa8e <USB_ProcessHIDReport+0x192>
     a8c:	96 c0       	rjmp	.+300    	; 0xbba <USB_ProcessHIDReport+0x2be>
     a8e:	68 f5       	brcc	.+90     	; 0xaea <USB_ProcessHIDReport+0x1ee>
     a90:	24 32       	cpi	r18, 0x24	; 36
     a92:	09 f4       	brne	.+2      	; 0xa96 <USB_ProcessHIDReport+0x19a>
     a94:	7c c0       	rjmp	.+248    	; 0xb8e <USB_ProcessHIDReport+0x292>
     a96:	b0 f4       	brcc	.+44     	; 0xac4 <USB_ProcessHIDReport+0x1c8>
     a98:	28 30       	cpi	r18, 0x08	; 8
     a9a:	09 f4       	brne	.+2      	; 0xa9e <USB_ProcessHIDReport+0x1a2>
     a9c:	f4 c0       	rjmp	.+488    	; 0xc86 <USB_ProcessHIDReport+0x38a>
     a9e:	48 f4       	brcc	.+18     	; 0xab2 <USB_ProcessHIDReport+0x1b6>
     aa0:	24 30       	cpi	r18, 0x04	; 4
     aa2:	09 f0       	breq	.+2      	; 0xaa6 <USB_ProcessHIDReport+0x1aa>
     aa4:	73 c2       	rjmp	.+1254   	; 0xf8c <USB_ProcessHIDReport+0x690>

			case HID_RI_USAGE_PAGE(0):
				if ((HIDReportItem & HID_RI_DATA_SIZE_MASK) == HID_RI_DATA_BITS_32)
				  CurrStateTable->Attributes.Usage.Page = (ReportItemData >> 16);

				CurrStateTable->Attributes.Usage.Page       = ReportItemData;
     aa6:	d8 01       	movw	r26, r16
     aa8:	12 96       	adiw	r26, 0x02	; 2
     aaa:	dc 92       	st	X, r13
     aac:	ce 92       	st	-X, r12
     aae:	11 97       	sbiw	r26, 0x01	; 1
				break;
     ab0:	6d c2       	rjmp	.+1242   	; 0xf8c <USB_ProcessHIDReport+0x690>
			default:
				ReportItemData  = 0;
				break;
		}

		switch (HIDReportItem & (HID_RI_TYPE_MASK | HID_RI_TAG_MASK))
     ab2:	24 31       	cpi	r18, 0x14	; 20
     ab4:	09 f4       	brne	.+2      	; 0xab8 <USB_ProcessHIDReport+0x1bc>
     ab6:	65 c0       	rjmp	.+202    	; 0xb82 <USB_ProcessHIDReport+0x286>
     ab8:	28 31       	cpi	r18, 0x18	; 24
     aba:	09 f0       	breq	.+2      	; 0xabe <USB_ProcessHIDReport+0x1c2>
     abc:	67 c2       	rjmp	.+1230   	; 0xf8c <USB_ProcessHIDReport+0x690>
     abe:	46 01       	movw	r8, r12
     ac0:	57 01       	movw	r10, r14
     ac2:	64 c2       	rjmp	.+1224   	; 0xf8c <USB_ProcessHIDReport+0x690>
     ac4:	24 33       	cpi	r18, 0x34	; 52
     ac6:	09 f4       	brne	.+2      	; 0xaca <USB_ProcessHIDReport+0x1ce>
     ac8:	6a c0       	rjmp	.+212    	; 0xb9e <USB_ProcessHIDReport+0x2a2>
     aca:	30 f4       	brcc	.+12     	; 0xad8 <USB_ProcessHIDReport+0x1dc>
     acc:	28 32       	cpi	r18, 0x28	; 40
     ace:	09 f0       	breq	.+2      	; 0xad2 <USB_ProcessHIDReport+0x1d6>
     ad0:	5d c2       	rjmp	.+1210   	; 0xf8c <USB_ProcessHIDReport+0x690>
				UsageMinMax.Minimum = ReportItemData;
				break;

			case HID_RI_USAGE_MAXIMUM(0):
				UsageMinMax.Maximum = ReportItemData;
				break;
     ad2:	26 01       	movw	r4, r12
     ad4:	37 01       	movw	r6, r14
     ad6:	5a c2       	rjmp	.+1204   	; 0xf8c <USB_ProcessHIDReport+0x690>
			default:
				ReportItemData  = 0;
				break;
		}

		switch (HIDReportItem & (HID_RI_TYPE_MASK | HID_RI_TAG_MASK))
     ad8:	24 34       	cpi	r18, 0x44	; 68
     ada:	09 f4       	brne	.+2      	; 0xade <USB_ProcessHIDReport+0x1e2>
     adc:	66 c0       	rjmp	.+204    	; 0xbaa <USB_ProcessHIDReport+0x2ae>
     ade:	24 35       	cpi	r18, 0x54	; 84
     ae0:	09 f0       	breq	.+2      	; 0xae4 <USB_ProcessHIDReport+0x1e8>
     ae2:	54 c2       	rjmp	.+1192   	; 0xf8c <USB_ProcessHIDReport+0x690>
			case HID_RI_PHYSICAL_MAXIMUM(0):
				CurrStateTable->Attributes.Physical.Maximum = ReportItemData;
				break;

			case HID_RI_UNIT_EXPONENT(0):
				CurrStateTable->Attributes.Unit.Exponent    = ReportItemData;
     ae4:	f8 01       	movw	r30, r16
     ae6:	c1 86       	std	Z+9, r12	; 0x09
				break;
     ae8:	51 c2       	rjmp	.+1186   	; 0xf8c <USB_ProcessHIDReport+0x690>
			default:
				ReportItemData  = 0;
				break;
		}

		switch (HIDReportItem & (HID_RI_TYPE_MASK | HID_RI_TAG_MASK))
     aea:	24 39       	cpi	r18, 0x94	; 148
     aec:	09 f4       	brne	.+2      	; 0xaf0 <USB_ProcessHIDReport+0x1f4>
     aee:	6d c0       	rjmp	.+218    	; 0xbca <USB_ProcessHIDReport+0x2ce>
     af0:	78 f4       	brcc	.+30     	; 0xb10 <USB_ProcessHIDReport+0x214>
     af2:	20 38       	cpi	r18, 0x80	; 128
     af4:	e1 f0       	breq	.+56     	; 0xb2e <USB_ProcessHIDReport+0x232>
     af6:	30 f4       	brcc	.+12     	; 0xb04 <USB_ProcessHIDReport+0x208>
     af8:	24 37       	cpi	r18, 0x74	; 116
     afa:	09 f0       	breq	.+2      	; 0xafe <USB_ProcessHIDReport+0x202>
     afc:	47 c2       	rjmp	.+1166   	; 0xf8c <USB_ProcessHIDReport+0x690>
			case HID_RI_UNIT(0):
				CurrStateTable->Attributes.Unit.Type        = ReportItemData;
				break;

			case HID_RI_REPORT_SIZE(0):
				CurrStateTable->Attributes.BitSize          = ReportItemData;
     afe:	f8 01       	movw	r30, r16
     b00:	c0 82       	st	Z, r12
				break;
     b02:	44 c2       	rjmp	.+1160   	; 0xf8c <USB_ProcessHIDReport+0x690>
			default:
				ReportItemData  = 0;
				break;
		}

		switch (HIDReportItem & (HID_RI_TYPE_MASK | HID_RI_TAG_MASK))
     b04:	24 38       	cpi	r18, 0x84	; 132
     b06:	09 f4       	brne	.+2      	; 0xb0a <USB_ProcessHIDReport+0x20e>
     b08:	64 c0       	rjmp	.+200    	; 0xbd2 <USB_ProcessHIDReport+0x2d6>
     b0a:	20 39       	cpi	r18, 0x90	; 144
     b0c:	81 f0       	breq	.+32     	; 0xb2e <USB_ProcessHIDReport+0x232>
     b0e:	3e c2       	rjmp	.+1148   	; 0xf8c <USB_ProcessHIDReport+0x690>
     b10:	20 3b       	cpi	r18, 0xB0	; 176
     b12:	69 f0       	breq	.+26     	; 0xb2e <USB_ProcessHIDReport+0x232>
     b14:	30 f4       	brcc	.+12     	; 0xb22 <USB_ProcessHIDReport+0x226>
     b16:	20 3a       	cpi	r18, 0xA0	; 160
     b18:	09 f4       	brne	.+2      	; 0xb1c <USB_ProcessHIDReport+0x220>
     b1a:	c9 c0       	rjmp	.+402    	; 0xcae <USB_ProcessHIDReport+0x3b2>
     b1c:	24 3a       	cpi	r18, 0xA4	; 164
     b1e:	b9 f0       	breq	.+46     	; 0xb4e <USB_ProcessHIDReport+0x252>
     b20:	35 c2       	rjmp	.+1130   	; 0xf8c <USB_ProcessHIDReport+0x690>
     b22:	24 3b       	cpi	r18, 0xB4	; 180
     b24:	29 f1       	breq	.+74     	; 0xb70 <USB_ProcessHIDReport+0x274>
     b26:	20 3c       	cpi	r18, 0xC0	; 192
     b28:	09 f4       	brne	.+2      	; 0xb2c <USB_ProcessHIDReport+0x230>
     b2a:	2d c1       	rjmp	.+602    	; 0xd86 <USB_ProcessHIDReport+0x48a>
     b2c:	2f c2       	rjmp	.+1118   	; 0xf8c <USB_ProcessHIDReport+0x690>
     b2e:	30 e0       	ldi	r19, 0x00	; 0
					  return HID_PARSE_InsufficientReportItems;

					memcpy(&ParserData->ReportItems[ParserData->TotalReportItems],
					       &NewReportItem, sizeof(HID_ReportItem_t));

					if (!(ReportItemData & HID_IOF_CONSTANT) && CALLBACK_HIDParser_FilterHIDReportItem(&NewReportItem))
     b30:	d7 01       	movw	r26, r14
     b32:	c6 01       	movw	r24, r12
     b34:	81 70       	andi	r24, 0x01	; 1
     b36:	99 27       	eor	r25, r25
     b38:	aa 27       	eor	r26, r26
     b3a:	bb 27       	eor	r27, r27
     b3c:	c1 58       	subi	r28, 0x81	; 129
     b3e:	df 4f       	sbci	r29, 0xFF	; 255
     b40:	88 83       	st	Y, r24
     b42:	99 83       	std	Y+1, r25	; 0x01
     b44:	aa 83       	std	Y+2, r26	; 0x02
     b46:	bb 83       	std	Y+3, r27	; 0x03
     b48:	cf 57       	subi	r28, 0x7F	; 127
     b4a:	d0 40       	sbci	r29, 0x00	; 0
     b4c:	4a c1       	rjmp	.+660    	; 0xde2 <USB_ProcessHIDReport+0x4e6>
		}

		switch (HIDReportItem & (HID_RI_TYPE_MASK | HID_RI_TAG_MASK))
		{
			case HID_RI_PUSH(0):
				if (CurrStateTable == &StateTable[HID_STATETABLE_STACK_DEPTH - 1])
     b4e:	ce 01       	movw	r24, r28
     b50:	4d 96       	adiw	r24, 0x1d	; 29
     b52:	08 17       	cp	r16, r24
     b54:	19 07       	cpc	r17, r25
     b56:	09 f4       	brne	.+2      	; 0xb5a <USB_ProcessHIDReport+0x25e>
     b58:	2f c2       	rjmp	.+1118   	; 0xfb8 <USB_ProcessHIDReport+0x6bc>
				  return HID_PARSE_HIDStackOverflow;

				memcpy((CurrStateTable + 1),
     b5a:	c8 01       	movw	r24, r16
     b5c:	4c 96       	adiw	r24, 0x1c	; 28
     b5e:	2a e2       	ldi	r18, 0x2A	; 42
     b60:	f8 01       	movw	r30, r16
     b62:	dc 01       	movw	r26, r24
     b64:	01 90       	ld	r0, Z+
     b66:	0d 92       	st	X+, r0
     b68:	2a 95       	dec	r18
     b6a:	e1 f7       	brne	.-8      	; 0xb64 <USB_ProcessHIDReport+0x268>
				       CurrStateTable,
				       sizeof(HID_ReportItem_t));

				CurrStateTable++;
     b6c:	8c 01       	movw	r16, r24
				break;
     b6e:	0e c2       	rjmp	.+1052   	; 0xf8c <USB_ProcessHIDReport+0x690>

			case HID_RI_POP(0):
				if (CurrStateTable == &StateTable[0])
     b70:	ce 01       	movw	r24, r28
     b72:	01 96       	adiw	r24, 0x01	; 1
     b74:	08 17       	cp	r16, r24
     b76:	19 07       	cpc	r17, r25
     b78:	09 f4       	brne	.+2      	; 0xb7c <USB_ProcessHIDReport+0x280>
     b7a:	20 c2       	rjmp	.+1088   	; 0xfbc <USB_ProcessHIDReport+0x6c0>
				  return HID_PARSE_HIDStackUnderflow;

				CurrStateTable--;
     b7c:	0c 51       	subi	r16, 0x1C	; 28
     b7e:	11 09       	sbc	r17, r1
				break;
     b80:	05 c2       	rjmp	.+1034   	; 0xf8c <USB_ProcessHIDReport+0x690>

				CurrStateTable->Attributes.Usage.Page       = ReportItemData;
				break;

			case HID_RI_LOGICAL_MINIMUM(0):
				CurrStateTable->Attributes.Logical.Minimum  = ReportItemData;
     b82:	f8 01       	movw	r30, r16
     b84:	c2 86       	std	Z+10, r12	; 0x0a
     b86:	d3 86       	std	Z+11, r13	; 0x0b
     b88:	e4 86       	std	Z+12, r14	; 0x0c
     b8a:	f5 86       	std	Z+13, r15	; 0x0d
				break;
     b8c:	ff c1       	rjmp	.+1022   	; 0xf8c <USB_ProcessHIDReport+0x690>

			case HID_RI_LOGICAL_MAXIMUM(0):
				CurrStateTable->Attributes.Logical.Maximum  = ReportItemData;
     b8e:	d8 01       	movw	r26, r16
     b90:	1e 96       	adiw	r26, 0x0e	; 14
     b92:	cd 92       	st	X+, r12
     b94:	dd 92       	st	X+, r13
     b96:	ed 92       	st	X+, r14
     b98:	fc 92       	st	X, r15
     b9a:	51 97       	sbiw	r26, 0x11	; 17
				break;
     b9c:	f7 c1       	rjmp	.+1006   	; 0xf8c <USB_ProcessHIDReport+0x690>

			case HID_RI_PHYSICAL_MINIMUM(0):
				CurrStateTable->Attributes.Physical.Minimum = ReportItemData;
     b9e:	f8 01       	movw	r30, r16
     ba0:	c2 8a       	std	Z+18, r12	; 0x12
     ba2:	d3 8a       	std	Z+19, r13	; 0x13
     ba4:	e4 8a       	std	Z+20, r14	; 0x14
     ba6:	f5 8a       	std	Z+21, r15	; 0x15
				break;
     ba8:	f1 c1       	rjmp	.+994    	; 0xf8c <USB_ProcessHIDReport+0x690>

			case HID_RI_PHYSICAL_MAXIMUM(0):
				CurrStateTable->Attributes.Physical.Maximum = ReportItemData;
     baa:	d8 01       	movw	r26, r16
     bac:	56 96       	adiw	r26, 0x16	; 22
     bae:	cd 92       	st	X+, r12
     bb0:	dd 92       	st	X+, r13
     bb2:	ed 92       	st	X+, r14
     bb4:	fc 92       	st	X, r15
     bb6:	59 97       	sbiw	r26, 0x19	; 25
				break;
     bb8:	e9 c1       	rjmp	.+978    	; 0xf8c <USB_ProcessHIDReport+0x690>
			case HID_RI_UNIT_EXPONENT(0):
				CurrStateTable->Attributes.Unit.Exponent    = ReportItemData;
				break;

			case HID_RI_UNIT(0):
				CurrStateTable->Attributes.Unit.Type        = ReportItemData;
     bba:	d8 01       	movw	r26, r16
     bbc:	15 96       	adiw	r26, 0x05	; 5
     bbe:	cd 92       	st	X+, r12
     bc0:	dd 92       	st	X+, r13
     bc2:	ed 92       	st	X+, r14
     bc4:	fc 92       	st	X, r15
     bc6:	18 97       	sbiw	r26, 0x08	; 8
				break;
     bc8:	e1 c1       	rjmp	.+962    	; 0xf8c <USB_ProcessHIDReport+0x690>
			case HID_RI_REPORT_SIZE(0):
				CurrStateTable->Attributes.BitSize          = ReportItemData;
				break;

			case HID_RI_REPORT_COUNT(0):
				CurrStateTable->ReportCount                 = ReportItemData;
     bca:	d8 01       	movw	r26, r16
     bcc:	5a 96       	adiw	r26, 0x1a	; 26
     bce:	cc 92       	st	X, r12
				break;
     bd0:	dd c1       	rjmp	.+954    	; 0xf8c <USB_ProcessHIDReport+0x690>

			case HID_RI_REPORT_ID(0):
				CurrStateTable->ReportID                    = ReportItemData;
     bd2:	ac 2d       	mov	r26, r12
     bd4:	f8 01       	movw	r30, r16
     bd6:	c3 8e       	std	Z+27, r12	; 0x1b

				if (ParserData->UsingReportIDs)
     bd8:	ef 96       	adiw	r28, 0x3f	; 63
     bda:	ee ad       	ldd	r30, Y+62	; 0x3e
     bdc:	ff ad       	ldd	r31, Y+63	; 0x3f
     bde:	ef 97       	sbiw	r28, 0x3f	; 63
     be0:	80 81       	ld	r24, Z
     be2:	88 23       	and	r24, r24
     be4:	09 f4       	brne	.+2      	; 0xbe8 <USB_ProcessHIDReport+0x2ec>
     be6:	40 c0       	rjmp	.+128    	; 0xc68 <USB_ProcessHIDReport+0x36c>
				{
					CurrReportIDInfo = NULL;

					for (uint8_t i = 0; i < ParserData->TotalDeviceReports; i++)
     be8:	cb 57       	subi	r28, 0x7B	; 123
     bea:	df 4f       	sbci	r29, 0xFF	; 255
     bec:	e8 81       	ld	r30, Y
     bee:	f9 81       	ldd	r31, Y+1	; 0x01
     bf0:	c5 58       	subi	r28, 0x85	; 133
     bf2:	d0 40       	sbci	r29, 0x00	; 0
     bf4:	b0 81       	ld	r27, Z
     bf6:	9a 01       	movw	r18, r20
     bf8:	80 e0       	ldi	r24, 0x00	; 0
     bfa:	90 e0       	ldi	r25, 0x00	; 0
     bfc:	8b 17       	cp	r24, r27
     bfe:	d0 f4       	brcc	.+52     	; 0xc34 <USB_ProcessHIDReport+0x338>
					{
						if (ParserData->ReportIDSizes[i].ReportID == CurrStateTable->ReportID)
     c00:	7c 01       	movw	r14, r24
     c02:	f9 01       	movw	r30, r18
     c04:	e0 57       	subi	r30, 0x70	; 112
     c06:	fc 4f       	sbci	r31, 0xFC	; 252
     c08:	e0 81       	ld	r30, Z
     c0a:	01 96       	adiw	r24, 0x01	; 1
     c0c:	29 5f       	subi	r18, 0xF9	; 249
     c0e:	3f 4f       	sbci	r19, 0xFF	; 255
     c10:	ea 13       	cpse	r30, r26
     c12:	f4 cf       	rjmp	.-24     	; 0xbfc <USB_ProcessHIDReport+0x300>
						{
							CurrReportIDInfo = &ParserData->ReportIDSizes[i];
     c14:	27 e0       	ldi	r18, 0x07	; 7
     c16:	2e 9d       	mul	r18, r14
     c18:	c0 01       	movw	r24, r0
     c1a:	2f 9d       	mul	r18, r15
     c1c:	90 0d       	add	r25, r0
     c1e:	11 24       	eor	r1, r1
     c20:	9c 01       	movw	r18, r24
     c22:	20 57       	subi	r18, 0x70	; 112
     c24:	3c 4f       	sbci	r19, 0xFC	; 252
     c26:	24 0f       	add	r18, r20
     c28:	35 1f       	adc	r19, r21
     c2a:	e8 96       	adiw	r28, 0x38	; 56
     c2c:	3f af       	std	Y+63, r19	; 0x3f
     c2e:	2e af       	std	Y+62, r18	; 0x3e
     c30:	e8 97       	sbiw	r28, 0x38	; 56
     c32:	1a c0       	rjmp	.+52     	; 0xc68 <USB_ProcessHIDReport+0x36c>
						}
					}

					if (CurrReportIDInfo == NULL)
					{
						if (ParserData->TotalDeviceReports == HID_MAX_REPORT_IDS)
     c34:	ba 30       	cpi	r27, 0x0A	; 10
     c36:	09 f4       	brne	.+2      	; 0xc3a <USB_ProcessHIDReport+0x33e>
     c38:	cb c1       	rjmp	.+918    	; 0xfd0 <USB_ProcessHIDReport+0x6d4>
						  return HID_PARSE_InsufficientReportIDItems;

						CurrReportIDInfo = &ParserData->ReportIDSizes[ParserData->TotalDeviceReports++];
     c3a:	81 e0       	ldi	r24, 0x01	; 1
     c3c:	8b 0f       	add	r24, r27
     c3e:	eb 96       	adiw	r28, 0x3b	; 59
     c40:	ee ad       	ldd	r30, Y+62	; 0x3e
     c42:	ff ad       	ldd	r31, Y+63	; 0x3f
     c44:	eb 97       	sbiw	r28, 0x3b	; 59
     c46:	80 83       	st	Z, r24
     c48:	87 e0       	ldi	r24, 0x07	; 7
     c4a:	9a 01       	movw	r18, r20
     c4c:	8b 9f       	mul	r24, r27
     c4e:	20 0d       	add	r18, r0
     c50:	31 1d       	adc	r19, r1
     c52:	11 24       	eor	r1, r1
     c54:	20 57       	subi	r18, 0x70	; 112
     c56:	3c 4f       	sbci	r19, 0xFC	; 252
     c58:	e8 96       	adiw	r28, 0x38	; 56
     c5a:	3f af       	std	Y+63, r19	; 0x3f
     c5c:	2e af       	std	Y+62, r18	; 0x3e
     c5e:	e8 97       	sbiw	r28, 0x38	; 56
						memset(CurrReportIDInfo, 0x00, sizeof(HID_ReportSizeInfo_t));
     c60:	d9 01       	movw	r26, r18
     c62:	1d 92       	st	X+, r1
     c64:	8a 95       	dec	r24
     c66:	e9 f7       	brne	.-6      	; 0xc62 <USB_ProcessHIDReport+0x366>
					}
				}

				ParserData->UsingReportIDs = true;
     c68:	81 e0       	ldi	r24, 0x01	; 1
     c6a:	ef 96       	adiw	r28, 0x3f	; 63
     c6c:	ee ad       	ldd	r30, Y+62	; 0x3e
     c6e:	ff ad       	ldd	r31, Y+63	; 0x3f
     c70:	ef 97       	sbiw	r28, 0x3f	; 63
     c72:	80 83       	st	Z, r24

				CurrReportIDInfo->ReportID = CurrStateTable->ReportID;
     c74:	d8 01       	movw	r26, r16
     c76:	5b 96       	adiw	r26, 0x1b	; 27
     c78:	8c 91       	ld	r24, X
     c7a:	e8 96       	adiw	r28, 0x38	; 56
     c7c:	ee ad       	ldd	r30, Y+62	; 0x3e
     c7e:	ff ad       	ldd	r31, Y+63	; 0x3f
     c80:	e8 97       	sbiw	r28, 0x38	; 56
     c82:	80 83       	st	Z, r24
				break;
     c84:	83 c1       	rjmp	.+774    	; 0xf8c <USB_ProcessHIDReport+0x690>

			case HID_RI_USAGE(0):
				if (UsageListSize == HID_USAGE_STACK_DEPTH)
     c86:	e4 96       	adiw	r28, 0x34	; 52
     c88:	2f ad       	ldd	r18, Y+63	; 0x3f
     c8a:	e4 97       	sbiw	r28, 0x34	; 52
     c8c:	28 30       	cpi	r18, 0x08	; 8
     c8e:	09 f4       	brne	.+2      	; 0xc92 <USB_ProcessHIDReport+0x396>
     c90:	97 c1       	rjmp	.+814    	; 0xfc0 <USB_ProcessHIDReport+0x6c4>
				  return HID_PARSE_UsageListOverflow;

				UsageList[UsageListSize++] = ReportItemData;
     c92:	fe 01       	movw	r30, r28
     c94:	ed 59       	subi	r30, 0x9D	; 157
     c96:	ff 4f       	sbci	r31, 0xFF	; 255
     c98:	e2 0f       	add	r30, r18
     c9a:	f1 1d       	adc	r31, r1
     c9c:	e2 0f       	add	r30, r18
     c9e:	f1 1d       	adc	r31, r1
     ca0:	d1 82       	std	Z+1, r13	; 0x01
     ca2:	c0 82       	st	Z, r12
     ca4:	2f 5f       	subi	r18, 0xFF	; 255
     ca6:	e4 96       	adiw	r28, 0x34	; 52
     ca8:	2f af       	std	Y+63, r18	; 0x3f
     caa:	e4 97       	sbiw	r28, 0x34	; 52
				break;
     cac:	6f c1       	rjmp	.+734    	; 0xf8c <USB_ProcessHIDReport+0x690>
			case HID_RI_USAGE_MAXIMUM(0):
				UsageMinMax.Maximum = ReportItemData;
				break;

			case HID_RI_COLLECTION(0):
				if (CurrCollectionPath == NULL)
     cae:	e6 96       	adiw	r28, 0x36	; 54
     cb0:	2e ad       	ldd	r18, Y+62	; 0x3e
     cb2:	3f ad       	ldd	r19, Y+63	; 0x3f
     cb4:	e6 97       	sbiw	r28, 0x36	; 54
     cb6:	23 2b       	or	r18, r19
     cb8:	41 f4       	brne	.+16     	; 0xcca <USB_ProcessHIDReport+0x3ce>
				{
					CurrCollectionPath = &ParserData->CollectionPaths[0];
     cba:	9a 01       	movw	r18, r20
     cbc:	27 5b       	subi	r18, 0xB7	; 183
     cbe:	3c 4f       	sbci	r19, 0xFC	; 252
     cc0:	e6 96       	adiw	r28, 0x36	; 54
     cc2:	3f af       	std	Y+63, r19	; 0x3f
     cc4:	2e af       	std	Y+62, r18	; 0x3e
     cc6:	e6 97       	sbiw	r28, 0x36	; 54
     cc8:	1d c0       	rjmp	.+58     	; 0xd04 <USB_ProcessHIDReport+0x408>
				}
				else
				{
					HID_CollectionPath_t* ParentCollectionPath = CurrCollectionPath;

					CurrCollectionPath = &ParserData->CollectionPaths[1];
     cca:	fa 01       	movw	r30, r20
     ccc:	e0 5b       	subi	r30, 0xB0	; 176
     cce:	fc 4f       	sbci	r31, 0xFC	; 252

					while (CurrCollectionPath->Parent != NULL)
     cd0:	85 81       	ldd	r24, Z+5	; 0x05
     cd2:	96 81       	ldd	r25, Z+6	; 0x06
     cd4:	89 2b       	or	r24, r25
     cd6:	61 f0       	breq	.+24     	; 0xcf0 <USB_ProcessHIDReport+0x3f4>
					{
						if (CurrCollectionPath == &ParserData->CollectionPaths[HID_MAX_COLLECTIONS - 1])
     cd8:	cd 57       	subi	r28, 0x7D	; 125
     cda:	df 4f       	sbci	r29, 0xFF	; 255
     cdc:	28 81       	ld	r18, Y
     cde:	39 81       	ldd	r19, Y+1	; 0x01
     ce0:	c3 58       	subi	r28, 0x83	; 131
     ce2:	d0 40       	sbci	r29, 0x00	; 0
     ce4:	e2 17       	cp	r30, r18
     ce6:	f3 07       	cpc	r31, r19
     ce8:	09 f4       	brne	.+2      	; 0xcec <USB_ProcessHIDReport+0x3f0>
     cea:	6c c1       	rjmp	.+728    	; 0xfc4 <USB_ProcessHIDReport+0x6c8>
						  return HID_PARSE_InsufficientCollectionPaths;

						CurrCollectionPath++;
     cec:	37 96       	adiw	r30, 0x07	; 7
     cee:	f0 cf       	rjmp	.-32     	; 0xcd0 <USB_ProcessHIDReport+0x3d4>
					}

					CurrCollectionPath->Parent = ParentCollectionPath;
     cf0:	e6 96       	adiw	r28, 0x36	; 54
     cf2:	2e ad       	ldd	r18, Y+62	; 0x3e
     cf4:	3f ad       	ldd	r19, Y+63	; 0x3f
     cf6:	e6 97       	sbiw	r28, 0x36	; 54
     cf8:	36 83       	std	Z+6, r19	; 0x06
     cfa:	25 83       	std	Z+5, r18	; 0x05
     cfc:	e6 96       	adiw	r28, 0x36	; 54
     cfe:	ff af       	std	Y+63, r31	; 0x3f
     d00:	ee af       	std	Y+62, r30	; 0x3e
     d02:	e6 97       	sbiw	r28, 0x36	; 54
				}

				CurrCollectionPath->Type       = ReportItemData;
     d04:	e6 96       	adiw	r28, 0x36	; 54
     d06:	ae ad       	ldd	r26, Y+62	; 0x3e
     d08:	bf ad       	ldd	r27, Y+63	; 0x3f
     d0a:	e6 97       	sbiw	r28, 0x36	; 54
     d0c:	cc 92       	st	X, r12
				CurrCollectionPath->Usage.Page = CurrStateTable->Attributes.Usage.Page;
     d0e:	f8 01       	movw	r30, r16
     d10:	81 81       	ldd	r24, Z+1	; 0x01
     d12:	92 81       	ldd	r25, Z+2	; 0x02
     d14:	12 96       	adiw	r26, 0x02	; 2
     d16:	9c 93       	st	X, r25
     d18:	8e 93       	st	-X, r24
     d1a:	11 97       	sbiw	r26, 0x01	; 1

				if (UsageListSize)
     d1c:	e4 96       	adiw	r28, 0x34	; 52
     d1e:	2f ad       	ldd	r18, Y+63	; 0x3f
     d20:	e4 97       	sbiw	r28, 0x34	; 52
     d22:	22 23       	and	r18, r18
     d24:	e1 f0       	breq	.+56     	; 0xd5e <USB_ProcessHIDReport+0x462>
				{
					CurrCollectionPath->Usage.Usage = UsageList[0];
     d26:	a5 96       	adiw	r28, 0x25	; 37
     d28:	8e ad       	ldd	r24, Y+62	; 0x3e
     d2a:	9f ad       	ldd	r25, Y+63	; 0x3f
     d2c:	a5 97       	sbiw	r28, 0x25	; 37
     d2e:	14 96       	adiw	r26, 0x04	; 4
     d30:	9c 93       	st	X, r25
     d32:	8e 93       	st	-X, r24
     d34:	13 97       	sbiw	r26, 0x03	; 3
     d36:	fe 01       	movw	r30, r28
     d38:	ed 59       	subi	r30, 0x9D	; 157
     d3a:	ff 4f       	sbci	r31, 0xFF	; 255

					for (uint8_t i = 1; i < UsageListSize; i++)
     d3c:	21 e0       	ldi	r18, 0x01	; 1
     d3e:	e4 96       	adiw	r28, 0x34	; 52
     d40:	3f ad       	ldd	r19, Y+63	; 0x3f
     d42:	e4 97       	sbiw	r28, 0x34	; 52
     d44:	23 17       	cp	r18, r19
     d46:	31 f0       	breq	.+12     	; 0xd54 <USB_ProcessHIDReport+0x458>
					  UsageList[i - 1] = UsageList[i];
     d48:	82 81       	ldd	r24, Z+2	; 0x02
     d4a:	93 81       	ldd	r25, Z+3	; 0x03
     d4c:	81 93       	st	Z+, r24
     d4e:	91 93       	st	Z+, r25

				if (UsageListSize)
				{
					CurrCollectionPath->Usage.Usage = UsageList[0];

					for (uint8_t i = 1; i < UsageListSize; i++)
     d50:	2f 5f       	subi	r18, 0xFF	; 255
     d52:	f5 cf       	rjmp	.-22     	; 0xd3e <USB_ProcessHIDReport+0x442>
					  UsageList[i - 1] = UsageList[i];

					UsageListSize--;
     d54:	31 50       	subi	r19, 0x01	; 1
     d56:	e4 96       	adiw	r28, 0x34	; 52
     d58:	3f af       	std	Y+63, r19	; 0x3f
     d5a:	e4 97       	sbiw	r28, 0x34	; 52
     d5c:	17 c1       	rjmp	.+558    	; 0xf8c <USB_ProcessHIDReport+0x690>
				}
				else if (UsageMinMax.Minimum <= UsageMinMax.Maximum)
     d5e:	48 14       	cp	r4, r8
     d60:	59 04       	cpc	r5, r9
     d62:	6a 04       	cpc	r6, r10
     d64:	7b 04       	cpc	r7, r11
     d66:	08 f4       	brcc	.+2      	; 0xd6a <USB_ProcessHIDReport+0x46e>
     d68:	11 c1       	rjmp	.+546    	; 0xf8c <USB_ProcessHIDReport+0x690>
				{
					CurrCollectionPath->Usage.Usage = UsageMinMax.Minimum++;
     d6a:	e6 96       	adiw	r28, 0x36	; 54
     d6c:	ae ad       	ldd	r26, Y+62	; 0x3e
     d6e:	bf ad       	ldd	r27, Y+63	; 0x3f
     d70:	e6 97       	sbiw	r28, 0x36	; 54
     d72:	14 96       	adiw	r26, 0x04	; 4
     d74:	9c 92       	st	X, r9
     d76:	8e 92       	st	-X, r8
     d78:	13 97       	sbiw	r26, 0x03	; 3
     d7a:	bf ef       	ldi	r27, 0xFF	; 255
     d7c:	8b 1a       	sub	r8, r27
     d7e:	9b 0a       	sbc	r9, r27
     d80:	ab 0a       	sbc	r10, r27
     d82:	bb 0a       	sbc	r11, r27
     d84:	03 c1       	rjmp	.+518    	; 0xf8c <USB_ProcessHIDReport+0x690>
				}

				break;

			case HID_RI_END_COLLECTION(0):
				if (CurrCollectionPath == NULL)
     d86:	e6 96       	adiw	r28, 0x36	; 54
     d88:	2e ad       	ldd	r18, Y+62	; 0x3e
     d8a:	3f ad       	ldd	r19, Y+63	; 0x3f
     d8c:	e6 97       	sbiw	r28, 0x36	; 54
     d8e:	21 15       	cp	r18, r1
     d90:	31 05       	cpc	r19, r1
     d92:	09 f4       	brne	.+2      	; 0xd96 <USB_ProcessHIDReport+0x49a>
     d94:	19 c1       	rjmp	.+562    	; 0xfc8 <USB_ProcessHIDReport+0x6cc>
				  return HID_PARSE_UnexpectedEndCollection;

				CurrCollectionPath = CurrCollectionPath->Parent;
     d96:	d9 01       	movw	r26, r18
     d98:	15 96       	adiw	r26, 0x05	; 5
     d9a:	0d 90       	ld	r0, X+
     d9c:	bc 91       	ld	r27, X
     d9e:	a0 2d       	mov	r26, r0
     da0:	e6 96       	adiw	r28, 0x36	; 54
     da2:	bf af       	std	Y+63, r27	; 0x3f
     da4:	ae af       	std	Y+62, r26	; 0x3e
     da6:	e6 97       	sbiw	r28, 0x36	; 54
				break;
     da8:	f1 c0       	rjmp	.+482    	; 0xf8c <USB_ProcessHIDReport+0x690>
					ParserData->LargestReportSizeBits = MAX(ParserData->LargestReportSizeBits, CurrReportIDInfo->ReportSizeBits[NewReportItem.ItemType]);

					if (ParserData->TotalReportItems == HID_MAX_REPORTITEMS)
					  return HID_PARSE_InsufficientReportItems;

					memcpy(&ParserData->ReportItems[ParserData->TotalReportItems],
     daa:	da 01       	movw	r26, r20
     dac:	fa e2       	ldi	r31, 0x2A	; 42
     dae:	f8 9f       	mul	r31, r24
     db0:	a0 0d       	add	r26, r0
     db2:	b1 1d       	adc	r27, r1
     db4:	11 24       	eor	r1, r1
     db6:	11 96       	adiw	r26, 0x01	; 1
     db8:	fe 01       	movw	r30, r28
     dba:	f9 96       	adiw	r30, 0x39	; 57
     dbc:	8a e2       	ldi	r24, 0x2A	; 42
     dbe:	01 90       	ld	r0, Z+
     dc0:	0d 92       	st	X+, r0
     dc2:	8a 95       	dec	r24
     dc4:	e1 f7       	brne	.-8      	; 0xdbe <USB_ProcessHIDReport+0x4c2>
					       &NewReportItem, sizeof(HID_ReportItem_t));

					if (!(ReportItemData & HID_IOF_CONSTANT) && CALLBACK_HIDParser_FilterHIDReportItem(&NewReportItem))
     dc6:	c1 58       	subi	r28, 0x81	; 129
     dc8:	df 4f       	sbci	r29, 0xFF	; 255
     dca:	88 81       	ld	r24, Y
     dcc:	99 81       	ldd	r25, Y+1	; 0x01
     dce:	aa 81       	ldd	r26, Y+2	; 0x02
     dd0:	bb 81       	ldd	r27, Y+3	; 0x03
     dd2:	cf 57       	subi	r28, 0x7F	; 127
     dd4:	d0 40       	sbci	r29, 0x00	; 0
     dd6:	89 2b       	or	r24, r25
     dd8:	8a 2b       	or	r24, r26
     dda:	8b 2b       	or	r24, r27
     ddc:	09 f4       	brne	.+2      	; 0xde0 <USB_ProcessHIDReport+0x4e4>
     dde:	8f c0       	rjmp	.+286    	; 0xefe <USB_ProcessHIDReport+0x602>
				break;

			case HID_RI_INPUT(0):
			case HID_RI_OUTPUT(0):
			case HID_RI_FEATURE(0):
				for (uint8_t ReportItemNum = 0; ReportItemNum < CurrStateTable->ReportCount; ReportItemNum++)
     de0:	3f 5f       	subi	r19, 0xFF	; 255
     de2:	f8 01       	movw	r30, r16
     de4:	82 8d       	ldd	r24, Z+26	; 0x1a
     de6:	38 17       	cp	r19, r24
     de8:	08 f0       	brcs	.+2      	; 0xdec <USB_ProcessHIDReport+0x4f0>
     dea:	d0 c0       	rjmp	.+416    	; 0xf8c <USB_ProcessHIDReport+0x690>
				{
					HID_ReportItem_t NewReportItem;

					memcpy(&NewReportItem.Attributes,
     dec:	f8 01       	movw	r30, r16
     dee:	de 01       	movw	r26, r28
     df0:	af 5b       	subi	r26, 0xBF	; 191
     df2:	bf 4f       	sbci	r27, 0xFF	; 255
     df4:	8a e1       	ldi	r24, 0x1A	; 26
     df6:	01 90       	ld	r0, Z+
     df8:	0d 92       	st	X+, r0
     dfa:	8a 95       	dec	r24
     dfc:	e1 f7       	brne	.-8      	; 0xdf6 <USB_ProcessHIDReport+0x4fa>
					       &CurrStateTable->Attributes,
					       sizeof(HID_ReportItem_Attributes_t));

					NewReportItem.ItemFlags      = ReportItemData;
     dfe:	dd ae       	std	Y+61, r13	; 0x3d
     e00:	cc ae       	std	Y+60, r12	; 0x3c
					NewReportItem.CollectionPath = CurrCollectionPath;
     e02:	e6 96       	adiw	r28, 0x36	; 54
     e04:	ee ad       	ldd	r30, Y+62	; 0x3e
     e06:	ff ad       	ldd	r31, Y+63	; 0x3f
     e08:	e6 97       	sbiw	r28, 0x36	; 54
     e0a:	21 96       	adiw	r28, 0x01	; 1
     e0c:	ff af       	std	Y+63, r31	; 0x3f
     e0e:	ee af       	std	Y+62, r30	; 0x3e
     e10:	21 97       	sbiw	r28, 0x01	; 1
					NewReportItem.ReportID       = CurrStateTable->ReportID;
     e12:	d8 01       	movw	r26, r16
     e14:	5b 96       	adiw	r26, 0x1b	; 27
     e16:	8c 91       	ld	r24, X
     e18:	8e af       	std	Y+62, r24	; 0x3e

					if (UsageListSize)
     e1a:	e4 96       	adiw	r28, 0x34	; 52
     e1c:	bf ad       	ldd	r27, Y+63	; 0x3f
     e1e:	e4 97       	sbiw	r28, 0x34	; 52
     e20:	bb 23       	and	r27, r27
     e22:	e1 f0       	breq	.+56     	; 0xe5c <USB_ProcessHIDReport+0x560>
					{
						NewReportItem.Attributes.Usage.Usage = UsageList[0];
     e24:	a5 96       	adiw	r28, 0x25	; 37
     e26:	8e ad       	ldd	r24, Y+62	; 0x3e
     e28:	9f ad       	ldd	r25, Y+63	; 0x3f
     e2a:	a5 97       	sbiw	r28, 0x25	; 37
     e2c:	26 96       	adiw	r28, 0x06	; 6
     e2e:	9f af       	std	Y+63, r25	; 0x3f
     e30:	8e af       	std	Y+62, r24	; 0x3e
     e32:	26 97       	sbiw	r28, 0x06	; 6
     e34:	fe 01       	movw	r30, r28
     e36:	ed 59       	subi	r30, 0x9D	; 157
     e38:	ff 4f       	sbci	r31, 0xFF	; 255

						for (uint8_t i = 1; i < UsageListSize; i++)
     e3a:	a1 e0       	ldi	r26, 0x01	; 1
     e3c:	e4 96       	adiw	r28, 0x34	; 52
     e3e:	8f ad       	ldd	r24, Y+63	; 0x3f
     e40:	e4 97       	sbiw	r28, 0x34	; 52
     e42:	a8 17       	cp	r26, r24
     e44:	31 f0       	breq	.+12     	; 0xe52 <USB_ProcessHIDReport+0x556>
						  UsageList[i - 1] = UsageList[i];
     e46:	82 81       	ldd	r24, Z+2	; 0x02
     e48:	93 81       	ldd	r25, Z+3	; 0x03
     e4a:	81 93       	st	Z+, r24
     e4c:	91 93       	st	Z+, r25

					if (UsageListSize)
					{
						NewReportItem.Attributes.Usage.Usage = UsageList[0];

						for (uint8_t i = 1; i < UsageListSize; i++)
     e4e:	af 5f       	subi	r26, 0xFF	; 255
     e50:	f5 cf       	rjmp	.-22     	; 0xe3c <USB_ProcessHIDReport+0x540>
						  UsageList[i - 1] = UsageList[i];

						UsageListSize--;
     e52:	81 50       	subi	r24, 0x01	; 1
     e54:	e4 96       	adiw	r28, 0x34	; 52
     e56:	8f af       	std	Y+63, r24	; 0x3f
     e58:	e4 97       	sbiw	r28, 0x34	; 52
     e5a:	0e c0       	rjmp	.+28     	; 0xe78 <USB_ProcessHIDReport+0x57c>
					}
					else if (UsageMinMax.Minimum <= UsageMinMax.Maximum)
     e5c:	48 14       	cp	r4, r8
     e5e:	59 04       	cpc	r5, r9
     e60:	6a 04       	cpc	r6, r10
     e62:	7b 04       	cpc	r7, r11
     e64:	48 f0       	brcs	.+18     	; 0xe78 <USB_ProcessHIDReport+0x57c>
					{
						NewReportItem.Attributes.Usage.Usage = UsageMinMax.Minimum++;
     e66:	26 96       	adiw	r28, 0x06	; 6
     e68:	9f ae       	std	Y+63, r9	; 0x3f
     e6a:	8e ae       	std	Y+62, r8	; 0x3e
     e6c:	26 97       	sbiw	r28, 0x06	; 6
     e6e:	9f ef       	ldi	r25, 0xFF	; 255
     e70:	89 1a       	sub	r8, r25
     e72:	99 0a       	sbc	r9, r25
     e74:	a9 0a       	sbc	r10, r25
     e76:	b9 0a       	sbc	r11, r25
					}

					uint8_t ItemTypeTag = (HIDReportItem & (HID_RI_TYPE_MASK | HID_RI_TAG_MASK));

					if (ItemTypeTag == HID_RI_INPUT(0))
     e78:	20 38       	cpi	r18, 0x80	; 128
     e7a:	11 f4       	brne	.+4      	; 0xe80 <USB_ProcessHIDReport+0x584>
					  NewReportItem.ItemType = HID_REPORT_ITEM_In;
     e7c:	1b ae       	std	Y+59, r1	; 0x3b
     e7e:	07 c0       	rjmp	.+14     	; 0xe8e <USB_ProcessHIDReport+0x592>
					else if (ItemTypeTag == HID_RI_OUTPUT(0))
     e80:	20 39       	cpi	r18, 0x90	; 144
     e82:	19 f4       	brne	.+6      	; 0xe8a <USB_ProcessHIDReport+0x58e>
					  NewReportItem.ItemType = HID_REPORT_ITEM_Out;
     e84:	a1 e0       	ldi	r26, 0x01	; 1
     e86:	ab af       	std	Y+59, r26	; 0x3b
     e88:	02 c0       	rjmp	.+4      	; 0xe8e <USB_ProcessHIDReport+0x592>
					else
					  NewReportItem.ItemType = HID_REPORT_ITEM_Feature;
     e8a:	b2 e0       	ldi	r27, 0x02	; 2
     e8c:	bb af       	std	Y+59, r27	; 0x3b

					NewReportItem.BitOffset = CurrReportIDInfo->ReportSizeBits[NewReportItem.ItemType];
     e8e:	8b ad       	ldd	r24, Y+59	; 0x3b
     e90:	e8 96       	adiw	r28, 0x38	; 56
     e92:	ee ad       	ldd	r30, Y+62	; 0x3e
     e94:	ff ad       	ldd	r31, Y+63	; 0x3f
     e96:	e8 97       	sbiw	r28, 0x38	; 56
     e98:	e8 0f       	add	r30, r24
     e9a:	f1 1d       	adc	r31, r1
     e9c:	e8 0f       	add	r30, r24
     e9e:	f1 1d       	adc	r31, r1
     ea0:	81 81       	ldd	r24, Z+1	; 0x01
     ea2:	92 81       	ldd	r25, Z+2	; 0x02
     ea4:	9a af       	std	Y+58, r25	; 0x3a
     ea6:	89 af       	std	Y+57, r24	; 0x39

					CurrReportIDInfo->ReportSizeBits[NewReportItem.ItemType] += CurrStateTable->Attributes.BitSize;
     ea8:	d8 01       	movw	r26, r16
     eaa:	bc 91       	ld	r27, X
     eac:	81 81       	ldd	r24, Z+1	; 0x01
     eae:	92 81       	ldd	r25, Z+2	; 0x02
     eb0:	8b 0f       	add	r24, r27
     eb2:	91 1d       	adc	r25, r1
     eb4:	92 83       	std	Z+2, r25	; 0x02
     eb6:	81 83       	std	Z+1, r24	; 0x01

					ParserData->LargestReportSizeBits = MAX(ParserData->LargestReportSizeBits, CurrReportIDInfo->ReportSizeBits[NewReportItem.ItemType]);
     eb8:	8b ad       	ldd	r24, Y+59	; 0x3b
     eba:	e8 96       	adiw	r28, 0x38	; 56
     ebc:	ee ad       	ldd	r30, Y+62	; 0x3e
     ebe:	ff ad       	ldd	r31, Y+63	; 0x3f
     ec0:	e8 97       	sbiw	r28, 0x38	; 56
     ec2:	e8 0f       	add	r30, r24
     ec4:	f1 1d       	adc	r31, r1
     ec6:	e8 0f       	add	r30, r24
     ec8:	f1 1d       	adc	r31, r1
     eca:	ed 96       	adiw	r28, 0x3d	; 61
     ecc:	ae ad       	ldd	r26, Y+62	; 0x3e
     ece:	bf ad       	ldd	r27, Y+63	; 0x3f
     ed0:	ed 97       	sbiw	r28, 0x3d	; 61
     ed2:	8d 91       	ld	r24, X+
     ed4:	9c 91       	ld	r25, X
     ed6:	01 80       	ldd	r0, Z+1	; 0x01
     ed8:	f2 81       	ldd	r31, Z+2	; 0x02
     eda:	e0 2d       	mov	r30, r0
     edc:	e8 17       	cp	r30, r24
     ede:	f9 07       	cpc	r31, r25
     ee0:	08 f4       	brcc	.+2      	; 0xee4 <USB_ProcessHIDReport+0x5e8>
     ee2:	fc 01       	movw	r30, r24
     ee4:	ed 96       	adiw	r28, 0x3d	; 61
     ee6:	ae ad       	ldd	r26, Y+62	; 0x3e
     ee8:	bf ad       	ldd	r27, Y+63	; 0x3f
     eea:	ed 97       	sbiw	r28, 0x3d	; 61
     eec:	ed 93       	st	X+, r30
     eee:	fc 93       	st	X, r31

					if (ParserData->TotalReportItems == HID_MAX_REPORTITEMS)
     ef0:	fa 01       	movw	r30, r20
     ef2:	80 81       	ld	r24, Z
     ef4:	84 31       	cpi	r24, 0x14	; 20
     ef6:	09 f0       	breq	.+2      	; 0xefa <USB_ProcessHIDReport+0x5fe>
     ef8:	58 cf       	rjmp	.-336    	; 0xdaa <USB_ProcessHIDReport+0x4ae>
					  return HID_PARSE_InsufficientReportItems;
     efa:	83 e0       	ldi	r24, 0x03	; 3
     efc:	6a c0       	rjmp	.+212    	; 0xfd2 <USB_ProcessHIDReport+0x6d6>

					memcpy(&ParserData->ReportItems[ParserData->TotalReportItems],
					       &NewReportItem, sizeof(HID_ReportItem_t));

					if (!(ReportItemData & HID_IOF_CONSTANT) && CALLBACK_HIDParser_FilterHIDReportItem(&NewReportItem))
     efe:	ce 01       	movw	r24, r28
     f00:	c9 96       	adiw	r24, 0x39	; 57
     f02:	c8 57       	subi	r28, 0x78	; 120
     f04:	df 4f       	sbci	r29, 0xFF	; 255
     f06:	28 83       	st	Y, r18
     f08:	c8 58       	subi	r28, 0x88	; 136
     f0a:	d0 40       	sbci	r29, 0x00	; 0
     f0c:	c9 57       	subi	r28, 0x79	; 121
     f0e:	df 4f       	sbci	r29, 0xFF	; 255
     f10:	38 83       	st	Y, r19
     f12:	c7 58       	subi	r28, 0x87	; 135
     f14:	d0 40       	sbci	r29, 0x00	; 0
     f16:	c5 57       	subi	r28, 0x75	; 117
     f18:	df 4f       	sbci	r29, 0xFF	; 255
     f1a:	48 83       	st	Y, r20
     f1c:	cb 58       	subi	r28, 0x8B	; 139
     f1e:	d0 40       	sbci	r29, 0x00	; 0
     f20:	c4 57       	subi	r28, 0x74	; 116
     f22:	df 4f       	sbci	r29, 0xFF	; 255
     f24:	58 83       	st	Y, r21
     f26:	cc 58       	subi	r28, 0x8C	; 140
     f28:	d0 40       	sbci	r29, 0x00	; 0
     f2a:	c7 57       	subi	r28, 0x77	; 119
     f2c:	df 4f       	sbci	r29, 0xFF	; 255
     f2e:	68 83       	st	Y, r22
     f30:	c9 58       	subi	r28, 0x89	; 137
     f32:	d0 40       	sbci	r29, 0x00	; 0
     f34:	c6 57       	subi	r28, 0x76	; 118
     f36:	df 4f       	sbci	r29, 0xFF	; 255
     f38:	78 83       	st	Y, r23
     f3a:	ca 58       	subi	r28, 0x8A	; 138
     f3c:	d0 40       	sbci	r29, 0x00	; 0
     f3e:	bf dc       	rcall	.-1666   	; 0x8be <CALLBACK_HIDParser_FilterHIDReportItem>
     f40:	c8 57       	subi	r28, 0x78	; 120
     f42:	df 4f       	sbci	r29, 0xFF	; 255
     f44:	28 81       	ld	r18, Y
     f46:	c8 58       	subi	r28, 0x88	; 136
     f48:	d0 40       	sbci	r29, 0x00	; 0
     f4a:	c9 57       	subi	r28, 0x79	; 121
     f4c:	df 4f       	sbci	r29, 0xFF	; 255
     f4e:	38 81       	ld	r19, Y
     f50:	c7 58       	subi	r28, 0x87	; 135
     f52:	d0 40       	sbci	r29, 0x00	; 0
     f54:	c5 57       	subi	r28, 0x75	; 117
     f56:	df 4f       	sbci	r29, 0xFF	; 255
     f58:	48 81       	ld	r20, Y
     f5a:	cb 58       	subi	r28, 0x8B	; 139
     f5c:	d0 40       	sbci	r29, 0x00	; 0
     f5e:	c4 57       	subi	r28, 0x74	; 116
     f60:	df 4f       	sbci	r29, 0xFF	; 255
     f62:	58 81       	ld	r21, Y
     f64:	cc 58       	subi	r28, 0x8C	; 140
     f66:	d0 40       	sbci	r29, 0x00	; 0
     f68:	c7 57       	subi	r28, 0x77	; 119
     f6a:	df 4f       	sbci	r29, 0xFF	; 255
     f6c:	68 81       	ld	r22, Y
     f6e:	c9 58       	subi	r28, 0x89	; 137
     f70:	d0 40       	sbci	r29, 0x00	; 0
     f72:	c6 57       	subi	r28, 0x76	; 118
     f74:	df 4f       	sbci	r29, 0xFF	; 255
     f76:	78 81       	ld	r23, Y
     f78:	ca 58       	subi	r28, 0x8A	; 138
     f7a:	d0 40       	sbci	r29, 0x00	; 0
     f7c:	88 23       	and	r24, r24
     f7e:	09 f4       	brne	.+2      	; 0xf82 <USB_ProcessHIDReport+0x686>
     f80:	2f cf       	rjmp	.-418    	; 0xde0 <USB_ProcessHIDReport+0x4e4>
     f82:	da 01       	movw	r26, r20
					  ParserData->TotalReportItems++;
     f84:	8c 91       	ld	r24, X
     f86:	8f 5f       	subi	r24, 0xFF	; 255
     f88:	8c 93       	st	X, r24
     f8a:	2a cf       	rjmp	.-428    	; 0xde0 <USB_ProcessHIDReport+0x4e4>
     f8c:	e9 96       	adiw	r28, 0x39	; 57

			default:
				break;
		}

		if ((HIDReportItem & HID_RI_TYPE_MASK) == HID_RI_TYPE_MAIN)
     f8e:	8f ad       	ldd	r24, Y+63	; 0x3f
     f90:	e9 97       	sbiw	r28, 0x39	; 57
     f92:	8c 70       	andi	r24, 0x0C	; 12
     f94:	09 f0       	breq	.+2      	; 0xf98 <USB_ProcessHIDReport+0x69c>
     f96:	1d cd       	rjmp	.-1478   	; 0x9d2 <USB_ProcessHIDReport+0xd6>
     f98:	41 2c       	mov	r4, r1
		{
			UsageMinMax.Minimum = 0;
			UsageMinMax.Maximum = 0;
     f9a:	51 2c       	mov	r5, r1
     f9c:	32 01       	movw	r6, r4
     f9e:	81 2c       	mov	r8, r1
				break;
		}

		if ((HIDReportItem & HID_RI_TYPE_MASK) == HID_RI_TYPE_MAIN)
		{
			UsageMinMax.Minimum = 0;
     fa0:	91 2c       	mov	r9, r1
     fa2:	54 01       	movw	r10, r8
     fa4:	e4 96       	adiw	r28, 0x34	; 52
			UsageMinMax.Maximum = 0;
			UsageListSize       = 0;
     fa6:	1f ae       	std	Y+63, r1	; 0x3f
     fa8:	e4 97       	sbiw	r28, 0x34	; 52
     faa:	13 cd       	rjmp	.-1498   	; 0x9d2 <USB_ProcessHIDReport+0xd6>
     fac:	da 01       	movw	r26, r20
		}
	}

	if (!(ParserData->TotalReportItems))
     fae:	8c 91       	ld	r24, X
     fb0:	81 11       	cpse	r24, r1
     fb2:	0c c0       	rjmp	.+24     	; 0xfcc <USB_ProcessHIDReport+0x6d0>
     fb4:	88 e0       	ldi	r24, 0x08	; 8
	  return HID_PARSE_NoUnfilteredReportItems;
     fb6:	0d c0       	rjmp	.+26     	; 0xfd2 <USB_ProcessHIDReport+0x6d6>
     fb8:	81 e0       	ldi	r24, 0x01	; 1

		switch (HIDReportItem & (HID_RI_TYPE_MASK | HID_RI_TAG_MASK))
		{
			case HID_RI_PUSH(0):
				if (CurrStateTable == &StateTable[HID_STATETABLE_STACK_DEPTH - 1])
				  return HID_PARSE_HIDStackOverflow;
     fba:	0b c0       	rjmp	.+22     	; 0xfd2 <USB_ProcessHIDReport+0x6d6>
     fbc:	82 e0       	ldi	r24, 0x02	; 2
				CurrStateTable++;
				break;

			case HID_RI_POP(0):
				if (CurrStateTable == &StateTable[0])
				  return HID_PARSE_HIDStackUnderflow;
     fbe:	09 c0       	rjmp	.+18     	; 0xfd2 <USB_ProcessHIDReport+0x6d6>
     fc0:	86 e0       	ldi	r24, 0x06	; 6
				CurrReportIDInfo->ReportID = CurrStateTable->ReportID;
				break;

			case HID_RI_USAGE(0):
				if (UsageListSize == HID_USAGE_STACK_DEPTH)
				  return HID_PARSE_UsageListOverflow;
     fc2:	07 c0       	rjmp	.+14     	; 0xfd2 <USB_ProcessHIDReport+0x6d6>
     fc4:	85 e0       	ldi	r24, 0x05	; 5
					CurrCollectionPath = &ParserData->CollectionPaths[1];

					while (CurrCollectionPath->Parent != NULL)
					{
						if (CurrCollectionPath == &ParserData->CollectionPaths[HID_MAX_COLLECTIONS - 1])
						  return HID_PARSE_InsufficientCollectionPaths;
     fc6:	05 c0       	rjmp	.+10     	; 0xfd2 <USB_ProcessHIDReport+0x6d6>
     fc8:	84 e0       	ldi	r24, 0x04	; 4

				break;

			case HID_RI_END_COLLECTION(0):
				if (CurrCollectionPath == NULL)
				  return HID_PARSE_UnexpectedEndCollection;
     fca:	03 c0       	rjmp	.+6      	; 0xfd2 <USB_ProcessHIDReport+0x6d6>
     fcc:	80 e0       	ldi	r24, 0x00	; 0
	}

	if (!(ParserData->TotalReportItems))
	  return HID_PARSE_NoUnfilteredReportItems;

	return HID_PARSE_Successful;
     fce:	01 c0       	rjmp	.+2      	; 0xfd2 <USB_ProcessHIDReport+0x6d6>
     fd0:	87 e0       	ldi	r24, 0x07	; 7
					}

					if (CurrReportIDInfo == NULL)
					{
						if (ParserData->TotalDeviceReports == HID_MAX_REPORT_IDS)
						  return HID_PARSE_InsufficientReportIDItems;
     fd2:	c3 57       	subi	r28, 0x73	; 115

	if (!(ParserData->TotalReportItems))
	  return HID_PARSE_NoUnfilteredReportItems;

	return HID_PARSE_Successful;
}
     fd4:	df 4f       	sbci	r29, 0xFF	; 255
     fd6:	0f b6       	in	r0, 0x3f	; 63
     fd8:	f8 94       	cli
     fda:	de bf       	out	0x3e, r29	; 62
     fdc:	0f be       	out	0x3f, r0	; 63
     fde:	cd bf       	out	0x3d, r28	; 61
     fe0:	df 91       	pop	r29
     fe2:	cf 91       	pop	r28
     fe4:	1f 91       	pop	r17
     fe6:	0f 91       	pop	r16
     fe8:	ff 90       	pop	r15
     fea:	ef 90       	pop	r14
     fec:	df 90       	pop	r13
     fee:	cf 90       	pop	r12
     ff0:	bf 90       	pop	r11
     ff2:	af 90       	pop	r10
     ff4:	9f 90       	pop	r9
     ff6:	8f 90       	pop	r8
     ff8:	7f 90       	pop	r7
     ffa:	6f 90       	pop	r6
     ffc:	5f 90       	pop	r5
     ffe:	4f 90       	pop	r4
    1000:	3f 90       	pop	r3
    1002:	2f 90       	pop	r2
    1004:	08 95       	ret

00001006 <USB_GetHIDReportItemInfo>:
    1006:	ef 92       	push	r14

bool USB_GetHIDReportItemInfo(const uint8_t* ReportData,
                              HID_ReportItem_t* const ReportItem)
{
    1008:	ff 92       	push	r15
    100a:	0f 93       	push	r16
    100c:	1f 93       	push	r17
    100e:	cf 93       	push	r28
    1010:	df 93       	push	r29
    1012:	fb 01       	movw	r30, r22
	if (ReportItem == NULL)
    1014:	30 97       	sbiw	r30, 0x00	; 0
    1016:	09 f4       	brne	.+2      	; 0x101a <USB_GetHIDReportItemInfo+0x14>
    1018:	4c c0       	rjmp	.+152    	; 0x10b2 <USB_GetHIDReportItemInfo+0xac>
	  return false;

	uint16_t DataBitsRem  = ReportItem->Attributes.BitSize;
    101a:	30 85       	ldd	r19, Z+8	; 0x08
	uint16_t CurrentBit   = ReportItem->BitOffset;
    101c:	d0 81       	ld	r29, Z
    101e:	c1 81       	ldd	r28, Z+1	; 0x01
	uint32_t BitMask      = (1 << 0);

	if (ReportItem->ReportID)
    1020:	25 81       	ldd	r18, Z+5	; 0x05
    1022:	22 23       	and	r18, r18
    1024:	29 f0       	breq	.+10     	; 0x1030 <USB_GetHIDReportItemInfo+0x2a>
	{
		if (ReportItem->ReportID != ReportData[0])
    1026:	dc 01       	movw	r26, r24
    1028:	4c 91       	ld	r20, X
    102a:	24 13       	cpse	r18, r20
    102c:	42 c0       	rjmp	.+132    	; 0x10b2 <USB_GetHIDReportItemInfo+0xac>
		  return false;

		ReportData++;
    102e:	01 96       	adiw	r24, 0x01	; 1
	}

	ReportItem->PreviousValue = ReportItem->Value;
    1030:	42 a1       	ldd	r20, Z+34	; 0x22
    1032:	53 a1       	ldd	r21, Z+35	; 0x23
    1034:	64 a1       	ldd	r22, Z+36	; 0x24
    1036:	75 a1       	ldd	r23, Z+37	; 0x25
    1038:	46 a3       	std	Z+38, r20	; 0x26
    103a:	57 a3       	std	Z+39, r21	; 0x27
    103c:	60 a7       	std	Z+40, r22	; 0x28
    103e:	71 a7       	std	Z+41, r23	; 0x29
	ReportItem->Value = 0;
    1040:	12 a2       	std	Z+34, r1	; 0x22
    1042:	13 a2       	std	Z+35, r1	; 0x23
    1044:	14 a2       	std	Z+36, r1	; 0x24
    1046:	15 a2       	std	Z+37, r1	; 0x25
{
	if (ReportItem == NULL)
	  return false;

	uint16_t DataBitsRem  = ReportItem->Attributes.BitSize;
	uint16_t CurrentBit   = ReportItem->BitOffset;
    1048:	ad 2f       	mov	r26, r29
    104a:	bc 2f       	mov	r27, r28
	uint32_t BitMask      = (1 << 0);
    104c:	41 e0       	ldi	r20, 0x01	; 1
    104e:	50 e0       	ldi	r21, 0x00	; 0
    1050:	60 e0       	ldi	r22, 0x00	; 0
    1052:	70 e0       	ldi	r23, 0x00	; 0
    1054:	7d 01       	movw	r14, r26
    1056:	e3 0e       	add	r14, r19
    1058:	f1 1c       	adc	r15, r1
	}

	ReportItem->PreviousValue = ReportItem->Value;
	ReportItem->Value = 0;

	while (DataBitsRem--)
    105a:	ea 16       	cp	r14, r26
    105c:	fb 06       	cpc	r15, r27
    105e:	39 f1       	breq	.+78     	; 0x10ae <USB_GetHIDReportItemInfo+0xa8>
	{
		if (ReportData[CurrentBit / 8] & (1 << (CurrentBit % 8)))
    1060:	9d 01       	movw	r18, r26
    1062:	c3 e0       	ldi	r28, 0x03	; 3
    1064:	36 95       	lsr	r19
    1066:	27 95       	ror	r18
    1068:	ca 95       	dec	r28
    106a:	e1 f7       	brne	.-8      	; 0x1064 <USB_GetHIDReportItemInfo+0x5e>
    106c:	28 0f       	add	r18, r24
    106e:	39 1f       	adc	r19, r25
    1070:	e9 01       	movw	r28, r18
    1072:	28 81       	ld	r18, Y
    1074:	30 e0       	ldi	r19, 0x00	; 0
    1076:	8d 01       	movw	r16, r26
    1078:	07 70       	andi	r16, 0x07	; 7
    107a:	11 27       	eor	r17, r17
    107c:	02 c0       	rjmp	.+4      	; 0x1082 <USB_GetHIDReportItemInfo+0x7c>
    107e:	35 95       	asr	r19
    1080:	27 95       	ror	r18
    1082:	0a 95       	dec	r16
    1084:	e2 f7       	brpl	.-8      	; 0x107e <USB_GetHIDReportItemInfo+0x78>
    1086:	20 ff       	sbrs	r18, 0
    1088:	0c c0       	rjmp	.+24     	; 0x10a2 <USB_GetHIDReportItemInfo+0x9c>
		  ReportItem->Value |= BitMask;
    108a:	02 a1       	ldd	r16, Z+34	; 0x22
    108c:	13 a1       	ldd	r17, Z+35	; 0x23
    108e:	24 a1       	ldd	r18, Z+36	; 0x24
    1090:	35 a1       	ldd	r19, Z+37	; 0x25
    1092:	04 2b       	or	r16, r20
    1094:	15 2b       	or	r17, r21
    1096:	26 2b       	or	r18, r22
    1098:	37 2b       	or	r19, r23
    109a:	02 a3       	std	Z+34, r16	; 0x22
    109c:	13 a3       	std	Z+35, r17	; 0x23
    109e:	24 a3       	std	Z+36, r18	; 0x24
    10a0:	35 a3       	std	Z+37, r19	; 0x25

		CurrentBit++;
    10a2:	11 96       	adiw	r26, 0x01	; 1
		BitMask <<= 1;
    10a4:	44 0f       	add	r20, r20
    10a6:	55 1f       	adc	r21, r21
    10a8:	66 1f       	adc	r22, r22
    10aa:	77 1f       	adc	r23, r23
    10ac:	d6 cf       	rjmp	.-84     	; 0x105a <USB_GetHIDReportItemInfo+0x54>
	}

	return true;
    10ae:	81 e0       	ldi	r24, 0x01	; 1
    10b0:	01 c0       	rjmp	.+2      	; 0x10b4 <USB_GetHIDReportItemInfo+0xae>

bool USB_GetHIDReportItemInfo(const uint8_t* ReportData,
                              HID_ReportItem_t* const ReportItem)
{
	if (ReportItem == NULL)
	  return false;
    10b2:	80 e0       	ldi	r24, 0x00	; 0
		CurrentBit++;
		BitMask <<= 1;
	}

	return true;
}
    10b4:	df 91       	pop	r29
    10b6:	cf 91       	pop	r28
    10b8:	1f 91       	pop	r17
    10ba:	0f 91       	pop	r16
    10bc:	ff 90       	pop	r15
    10be:	ef 90       	pop	r14
    10c0:	08 95       	ret

000010c2 <USB_Host_ResetDevice>:
			 *  \return Boolean \c true if the bus is currently suspended, \c false otherwise.
			 */
			static inline bool USB_Host_IsBusSuspended(void) ATTR_WARN_UNUSED_RESULT ATTR_ALWAYS_INLINE;
			static inline bool USB_Host_IsBusSuspended(void)
			{
				return ((UHCON & (1 << SOFEN)) ? false : true);
    10c2:	80 91 9e 00 	lds	r24, 0x009E
    10c6:	81 70       	andi	r24, 0x01	; 1
						break;
					case USB_INT_DCONNI:
						UHIEN  &= ~(1 << DCONNE);
						break;
					case USB_INT_DDISCI:
						UHIEN  &= ~(1 << DDISCE);
    10c8:	90 91 a0 00 	lds	r25, 0x00A0
    10cc:	9d 7f       	andi	r25, 0xFD	; 253
    10ce:	90 93 a0 00 	sts	0x00A0, r25
			 *  woken up automatically and the bus resumed after the reset has been correctly issued.
			 */
			static inline void USB_Host_ResetBus(void) ATTR_ALWAYS_INLINE;
			static inline void USB_Host_ResetBus(void)
			{
				UHCON |=  (1 << RESET);
    10d2:	90 91 9e 00 	lds	r25, 0x009E
    10d6:	92 60       	ori	r25, 0x02	; 2
    10d8:	90 93 9e 00 	sts	0x009E, r25
			 *  \return Boolean \c true if no bus reset is currently being sent, \c false otherwise.
			 */
			static inline bool USB_Host_IsBusResetComplete(void) ATTR_WARN_UNUSED_RESULT ATTR_ALWAYS_INLINE;
			static inline bool USB_Host_IsBusResetComplete(void)
			{
				return ((UHCON & (1 << RESET)) ? false : true);
    10dc:	90 91 9e 00 	lds	r25, 0x009E
	bool BusSuspended = USB_Host_IsBusSuspended();

	USB_INT_Disable(USB_INT_DDISCI);

	USB_Host_ResetBus();
	while (!(USB_Host_IsBusResetComplete()));
    10e0:	91 fd       	sbrc	r25, 1
    10e2:	fc cf       	rjmp	.-8      	; 0x10dc <USB_Host_ResetDevice+0x1a>
			 *  host and attached device may occur.
			 */
			static inline void USB_Host_ResumeBus(void) ATTR_ALWAYS_INLINE;
			static inline void USB_Host_ResumeBus(void)
			{
				UHCON |=  (1 << SOFEN);
    10e4:	90 91 9e 00 	lds	r25, 0x009E
    10e8:	91 60       	ori	r25, 0x01	; 1
    10ea:	90 93 9e 00 	sts	0x009E, r25
	USB_Host_ResumeBus();

	USB_Host_ConfigurationNumber = 0;
    10ee:	10 92 f0 04 	sts	0x04F0, r1
					case USB_INT_RXSTPI:
						return (UEIENX & (1 << RXSTPE));
					#endif
					#if defined(USB_CAN_BE_HOST)
					case USB_INT_HSOFI:
						return (UHIEN  & (1 << HSOFE));
    10f2:	90 91 a0 00 	lds	r25, 0x00A0
    10f6:	90 72       	andi	r25, 0x20	; 32
						UEIENX &= ~(1 << RXSTPE);
						break;
					#endif
					#if defined(USB_CAN_BE_HOST)
					case USB_INT_HSOFI:
						UHIEN  &= ~(1 << HSOFE);
    10f8:	20 91 a0 00 	lds	r18, 0x00A0
    10fc:	2f 7d       	andi	r18, 0xDF	; 223
    10fe:	20 93 a0 00 	sts	0x00A0, r18
						UEINTX &= ~(1 << RXSTPI);
						break;
					#endif
					#if defined(USB_CAN_BE_HOST)
					case USB_INT_HSOFI:
						UHINT  &= ~(1 << HSOFI);
    1102:	20 91 9f 00 	lds	r18, 0x009F
    1106:	2f 7d       	andi	r18, 0xDF	; 223
    1108:	20 93 9f 00 	sts	0x009F, r18
    110c:	2a e0       	ldi	r18, 0x0A	; 10
					case USB_INT_RXSTPI:
						return (UEINTX & (1 << RXSTPI));
					#endif
					#if defined(USB_CAN_BE_HOST)
					case USB_INT_HSOFI:
						return (UHINT  & (1 << HSOFI));
    110e:	30 91 9f 00 	lds	r19, 0x009F
		/* Workaround for powerless-pull-up devices. After a USB bus reset,
		   all disconnection interrupts are suppressed while a USB frame is
		   looked for - if it is found within 10ms, the device is still
		   present.                                                        */

		if (USB_INT_HasOccurred(USB_INT_HSOFI))
    1112:	35 ff       	sbrs	r19, 5
    1114:	0b c0       	rjmp	.+22     	; 0x112c <USB_Host_ResetDevice+0x6a>
						UEINTX &= ~(1 << RXSTPI);
						break;
					#endif
					#if defined(USB_CAN_BE_HOST)
					case USB_INT_HSOFI:
						UHINT  &= ~(1 << HSOFI);
    1116:	20 91 9f 00 	lds	r18, 0x009F
    111a:	2f 7d       	andi	r18, 0xDF	; 223
    111c:	20 93 9f 00 	sts	0x009F, r18
						break;
					case USB_INT_DCONNI:
						UHINT  &= ~(1 << DCONNI);
						break;
					case USB_INT_DDISCI:
						UHINT  &= ~(1 << DDISCI);
    1120:	20 91 9f 00 	lds	r18, 0x009F
    1124:	2d 7f       	andi	r18, 0xFD	; 253
    1126:	20 93 9f 00 	sts	0x009F, r18
    112a:	08 c0       	rjmp	.+16     	; 0x113c <USB_Host_ResetDevice+0x7a>
	#else
		//round up by default
		__ticks_dc = (uint32_t)(ceil(fabs(__tmp)));
	#endif

	__builtin_avr_delay_cycles(__ticks_dc);
    112c:	ef ec       	ldi	r30, 0xCF	; 207
    112e:	f7 e0       	ldi	r31, 0x07	; 7
    1130:	31 97       	sbiw	r30, 0x01	; 1
    1132:	f1 f7       	brne	.-4      	; 0x1130 <USB_Host_ResetDevice+0x6e>
    1134:	00 c0       	rjmp	.+0      	; 0x1136 <USB_Host_ResetDevice+0x74>
    1136:	00 00       	nop
    1138:	21 50       	subi	r18, 0x01	; 1
	bool HSOFIEnabled = USB_INT_IsEnabled(USB_INT_HSOFI);

	USB_INT_Disable(USB_INT_HSOFI);
	USB_INT_Clear(USB_INT_HSOFI);

	for (uint8_t MSRem = 10; MSRem != 0; MSRem--)
    113a:	49 f7       	brne	.-46     	; 0x110e <USB_Host_ResetDevice+0x4c>
		}

		Delay_MS(1);
	}

	if (HSOFIEnabled)
    113c:	99 23       	and	r25, r25
    113e:	29 f0       	breq	.+10     	; 0x114a <USB_Host_ResetDevice+0x88>
						UEIENX |= (1 << RXSTPE);
						break;
					#endif
					#if defined(USB_CAN_BE_HOST)
					case USB_INT_HSOFI:
						UHIEN  |= (1 << HSOFE);
    1140:	90 91 a0 00 	lds	r25, 0x00A0
    1144:	90 62       	ori	r25, 0x20	; 32
    1146:	90 93 a0 00 	sts	0x00A0, r25
	  USB_INT_Enable(USB_INT_HSOFI);

	if (BusSuspended)
    114a:	81 11       	cpse	r24, r1
    114c:	05 c0       	rjmp	.+10     	; 0x1158 <USB_Host_ResetDevice+0x96>
			 *             some events (such as device disconnections) will not fire until the bus is resumed.
			 */
			static inline void USB_Host_SuspendBus(void) ATTR_ALWAYS_INLINE;
			static inline void USB_Host_SuspendBus(void)
			{
				UHCON &= ~(1 << SOFEN);
    114e:	80 91 9e 00 	lds	r24, 0x009E
    1152:	8e 7f       	andi	r24, 0xFE	; 254
    1154:	80 93 9e 00 	sts	0x009E, r24
						break;
					case USB_INT_DCONNI:
						UHIEN  |= (1 << DCONNE);
						break;
					case USB_INT_DDISCI:
						UHIEN  |= (1 << DDISCE);
    1158:	80 91 a0 00 	lds	r24, 0x00A0
    115c:	82 60       	ori	r24, 0x02	; 2
    115e:	80 93 a0 00 	sts	0x00A0, r24
    1162:	08 95       	ret

00001164 <USB_Host_WaitMS>:
			 *  \return Boolean \c true if the bus is currently suspended, \c false otherwise.
			 */
			static inline bool USB_Host_IsBusSuspended(void) ATTR_WARN_UNUSED_RESULT ATTR_ALWAYS_INLINE;
			static inline bool USB_Host_IsBusSuspended(void)
			{
				return ((UHCON & (1 << SOFEN)) ? false : true);
    1164:	20 91 9e 00 	lds	r18, 0x009E
    1168:	21 70       	andi	r18, 0x01	; 1
					case USB_INT_RXSTPI:
						return (UEIENX & (1 << RXSTPE));
					#endif
					#if defined(USB_CAN_BE_HOST)
					case USB_INT_HSOFI:
						return (UHIEN  & (1 << HSOFE));
    116a:	90 91 a0 00 	lds	r25, 0x00A0
    116e:	90 72       	andi	r25, 0x20	; 32
						UEIENX &= ~(1 << RXSTPE);
						break;
					#endif
					#if defined(USB_CAN_BE_HOST)
					case USB_INT_HSOFI:
						UHIEN  &= ~(1 << HSOFE);
    1170:	30 91 a0 00 	lds	r19, 0x00A0
    1174:	3f 7d       	andi	r19, 0xDF	; 223
    1176:	30 93 a0 00 	sts	0x00A0, r19
						UEINTX &= ~(1 << RXSTPI);
						break;
					#endif
					#if defined(USB_CAN_BE_HOST)
					case USB_INT_HSOFI:
						UHINT  &= ~(1 << HSOFI);
    117a:	30 91 9f 00 	lds	r19, 0x009F
    117e:	3f 7d       	andi	r19, 0xDF	; 223
    1180:	30 93 9f 00 	sts	0x009F, r19
			 *  host and attached device may occur.
			 */
			static inline void USB_Host_ResumeBus(void) ATTR_ALWAYS_INLINE;
			static inline void USB_Host_ResumeBus(void)
			{
				UHCON |=  (1 << SOFEN);
    1184:	30 91 9e 00 	lds	r19, 0x009E
    1188:	31 60       	ori	r19, 0x01	; 1
    118a:	30 93 9e 00 	sts	0x009E, r19
	USB_INT_Disable(USB_INT_HSOFI);
	USB_INT_Clear(USB_INT_HSOFI);

	USB_Host_ResumeBus();

	while (MS)
    118e:	88 23       	and	r24, r24
    1190:	39 f1       	breq	.+78     	; 0x11e0 <USB_Host_WaitMS+0x7c>
					case USB_INT_RXSTPI:
						return (UEINTX & (1 << RXSTPI));
					#endif
					#if defined(USB_CAN_BE_HOST)
					case USB_INT_HSOFI:
						return (UHINT  & (1 << HSOFI));
    1192:	30 91 9f 00 	lds	r19, 0x009F
	{
		if (USB_INT_HasOccurred(USB_INT_HSOFI))
    1196:	35 ff       	sbrs	r19, 5
    1198:	06 c0       	rjmp	.+12     	; 0x11a6 <USB_Host_WaitMS+0x42>
						UEINTX &= ~(1 << RXSTPI);
						break;
					#endif
					#if defined(USB_CAN_BE_HOST)
					case USB_INT_HSOFI:
						UHINT  &= ~(1 << HSOFI);
    119a:	30 91 9f 00 	lds	r19, 0x009F
    119e:	3f 7d       	andi	r19, 0xDF	; 223
    11a0:	30 93 9f 00 	sts	0x009F, r19
		{
			USB_INT_Clear(USB_INT_HSOFI);
			MS--;
    11a4:	81 50       	subi	r24, 0x01	; 1
		}

		if ((USB_HostState == HOST_STATE_Unattached) || (USB_CurrentMode != USB_MODE_Host))
    11a6:	30 91 fa 04 	lds	r19, 0x04FA
    11aa:	31 30       	cpi	r19, 0x01	; 1
    11ac:	c1 f0       	breq	.+48     	; 0x11de <USB_Host_WaitMS+0x7a>
			 *  \return Boolean \c true if an error has occurred on the selected pipe, \c false otherwise.
			 */
			static inline bool Pipe_IsError(void) ATTR_WARN_UNUSED_RESULT ATTR_ALWAYS_INLINE;
			static inline bool Pipe_IsError(void)
			{
				return ((UPINTX & (1 << PERRI)) ? true : false);
    11ae:	30 91 a6 00 	lds	r19, 0x00A6
			ErrorCode = HOST_WAITERROR_DeviceDisconnect;

			break;
		}

		if (Pipe_IsError())
    11b2:	34 ff       	sbrs	r19, 4
    11b4:	09 c0       	rjmp	.+18     	; 0x11c8 <USB_Host_WaitMS+0x64>

			/** Clears the error flags for the currently selected pipe. */
			static inline void Pipe_ClearError(void) ATTR_ALWAYS_INLINE;
			static inline void Pipe_ClearError(void)
			{
				UPERRX = 0;
    11b6:	10 92 f5 00 	sts	0x00F5, r1
				UPINTX &= ~(1 << PERRI);
    11ba:	80 91 a6 00 	lds	r24, 0x00A6
    11be:	8f 7e       	andi	r24, 0xEF	; 239
    11c0:	80 93 a6 00 	sts	0x00A6, r24
		{
			Pipe_ClearError();
			ErrorCode = HOST_WAITERROR_PipeError;
    11c4:	82 e0       	ldi	r24, 0x02	; 2

			break;
    11c6:	0c c0       	rjmp	.+24     	; 0x11e0 <USB_Host_WaitMS+0x7c>
			 *  \return Boolean \c true if the current pipe has been stalled by the attached device, \c false otherwise.
			 */
			static inline bool Pipe_IsStalled(void) ATTR_WARN_UNUSED_RESULT ATTR_ALWAYS_INLINE;
			static inline bool Pipe_IsStalled(void)
			{
				return ((UPINTX & (1 << RXSTALLI)) ? true : false);
    11c8:	30 91 a6 00 	lds	r19, 0x00A6
		}

		if (Pipe_IsStalled())
    11cc:	31 ff       	sbrs	r19, 1
    11ce:	df cf       	rjmp	.-66     	; 0x118e <USB_Host_WaitMS+0x2a>
			 *  \ingroup Group_PipePacketManagement_AVR8
			 */
			static inline void Pipe_ClearStall(void) ATTR_ALWAYS_INLINE;
			static inline void Pipe_ClearStall(void)
			{
				UPINTX &= ~(1 << RXSTALLI);
    11d0:	80 91 a6 00 	lds	r24, 0x00A6
    11d4:	8d 7f       	andi	r24, 0xFD	; 253
    11d6:	80 93 a6 00 	sts	0x00A6, r24
		{
			Pipe_ClearStall();
			ErrorCode = HOST_WAITERROR_SetupStalled;
    11da:	83 e0       	ldi	r24, 0x03	; 3

			break;
    11dc:	01 c0       	rjmp	.+2      	; 0x11e0 <USB_Host_WaitMS+0x7c>
			MS--;
		}

		if ((USB_HostState == HOST_STATE_Unattached) || (USB_CurrentMode != USB_MODE_Host))
		{
			ErrorCode = HOST_WAITERROR_DeviceDisconnect;
    11de:	81 e0       	ldi	r24, 0x01	; 1

			break;
		}
	}

	if (BusSuspended)
    11e0:	21 11       	cpse	r18, r1
    11e2:	05 c0       	rjmp	.+10     	; 0x11ee <USB_Host_WaitMS+0x8a>
			 *             some events (such as device disconnections) will not fire until the bus is resumed.
			 */
			static inline void USB_Host_SuspendBus(void) ATTR_ALWAYS_INLINE;
			static inline void USB_Host_SuspendBus(void)
			{
				UHCON &= ~(1 << SOFEN);
    11e4:	20 91 9e 00 	lds	r18, 0x009E
    11e8:	2e 7f       	andi	r18, 0xFE	; 254
    11ea:	20 93 9e 00 	sts	0x009E, r18
	  USB_Host_SuspendBus();

	if (HSOFIEnabled)
    11ee:	99 23       	and	r25, r25
    11f0:	29 f0       	breq	.+10     	; 0x11fc <USB_Host_WaitMS+0x98>
						UEIENX |= (1 << RXSTPE);
						break;
					#endif
					#if defined(USB_CAN_BE_HOST)
					case USB_INT_HSOFI:
						UHIEN  |= (1 << HSOFE);
    11f2:	90 91 a0 00 	lds	r25, 0x00A0
    11f6:	90 62       	ori	r25, 0x20	; 32
    11f8:	90 93 a0 00 	sts	0x00A0, r25
	  USB_INT_Enable(USB_INT_HSOFI);

	return ErrorCode;
}
    11fc:	08 95       	ret

000011fe <USB_Host_ProcessNextHostState>:

#define  __INCLUDE_FROM_HOST_C
#include "../Host.h"

void USB_Host_ProcessNextHostState(void)
{
    11fe:	0f 93       	push	r16
    1200:	1f 93       	push	r17
    1202:	cf 93       	push	r28
    1204:	df 93       	push	r29
    1206:	cd b7       	in	r28, 0x3d	; 61
    1208:	de b7       	in	r29, 0x3e	; 62
    120a:	28 97       	sbiw	r28, 0x08	; 8
    120c:	0f b6       	in	r0, 0x3f	; 63
    120e:	f8 94       	cli
    1210:	de bf       	out	0x3e, r29	; 62
    1212:	0f be       	out	0x3f, r0	; 63
    1214:	cd bf       	out	0x3d, r28	; 61
	uint8_t SubErrorCode = HOST_ENUMERROR_NoError;

	static uint16_t WaitMSRemaining;
	static uint8_t  PostWaitState;

	switch (USB_HostState)
    1216:	80 91 fa 04 	lds	r24, 0x04FA
    121a:	85 30       	cpi	r24, 0x05	; 5
    121c:	09 f4       	brne	.+2      	; 0x1220 <USB_Host_ProcessNextHostState+0x22>
    121e:	9c c0       	rjmp	.+312    	; 0x1358 <USB_Host_ProcessNextHostState+0x15a>
    1220:	68 f4       	brcc	.+26     	; 0x123c <USB_Host_ProcessNextHostState+0x3e>
    1222:	82 30       	cpi	r24, 0x02	; 2
    1224:	e1 f1       	breq	.+120    	; 0x129e <USB_Host_ProcessNextHostState+0xa0>
    1226:	18 f4       	brcc	.+6      	; 0x122e <USB_Host_ProcessNextHostState+0x30>
    1228:	88 23       	and	r24, r24
    122a:	d9 f0       	breq	.+54     	; 0x1262 <USB_Host_ProcessNextHostState+0x64>
    122c:	00 c1       	rjmp	.+512    	; 0x142e <USB_Host_ProcessNextHostState+0x230>
    122e:	83 30       	cpi	r24, 0x03	; 3
    1230:	09 f4       	brne	.+2      	; 0x1234 <USB_Host_ProcessNextHostState+0x36>
    1232:	3f c0       	rjmp	.+126    	; 0x12b2 <USB_Host_ProcessNextHostState+0xb4>
    1234:	84 30       	cpi	r24, 0x04	; 4
    1236:	09 f4       	brne	.+2      	; 0x123a <USB_Host_ProcessNextHostState+0x3c>
    1238:	67 c0       	rjmp	.+206    	; 0x1308 <USB_Host_ProcessNextHostState+0x10a>
    123a:	f9 c0       	rjmp	.+498    	; 0x142e <USB_Host_ProcessNextHostState+0x230>
    123c:	87 30       	cpi	r24, 0x07	; 7
    123e:	09 f4       	brne	.+2      	; 0x1242 <USB_Host_ProcessNextHostState+0x44>
    1240:	a6 c0       	rjmp	.+332    	; 0x138e <USB_Host_ProcessNextHostState+0x190>
    1242:	08 f4       	brcc	.+2      	; 0x1246 <USB_Host_ProcessNextHostState+0x48>
    1244:	96 c0       	rjmp	.+300    	; 0x1372 <USB_Host_ProcessNextHostState+0x174>
    1246:	88 30       	cpi	r24, 0x08	; 8
    1248:	09 f4       	brne	.+2      	; 0x124c <USB_Host_ProcessNextHostState+0x4e>
    124a:	bf c0       	rjmp	.+382    	; 0x13ca <USB_Host_ProcessNextHostState+0x1cc>
    124c:	89 30       	cpi	r24, 0x09	; 9
    124e:	09 f0       	breq	.+2      	; 0x1252 <USB_Host_ProcessNextHostState+0x54>
    1250:	ee c0       	rjmp	.+476    	; 0x142e <USB_Host_ProcessNextHostState+0x230>
			}

			static inline void USB_Host_SetDeviceAddress(const uint8_t Address) ATTR_ALWAYS_INLINE;
			static inline void USB_Host_SetDeviceAddress(const uint8_t Address)
			{
				UHADDR  =  (Address & 0x7F);
    1252:	81 e0       	ldi	r24, 0x01	; 1
    1254:	80 93 a1 00 	sts	0x00A1, r24
			HOST_TASK_NONBLOCK_WAIT(100, HOST_STATE_Default_PostAddressSet);
			break;
		case HOST_STATE_Default_PostAddressSet:
			USB_Host_SetDeviceAddress(USB_HOST_DEVICEADDRESS);

			USB_HostState = HOST_STATE_Addressed;
    1258:	8a e0       	ldi	r24, 0x0A	; 10
    125a:	80 93 fa 04 	sts	0x04FA, r24

			EVENT_USB_Host_DeviceEnumerationComplete();
    125e:	94 d8       	rcall	.-3800   	; 0x388 <EVENT_USB_Host_DeviceEnumerationComplete>
    1260:	e6 c0       	rjmp	.+460    	; 0x142e <USB_Host_ProcessNextHostState+0x230>
			break;
    1262:	00 91 13 01 	lds	r16, 0x0113
	static uint8_t  PostWaitState;

	switch (USB_HostState)
	{
		case HOST_STATE_WaitForDevice:
			if (WaitMSRemaining)
    1266:	10 91 14 01 	lds	r17, 0x0114
    126a:	01 15       	cp	r16, r1
    126c:	11 05       	cpc	r17, r1
    126e:	09 f4       	brne	.+2      	; 0x1272 <USB_Host_ProcessNextHostState+0x74>
    1270:	de c0       	rjmp	.+444    	; 0x142e <USB_Host_ProcessNextHostState+0x230>
    1272:	81 e0       	ldi	r24, 0x01	; 1
			{
				if ((SubErrorCode = USB_Host_WaitMS(1)) != HOST_WAITERROR_Successful)
    1274:	77 df       	rcall	.-274    	; 0x1164 <USB_Host_WaitMS>
    1276:	88 23       	and	r24, r24
    1278:	31 f0       	breq	.+12     	; 0x1286 <USB_Host_ProcessNextHostState+0x88>
    127a:	90 91 12 01 	lds	r25, 0x0112
				{
					USB_HostState = PostWaitState;
    127e:	90 93 fa 04 	sts	0x04FA, r25
    1282:	91 e0       	ldi	r25, 0x01	; 1
    1284:	c5 c0       	rjmp	.+394    	; 0x1410 <USB_Host_ProcessNextHostState+0x212>
					ErrorCode     = HOST_ENUMERROR_WaitStage;
    1286:	01 50       	subi	r16, 0x01	; 1
					break;
    1288:	11 09       	sbc	r17, r1
				}

				if (!(--WaitMSRemaining))
    128a:	10 93 14 01 	sts	0x0114, r17
    128e:	00 93 13 01 	sts	0x0113, r16
    1292:	01 2b       	or	r16, r17
    1294:	09 f0       	breq	.+2      	; 0x1298 <USB_Host_ProcessNextHostState+0x9a>
    1296:	cb c0       	rjmp	.+406    	; 0x142e <USB_Host_ProcessNextHostState+0x230>
    1298:	80 91 12 01 	lds	r24, 0x0112
				  USB_HostState = PostWaitState;
    129c:	07 c0       	rjmp	.+14     	; 0x12ac <USB_Host_ProcessNextHostState+0xae>
    129e:	88 ee       	ldi	r24, 0xE8	; 232
    12a0:	93 e0       	ldi	r25, 0x03	; 3
			}

			break;
		case HOST_STATE_Powered:
			WaitMSRemaining = HOST_DEVICE_SETTLE_DELAY_MS;
    12a2:	90 93 14 01 	sts	0x0114, r25
    12a6:	80 93 13 01 	sts	0x0113, r24
    12aa:	83 e0       	ldi	r24, 0x03	; 3
    12ac:	80 93 fa 04 	sts	0x04FA, r24

			USB_HostState = HOST_STATE_Powered_WaitForDeviceSettle;
    12b0:	be c0       	rjmp	.+380    	; 0x142e <USB_Host_ProcessNextHostState+0x230>
    12b2:	80 91 13 01 	lds	r24, 0x0113
			break;
		case HOST_STATE_Powered_WaitForDeviceSettle:
			if (WaitMSRemaining--)
    12b6:	90 91 14 01 	lds	r25, 0x0114
    12ba:	9c 01       	movw	r18, r24
    12bc:	21 50       	subi	r18, 0x01	; 1
    12be:	31 09       	sbc	r19, r1
    12c0:	30 93 14 01 	sts	0x0114, r19
    12c4:	20 93 13 01 	sts	0x0113, r18
    12c8:	89 2b       	or	r24, r25
    12ca:	39 f0       	breq	.+14     	; 0x12da <USB_Host_ProcessNextHostState+0xdc>
    12cc:	8f ec       	ldi	r24, 0xCF	; 207
    12ce:	97 e0       	ldi	r25, 0x07	; 7
    12d0:	01 97       	sbiw	r24, 0x01	; 1
    12d2:	f1 f7       	brne	.-4      	; 0x12d0 <USB_Host_ProcessNextHostState+0xd2>
    12d4:	00 c0       	rjmp	.+0      	; 0x12d6 <USB_Host_ProcessNextHostState+0xd8>
    12d6:	00 00       	nop
    12d8:	aa c0       	rjmp	.+340    	; 0x142e <USB_Host_ProcessNextHostState+0x230>
    12da:	77 98       	cbi	0x0e, 7	; 14
    12dc:	80 91 d8 00 	lds	r24, 0x00D8

			#if defined(USB_SERIES_4_AVR) || defined(USB_SERIES_6_AVR) || defined(USB_SERIES_7_AVR)
			static inline void USB_OTGPAD_On(void) ATTR_ALWAYS_INLINE;
			static inline void USB_OTGPAD_On(void)
			{
				USBCON |=  (1 << OTGPADE);
    12e0:	80 61       	ori	r24, 0x10	; 16
    12e2:	80 93 d8 00 	sts	0x00D8, r24
    12e6:	80 91 dd 00 	lds	r24, 0x00DD
			}

			static inline void USB_Host_VBUS_Auto_Enable(void) ATTR_ALWAYS_INLINE;
			static inline void USB_Host_VBUS_Auto_Enable(void)
			{
				OTGCON &= ~(1 << VBUSHWC);
    12ea:	8b 7f       	andi	r24, 0xFB	; 251
    12ec:	80 93 dd 00 	sts	0x00DD, r24
    12f0:	80 91 d7 00 	lds	r24, 0x00D7
				UHWCON |=  (1 << UVCONE);
    12f4:	80 61       	ori	r24, 0x10	; 16
    12f6:	80 93 d7 00 	sts	0x00D7, r24
    12fa:	80 91 dd 00 	lds	r24, 0x00DD
			}

			static inline void USB_Host_VBUS_Auto_On(void) ATTR_ALWAYS_INLINE;
			static inline void USB_Host_VBUS_Auto_On(void)
			{
				OTGCON |=  (1 << VBUSREQ);
    12fe:	82 60       	ori	r24, 0x02	; 2
    1300:	80 93 dd 00 	sts	0x00DD, r24
    1304:	84 e0       	ldi	r24, 0x04	; 4
    1306:	d2 cf       	rjmp	.-92     	; 0x12ac <USB_Host_ProcessNextHostState+0xae>
				#if defined(NO_AUTO_VBUS_MANAGEMENT)
				USB_Host_VBUS_Manual_Enable();
				USB_Host_VBUS_Manual_On();
				#endif

				USB_HostState = HOST_STATE_Powered_WaitForConnect;
    1308:	80 91 9f 00 	lds	r24, 0x009F
					#endif
					#if defined(USB_CAN_BE_HOST)
					case USB_INT_HSOFI:
						return (UHINT  & (1 << HSOFI));
					case USB_INT_DCONNI:
						return (UHINT  & (1 << DCONNI));
    130c:	80 ff       	sbrs	r24, 0
    130e:	8f c0       	rjmp	.+286    	; 0x142e <USB_Host_ProcessNextHostState+0x230>
			}

			break;
		case HOST_STATE_Powered_WaitForConnect:
			if (USB_INT_HasOccurred(USB_INT_DCONNI))
    1310:	80 91 9f 00 	lds	r24, 0x009F
					#if defined(USB_CAN_BE_HOST)
					case USB_INT_HSOFI:
						UHINT  &= ~(1 << HSOFI);
						break;
					case USB_INT_DCONNI:
						UHINT  &= ~(1 << DCONNI);
    1314:	8e 7f       	andi	r24, 0xFE	; 254
    1316:	80 93 9f 00 	sts	0x009F, r24
    131a:	80 91 9f 00 	lds	r24, 0x009F
						break;
					case USB_INT_DDISCI:
						UHINT  &= ~(1 << DDISCI);
    131e:	8d 7f       	andi	r24, 0xFD	; 253
    1320:	80 93 9f 00 	sts	0x009F, r24
    1324:	80 91 df 00 	lds	r24, 0x00DF
						break;
					case USB_INT_BCERRI:
						OTGINT &= ~(1 << BCERRI);
						break;
					case USB_INT_VBERRI:
						OTGINT &= ~(1 << VBERRI);
    1328:	8d 7f       	andi	r24, 0xFD	; 253
    132a:	80 93 df 00 	sts	0x00DF, r24
    132e:	80 91 de 00 	lds	r24, 0x00DE
						break;
					case USB_INT_BCERRI:
						OTGIEN |= (1 << BCERRE);
						break;
					case USB_INT_VBERRI:
						OTGIEN |= (1 << VBERRE);
    1332:	82 60       	ori	r24, 0x02	; 2
    1334:	80 93 de 00 	sts	0x00DE, r24
    1338:	80 91 9e 00 	lds	r24, 0x009E
			 *  host and attached device may occur.
			 */
			static inline void USB_Host_ResumeBus(void) ATTR_ALWAYS_INLINE;
			static inline void USB_Host_ResumeBus(void)
			{
				UHCON |=  (1 << SOFEN);
    133c:	81 60       	ori	r24, 0x01	; 1
    133e:	80 93 9e 00 	sts	0x009E, r24
    1342:	35 d1       	rcall	.+618    	; 0x15ae <Pipe_ClearPipes>
    1344:	10 92 fa 04 	sts	0x04FA, r1

				USB_INT_Clear(USB_INT_VBERRI);
				USB_INT_Enable(USB_INT_VBERRI);

				USB_Host_ResumeBus();
				Pipe_ClearPipes();
    1348:	84 e6       	ldi	r24, 0x64	; 100

				HOST_TASK_NONBLOCK_WAIT(100, HOST_STATE_Powered_DoReset);
    134a:	90 e0       	ldi	r25, 0x00	; 0
    134c:	90 93 14 01 	sts	0x0114, r25
    1350:	80 93 13 01 	sts	0x0113, r24
    1354:	85 e0       	ldi	r24, 0x05	; 5
    1356:	0a c0       	rjmp	.+20     	; 0x136c <USB_Host_ProcessNextHostState+0x16e>
    1358:	b4 de       	rcall	.-664    	; 0x10c2 <USB_Host_ResetDevice>
    135a:	10 92 fa 04 	sts	0x04FA, r1
			}

			break;
		case HOST_STATE_Powered_DoReset:
			USB_Host_ResetDevice();
    135e:	88 ec       	ldi	r24, 0xC8	; 200
    1360:	90 e0       	ldi	r25, 0x00	; 0

			HOST_TASK_NONBLOCK_WAIT(200, HOST_STATE_Powered_ConfigPipe);
    1362:	90 93 14 01 	sts	0x0114, r25
    1366:	80 93 13 01 	sts	0x0113, r24
    136a:	86 e0       	ldi	r24, 0x06	; 6
    136c:	80 93 12 01 	sts	0x0112, r24
    1370:	5e c0       	rjmp	.+188    	; 0x142e <USB_Host_ProcessNextHostState+0x230>
    1372:	01 e0       	ldi	r16, 0x01	; 1
    1374:	20 e4       	ldi	r18, 0x40	; 64
    1376:	30 e0       	ldi	r19, 0x00	; 0
			break;
    1378:	40 e0       	ldi	r20, 0x00	; 0
		case HOST_STATE_Powered_ConfigPipe:
			if (!(Pipe_ConfigurePipe(PIPE_CONTROLPIPE, EP_TYPE_CONTROL, ENDPOINT_CONTROLEP, PIPE_CONTROLPIPE_DEFAULT_SIZE, 1)))
    137a:	60 e0       	ldi	r22, 0x00	; 0
    137c:	80 e0       	ldi	r24, 0x00	; 0
    137e:	af d0       	rcall	.+350    	; 0x14de <Pipe_ConfigurePipe>
    1380:	81 11       	cpse	r24, r1
    1382:	03 c0       	rjmp	.+6      	; 0x138a <USB_Host_ProcessNextHostState+0x18c>
    1384:	80 e0       	ldi	r24, 0x00	; 0
    1386:	94 e0       	ldi	r25, 0x04	; 4
    1388:	43 c0       	rjmp	.+134    	; 0x1410 <USB_Host_ProcessNextHostState+0x212>
    138a:	87 e0       	ldi	r24, 0x07	; 7
    138c:	8f cf       	rjmp	.-226    	; 0x12ac <USB_Host_ProcessNextHostState+0xae>
			{
				ErrorCode    = HOST_ENUMERROR_PipeConfigError;
				SubErrorCode = 0;
    138e:	88 e0       	ldi	r24, 0x08	; 8
			HOST_TASK_NONBLOCK_WAIT(200, HOST_STATE_Powered_ConfigPipe);
			break;
		case HOST_STATE_Powered_ConfigPipe:
			if (!(Pipe_ConfigurePipe(PIPE_CONTROLPIPE, EP_TYPE_CONTROL, ENDPOINT_CONTROLEP, PIPE_CONTROLPIPE_DEFAULT_SIZE, 1)))
			{
				ErrorCode    = HOST_ENUMERROR_PipeConfigError;
    1390:	e1 e0       	ldi	r30, 0x01	; 1
    1392:	f1 e0       	ldi	r31, 0x01	; 1
				SubErrorCode = 0;
				break;
			}

			USB_HostState = HOST_STATE_Default;
    1394:	a2 ef       	ldi	r26, 0xF2	; 242
    1396:	b4 e0       	ldi	r27, 0x04	; 4
			break;
		case HOST_STATE_Default:
			USB_ControlRequest = (USB_Request_Header_t)
    1398:	01 90       	ld	r0, Z+
    139a:	0d 92       	st	X+, r0
    139c:	8a 95       	dec	r24
    139e:	e1 f7       	brne	.-8      	; 0x1398 <USB_Host_ProcessNextHostState+0x19a>
    13a0:	10 92 a7 00 	sts	0x00A7, r1
    13a4:	ce 01       	movw	r24, r28
    13a6:	01 96       	adiw	r24, 0x01	; 1
    13a8:	30 d3       	rcall	.+1632   	; 0x1a0a <USB_Host_SendControlRequest>
			 *  \param[in] Address  Address of the pipe to select.
			 */
			static inline void Pipe_SelectPipe(const uint8_t Address) ATTR_ALWAYS_INLINE;
			static inline void Pipe_SelectPipe(const uint8_t Address)
			{
				UPNUM = (Address & PIPE_PIPENUM_MASK);
    13aa:	81 11       	cpse	r24, r1
    13ac:	30 c0       	rjmp	.+96     	; 0x140e <USB_Host_ProcessNextHostState+0x210>
				};

			uint8_t DataBuffer[8];

			Pipe_SelectPipe(PIPE_CONTROLPIPE);
			if ((SubErrorCode = USB_Host_SendControlRequest(DataBuffer)) != HOST_SENDCONTROL_Successful)
    13ae:	88 85       	ldd	r24, Y+8	; 0x08
    13b0:	80 93 00 01 	sts	0x0100, r24
    13b4:	86 de       	rcall	.-756    	; 0x10c2 <USB_Host_ResetDevice>
    13b6:	10 92 fa 04 	sts	0x04FA, r1
			{
				ErrorCode = HOST_ENUMERROR_ControlError;
				break;
			}

			USB_Host_ControlPipeSize = DataBuffer[offsetof(USB_Descriptor_Device_t, Endpoint0Size)];
    13ba:	88 ec       	ldi	r24, 0xC8	; 200
    13bc:	90 e0       	ldi	r25, 0x00	; 0
    13be:	90 93 14 01 	sts	0x0114, r25

			USB_Host_ResetDevice();
    13c2:	80 93 13 01 	sts	0x0113, r24

			HOST_TASK_NONBLOCK_WAIT(200, HOST_STATE_Default_PostReset);
    13c6:	88 e0       	ldi	r24, 0x08	; 8
    13c8:	d1 cf       	rjmp	.-94     	; 0x136c <USB_Host_ProcessNextHostState+0x16e>
    13ca:	20 91 00 01 	lds	r18, 0x0100
    13ce:	30 e0       	ldi	r19, 0x00	; 0
    13d0:	01 e0       	ldi	r16, 0x01	; 1
    13d2:	40 e0       	ldi	r20, 0x00	; 0
    13d4:	60 e0       	ldi	r22, 0x00	; 0
    13d6:	80 e0       	ldi	r24, 0x00	; 0
			break;
		case HOST_STATE_Default_PostReset:
			if (!(Pipe_ConfigurePipe(PIPE_CONTROLPIPE, EP_TYPE_CONTROL, ENDPOINT_CONTROLEP, USB_Host_ControlPipeSize, 1)))
    13d8:	82 d0       	rcall	.+260    	; 0x14de <Pipe_ConfigurePipe>
    13da:	88 23       	and	r24, r24
    13dc:	99 f2       	breq	.-90     	; 0x1384 <USB_Host_ProcessNextHostState+0x186>
    13de:	88 e0       	ldi	r24, 0x08	; 8
    13e0:	e9 e0       	ldi	r30, 0x09	; 9
    13e2:	f1 e0       	ldi	r31, 0x01	; 1
    13e4:	a2 ef       	ldi	r26, 0xF2	; 242
    13e6:	b4 e0       	ldi	r27, 0x04	; 4
    13e8:	01 90       	ld	r0, Z+
    13ea:	0d 92       	st	X+, r0
    13ec:	8a 95       	dec	r24
				ErrorCode    = HOST_ENUMERROR_PipeConfigError;
				SubErrorCode = 0;
				break;
			}

			USB_ControlRequest = (USB_Request_Header_t)
    13ee:	e1 f7       	brne	.-8      	; 0x13e8 <USB_Host_ProcessNextHostState+0x1ea>
    13f0:	80 e0       	ldi	r24, 0x00	; 0
    13f2:	90 e0       	ldi	r25, 0x00	; 0
    13f4:	0a d3       	rcall	.+1556   	; 0x1a0a <USB_Host_SendControlRequest>
    13f6:	81 11       	cpse	r24, r1
    13f8:	0a c0       	rjmp	.+20     	; 0x140e <USB_Host_ProcessNextHostState+0x210>
    13fa:	10 92 fa 04 	sts	0x04FA, r1
    13fe:	84 e6       	ldi	r24, 0x64	; 100
					.wValue        = USB_HOST_DEVICEADDRESS,
					.wIndex        = 0,
					.wLength       = 0,
				};

			if ((SubErrorCode = USB_Host_SendControlRequest(NULL)) != HOST_SENDCONTROL_Successful)
    1400:	90 e0       	ldi	r25, 0x00	; 0
    1402:	90 93 14 01 	sts	0x0114, r25
    1406:	80 93 13 01 	sts	0x0113, r24
    140a:	89 e0       	ldi	r24, 0x09	; 9
			{
				ErrorCode = HOST_ENUMERROR_ControlError;
				break;
			}

			HOST_TASK_NONBLOCK_WAIT(100, HOST_STATE_Default_PostAddressSet);
    140c:	af cf       	rjmp	.-162    	; 0x136c <USB_Host_ProcessNextHostState+0x16e>
    140e:	93 e0       	ldi	r25, 0x03	; 3
    1410:	20 91 fa 04 	lds	r18, 0x04FA
    1414:	21 30       	cpi	r18, 0x01	; 1
    1416:	59 f0       	breq	.+22     	; 0x142e <USB_Host_ProcessNextHostState+0x230>
    1418:	68 2f       	mov	r22, r24
    141a:	89 2f       	mov	r24, r25
    141c:	31 d8       	rcall	.-3998   	; 0x480 <EVENT_USB_Host_DeviceEnumerationFailed>
    141e:	80 91 dd 00 	lds	r24, 0x00DD

		default:
			break;
	}

	if ((ErrorCode != HOST_ENUMERROR_NoError) && (USB_HostState != HOST_STATE_Unattached))
    1422:	81 60       	ori	r24, 0x01	; 1
    1424:	80 93 dd 00 	sts	0x00DD, r24
    1428:	0e 94 be 01 	call	0x37c	; 0x37c <EVENT_USB_Host_DeviceUnattached>
	{
		EVENT_USB_Host_DeviceEnumerationFailed(ErrorCode, SubErrorCode);
    142c:	1a d1       	rcall	.+564    	; 0x1662 <USB_ResetInterface>
    142e:	28 96       	adiw	r28, 0x08	; 8
    1430:	0f b6       	in	r0, 0x3f	; 63
			}

			static inline void USB_Host_VBUS_Auto_Off(void) ATTR_ALWAYS_INLINE;
			static inline void USB_Host_VBUS_Auto_Off(void)
			{
				OTGCON |=  (1 << VBUSRQC);
    1432:	f8 94       	cli
    1434:	de bf       	out	0x3e, r29	; 62
    1436:	0f be       	out	0x3f, r0	; 63
    1438:	cd bf       	out	0x3d, r28	; 61
    143a:	df 91       	pop	r29

		USB_Host_VBUS_Auto_Off();

		EVENT_USB_Host_DeviceUnattached();
    143c:	cf 91       	pop	r28
    143e:	1f 91       	pop	r17

		USB_ResetInterface();
    1440:	0f 91       	pop	r16
    1442:	08 95       	ret

00001444 <Pipe_Read_Stream_LE>:
#if defined(TEMPLATE_FUNC_NAME)

uint8_t TEMPLATE_FUNC_NAME (TEMPLATE_BUFFER_TYPE const Buffer,
                            uint16_t Length,
                            uint16_t* const BytesProcessed)
{
    1444:	cf 92       	push	r12
    1446:	df 92       	push	r13
    1448:	ef 92       	push	r14
    144a:	ff 92       	push	r15
    144c:	0f 93       	push	r16
    144e:	1f 93       	push	r17
    1450:	cf 93       	push	r28
    1452:	df 93       	push	r29
    1454:	7c 01       	movw	r14, r24
    1456:	8b 01       	movw	r16, r22
    1458:	ea 01       	movw	r28, r20
			 *  \param[in] Token  New pipe token to set the selected pipe to, as a \c PIPE_TOKEN_* mask.
			 */
			static inline void Pipe_SetPipeToken(const uint8_t Token) ATTR_ALWAYS_INLINE;
			static inline void Pipe_SetPipeToken(const uint8_t Token)
			{
				UPCFG0X = ((UPCFG0X & ~(0x03 << PTOKEN0)) | Token);
    145a:	80 91 aa 00 	lds	r24, 0x00AA
    145e:	8f 7c       	andi	r24, 0xCF	; 207
    1460:	80 61       	ori	r24, 0x10	; 16
    1462:	80 93 aa 00 	sts	0x00AA, r24
	uint16_t BytesInTransfer = 0;
	uint8_t  ErrorCode;

	Pipe_SetPipeToken(TEMPLATE_TOKEN);

	if ((ErrorCode = Pipe_WaitUntilReady()))
    1466:	b7 d0       	rcall	.+366    	; 0x15d6 <Pipe_WaitUntilReady>
    1468:	81 11       	cpse	r24, r1
    146a:	30 c0       	rjmp	.+96     	; 0x14cc <Pipe_Read_Stream_LE+0x88>
    146c:	20 97       	sbiw	r28, 0x00	; 0
	  return ErrorCode;

	if (BytesProcessed != NULL)
    146e:	31 f0       	breq	.+12     	; 0x147c <Pipe_Read_Stream_LE+0x38>
    1470:	88 81       	ld	r24, Y
	{
		Length -= *BytesProcessed;
    1472:	99 81       	ldd	r25, Y+1	; 0x01
    1474:	08 1b       	sub	r16, r24
    1476:	19 0b       	sbc	r17, r25
    1478:	e8 0e       	add	r14, r24
		TEMPLATE_BUFFER_MOVE(DataStream, *BytesProcessed);
    147a:	f9 1e       	adc	r15, r25
    147c:	c1 2c       	mov	r12, r1

uint8_t TEMPLATE_FUNC_NAME (TEMPLATE_BUFFER_TYPE const Buffer,
                            uint16_t Length,
                            uint16_t* const BytesProcessed)
{
	uint8_t* DataStream      = ((uint8_t*)Buffer + TEMPLATE_BUFFER_OFFSET(Length));
    147e:	d1 2c       	mov	r13, r1
    1480:	01 15       	cp	r16, r1
	{
		Length -= *BytesProcessed;
		TEMPLATE_BUFFER_MOVE(DataStream, *BytesProcessed);
	}

	while (Length)
    1482:	11 05       	cpc	r17, r1
    1484:	11 f1       	breq	.+68     	; 0x14ca <Pipe_Read_Stream_LE+0x86>
    1486:	80 91 a6 00 	lds	r24, 0x00A6
			 *          on its direction.
			 */
			static inline bool Pipe_IsReadWriteAllowed(void) ATTR_WARN_UNUSED_RESULT ATTR_ALWAYS_INLINE;
			static inline bool Pipe_IsReadWriteAllowed(void)
			{
				return ((UPINTX & (1 << RWAL)) ? true : false);
    148a:	85 fd       	sbrc	r24, 5
	{
		if (!(Pipe_IsReadWriteAllowed()))
    148c:	13 c0       	rjmp	.+38     	; 0x14b4 <Pipe_Read_Stream_LE+0x70>
    148e:	80 91 a6 00 	lds	r24, 0x00A6
			 *  \ingroup Group_PipePacketManagement_AVR8
			 */
			static inline void Pipe_ClearIN(void) ATTR_ALWAYS_INLINE;
			static inline void Pipe_ClearIN(void)
			{
				UPINTX &= ~((1 << RXINI) | (1 << FIFOCON));
    1492:	8e 77       	andi	r24, 0x7E	; 126
    1494:	80 93 a6 00 	sts	0x00A6, r24
    1498:	20 97       	sbiw	r28, 0x00	; 0
		{
			TEMPLATE_CLEAR_PIPE();

			if (BytesProcessed != NULL)
    149a:	41 f0       	breq	.+16     	; 0x14ac <Pipe_Read_Stream_LE+0x68>
    149c:	88 81       	ld	r24, Y
			{
				*BytesProcessed += BytesInTransfer;
    149e:	99 81       	ldd	r25, Y+1	; 0x01
    14a0:	8c 0d       	add	r24, r12
    14a2:	9d 1d       	adc	r25, r13
    14a4:	99 83       	std	Y+1, r25	; 0x01
    14a6:	88 83       	st	Y, r24
    14a8:	84 e0       	ldi	r24, 0x04	; 4
				return PIPE_RWSTREAM_IncompleteTransfer;
    14aa:	10 c0       	rjmp	.+32     	; 0x14cc <Pipe_Read_Stream_LE+0x88>
    14ac:	94 d0       	rcall	.+296    	; 0x15d6 <Pipe_WaitUntilReady>
			}

			if ((ErrorCode = Pipe_WaitUntilReady()))
    14ae:	88 23       	and	r24, r24
    14b0:	39 f3       	breq	.-50     	; 0x1480 <Pipe_Read_Stream_LE+0x3c>
    14b2:	0c c0       	rjmp	.+24     	; 0x14cc <Pipe_Read_Stream_LE+0x88>
    14b4:	80 91 af 00 	lds	r24, 0x00AF
			 *  \return Next byte in the currently selected pipe's FIFO buffer.
			 */
			static inline uint8_t Pipe_Read_8(void) ATTR_WARN_UNUSED_RESULT ATTR_ALWAYS_INLINE;
			static inline uint8_t Pipe_Read_8(void)
			{
				return UPDATX;
    14b8:	f7 01       	movw	r30, r14
    14ba:	81 93       	st	Z+, r24
			  return ErrorCode;
		}
		else
		{
			TEMPLATE_TRANSFER_BYTE(DataStream);
    14bc:	7f 01       	movw	r14, r30
    14be:	01 50       	subi	r16, 0x01	; 1
    14c0:	11 09       	sbc	r17, r1
			TEMPLATE_BUFFER_MOVE(DataStream, 1);
			Length--;
    14c2:	ff ef       	ldi	r31, 0xFF	; 255
    14c4:	cf 1a       	sub	r12, r31
			BytesInTransfer++;
    14c6:	df 0a       	sbc	r13, r31
    14c8:	db cf       	rjmp	.-74     	; 0x1480 <Pipe_Read_Stream_LE+0x3c>
    14ca:	80 e0       	ldi	r24, 0x00	; 0
    14cc:	df 91       	pop	r29
		}
	}

	return PIPE_RWSTREAM_NoError;
    14ce:	cf 91       	pop	r28
}
    14d0:	1f 91       	pop	r17
    14d2:	0f 91       	pop	r16
    14d4:	ff 90       	pop	r15
    14d6:	ef 90       	pop	r14
    14d8:	df 90       	pop	r13
    14da:	cf 90       	pop	r12
    14dc:	08 95       	ret

000014de <Pipe_ConfigurePipe>:
bool Pipe_ConfigurePipe(const uint8_t Address,
                        const uint8_t Type,
                        const uint8_t EndpointAddress,
                        const uint16_t Size,
                        const uint8_t Banks)
{
    14de:	0f 93       	push	r16
	uint8_t Number = (Address & PIPE_EPNUM_MASK);
    14e0:	e8 2f       	mov	r30, r24
    14e2:	ef 70       	andi	r30, 0x0F	; 15
	uint8_t Token  = (Address & PIPE_DIR_IN) ? PIPE_TOKEN_IN : PIPE_TOKEN_OUT;
    14e4:	87 ff       	sbrs	r24, 7
    14e6:	02 c0       	rjmp	.+4      	; 0x14ec <Pipe_ConfigurePipe+0xe>
    14e8:	80 e1       	ldi	r24, 0x10	; 16
    14ea:	01 c0       	rjmp	.+2      	; 0x14ee <Pipe_ConfigurePipe+0x10>
    14ec:	80 e2       	ldi	r24, 0x20	; 32

	if (Number >= PIPE_TOTAL_PIPES)
    14ee:	e7 30       	cpi	r30, 0x07	; 7
    14f0:	10 f0       	brcs	.+4      	; 0x14f6 <Pipe_ConfigurePipe+0x18>
	  return false;
    14f2:	80 e0       	ldi	r24, 0x00	; 0
    14f4:	5a c0       	rjmp	.+180    	; 0x15aa <Pipe_ConfigurePipe+0xcc>

	if (Type == EP_TYPE_CONTROL)
    14f6:	61 11       	cpse	r22, r1
    14f8:	01 c0       	rjmp	.+2      	; 0x14fc <Pipe_ConfigurePipe+0x1e>
	  Token = PIPE_TOKEN_SETUP;
    14fa:	80 e0       	ldi	r24, 0x00	; 0

		Pipe_SelectPipe(PNum);

		if (PNum == Number)
		{
			UPCFG0XTemp = ((Type << EPTYPE0) | Token | ((EndpointAddress & PIPE_EPNUM_MASK) << PEPNUM0));
    14fc:	90 e4       	ldi	r25, 0x40	; 64
    14fe:	69 9f       	mul	r22, r25
    1500:	b0 01       	movw	r22, r0
    1502:	11 24       	eor	r1, r1
    1504:	4f 70       	andi	r20, 0x0F	; 15
    1506:	46 2b       	or	r20, r22
    1508:	48 2b       	or	r20, r24
    150a:	5e 2f       	mov	r21, r30
			 *  \param[in] Address  Address of the pipe to select.
			 */
			static inline void Pipe_SelectPipe(const uint8_t Address) ATTR_ALWAYS_INLINE;
			static inline void Pipe_SelectPipe(const uint8_t Address)
			{
				UPNUM = (Address & PIPE_PIPENUM_MASK);
    150c:	50 93 a7 00 	sts	0x00A7, r21
		uint8_t UPCFG2XTemp;
		uint8_t UPIENXTemp;

		Pipe_SelectPipe(PNum);

		if (PNum == Number)
    1510:	5e 13       	cpse	r21, r30
    1512:	19 c0       	rjmp	.+50     	; 0x1546 <Pipe_ConfigurePipe+0x68>
		{
			UPCFG0XTemp = ((Type << EPTYPE0) | Token | ((EndpointAddress & PIPE_EPNUM_MASK) << PEPNUM0));
			UPCFG1XTemp = ((1 << ALLOC) | ((Banks > 1) ? (1 << EPBK0) : 0) | Pipe_BytesToEPSizeMask(Size));
    1514:	02 30       	cpi	r16, 0x02	; 2
    1516:	10 f0       	brcs	.+4      	; 0x151c <Pipe_ConfigurePipe+0x3e>
    1518:	76 e0       	ldi	r23, 0x06	; 6
    151a:	01 c0       	rjmp	.+2      	; 0x151e <Pipe_ConfigurePipe+0x40>
    151c:	72 e0       	ldi	r23, 0x02	; 2
		/* Inline Functions: */
			static inline uint8_t Pipe_BytesToEPSizeMask(const uint16_t Bytes) ATTR_WARN_UNUSED_RESULT ATTR_CONST ATTR_ALWAYS_INLINE;
			static inline uint8_t Pipe_BytesToEPSizeMask(const uint16_t Bytes)
			{
				uint8_t  MaskVal    = 0;
				uint16_t CheckBytes = 8;
    151e:	88 e0       	ldi	r24, 0x08	; 8
    1520:	90 e0       	ldi	r25, 0x00	; 0

		/* Inline Functions: */
			static inline uint8_t Pipe_BytesToEPSizeMask(const uint16_t Bytes) ATTR_WARN_UNUSED_RESULT ATTR_CONST ATTR_ALWAYS_INLINE;
			static inline uint8_t Pipe_BytesToEPSizeMask(const uint16_t Bytes)
			{
				uint8_t  MaskVal    = 0;
    1522:	60 e0       	ldi	r22, 0x00	; 0
				uint16_t CheckBytes = 8;

				while ((CheckBytes < Bytes) && (CheckBytes < PIPE_MAX_SIZE))
    1524:	82 17       	cp	r24, r18
    1526:	93 07       	cpc	r25, r19
    1528:	40 f0       	brcs	.+16     	; 0x153a <Pipe_ConfigurePipe+0x5c>
				{
					MaskVal++;
					CheckBytes <<= 1;
				}

				return (MaskVal << EPSIZE0);
    152a:	86 2f       	mov	r24, r22
    152c:	82 95       	swap	r24
    152e:	80 7f       	andi	r24, 0xF0	; 240
    1530:	87 2b       	or	r24, r23

		Pipe_SelectPipe(PNum);

		if (PNum == Number)
		{
			UPCFG0XTemp = ((Type << EPTYPE0) | Token | ((EndpointAddress & PIPE_EPNUM_MASK) << PEPNUM0));
    1532:	f4 2f       	mov	r31, r20
			UPCFG1XTemp = ((1 << ALLOC) | ((Banks > 1) ? (1 << EPBK0) : 0) | Pipe_BytesToEPSizeMask(Size));
			UPCFG2XTemp = 0;
			UPIENXTemp  = 0;
    1534:	60 e0       	ldi	r22, 0x00	; 0

		if (PNum == Number)
		{
			UPCFG0XTemp = ((Type << EPTYPE0) | Token | ((EndpointAddress & PIPE_EPNUM_MASK) << PEPNUM0));
			UPCFG1XTemp = ((1 << ALLOC) | ((Banks > 1) ? (1 << EPBK0) : 0) | Pipe_BytesToEPSizeMask(Size));
			UPCFG2XTemp = 0;
    1536:	70 e0       	ldi	r23, 0x00	; 0
    1538:	0e c0       	rjmp	.+28     	; 0x1556 <Pipe_ConfigurePipe+0x78>
			static inline uint8_t Pipe_BytesToEPSizeMask(const uint16_t Bytes)
			{
				uint8_t  MaskVal    = 0;
				uint16_t CheckBytes = 8;

				while ((CheckBytes < Bytes) && (CheckBytes < PIPE_MAX_SIZE))
    153a:	65 30       	cpi	r22, 0x05	; 5
    153c:	b1 f3       	breq	.-20     	; 0x152a <Pipe_ConfigurePipe+0x4c>
				{
					MaskVal++;
    153e:	6f 5f       	subi	r22, 0xFF	; 255
					CheckBytes <<= 1;
    1540:	88 0f       	add	r24, r24
    1542:	99 1f       	adc	r25, r25
    1544:	ef cf       	rjmp	.-34     	; 0x1524 <Pipe_ConfigurePipe+0x46>
			UPIENXTemp  = 0;
		}
		else
		{
			UPCFG0XTemp = UPCFG0X;
    1546:	f0 91 aa 00 	lds	r31, 0x00AA
			UPCFG1XTemp = UPCFG1X;
    154a:	80 91 ab 00 	lds	r24, 0x00AB
			UPCFG2XTemp = UPCFG2X;
    154e:	70 91 ad 00 	lds	r23, 0x00AD
			UPIENXTemp  = UPIENX;
    1552:	60 91 ae 00 	lds	r22, 0x00AE
		}

		if (!(UPCFG1XTemp & (1 << ALLOC)))
    1556:	81 fd       	sbrc	r24, 1
    1558:	07 c0       	rjmp	.+14     	; 0x1568 <Pipe_ConfigurePipe+0x8a>

	Pipe_SetInfiniteINRequests();

	return Pipe_IsConfigured();
#else
	for (uint8_t PNum = Number; PNum < PIPE_TOTAL_PIPES; PNum++)
    155a:	5f 5f       	subi	r21, 0xFF	; 255
    155c:	57 30       	cpi	r21, 0x07	; 7
    155e:	b1 f6       	brne	.-84     	; 0x150c <Pipe_ConfigurePipe+0x2e>
			 *  \param[in] Address  Address of the pipe to select.
			 */
			static inline void Pipe_SelectPipe(const uint8_t Address) ATTR_ALWAYS_INLINE;
			static inline void Pipe_SelectPipe(const uint8_t Address)
			{
				UPNUM = (Address & PIPE_PIPENUM_MASK);
    1560:	e0 93 a7 00 	sts	0x00A7, r30
		if (!(Pipe_IsConfigured()))
		  return false;
	}

	Pipe_SelectPipe(Number);
	return true;
    1564:	81 e0       	ldi	r24, 0x01	; 1
    1566:	21 c0       	rjmp	.+66     	; 0x15aa <Pipe_ConfigurePipe+0xcc>
			 *  from an attached device.
			 */
			static inline void Pipe_DisablePipe(void) ATTR_ALWAYS_INLINE;
			static inline void Pipe_DisablePipe(void)
			{
				UPCONX &= ~(1 << PEN);
    1568:	90 91 a9 00 	lds	r25, 0x00A9
    156c:	9e 7f       	andi	r25, 0xFE	; 254
    156e:	90 93 a9 00 	sts	0x00A9, r25

		if (!(UPCFG1XTemp & (1 << ALLOC)))
		  continue;

		Pipe_DisablePipe();
		UPCFG1X &= ~(1 << ALLOC);
    1572:	90 91 ab 00 	lds	r25, 0x00AB
    1576:	9d 7f       	andi	r25, 0xFD	; 253
    1578:	90 93 ab 00 	sts	0x00AB, r25
			 *  \pre The currently selected pipe must first be configured properly via \ref Pipe_ConfigurePipe().
			 */
			static inline void Pipe_EnablePipe(void) ATTR_ALWAYS_INLINE;
			static inline void Pipe_EnablePipe(void)
			{
				UPCONX |= (1 << PEN);
    157c:	90 91 a9 00 	lds	r25, 0x00A9
    1580:	91 60       	ori	r25, 0x01	; 1
    1582:	90 93 a9 00 	sts	0x00A9, r25

		Pipe_EnablePipe();
		UPCFG0X = UPCFG0XTemp;
    1586:	f0 93 aa 00 	sts	0x00AA, r31
		UPCFG1X = UPCFG1XTemp;
    158a:	80 93 ab 00 	sts	0x00AB, r24
		UPCFG2X = UPCFG2XTemp;
    158e:	70 93 ad 00 	sts	0x00AD, r23
		UPIENX  = UPIENXTemp;
    1592:	60 93 ae 00 	sts	0x00AE, r22

			/** Configures the currently selected pipe to allow for an unlimited number of IN requests. */
			static inline void Pipe_SetInfiniteINRequests(void) ATTR_ALWAYS_INLINE;
			static inline void Pipe_SetInfiniteINRequests(void)
			{
				UPCONX |= (1 << INMODE);
    1596:	80 91 a9 00 	lds	r24, 0x00A9
    159a:	80 62       	ori	r24, 0x20	; 32
    159c:	80 93 a9 00 	sts	0x00A9, r24
			 *  \return Boolean \c true if the selected pipe is configured, \c false otherwise.
			 */
			static inline bool Pipe_IsConfigured(void) ATTR_WARN_UNUSED_RESULT ATTR_ALWAYS_INLINE;
			static inline bool Pipe_IsConfigured(void)
			{
				return ((UPSTAX & (1 << CFGOK)) ? true : false);
    15a0:	80 91 ac 00 	lds	r24, 0x00AC

		Pipe_SetInfiniteINRequests();

		if (!(Pipe_IsConfigured()))
    15a4:	87 fd       	sbrc	r24, 7
    15a6:	d9 cf       	rjmp	.-78     	; 0x155a <Pipe_ConfigurePipe+0x7c>
    15a8:	a4 cf       	rjmp	.-184    	; 0x14f2 <Pipe_ConfigurePipe+0x14>
	}

	Pipe_SelectPipe(Number);
	return true;
#endif
}
    15aa:	0f 91       	pop	r16
    15ac:	08 95       	ret

000015ae <Pipe_ClearPipes>:

void Pipe_ClearPipes(void)
{
	UPINT = 0;
    15ae:	10 92 f8 00 	sts	0x00F8, r1

	for (uint8_t PNum = 0; PNum < PIPE_TOTAL_PIPES; PNum++)
    15b2:	80 e0       	ldi	r24, 0x00	; 0
			 *  \param[in] Address  Address of the pipe to select.
			 */
			static inline void Pipe_SelectPipe(const uint8_t Address) ATTR_ALWAYS_INLINE;
			static inline void Pipe_SelectPipe(const uint8_t Address)
			{
				UPNUM = (Address & PIPE_PIPENUM_MASK);
    15b4:	80 93 a7 00 	sts	0x00A7, r24
	{
		Pipe_SelectPipe(PNum);
		UPIENX  = 0;
    15b8:	10 92 ae 00 	sts	0x00AE, r1
		UPINTX  = 0;
    15bc:	10 92 a6 00 	sts	0x00A6, r1
		UPCFG1X = 0;
    15c0:	10 92 ab 00 	sts	0x00AB, r1
			 *  from an attached device.
			 */
			static inline void Pipe_DisablePipe(void) ATTR_ALWAYS_INLINE;
			static inline void Pipe_DisablePipe(void)
			{
				UPCONX &= ~(1 << PEN);
    15c4:	90 91 a9 00 	lds	r25, 0x00A9
    15c8:	9e 7f       	andi	r25, 0xFE	; 254
    15ca:	90 93 a9 00 	sts	0x00A9, r25

void Pipe_ClearPipes(void)
{
	UPINT = 0;

	for (uint8_t PNum = 0; PNum < PIPE_TOTAL_PIPES; PNum++)
    15ce:	8f 5f       	subi	r24, 0xFF	; 255
    15d0:	87 30       	cpi	r24, 0x07	; 7
    15d2:	81 f7       	brne	.-32     	; 0x15b4 <Pipe_ClearPipes+0x6>
		UPIENX  = 0;
		UPINTX  = 0;
		UPCFG1X = 0;
		Pipe_DisablePipe();
	}
}
    15d4:	08 95       	ret

000015d6 <Pipe_WaitUntilReady>:
			 *  \return Current USB frame number from the USB controller.
			 */
			static inline uint16_t USB_Host_GetFrameNumber(void) ATTR_WARN_UNUSED_RESULT ATTR_ALWAYS_INLINE;
			static inline uint16_t USB_Host_GetFrameNumber(void)
			{
				return UHFNUM;
    15d6:	80 91 a2 00 	lds	r24, 0x00A2
    15da:	90 91 a3 00 	lds	r25, 0x00A3
    15de:	45 e6       	ldi	r20, 0x65	; 101
			 *  \return The current pipe token, as a \c PIPE_TOKEN_* mask.
			 */
			static inline uint8_t Pipe_GetPipeToken(void) ATTR_WARN_UNUSED_RESULT ATTR_ALWAYS_INLINE;
			static inline uint8_t Pipe_GetPipeToken(void)
			{
				return (UPCFG0X & (0x03 << PTOKEN0));
    15e0:	20 91 aa 00 	lds	r18, 0x00AA
    15e4:	20 73       	andi	r18, 0x30	; 48

	uint16_t PreviousFrameNumber = USB_Host_GetFrameNumber();

	for (;;)
	{
		if (Pipe_GetPipeToken() == PIPE_TOKEN_IN)
    15e6:	20 31       	cpi	r18, 0x10	; 16
    15e8:	29 f4       	brne	.+10     	; 0x15f4 <Pipe_WaitUntilReady+0x1e>
			 *  \return Boolean \c true if the current pipe has received an IN packet, \c false otherwise.
			 */
			static inline bool Pipe_IsINReceived(void) ATTR_WARN_UNUSED_RESULT ATTR_ALWAYS_INLINE;
			static inline bool Pipe_IsINReceived(void)
			{
				return ((UPINTX & (1 << RXINI)) ? true : false);
    15ea:	20 91 a6 00 	lds	r18, 0x00A6
		{
			if (Pipe_IsINReceived())
    15ee:	20 ff       	sbrs	r18, 0
    15f0:	05 c0       	rjmp	.+10     	; 0x15fc <Pipe_WaitUntilReady+0x26>
    15f2:	17 c0       	rjmp	.+46     	; 0x1622 <Pipe_WaitUntilReady+0x4c>
			 *  \return Boolean \c true if the current pipe is ready for an OUT packet, \c false otherwise.
			 */
			static inline bool Pipe_IsOUTReady(void) ATTR_WARN_UNUSED_RESULT ATTR_ALWAYS_INLINE;
			static inline bool Pipe_IsOUTReady(void)
			{
				return ((UPINTX & (1 << TXOUTI)) ? true : false);
    15f4:	20 91 a6 00 	lds	r18, 0x00A6
			  return PIPE_READYWAIT_NoError;
		}
		else
		{
			if (Pipe_IsOUTReady())
    15f8:	22 fd       	sbrc	r18, 2
    15fa:	13 c0       	rjmp	.+38     	; 0x1622 <Pipe_WaitUntilReady+0x4c>
			 *  \return Boolean \c true if the current pipe has been stalled by the attached device, \c false otherwise.
			 */
			static inline bool Pipe_IsStalled(void) ATTR_WARN_UNUSED_RESULT ATTR_ALWAYS_INLINE;
			static inline bool Pipe_IsStalled(void)
			{
				return ((UPINTX & (1 << RXSTALLI)) ? true : false);
    15fc:	20 91 a6 00 	lds	r18, 0x00A6
			  return PIPE_READYWAIT_NoError;
		}

		if (Pipe_IsStalled())
    1600:	21 fd       	sbrc	r18, 1
    1602:	11 c0       	rjmp	.+34     	; 0x1626 <Pipe_WaitUntilReady+0x50>
		  return PIPE_READYWAIT_PipeStalled;
		else if (USB_HostState == HOST_STATE_Unattached)
    1604:	20 91 fa 04 	lds	r18, 0x04FA
    1608:	21 30       	cpi	r18, 0x01	; 1
    160a:	79 f0       	breq	.+30     	; 0x162a <Pipe_WaitUntilReady+0x54>
    160c:	20 91 a2 00 	lds	r18, 0x00A2
    1610:	30 91 a3 00 	lds	r19, 0x00A3
		  return PIPE_READYWAIT_DeviceDisconnected;

		uint16_t CurrentFrameNumber = USB_Host_GetFrameNumber();

		if (CurrentFrameNumber != PreviousFrameNumber)
    1614:	28 17       	cp	r18, r24
    1616:	39 07       	cpc	r19, r25
    1618:	19 f3       	breq	.-58     	; 0x15e0 <Pipe_WaitUntilReady+0xa>
    161a:	41 50       	subi	r20, 0x01	; 1
		{
			PreviousFrameNumber = CurrentFrameNumber;

			if (!(TimeoutMSRem--))
    161c:	41 f0       	breq	.+16     	; 0x162e <Pipe_WaitUntilReady+0x58>
    161e:	c9 01       	movw	r24, r18
    1620:	df cf       	rjmp	.-66     	; 0x15e0 <Pipe_WaitUntilReady+0xa>
	for (;;)
	{
		if (Pipe_GetPipeToken() == PIPE_TOKEN_IN)
		{
			if (Pipe_IsINReceived())
			  return PIPE_READYWAIT_NoError;
    1622:	80 e0       	ldi	r24, 0x00	; 0
    1624:	08 95       	ret
			if (Pipe_IsOUTReady())
			  return PIPE_READYWAIT_NoError;
		}

		if (Pipe_IsStalled())
		  return PIPE_READYWAIT_PipeStalled;
    1626:	81 e0       	ldi	r24, 0x01	; 1
    1628:	08 95       	ret
		else if (USB_HostState == HOST_STATE_Unattached)
		  return PIPE_READYWAIT_DeviceDisconnected;
    162a:	82 e0       	ldi	r24, 0x02	; 2
    162c:	08 95       	ret
		if (CurrentFrameNumber != PreviousFrameNumber)
		{
			PreviousFrameNumber = CurrentFrameNumber;

			if (!(TimeoutMSRem--))
			  return PIPE_READYWAIT_Timeout;
    162e:	83 e0       	ldi	r24, 0x03	; 3
		}
	}
}
    1630:	08 95       	ret

00001632 <USB_Disable>:
	USB_ResetInterface();
}

void USB_Disable(void)
{
	USB_INT_DisableAllInterrupts();
    1632:	75 d0       	rcall	.+234    	; 0x171e <USB_INT_DisableAllInterrupts>
    1634:	7c d0       	rcall	.+248    	; 0x172e <USB_INT_ClearAllInterrupts>
	USB_INT_ClearAllInterrupts();
    1636:	e0 ee       	ldi	r30, 0xE0	; 224
    1638:	f0 e0       	ldi	r31, 0x00	; 0
			 *  enumerating the device once attached until \ref USB_Attach() is called.
			 */
			static inline void USB_Detach(void) ATTR_ALWAYS_INLINE;
			static inline void USB_Detach(void)
			{
				UDCON  |=  (1 << DETACH);
    163a:	80 81       	ld	r24, Z
    163c:	81 60       	ori	r24, 0x01	; 1
    163e:	80 83       	st	Z, r24
    1640:	e8 ed       	ldi	r30, 0xD8	; 216
    1642:	f0 e0       	ldi	r31, 0x00	; 0
			}

			static inline void USB_Controller_Disable(void) ATTR_ALWAYS_INLINE;
			static inline void USB_Controller_Disable(void)
			{
				USBCON &= ~(1 << USBE);
    1644:	80 81       	ld	r24, Z
    1646:	8f 77       	andi	r24, 0x7F	; 127
    1648:	80 83       	st	Z, r24
    164a:	19 bc       	out	0x29, r1	; 41
    164c:	a7 ed       	ldi	r26, 0xD7	; 215
			}

			static inline void USB_PLL_Off(void) ATTR_ALWAYS_INLINE;
			static inline void USB_PLL_Off(void)
			{
				PLLCSR = 0;
    164e:	b0 e0       	ldi	r27, 0x00	; 0

			static inline void USB_REG_Off(void) ATTR_ALWAYS_INLINE;
			static inline void USB_REG_Off(void)
			{
			#if defined(USB_SERIES_4_AVR) || defined(USB_SERIES_6_AVR) || defined(USB_SERIES_7_AVR)
				UHWCON &= ~(1 << UVREGE);
    1650:	8c 91       	ld	r24, X
    1652:	8e 7f       	andi	r24, 0xFE	; 254
    1654:	8c 93       	st	X, r24
    1656:	80 81       	ld	r24, Z
    1658:	8f 7e       	andi	r24, 0xEF	; 239
			}

			static inline void USB_OTGPAD_Off(void) ATTR_ALWAYS_INLINE;
			static inline void USB_OTGPAD_Off(void)
			{
				USBCON &= ~(1 << OTGPADE);
    165a:	80 83       	st	Z, r24
    165c:	10 92 f1 04 	sts	0x04F1, r1

	#if defined(USB_CAN_BE_BOTH)
	USB_CurrentMode = USB_MODE_None;
	#endif

	USB_IsInitialized = false;
    1660:	08 95       	ret

00001662 <USB_ResetInterface>:
    1662:	5d d0       	rcall	.+186    	; 0x171e <USB_INT_DisableAllInterrupts>
    1664:	64 d0       	rcall	.+200    	; 0x172e <USB_INT_ClearAllInterrupts>
	#if defined(USB_CAN_BE_BOTH)
	bool UIDModeSelectEnabled = ((UHWCON & (1 << UIDE)) != 0);
	#endif

	USB_INT_DisableAllInterrupts();
	USB_INT_ClearAllInterrupts();
    1666:	80 91 d8 00 	lds	r24, 0x00D8
			}

			static inline void USB_Controller_Reset(void) ATTR_ALWAYS_INLINE;
			static inline void USB_Controller_Reset(void)
			{
				USBCON &= ~(1 << USBE);
    166a:	8f 77       	andi	r24, 0x7F	; 127
    166c:	80 93 d8 00 	sts	0x00D8, r24
    1670:	80 91 d8 00 	lds	r24, 0x00D8
				USBCON |=  (1 << USBE);
    1674:	80 68       	ori	r24, 0x80	; 128
    1676:	80 93 d8 00 	sts	0x00D8, r24
    167a:	80 91 d8 00 	lds	r24, 0x00D8
			}

			static inline void USB_CLK_Unfreeze(void) ATTR_ALWAYS_INLINE;
			static inline void USB_CLK_Unfreeze(void)
			{
				USBCON &= ~(1 << FRZCLK);
    167e:	8f 7d       	andi	r24, 0xDF	; 223
    1680:	80 93 d8 00 	sts	0x00D8, r24
    1684:	80 91 d7 00 	lds	r24, 0x00D7
		#endif
	}
	else if (USB_CurrentMode == USB_MODE_Host)
	{
		#if defined(USB_CAN_BE_HOST)
		UHWCON &= ~(1 << UIMOD);
    1688:	8f 77       	andi	r24, 0x7F	; 127
    168a:	80 93 d7 00 	sts	0x00D7, r24
    168e:	8c e0       	ldi	r24, 0x0C	; 12
    1690:	89 bd       	out	0x29, r24	; 41

		/* Inline Functions: */
			static inline void USB_PLL_On(void) ATTR_ALWAYS_INLINE;
			static inline void USB_PLL_On(void)
			{
				PLLCSR = USB_PLL_PSC;
    1692:	8e e0       	ldi	r24, 0x0E	; 14
    1694:	89 bd       	out	0x29, r24	; 41
				PLLCSR = (USB_PLL_PSC | (1 << PLLE));
    1696:	09 b4       	in	r0, 0x29	; 41
    1698:	00 fe       	sbrs	r0, 0

		if (!(USB_Options & USB_OPT_MANUAL_PLL))
		{
			#if defined(USB_CAN_BE_HOST)
			USB_PLL_On();
			while (!(USB_PLL_IsReady()));
    169a:	fd cf       	rjmp	.-6      	; 0x1696 <USB_ResetInterface+0x34>
    169c:	81 e0       	ldi	r24, 0x01	; 1
    169e:	80 93 fa 04 	sts	0x04FA, r24
#endif

#if defined(USB_CAN_BE_HOST)
static void USB_Init_Host(void)
{
	USB_HostState                = HOST_STATE_Unattached;
    16a2:	10 92 f0 04 	sts	0x04F0, r1
	USB_Host_ConfigurationNumber = 0;
    16a6:	80 e4       	ldi	r24, 0x40	; 64
    16a8:	80 93 00 01 	sts	0x0100, r24
	USB_Host_ControlPipeSize     = PIPE_CONTROLPIPE_DEFAULT_SIZE;
    16ac:	80 91 d8 00 	lds	r24, 0x00D8
	#if !defined(__DOXYGEN__)
		/* Macros: */
			static inline void USB_Host_HostMode_On(void) ATTR_ALWAYS_INLINE;
			static inline void USB_Host_HostMode_On(void)
			{
				USBCON |=  (1 << HOST);
    16b0:	80 64       	ori	r24, 0x40	; 64
    16b2:	80 93 d8 00 	sts	0x00D8, r24
    16b6:	80 91 dd 00 	lds	r24, 0x00DD
			}

			static inline void USB_Host_VBUS_Auto_Off(void) ATTR_ALWAYS_INLINE;
			static inline void USB_Host_VBUS_Auto_Off(void)
			{
				OTGCON |=  (1 << VBUSRQC);
    16ba:	81 60       	ori	r24, 0x01	; 1
    16bc:	80 93 dd 00 	sts	0x00DD, r24
    16c0:	80 91 dd 00 	lds	r24, 0x00DD
			}

			static inline void USB_Host_VBUS_Manual_Enable(void) ATTR_ALWAYS_INLINE;
			static inline void USB_Host_VBUS_Manual_Enable(void)
			{
				OTGCON |=  (1 << VBUSHWC);
    16c4:	84 60       	ori	r24, 0x04	; 4
    16c6:	80 93 dd 00 	sts	0x00DD, r24
    16ca:	80 91 d7 00 	lds	r24, 0x00D7
				UHWCON &= ~(1 << UVCONE);
    16ce:	8f 7e       	andi	r24, 0xEF	; 239
    16d0:	80 93 d7 00 	sts	0x00D7, r24
    16d4:	6f 9a       	sbi	0x0d, 7	; 13
    16d6:	77 9a       	sbi	0x0e, 7	; 14

				DDRE   |=  (1 << 7);
    16d8:	80 91 de 00 	lds	r24, 0x00DE
						break;
					case USB_INT_VBERRI:
						OTGIEN |= (1 << VBERRE);
						break;
					case USB_INT_SRPI:
						OTGIEN |= (1 << SRPE);
    16dc:	81 60       	ori	r24, 0x01	; 1
    16de:	80 93 de 00 	sts	0x00DE, r24
    16e2:	80 91 de 00 	lds	r24, 0x00DE
						break;
					case USB_INT_RSTI:
						UHIEN  |= (1 << RSTE);
						break;
					case USB_INT_BCERRI:
						OTGIEN |= (1 << BCERRE);
    16e6:	84 60       	ori	r24, 0x04	; 4
    16e8:	80 93 de 00 	sts	0x00DE, r24
    16ec:	80 91 e0 00 	lds	r24, 0x00E0
			 *  register and despite the datasheet making no mention of its requirement in host mode.
			 */
			static inline void USB_Attach(void) ATTR_ALWAYS_INLINE;
			static inline void USB_Attach(void)
			{
				UDCON  &= ~(1 << DETACH);
    16f0:	8e 7f       	andi	r24, 0xFE	; 254
    16f2:	80 93 e0 00 	sts	0x00E0, r24
    16f6:	80 91 d8 00 	lds	r24, 0x00D8

			#if defined(USB_SERIES_4_AVR) || defined(USB_SERIES_6_AVR) || defined(USB_SERIES_7_AVR)
			static inline void USB_OTGPAD_On(void) ATTR_ALWAYS_INLINE;
			static inline void USB_OTGPAD_On(void)
			{
				USBCON |=  (1 << OTGPADE);
    16fa:	80 61       	ori	r24, 0x10	; 16
    16fc:	80 93 d8 00 	sts	0x00D8, r24
    1700:	08 95       	ret

00001702 <USB_Init>:
    1702:	e8 ed       	ldi	r30, 0xD8	; 216
    1704:	f0 e0       	ldi	r31, 0x00	; 0
			}

			static inline void USB_OTGPAD_Off(void) ATTR_ALWAYS_INLINE;
			static inline void USB_OTGPAD_Off(void)
			{
				USBCON &= ~(1 << OTGPADE);
    1706:	80 81       	ld	r24, Z
    1708:	8f 7e       	andi	r24, 0xEF	; 239
    170a:	80 83       	st	Z, r24

			static inline void USB_REG_On(void) ATTR_ALWAYS_INLINE;
			static inline void USB_REG_On(void)
			{
			#if defined(USB_SERIES_4_AVR) || defined(USB_SERIES_6_AVR) || defined(USB_SERIES_7_AVR)
				UHWCON |=  (1 << UVREGE);
    170c:	e7 ed       	ldi	r30, 0xD7	; 215
    170e:	f0 e0       	ldi	r31, 0x00	; 0
    1710:	80 81       	ld	r24, Z
    1712:	81 60       	ori	r24, 0x01	; 1
    1714:	80 83       	st	Z, r24
		UHWCON &= ~(1 << UIDE);
		USB_CurrentMode = Mode;
	}
	#endif

	USB_IsInitialized = true;
    1716:	81 e0       	ldi	r24, 0x01	; 1
    1718:	80 93 f1 04 	sts	0x04F1, r24

	USB_ResetInterface();
    171c:	a2 cf       	rjmp	.-188    	; 0x1662 <USB_ResetInterface>

0000171e <USB_INT_DisableAllInterrupts>:
#include "../USBInterrupt.h"

void USB_INT_DisableAllInterrupts(void)
{
	#if defined(USB_SERIES_6_AVR) || defined(USB_SERIES_7_AVR)
	USBCON &= ~((1 << VBUSTE) | (1 << IDTE));
    171e:	e8 ed       	ldi	r30, 0xD8	; 216
    1720:	f0 e0       	ldi	r31, 0x00	; 0
    1722:	80 81       	ld	r24, Z
    1724:	8c 7f       	andi	r24, 0xFC	; 252
    1726:	80 83       	st	Z, r24
	#if defined(USB_CAN_BE_BOTH)
	OTGIEN  = 0;
	#endif

	#if defined(USB_CAN_BE_HOST)
	UHIEN   = 0;
    1728:	10 92 a0 00 	sts	0x00A0, r1
    172c:	08 95       	ret

0000172e <USB_INT_ClearAllInterrupts>:
}

void USB_INT_ClearAllInterrupts(void)
{
	#if defined(USB_SERIES_4_AVR) || defined(USB_SERIES_6_AVR) || defined(USB_SERIES_7_AVR)
	USBINT = 0;
    172e:	10 92 da 00 	sts	0x00DA, r1
	#if defined(USB_CAN_BE_BOTH)
	OTGINT = 0;
	#endif

	#if defined(USB_CAN_BE_HOST)
	UHINT  = 0;
    1732:	10 92 9f 00 	sts	0x009F, r1
    1736:	08 95       	ret

00001738 <__vector_10>:
	UDINT  = 0;
	#endif
}

ISR(USB_GEN_vect, ISR_BLOCK)
{
    1738:	1f 92       	push	r1
    173a:	0f 92       	push	r0
    173c:	0f b6       	in	r0, 0x3f	; 63
    173e:	0f 92       	push	r0
    1740:	11 24       	eor	r1, r1
    1742:	0b b6       	in	r0, 0x3b	; 59
    1744:	0f 92       	push	r0
    1746:	2f 93       	push	r18
    1748:	3f 93       	push	r19
    174a:	4f 93       	push	r20
    174c:	5f 93       	push	r21
    174e:	6f 93       	push	r22
    1750:	7f 93       	push	r23
    1752:	8f 93       	push	r24
    1754:	9f 93       	push	r25
    1756:	af 93       	push	r26
    1758:	bf 93       	push	r27
    175a:	ef 93       	push	r30
    175c:	ff 93       	push	r31
					case USB_INT_RXSTPI:
						return (UEINTX & (1 << RXSTPI));
					#endif
					#if defined(USB_CAN_BE_HOST)
					case USB_INT_HSOFI:
						return (UHINT  & (1 << HSOFI));
    175e:	80 91 9f 00 	lds	r24, 0x009F
	}
	#endif

	#if defined(USB_CAN_BE_HOST)
	#if !defined(NO_SOF_EVENTS)
	if (USB_INT_HasOccurred(USB_INT_HSOFI) && USB_INT_IsEnabled(USB_INT_HSOFI))
    1762:	85 ff       	sbrs	r24, 5
    1764:	0a c0       	rjmp	.+20     	; 0x177a <__vector_10+0x42>
					case USB_INT_RXSTPI:
						return (UEIENX & (1 << RXSTPE));
					#endif
					#if defined(USB_CAN_BE_HOST)
					case USB_INT_HSOFI:
						return (UHIEN  & (1 << HSOFE));
    1766:	80 91 a0 00 	lds	r24, 0x00A0
    176a:	85 ff       	sbrs	r24, 5
    176c:	06 c0       	rjmp	.+12     	; 0x177a <__vector_10+0x42>
						UEINTX &= ~(1 << RXSTPI);
						break;
					#endif
					#if defined(USB_CAN_BE_HOST)
					case USB_INT_HSOFI:
						UHINT  &= ~(1 << HSOFI);
    176e:	80 91 9f 00 	lds	r24, 0x009F
    1772:	8f 7d       	andi	r24, 0xDF	; 223
    1774:	80 93 9f 00 	sts	0x009F, r24
	{
		USB_INT_Clear(USB_INT_HSOFI);

		EVENT_USB_Host_StartOfFrame();
    1778:	20 d1       	rcall	.+576    	; 0x19ba <USB_Event_Stub>
    177a:	80 91 9f 00 	lds	r24, 0x009F
					case USB_INT_HSOFI:
						return (UHINT  & (1 << HSOFI));
					case USB_INT_DCONNI:
						return (UHINT  & (1 << DCONNI));
					case USB_INT_DDISCI:
						return (UHINT  & (1 << DDISCI));
    177e:	81 ff       	sbrs	r24, 1
	}
	#endif

	if (USB_INT_HasOccurred(USB_INT_DDISCI) && USB_INT_IsEnabled(USB_INT_DDISCI))
    1780:	16 c0       	rjmp	.+44     	; 0x17ae <__vector_10+0x76>
    1782:	80 91 a0 00 	lds	r24, 0x00A0
					case USB_INT_HSOFI:
						return (UHIEN  & (1 << HSOFE));
					case USB_INT_DCONNI:
						return (UHIEN  & (1 << DCONNE));
					case USB_INT_DDISCI:
						return (UHIEN  & (1 << DDISCE));
    1786:	81 ff       	sbrs	r24, 1
    1788:	12 c0       	rjmp	.+36     	; 0x17ae <__vector_10+0x76>
    178a:	80 91 9f 00 	lds	r24, 0x009F
						break;
					case USB_INT_DCONNI:
						UHINT  &= ~(1 << DCONNI);
						break;
					case USB_INT_DDISCI:
						UHINT  &= ~(1 << DDISCI);
    178e:	8d 7f       	andi	r24, 0xFD	; 253
    1790:	80 93 9f 00 	sts	0x009F, r24
    1794:	80 91 9f 00 	lds	r24, 0x009F
					#if defined(USB_CAN_BE_HOST)
					case USB_INT_HSOFI:
						UHINT  &= ~(1 << HSOFI);
						break;
					case USB_INT_DCONNI:
						UHINT  &= ~(1 << DCONNI);
    1798:	8e 7f       	andi	r24, 0xFE	; 254
    179a:	80 93 9f 00 	sts	0x009F, r24
    179e:	80 91 a0 00 	lds	r24, 0x00A0
						break;
					case USB_INT_DCONNI:
						UHIEN  &= ~(1 << DCONNE);
						break;
					case USB_INT_DDISCI:
						UHIEN  &= ~(1 << DDISCE);
    17a2:	8d 7f       	andi	r24, 0xFD	; 253
    17a4:	80 93 a0 00 	sts	0x00A0, r24
    17a8:	0e 94 be 01 	call	0x37c	; 0x37c <EVENT_USB_Host_DeviceUnattached>
	{
		USB_INT_Clear(USB_INT_DDISCI);
		USB_INT_Clear(USB_INT_DCONNI);
		USB_INT_Disable(USB_INT_DDISCI);

		EVENT_USB_Host_DeviceUnattached();
    17ac:	5a df       	rcall	.-332    	; 0x1662 <USB_ResetInterface>

		USB_ResetInterface();
    17ae:	80 91 df 00 	lds	r24, 0x00DF
					case USB_INT_RSTI:
						return (UHINT  & (1 << RSTI));
					case USB_INT_BCERRI:
						return (OTGINT & (1 << BCERRI));
					case USB_INT_VBERRI:
						return (OTGINT & (1 << VBERRI));
    17b2:	81 ff       	sbrs	r24, 1
    17b4:	17 c0       	rjmp	.+46     	; 0x17e4 <__vector_10+0xac>
	}

	if (USB_INT_HasOccurred(USB_INT_VBERRI) && USB_INT_IsEnabled(USB_INT_VBERRI))
    17b6:	80 91 de 00 	lds	r24, 0x00DE
					case USB_INT_RSTI:
						return (UHIEN  & (1 << RSTE));
					case USB_INT_BCERRI:
						return (OTGIEN & (1 << BCERRE));
					case USB_INT_VBERRI:
						return (OTGIEN & (1 << VBERRE));
    17ba:	81 ff       	sbrs	r24, 1
    17bc:	13 c0       	rjmp	.+38     	; 0x17e4 <__vector_10+0xac>
    17be:	80 91 df 00 	lds	r24, 0x00DF
						break;
					case USB_INT_BCERRI:
						OTGINT &= ~(1 << BCERRI);
						break;
					case USB_INT_VBERRI:
						OTGINT &= ~(1 << VBERRI);
    17c2:	8d 7f       	andi	r24, 0xFD	; 253
    17c4:	80 93 df 00 	sts	0x00DF, r24
    17c8:	77 98       	cbi	0x0e, 7	; 14
    17ca:	80 91 dd 00 	lds	r24, 0x00DD
			}

			static inline void USB_Host_VBUS_Auto_Off(void) ATTR_ALWAYS_INLINE;
			static inline void USB_Host_VBUS_Auto_Off(void)
			{
				OTGCON |=  (1 << VBUSRQC);
    17ce:	81 60       	ori	r24, 0x01	; 1
    17d0:	80 93 dd 00 	sts	0x00DD, r24
    17d4:	80 e0       	ldi	r24, 0x00	; 0
    17d6:	0e 94 28 02 	call	0x450	; 0x450 <EVENT_USB_Host_HostError>
		USB_INT_Clear(USB_INT_VBERRI);

		USB_Host_VBUS_Manual_Off();
		USB_Host_VBUS_Auto_Off();

		EVENT_USB_Host_HostError(HOST_ERROR_VBusVoltageDip);
    17da:	0e 94 be 01 	call	0x37c	; 0x37c <EVENT_USB_Host_DeviceUnattached>
		EVENT_USB_Host_DeviceUnattached();
    17de:	81 e0       	ldi	r24, 0x01	; 1
    17e0:	80 93 fa 04 	sts	0x04FA, r24

		USB_HostState = HOST_STATE_Unattached;
    17e4:	80 91 df 00 	lds	r24, 0x00DF
					case USB_INT_BCERRI:
						return (OTGINT & (1 << BCERRI));
					case USB_INT_VBERRI:
						return (OTGINT & (1 << VBERRI));
					case USB_INT_SRPI:
						return (OTGINT & (1 << SRPI));
    17e8:	80 ff       	sbrs	r24, 0
    17ea:	18 c0       	rjmp	.+48     	; 0x181c <__vector_10+0xe4>
	}

	if (USB_INT_HasOccurred(USB_INT_SRPI) && USB_INT_IsEnabled(USB_INT_SRPI))
    17ec:	80 91 de 00 	lds	r24, 0x00DE
					case USB_INT_BCERRI:
						return (OTGIEN & (1 << BCERRE));
					case USB_INT_VBERRI:
						return (OTGIEN & (1 << VBERRE));
					case USB_INT_SRPI:
						return (OTGIEN & (1 << SRPE));
    17f0:	80 ff       	sbrs	r24, 0
    17f2:	14 c0       	rjmp	.+40     	; 0x181c <__vector_10+0xe4>
    17f4:	80 91 df 00 	lds	r24, 0x00DF
						break;
					case USB_INT_VBERRI:
						OTGINT &= ~(1 << VBERRI);
						break;
					case USB_INT_SRPI:
						OTGINT &= ~(1 << SRPI);
    17f8:	8e 7f       	andi	r24, 0xFE	; 254
    17fa:	80 93 df 00 	sts	0x00DF, r24
    17fe:	80 91 de 00 	lds	r24, 0x00DE
						break;
					case USB_INT_VBERRI:
						OTGIEN &= ~(1 << VBERRE);
						break;
					case USB_INT_SRPI:
						OTGIEN &= ~(1 << SRPE);
    1802:	8e 7f       	andi	r24, 0xFE	; 254
    1804:	80 93 de 00 	sts	0x00DE, r24
    1808:	0e 94 b8 01 	call	0x370	; 0x370 <EVENT_USB_Host_DeviceAttached>
	{
		USB_INT_Clear(USB_INT_SRPI);
		USB_INT_Disable(USB_INT_SRPI);

		EVENT_USB_Host_DeviceAttached();
    180c:	80 91 a0 00 	lds	r24, 0x00A0
						break;
					case USB_INT_DCONNI:
						UHIEN  |= (1 << DCONNE);
						break;
					case USB_INT_DDISCI:
						UHIEN  |= (1 << DDISCE);
    1810:	82 60       	ori	r24, 0x02	; 2
    1812:	80 93 a0 00 	sts	0x00A0, r24
    1816:	82 e0       	ldi	r24, 0x02	; 2
    1818:	80 93 fa 04 	sts	0x04FA, r24

		USB_INT_Enable(USB_INT_DDISCI);

		USB_HostState = HOST_STATE_Powered;
    181c:	80 91 df 00 	lds	r24, 0x00DF
					case USB_INT_DDISCI:
						return (UHINT  & (1 << DDISCI));
					case USB_INT_RSTI:
						return (UHINT  & (1 << RSTI));
					case USB_INT_BCERRI:
						return (OTGINT & (1 << BCERRI));
    1820:	82 ff       	sbrs	r24, 2
    1822:	10 c0       	rjmp	.+32     	; 0x1844 <__vector_10+0x10c>
	}

	if (USB_INT_HasOccurred(USB_INT_BCERRI) && USB_INT_IsEnabled(USB_INT_BCERRI))
    1824:	80 91 de 00 	lds	r24, 0x00DE
					case USB_INT_DDISCI:
						return (UHIEN  & (1 << DDISCE));
					case USB_INT_RSTI:
						return (UHIEN  & (1 << RSTE));
					case USB_INT_BCERRI:
						return (OTGIEN & (1 << BCERRE));
    1828:	82 ff       	sbrs	r24, 2
    182a:	0c c0       	rjmp	.+24     	; 0x1844 <__vector_10+0x10c>
    182c:	80 91 df 00 	lds	r24, 0x00DF
						break;
					case USB_INT_RSTI:
						UHINT  &= ~(1 << RSTI);
						break;
					case USB_INT_BCERRI:
						OTGINT &= ~(1 << BCERRI);
    1830:	8b 7f       	andi	r24, 0xFB	; 251
    1832:	80 93 df 00 	sts	0x00DF, r24
    1836:	60 e0       	ldi	r22, 0x00	; 0
    1838:	82 e0       	ldi	r24, 0x02	; 2
	{
		USB_INT_Clear(USB_INT_BCERRI);

		EVENT_USB_Host_DeviceEnumerationFailed(HOST_ENUMERROR_NoDeviceDetected, 0);
    183a:	0e 94 40 02 	call	0x480	; 0x480 <EVENT_USB_Host_DeviceEnumerationFailed>
    183e:	0e 94 be 01 	call	0x37c	; 0x37c <EVENT_USB_Host_DeviceUnattached>
		EVENT_USB_Host_DeviceUnattached();
    1842:	0f df       	rcall	.-482    	; 0x1662 <USB_ResetInterface>
    1844:	ff 91       	pop	r31

		USB_ResetInterface();
    1846:	ef 91       	pop	r30
    1848:	bf 91       	pop	r27
		USB_ResetInterface();

		EVENT_USB_UIDChange();
	}
	#endif
}
    184a:	af 91       	pop	r26
    184c:	9f 91       	pop	r25
    184e:	8f 91       	pop	r24
    1850:	7f 91       	pop	r23
    1852:	6f 91       	pop	r22
    1854:	5f 91       	pop	r21
    1856:	4f 91       	pop	r20
    1858:	3f 91       	pop	r19
    185a:	2f 91       	pop	r18
    185c:	0f 90       	pop	r0
    185e:	0b be       	out	0x3b, r0	; 59
    1860:	0f 90       	pop	r0
    1862:	0f be       	out	0x3f, r0	; 63
    1864:	0f 90       	pop	r0
    1866:	1f 90       	pop	r1
    1868:	18 95       	reti

0000186a <USB_GetNextDescriptor>:
			 */
			static inline void USB_GetNextDescriptor(uint16_t* const BytesRem,
			                                         void** CurrConfigLoc) ATTR_NON_NULL_PTR_ARG(1) ATTR_NON_NULL_PTR_ARG(2);
			static inline void USB_GetNextDescriptor(uint16_t* const BytesRem,
			                                         void** CurrConfigLoc)
			{
    186a:	cf 93       	push	r28
    186c:	df 93       	push	r29
    186e:	fc 01       	movw	r30, r24
				uint16_t CurrDescriptorSize = DESCRIPTOR_CAST(*CurrConfigLoc, USB_Descriptor_Header_t).Size;
    1870:	eb 01       	movw	r28, r22
    1872:	a8 81       	ld	r26, Y
    1874:	b9 81       	ldd	r27, Y+1	; 0x01
    1876:	8c 91       	ld	r24, X
    1878:	90 e0       	ldi	r25, 0x00	; 0

				if (*BytesRem < CurrDescriptorSize)
    187a:	20 81       	ld	r18, Z
    187c:	31 81       	ldd	r19, Z+1	; 0x01
    187e:	82 17       	cp	r24, r18
    1880:	93 07       	cpc	r25, r19
    1882:	08 f4       	brcc	.+2      	; 0x1886 <USB_GetNextDescriptor+0x1c>
    1884:	9c 01       	movw	r18, r24
				  CurrDescriptorSize = *BytesRem;

				*CurrConfigLoc  = (void*)((uintptr_t)*CurrConfigLoc + CurrDescriptorSize);
    1886:	a2 0f       	add	r26, r18
    1888:	b3 1f       	adc	r27, r19
    188a:	eb 01       	movw	r28, r22
    188c:	b9 83       	std	Y+1, r27	; 0x01
    188e:	a8 83       	st	Y, r26
				*BytesRem      -= CurrDescriptorSize;
    1890:	80 81       	ld	r24, Z
    1892:	91 81       	ldd	r25, Z+1	; 0x01
    1894:	82 1b       	sub	r24, r18
    1896:	93 0b       	sbc	r25, r19
    1898:	91 83       	std	Z+1, r25	; 0x01
    189a:	80 83       	st	Z, r24
			}
    189c:	df 91       	pop	r29
    189e:	cf 91       	pop	r28
    18a0:	08 95       	ret

000018a2 <USB_Host_GetDeviceConfigDescriptor>:
#if defined(USB_CAN_BE_HOST)
uint8_t USB_Host_GetDeviceConfigDescriptor(const uint8_t ConfigNumber,
                                           uint16_t* const ConfigSizePtr,
                                           void* const BufferPtr,
                                           const uint16_t BufferSize)
{
    18a2:	cf 92       	push	r12
    18a4:	df 92       	push	r13
    18a6:	ef 92       	push	r14
    18a8:	ff 92       	push	r15
    18aa:	0f 93       	push	r16
    18ac:	1f 93       	push	r17
    18ae:	cf 93       	push	r28
    18b0:	df 93       	push	r29
    18b2:	cd b7       	in	r28, 0x3d	; 61
    18b4:	de b7       	in	r29, 0x3e	; 62
    18b6:	29 97       	sbiw	r28, 0x09	; 9
    18b8:	0f b6       	in	r0, 0x3f	; 63
    18ba:	f8 94       	cli
    18bc:	de bf       	out	0x3e, r29	; 62
    18be:	0f be       	out	0x3f, r0	; 63
    18c0:	cd bf       	out	0x3d, r28	; 61
    18c2:	7b 01       	movw	r14, r22
    18c4:	8a 01       	movw	r16, r20
    18c6:	69 01       	movw	r12, r18
	uint8_t ErrorCode;
	uint8_t ConfigHeader[sizeof(USB_Descriptor_Configuration_Header_t)];

	USB_ControlRequest = (USB_Request_Header_t)
    18c8:	90 e8       	ldi	r25, 0x80	; 128
    18ca:	90 93 f2 04 	sts	0x04F2, r25
    18ce:	96 e0       	ldi	r25, 0x06	; 6
    18d0:	90 93 f3 04 	sts	0x04F3, r25
		{
			.bmRequestType = (REQDIR_DEVICETOHOST | REQTYPE_STANDARD | REQREC_DEVICE),
			.bRequest      = REQ_GetDescriptor,
			.wValue        = ((DTYPE_Configuration << 8) | (ConfigNumber - 1)),
    18d4:	e8 2f       	mov	r30, r24
    18d6:	f0 e0       	ldi	r31, 0x00	; 0
    18d8:	31 97       	sbiw	r30, 0x01	; 1
    18da:	f2 60       	ori	r31, 0x02	; 2
                                           const uint16_t BufferSize)
{
	uint8_t ErrorCode;
	uint8_t ConfigHeader[sizeof(USB_Descriptor_Configuration_Header_t)];

	USB_ControlRequest = (USB_Request_Header_t)
    18dc:	f0 93 f5 04 	sts	0x04F5, r31
    18e0:	e0 93 f4 04 	sts	0x04F4, r30
    18e4:	10 92 f7 04 	sts	0x04F7, r1
    18e8:	10 92 f6 04 	sts	0x04F6, r1
    18ec:	89 e0       	ldi	r24, 0x09	; 9
    18ee:	90 e0       	ldi	r25, 0x00	; 0
    18f0:	90 93 f9 04 	sts	0x04F9, r25
    18f4:	80 93 f8 04 	sts	0x04F8, r24
    18f8:	10 92 a7 00 	sts	0x00A7, r1
			.wLength       = sizeof(USB_Descriptor_Configuration_Header_t),
		};

	Pipe_SelectPipe(PIPE_CONTROLPIPE);

	if ((ErrorCode = USB_Host_SendControlRequest(ConfigHeader)) != HOST_SENDCONTROL_Successful)
    18fc:	ce 01       	movw	r24, r28
    18fe:	01 96       	adiw	r24, 0x01	; 1
    1900:	84 d0       	rcall	.+264    	; 0x1a0a <USB_Host_SendControlRequest>
    1902:	81 11       	cpse	r24, r1
    1904:	19 c0       	rjmp	.+50     	; 0x1938 <USB_Host_GetDeviceConfigDescriptor+0x96>
    1906:	eb 81       	ldd	r30, Y+3	; 0x03
	  return ErrorCode;

	*ConfigSizePtr = le16_to_cpu(DESCRIPTOR_PCAST(ConfigHeader, USB_Descriptor_Configuration_Header_t)->TotalConfigurationSize);
    1908:	fc 81       	ldd	r31, Y+4	; 0x04
    190a:	d7 01       	movw	r26, r14
    190c:	ed 93       	st	X+, r30
    190e:	fc 93       	st	X, r31
    1910:	ce 16       	cp	r12, r30

	if (*ConfigSizePtr > BufferSize)
    1912:	df 06       	cpc	r13, r31
    1914:	70 f0       	brcs	.+28     	; 0x1932 <USB_Host_GetDeviceConfigDescriptor+0x90>
    1916:	f0 93 f9 04 	sts	0x04F9, r31
	  return HOST_GETCONFIG_BuffOverflow;

	USB_ControlRequest.wLength = *ConfigSizePtr;
    191a:	e0 93 f8 04 	sts	0x04F8, r30
    191e:	c8 01       	movw	r24, r16

	if ((ErrorCode = USB_Host_SendControlRequest(BufferPtr)) != HOST_SENDCONTROL_Successful)
    1920:	74 d0       	rcall	.+232    	; 0x1a0a <USB_Host_SendControlRequest>
    1922:	81 11       	cpse	r24, r1
    1924:	09 c0       	rjmp	.+18     	; 0x1938 <USB_Host_GetDeviceConfigDescriptor+0x96>
    1926:	f8 01       	movw	r30, r16
    1928:	81 81       	ldd	r24, Z+1	; 0x01
	  return ErrorCode;

	if (DESCRIPTOR_TYPE(BufferPtr) != DTYPE_Configuration)
    192a:	82 30       	cpi	r24, 0x02	; 2
    192c:	21 f0       	breq	.+8      	; 0x1936 <USB_Host_GetDeviceConfigDescriptor+0x94>
    192e:	86 e0       	ldi	r24, 0x06	; 6
    1930:	03 c0       	rjmp	.+6      	; 0x1938 <USB_Host_GetDeviceConfigDescriptor+0x96>
	  return HOST_GETCONFIG_InvalidData;
    1932:	85 e0       	ldi	r24, 0x05	; 5
    1934:	01 c0       	rjmp	.+2      	; 0x1938 <USB_Host_GetDeviceConfigDescriptor+0x96>
	  return ErrorCode;

	*ConfigSizePtr = le16_to_cpu(DESCRIPTOR_PCAST(ConfigHeader, USB_Descriptor_Configuration_Header_t)->TotalConfigurationSize);

	if (*ConfigSizePtr > BufferSize)
	  return HOST_GETCONFIG_BuffOverflow;
    1936:	80 e0       	ldi	r24, 0x00	; 0
    1938:	29 96       	adiw	r28, 0x09	; 9
	  return ErrorCode;

	if (DESCRIPTOR_TYPE(BufferPtr) != DTYPE_Configuration)
	  return HOST_GETCONFIG_InvalidData;

	return HOST_GETCONFIG_Successful;
    193a:	0f b6       	in	r0, 0x3f	; 63
}
    193c:	f8 94       	cli
    193e:	de bf       	out	0x3e, r29	; 62
    1940:	0f be       	out	0x3f, r0	; 63
    1942:	cd bf       	out	0x3d, r28	; 61
    1944:	df 91       	pop	r29
    1946:	cf 91       	pop	r28
    1948:	1f 91       	pop	r17
    194a:	0f 91       	pop	r16
    194c:	ff 90       	pop	r15
    194e:	ef 90       	pop	r14
    1950:	df 90       	pop	r13
    1952:	cf 90       	pop	r12
    1954:	08 95       	ret

00001956 <USB_GetNextDescriptorComp>:
    1956:	af 92       	push	r10
    1958:	bf 92       	push	r11
}

uint8_t USB_GetNextDescriptorComp(uint16_t* const BytesRem,
                                  void** const CurrConfigLoc,
                                  ConfigComparatorPtr_t const ComparatorRoutine)
{
    195a:	cf 92       	push	r12
    195c:	df 92       	push	r13
    195e:	ef 92       	push	r14
    1960:	ff 92       	push	r15
    1962:	0f 93       	push	r16
    1964:	1f 93       	push	r17
    1966:	cf 93       	push	r28
    1968:	df 93       	push	r29
    196a:	8c 01       	movw	r16, r24
    196c:	eb 01       	movw	r28, r22
    196e:	6a 01       	movw	r12, r20
	uint8_t ErrorCode;

	while (*BytesRem)
    1970:	f8 01       	movw	r30, r16
    1972:	e0 80       	ld	r14, Z
    1974:	f1 80       	ldd	r15, Z+1	; 0x01
    1976:	e1 14       	cp	r14, r1
    1978:	f1 04       	cpc	r15, r1
    197a:	99 f0       	breq	.+38     	; 0x19a2 <USB_GetNextDescriptorComp+0x4c>
	{
		uint8_t* PrevDescLoc  = *CurrConfigLoc;
    197c:	a8 80       	ld	r10, Y
    197e:	b9 80       	ldd	r11, Y+1	; 0x01
		uint16_t PrevBytesRem = *BytesRem;

		USB_GetNextDescriptor(BytesRem, CurrConfigLoc);
    1980:	be 01       	movw	r22, r28
    1982:	c8 01       	movw	r24, r16
    1984:	72 df       	rcall	.-284    	; 0x186a <USB_GetNextDescriptor>
    1986:	88 81       	ld	r24, Y

		if ((ErrorCode = ComparatorRoutine(*CurrConfigLoc)) != DESCRIPTOR_SEARCH_NotFound)
    1988:	99 81       	ldd	r25, Y+1	; 0x01
    198a:	f6 01       	movw	r30, r12
    198c:	09 95       	icall
    198e:	82 30       	cpi	r24, 0x02	; 2
    1990:	79 f3       	breq	.-34     	; 0x1970 <USB_GetNextDescriptorComp+0x1a>
    1992:	81 30       	cpi	r24, 0x01	; 1
		{
			if (ErrorCode == DESCRIPTOR_SEARCH_Fail)
    1994:	39 f4       	brne	.+14     	; 0x19a4 <USB_GetNextDescriptorComp+0x4e>
    1996:	b9 82       	std	Y+1, r11	; 0x01
			{
				*CurrConfigLoc = PrevDescLoc;
    1998:	a8 82       	st	Y, r10
    199a:	f8 01       	movw	r30, r16
				*BytesRem      = PrevBytesRem;
    199c:	f1 82       	std	Z+1, r15	; 0x01
    199e:	e0 82       	st	Z, r14
    19a0:	01 c0       	rjmp	.+2      	; 0x19a4 <USB_GetNextDescriptorComp+0x4e>
    19a2:	82 e0       	ldi	r24, 0x02	; 2

			return ErrorCode;
		}
	}

	return DESCRIPTOR_SEARCH_COMP_EndOfDescriptor;
    19a4:	df 91       	pop	r29
}
    19a6:	cf 91       	pop	r28
    19a8:	1f 91       	pop	r17
    19aa:	0f 91       	pop	r16
    19ac:	ff 90       	pop	r15
    19ae:	ef 90       	pop	r14
    19b0:	df 90       	pop	r13
    19b2:	cf 90       	pop	r12
    19b4:	bf 90       	pop	r11
    19b6:	af 90       	pop	r10
    19b8:	08 95       	ret

000019ba <USB_Event_Stub>:
#define  __INCLUDE_FROM_EVENTS_C
#define  __INCLUDE_FROM_USB_DRIVER
#include "Events.h"

void USB_Event_Stub(void)
{
    19ba:	08 95       	ret

000019bc <USB_Host_WaitForIOS>:

	return ReturnStatus;
}

static uint8_t USB_Host_WaitForIOS(const uint8_t WaitType)
{
    19bc:	1f 93       	push	r17
    19be:	cf 93       	push	r28
    19c0:	df 93       	push	r29
    19c2:	18 2f       	mov	r17, r24
	uint8_t  TimeoutCounter = USB_HOST_TIMEOUT_MS;
	#else
	uint16_t TimeoutCounter = USB_HOST_TIMEOUT_MS;
	#endif

	while (!(((WaitType == USB_HOST_WAITFOR_SetupSent)  && Pipe_IsSETUPSent())  ||
    19c4:	c9 ee       	ldi	r28, 0xE9	; 233
    19c6:	d3 e0       	ldi	r29, 0x03	; 3
    19c8:	11 11       	cpse	r17, r1
    19ca:	0d c0       	rjmp	.+26     	; 0x19e6 <USB_Host_WaitForIOS+0x2a>
			 *  \return Boolean \c true if the current pipe is ready for a SETUP packet, \c false otherwise.
			 */
			static inline bool Pipe_IsSETUPSent(void) ATTR_WARN_UNUSED_RESULT ATTR_ALWAYS_INLINE;
			static inline bool Pipe_IsSETUPSent(void)
			{
				return ((UPINTX & (1 << TXSTPI)) ? true : false);
    19cc:	80 91 a6 00 	lds	r24, 0x00A6
    19d0:	83 fd       	sbrc	r24, 3
    19d2:	16 c0       	rjmp	.+44     	; 0x1a00 <USB_Host_WaitForIOS+0x44>
	         ((WaitType == USB_HOST_WAITFOR_InReceived) && Pipe_IsINReceived()) ||
	         ((WaitType == USB_HOST_WAITFOR_OutReady)   && Pipe_IsOUTReady())))
	{
		uint8_t ErrorCode;

		if ((ErrorCode = USB_Host_WaitMS(1)) != HOST_WAITERROR_Successful)
    19d4:	81 e0       	ldi	r24, 0x01	; 1
    19d6:	c6 db       	rcall	.-2164   	; 0x1164 <USB_Host_WaitMS>
    19d8:	81 11       	cpse	r24, r1
    19da:	13 c0       	rjmp	.+38     	; 0x1a02 <USB_Host_WaitForIOS+0x46>
    19dc:	21 97       	sbiw	r28, 0x01	; 1
    19de:	20 97       	sbiw	r28, 0x00	; 0
		  return ErrorCode;

		if (!(TimeoutCounter--))
    19e0:	99 f7       	brne	.-26     	; 0x19c8 <USB_Host_WaitForIOS+0xc>
    19e2:	84 e0       	ldi	r24, 0x04	; 4
		  return HOST_SENDCONTROL_SoftwareTimeOut;
    19e4:	0e c0       	rjmp	.+28     	; 0x1a02 <USB_Host_WaitForIOS+0x46>
    19e6:	11 30       	cpi	r17, 0x01	; 1
	uint8_t  TimeoutCounter = USB_HOST_TIMEOUT_MS;
	#else
	uint16_t TimeoutCounter = USB_HOST_TIMEOUT_MS;
	#endif

	while (!(((WaitType == USB_HOST_WAITFOR_SetupSent)  && Pipe_IsSETUPSent())  ||
    19e8:	29 f4       	brne	.+10     	; 0x19f4 <USB_Host_WaitForIOS+0x38>
    19ea:	80 91 a6 00 	lds	r24, 0x00A6
			 *  \return Boolean \c true if the current pipe has received an IN packet, \c false otherwise.
			 */
			static inline bool Pipe_IsINReceived(void) ATTR_WARN_UNUSED_RESULT ATTR_ALWAYS_INLINE;
			static inline bool Pipe_IsINReceived(void)
			{
				return ((UPINTX & (1 << RXINI)) ? true : false);
    19ee:	80 ff       	sbrs	r24, 0
	         ((WaitType == USB_HOST_WAITFOR_InReceived) && Pipe_IsINReceived()) ||
    19f0:	f1 cf       	rjmp	.-30     	; 0x19d4 <USB_Host_WaitForIOS+0x18>
    19f2:	06 c0       	rjmp	.+12     	; 0x1a00 <USB_Host_WaitForIOS+0x44>
    19f4:	12 30       	cpi	r17, 0x02	; 2
	uint8_t  TimeoutCounter = USB_HOST_TIMEOUT_MS;
	#else
	uint16_t TimeoutCounter = USB_HOST_TIMEOUT_MS;
	#endif

	while (!(((WaitType == USB_HOST_WAITFOR_SetupSent)  && Pipe_IsSETUPSent())  ||
    19f6:	71 f7       	brne	.-36     	; 0x19d4 <USB_Host_WaitForIOS+0x18>
    19f8:	80 91 a6 00 	lds	r24, 0x00A6
			 *  \return Boolean \c true if the current pipe is ready for an OUT packet, \c false otherwise.
			 */
			static inline bool Pipe_IsOUTReady(void) ATTR_WARN_UNUSED_RESULT ATTR_ALWAYS_INLINE;
			static inline bool Pipe_IsOUTReady(void)
			{
				return ((UPINTX & (1 << TXOUTI)) ? true : false);
    19fc:	82 ff       	sbrs	r24, 2
	         ((WaitType == USB_HOST_WAITFOR_InReceived) && Pipe_IsINReceived()) ||
	         ((WaitType == USB_HOST_WAITFOR_OutReady)   && Pipe_IsOUTReady())))
    19fe:	ea cf       	rjmp	.-44     	; 0x19d4 <USB_Host_WaitForIOS+0x18>
    1a00:	80 e0       	ldi	r24, 0x00	; 0

		if (!(TimeoutCounter--))
		  return HOST_SENDCONTROL_SoftwareTimeOut;
	}

	return HOST_SENDCONTROL_Successful;
    1a02:	df 91       	pop	r29
}
    1a04:	cf 91       	pop	r28
    1a06:	1f 91       	pop	r17
    1a08:	08 95       	ret

00001a0a <USB_Host_SendControlRequest>:
    1a0a:	ff 92       	push	r15

uint8_t USB_Host_SendControlRequest(void* const BufferPtr)
{
    1a0c:	0f 93       	push	r16
    1a0e:	1f 93       	push	r17
    1a10:	cf 93       	push	r28
    1a12:	df 93       	push	r29
    1a14:	8c 01       	movw	r16, r24
			 *  \return Boolean \c true if the bus is currently suspended, \c false otherwise.
			 */
			static inline bool USB_Host_IsBusSuspended(void) ATTR_WARN_UNUSED_RESULT ATTR_ALWAYS_INLINE;
			static inline bool USB_Host_IsBusSuspended(void)
			{
				return ((UHCON & (1 << SOFEN)) ? false : true);
    1a16:	f0 90 9e 00 	lds	r15, 0x009E
    1a1a:	8f 2d       	mov	r24, r15
    1a1c:	81 70       	andi	r24, 0x01	; 1
    1a1e:	f8 2e       	mov	r15, r24

static uint8_t USB_Host_SendControlRequest_PRV(void* const BufferPtr)
{
	uint8_t* DataStream   = (uint8_t*)BufferPtr;
	uint8_t  ReturnStatus = HOST_SENDCONTROL_Successful;
	uint16_t DataLen      = USB_ControlRequest.wLength;
    1a20:	c0 91 f8 04 	lds	r28, 0x04F8
    1a24:	d0 91 f9 04 	lds	r29, 0x04F9
			 *  host and attached device may occur.
			 */
			static inline void USB_Host_ResumeBus(void) ATTR_ALWAYS_INLINE;
			static inline void USB_Host_ResumeBus(void)
			{
				UHCON |=  (1 << SOFEN);
    1a28:	80 91 9e 00 	lds	r24, 0x009E
    1a2c:	81 60       	ori	r24, 0x01	; 1
    1a2e:	80 93 9e 00 	sts	0x009E, r24

	USB_Host_ResumeBus();

	if ((ReturnStatus = USB_Host_WaitMS(1)) != HOST_WAITERROR_Successful)
    1a32:	81 e0       	ldi	r24, 0x01	; 1
    1a34:	97 db       	rcall	.-2258   	; 0x1164 <USB_Host_WaitMS>
    1a36:	81 11       	cpse	r24, r1
    1a38:	cc c0       	rjmp	.+408    	; 0x1bd2 <USB_Host_SendControlRequest+0x1c8>
    1a3a:	80 91 aa 00 	lds	r24, 0x00AA
			 *  \param[in] Token  New pipe token to set the selected pipe to, as a \c PIPE_TOKEN_* mask.
			 */
			static inline void Pipe_SetPipeToken(const uint8_t Token) ATTR_ALWAYS_INLINE;
			static inline void Pipe_SetPipeToken(const uint8_t Token)
			{
				UPCFG0X = ((UPCFG0X & ~(0x03 << PTOKEN0)) | Token);
    1a3e:	8f 7c       	andi	r24, 0xCF	; 207
    1a40:	80 93 aa 00 	sts	0x00AA, r24
    1a44:	10 92 f5 00 	sts	0x00F5, r1

			/** Clears the error flags for the currently selected pipe. */
			static inline void Pipe_ClearError(void) ATTR_ALWAYS_INLINE;
			static inline void Pipe_ClearError(void)
			{
				UPERRX = 0;
    1a48:	80 91 a6 00 	lds	r24, 0x00A6
				UPINTX &= ~(1 << PERRI);
    1a4c:	8f 7e       	andi	r24, 0xEF	; 239
    1a4e:	80 93 a6 00 	sts	0x00A6, r24
    1a52:	80 91 a9 00 	lds	r24, 0x00A9

			/** Unfreezes the selected pipe, allowing it to communicate with an attached device. */
			static inline void Pipe_Unfreeze(void) ATTR_ALWAYS_INLINE;
			static inline void Pipe_Unfreeze(void)
			{
				UPCONX &= ~(1 << PFREEZE);
    1a56:	8f 7b       	andi	r24, 0xBF	; 191
    1a58:	80 93 a9 00 	sts	0x00A9, r24
    1a5c:	e2 ef       	ldi	r30, 0xF2	; 242
    1a5e:	f4 e0       	ldi	r31, 0x04	; 4
    1a60:	81 91       	ld	r24, Z+
	Pipe_Write_16_LE(USB_ControlRequest.wLength);
	#else
	uint8_t* HeaderStream = (uint8_t*)&USB_ControlRequest;

	for (uint8_t HeaderByte = 0; HeaderByte < sizeof(USB_Request_Header_t); HeaderByte++)
	  Pipe_Write_8(*(HeaderStream++));
    1a62:	80 93 af 00 	sts	0x00AF, r24
			 *  \param[in] Data  Data to write into the the currently selected pipe's FIFO buffer.
			 */
			static inline void Pipe_Write_8(const uint8_t Data) ATTR_ALWAYS_INLINE;
			static inline void Pipe_Write_8(const uint8_t Data)
			{
				UPDATX = Data;
    1a66:	84 e0       	ldi	r24, 0x04	; 4
	Pipe_Write_16_LE(USB_ControlRequest.wIndex);
	Pipe_Write_16_LE(USB_ControlRequest.wLength);
	#else
	uint8_t* HeaderStream = (uint8_t*)&USB_ControlRequest;

	for (uint8_t HeaderByte = 0; HeaderByte < sizeof(USB_Request_Header_t); HeaderByte++)
    1a68:	ea 3f       	cpi	r30, 0xFA	; 250
    1a6a:	f8 07       	cpc	r31, r24
    1a6c:	c9 f7       	brne	.-14     	; 0x1a60 <USB_Host_SendControlRequest+0x56>
    1a6e:	80 91 a6 00 	lds	r24, 0x00A6
			 *  \ingroup Group_PipePacketManagement_AVR8
			 */
			static inline void Pipe_ClearSETUP(void) ATTR_ALWAYS_INLINE;
			static inline void Pipe_ClearSETUP(void)
			{
				UPINTX &= ~((1 << TXSTPI) | (1 << FIFOCON));
    1a72:	87 77       	andi	r24, 0x77	; 119
    1a74:	80 93 a6 00 	sts	0x00A6, r24
    1a78:	80 e0       	ldi	r24, 0x00	; 0
	  Pipe_Write_8(*(HeaderStream++));
	#endif

	Pipe_ClearSETUP();

	if ((ReturnStatus = USB_Host_WaitForIOS(USB_HOST_WAITFOR_SetupSent)) != HOST_SENDCONTROL_Successful)
    1a7a:	a0 df       	rcall	.-192    	; 0x19bc <USB_Host_WaitForIOS>
    1a7c:	81 11       	cpse	r24, r1
    1a7e:	a9 c0       	rjmp	.+338    	; 0x1bd2 <USB_Host_SendControlRequest+0x1c8>
    1a80:	80 91 a9 00 	lds	r24, 0x00A9

			/** Freezes the selected pipe, preventing it from communicating with an attached device. */
			static inline void Pipe_Freeze(void) ATTR_ALWAYS_INLINE;
			static inline void Pipe_Freeze(void)
			{
				UPCONX |= (1 << PFREEZE);
    1a84:	80 64       	ori	r24, 0x40	; 64
    1a86:	80 93 a9 00 	sts	0x00A9, r24
    1a8a:	81 e0       	ldi	r24, 0x01	; 1
    1a8c:	6b db       	rcall	.-2346   	; 0x1164 <USB_Host_WaitMS>
	  return ReturnStatus;

	Pipe_Freeze();

	if ((ReturnStatus = USB_Host_WaitMS(1)) != HOST_WAITERROR_Successful)
    1a8e:	81 11       	cpse	r24, r1
    1a90:	a0 c0       	rjmp	.+320    	; 0x1bd2 <USB_Host_SendControlRequest+0x1c8>
    1a92:	80 91 f2 04 	lds	r24, 0x04F2
    1a96:	87 ff       	sbrs	r24, 7
	  return ReturnStatus;

	if ((USB_ControlRequest.bmRequestType & CONTROL_REQTYPE_DIRECTION) == REQDIR_DEVICETOHOST)
    1a98:	4e c0       	rjmp	.+156    	; 0x1b36 <USB_Host_SendControlRequest+0x12c>
    1a9a:	80 91 aa 00 	lds	r24, 0x00AA
    1a9e:	8f 7c       	andi	r24, 0xCF	; 207
			 *  \param[in] Token  New pipe token to set the selected pipe to, as a \c PIPE_TOKEN_* mask.
			 */
			static inline void Pipe_SetPipeToken(const uint8_t Token) ATTR_ALWAYS_INLINE;
			static inline void Pipe_SetPipeToken(const uint8_t Token)
			{
				UPCFG0X = ((UPCFG0X & ~(0x03 << PTOKEN0)) | Token);
    1aa0:	80 61       	ori	r24, 0x10	; 16
    1aa2:	80 93 aa 00 	sts	0x00AA, r24
    1aa6:	01 15       	cp	r16, r1
    1aa8:	11 05       	cpc	r17, r1
    1aaa:	09 f0       	breq	.+2      	; 0x1aae <USB_Host_SendControlRequest+0xa4>
	{
		Pipe_SetPipeToken(PIPE_TOKEN_IN);

		if (DataStream != NULL)
    1aac:	3a c0       	rjmp	.+116    	; 0x1b22 <USB_Host_SendControlRequest+0x118>
    1aae:	80 91 aa 00 	lds	r24, 0x00AA
    1ab2:	8f 7c       	andi	r24, 0xCF	; 207
    1ab4:	80 62       	ori	r24, 0x20	; 32
    1ab6:	80 93 aa 00 	sts	0x00AA, r24
    1aba:	80 91 a9 00 	lds	r24, 0x00A9
    1abe:	8f 7b       	andi	r24, 0xBF	; 191

			/** Unfreezes the selected pipe, allowing it to communicate with an attached device. */
			static inline void Pipe_Unfreeze(void) ATTR_ALWAYS_INLINE;
			static inline void Pipe_Unfreeze(void)
			{
				UPCONX &= ~(1 << PFREEZE);
    1ac0:	80 93 a9 00 	sts	0x00A9, r24
    1ac4:	82 e0       	ldi	r24, 0x02	; 2
    1ac6:	7a df       	rcall	.-268    	; 0x19bc <USB_Host_WaitForIOS>
    1ac8:	81 11       	cpse	r24, r1
		}

		Pipe_SetPipeToken(PIPE_TOKEN_OUT);
		Pipe_Unfreeze();

		if ((ReturnStatus = USB_Host_WaitForIOS(USB_HOST_WAITFOR_OutReady)) != HOST_SENDCONTROL_Successful)
    1aca:	83 c0       	rjmp	.+262    	; 0x1bd2 <USB_Host_SendControlRequest+0x1c8>
    1acc:	80 91 a6 00 	lds	r24, 0x00A6
    1ad0:	8b 77       	andi	r24, 0x7B	; 123
    1ad2:	80 93 a6 00 	sts	0x00A6, r24
			 *  \ingroup Group_PipePacketManagement_AVR8
			 */
			static inline void Pipe_ClearOUT(void) ATTR_ALWAYS_INLINE;
			static inline void Pipe_ClearOUT(void)
			{
				UPINTX &= ~((1 << TXOUTI) | (1 << FIFOCON));
    1ad6:	82 e0       	ldi	r24, 0x02	; 2
    1ad8:	71 df       	rcall	.-286    	; 0x19bc <USB_Host_WaitForIOS>
    1ada:	7b c0       	rjmp	.+246    	; 0x1bd2 <USB_Host_SendControlRequest+0x1c8>
    1adc:	80 91 a9 00 	lds	r24, 0x00A9
		  return ReturnStatus;

		Pipe_ClearOUT();

		if ((ReturnStatus = USB_Host_WaitForIOS(USB_HOST_WAITFOR_OutReady)) != HOST_SENDCONTROL_Successful)
    1ae0:	8f 7b       	andi	r24, 0xBF	; 191
    1ae2:	80 93 a9 00 	sts	0x00A9, r24

			/** Unfreezes the selected pipe, allowing it to communicate with an attached device. */
			static inline void Pipe_Unfreeze(void) ATTR_ALWAYS_INLINE;
			static inline void Pipe_Unfreeze(void)
			{
				UPCONX &= ~(1 << PFREEZE);
    1ae6:	81 e0       	ldi	r24, 0x01	; 1
    1ae8:	69 df       	rcall	.-302    	; 0x19bc <USB_Host_WaitForIOS>
    1aea:	81 11       	cpse	r24, r1
    1aec:	72 c0       	rjmp	.+228    	; 0x1bd2 <USB_Host_SendControlRequest+0x1c8>
    1aee:	80 91 f6 00 	lds	r24, 0x00F6
		{
			while (DataLen)
			{
				Pipe_Unfreeze();

				if ((ReturnStatus = USB_Host_WaitForIOS(USB_HOST_WAITFOR_InReceived)) != HOST_SENDCONTROL_Successful)
    1af2:	90 91 f7 00 	lds	r25, 0x00F7
    1af6:	89 2b       	or	r24, r25
    1af8:	11 f4       	brne	.+4      	; 0x1afe <USB_Host_SendControlRequest+0xf4>
			 *  \return Total number of bytes in the currently selected pipe's FIFO buffer.
			 */
			static inline uint16_t Pipe_BytesInPipe(void) ATTR_WARN_UNUSED_RESULT ATTR_ALWAYS_INLINE;
			static inline uint16_t Pipe_BytesInPipe(void)
			{
				return UPBCX;
    1afa:	c0 e0       	ldi	r28, 0x00	; 0
    1afc:	d0 e0       	ldi	r29, 0x00	; 0
    1afe:	f8 01       	movw	r30, r16
    1b00:	8f 01       	movw	r16, r30
				  return ReturnStatus;

				if (!(Pipe_BytesInPipe()))
    1b02:	80 91 f6 00 	lds	r24, 0x00F6
				  DataLen = 0;
    1b06:	90 91 f7 00 	lds	r25, 0x00F7
    1b0a:	89 2b       	or	r24, r25
    1b0c:	69 f4       	brne	.+26     	; 0x1b28 <USB_Host_SendControlRequest+0x11e>
    1b0e:	80 91 a9 00 	lds	r24, 0x00A9
    1b12:	80 64       	ori	r24, 0x40	; 64
    1b14:	80 93 a9 00 	sts	0x00A9, r24

				while (Pipe_BytesInPipe() && DataLen)
    1b18:	80 91 a6 00 	lds	r24, 0x00A6

			/** Freezes the selected pipe, preventing it from communicating with an attached device. */
			static inline void Pipe_Freeze(void) ATTR_ALWAYS_INLINE;
			static inline void Pipe_Freeze(void)
			{
				UPCONX |= (1 << PFREEZE);
    1b1c:	8e 77       	andi	r24, 0x7E	; 126
    1b1e:	80 93 a6 00 	sts	0x00A6, r24
    1b22:	20 97       	sbiw	r28, 0x00	; 0
			 *  \ingroup Group_PipePacketManagement_AVR8
			 */
			static inline void Pipe_ClearIN(void) ATTR_ALWAYS_INLINE;
			static inline void Pipe_ClearIN(void)
			{
				UPINTX &= ~((1 << RXINI) | (1 << FIFOCON));
    1b24:	d9 f6       	brne	.-74     	; 0x1adc <USB_Host_SendControlRequest+0xd2>
    1b26:	c3 cf       	rjmp	.-122    	; 0x1aae <USB_Host_SendControlRequest+0xa4>
    1b28:	20 97       	sbiw	r28, 0x00	; 0
    1b2a:	89 f3       	breq	.-30     	; 0x1b0e <USB_Host_SendControlRequest+0x104>
    1b2c:	80 91 af 00 	lds	r24, 0x00AF
	{
		Pipe_SetPipeToken(PIPE_TOKEN_IN);

		if (DataStream != NULL)
		{
			while (DataLen)
    1b30:	81 93       	st	Z+, r24
    1b32:	21 97       	sbiw	r28, 0x01	; 1
				  return ReturnStatus;

				if (!(Pipe_BytesInPipe()))
				  DataLen = 0;

				while (Pipe_BytesInPipe() && DataLen)
    1b34:	e5 cf       	rjmp	.-54     	; 0x1b00 <USB_Host_SendControlRequest+0xf6>
    1b36:	01 15       	cp	r16, r1
			 *  \return Next byte in the currently selected pipe's FIFO buffer.
			 */
			static inline uint8_t Pipe_Read_8(void) ATTR_WARN_UNUSED_RESULT ATTR_ALWAYS_INLINE;
			static inline uint8_t Pipe_Read_8(void)
			{
				return UPDATX;
    1b38:	11 05       	cpc	r17, r1
    1b3a:	b1 f1       	breq	.+108    	; 0x1ba8 <USB_Host_SendControlRequest+0x19e>
				{
					*(DataStream++) = Pipe_Read_8();
    1b3c:	80 91 aa 00 	lds	r24, 0x00AA
					DataLen--;
    1b40:	8f 7c       	andi	r24, 0xCF	; 207
		if ((ReturnStatus = USB_Host_WaitForIOS(USB_HOST_WAITFOR_OutReady)) != HOST_SENDCONTROL_Successful)
		  return ReturnStatus;
	}
	else
	{
		if (DataStream != NULL)
    1b42:	80 62       	ori	r24, 0x20	; 32
    1b44:	80 93 aa 00 	sts	0x00AA, r24
			 *  \param[in] Token  New pipe token to set the selected pipe to, as a \c PIPE_TOKEN_* mask.
			 */
			static inline void Pipe_SetPipeToken(const uint8_t Token) ATTR_ALWAYS_INLINE;
			static inline void Pipe_SetPipeToken(const uint8_t Token)
			{
				UPCFG0X = ((UPCFG0X & ~(0x03 << PTOKEN0)) | Token);
    1b48:	80 91 a9 00 	lds	r24, 0x00A9
    1b4c:	8f 7b       	andi	r24, 0xBF	; 191
    1b4e:	80 93 a9 00 	sts	0x00A9, r24
    1b52:	82 e0       	ldi	r24, 0x02	; 2

			/** Unfreezes the selected pipe, allowing it to communicate with an attached device. */
			static inline void Pipe_Unfreeze(void) ATTR_ALWAYS_INLINE;
			static inline void Pipe_Unfreeze(void)
			{
				UPCONX &= ~(1 << PFREEZE);
    1b54:	20 97       	sbiw	r28, 0x00	; 0
    1b56:	01 f1       	breq	.+64     	; 0x1b98 <USB_Host_SendControlRequest+0x18e>
    1b58:	31 df       	rcall	.-414    	; 0x19bc <USB_Host_WaitForIOS>
    1b5a:	81 11       	cpse	r24, r1
    1b5c:	3a c0       	rjmp	.+116    	; 0x1bd2 <USB_Host_SendControlRequest+0x1c8>
			Pipe_SetPipeToken(PIPE_TOKEN_OUT);
			Pipe_Unfreeze();

			while (DataLen)
			{
				if ((ReturnStatus = USB_Host_WaitForIOS(USB_HOST_WAITFOR_OutReady)) != HOST_SENDCONTROL_Successful)
    1b5e:	f8 01       	movw	r30, r16
		if (DataStream != NULL)
		{
			Pipe_SetPipeToken(PIPE_TOKEN_OUT);
			Pipe_Unfreeze();

			while (DataLen)
    1b60:	20 91 f6 00 	lds	r18, 0x00F6
			{
				if ((ReturnStatus = USB_Host_WaitForIOS(USB_HOST_WAITFOR_OutReady)) != HOST_SENDCONTROL_Successful)
    1b64:	30 91 f7 00 	lds	r19, 0x00F7
    1b68:	80 91 00 01 	lds	r24, 0x0100
    1b6c:	90 e0       	ldi	r25, 0x00	; 0
			 *  \return Total number of bytes in the currently selected pipe's FIFO buffer.
			 */
			static inline uint16_t Pipe_BytesInPipe(void) ATTR_WARN_UNUSED_RESULT ATTR_ALWAYS_INLINE;
			static inline uint16_t Pipe_BytesInPipe(void)
			{
				return UPBCX;
    1b6e:	28 17       	cp	r18, r24
    1b70:	39 07       	cpc	r19, r25
    1b72:	58 f4       	brcc	.+22     	; 0x1b8a <USB_Host_SendControlRequest+0x180>
    1b74:	cf 01       	movw	r24, r30
				  return ReturnStatus;

				while (DataLen && (Pipe_BytesInPipe() < USB_Host_ControlPipeSize))
    1b76:	01 96       	adiw	r24, 0x01	; 1
    1b78:	8c 01       	movw	r16, r24
    1b7a:	20 81       	ld	r18, Z
    1b7c:	20 93 af 00 	sts	0x00AF, r18
    1b80:	21 97       	sbiw	r28, 0x01	; 1
    1b82:	20 97       	sbiw	r28, 0x00	; 0
    1b84:	19 f0       	breq	.+6      	; 0x1b8c <USB_Host_SendControlRequest+0x182>
    1b86:	fc 01       	movw	r30, r24
				{
					Pipe_Write_8(*(DataStream++));
    1b88:	eb cf       	rjmp	.-42     	; 0x1b60 <USB_Host_SendControlRequest+0x156>
			 *  \param[in] Data  Data to write into the the currently selected pipe's FIFO buffer.
			 */
			static inline void Pipe_Write_8(const uint8_t Data) ATTR_ALWAYS_INLINE;
			static inline void Pipe_Write_8(const uint8_t Data)
			{
				UPDATX = Data;
    1b8a:	8f 01       	movw	r16, r30
    1b8c:	80 91 a6 00 	lds	r24, 0x00A6
			while (DataLen)
			{
				if ((ReturnStatus = USB_Host_WaitForIOS(USB_HOST_WAITFOR_OutReady)) != HOST_SENDCONTROL_Successful)
				  return ReturnStatus;

				while (DataLen && (Pipe_BytesInPipe() < USB_Host_ControlPipeSize))
    1b90:	8b 77       	andi	r24, 0x7B	; 123
    1b92:	80 93 a6 00 	sts	0x00A6, r24
    1b96:	dd cf       	rjmp	.-70     	; 0x1b52 <USB_Host_SendControlRequest+0x148>
    1b98:	11 df       	rcall	.-478    	; 0x19bc <USB_Host_WaitForIOS>
			 *  \ingroup Group_PipePacketManagement_AVR8
			 */
			static inline void Pipe_ClearOUT(void) ATTR_ALWAYS_INLINE;
			static inline void Pipe_ClearOUT(void)
			{
				UPINTX &= ~((1 << TXOUTI) | (1 << FIFOCON));
    1b9a:	81 11       	cpse	r24, r1
    1b9c:	1a c0       	rjmp	.+52     	; 0x1bd2 <USB_Host_SendControlRequest+0x1c8>
    1b9e:	80 91 a9 00 	lds	r24, 0x00A9
    1ba2:	80 64       	ori	r24, 0x40	; 64
    1ba4:	80 93 a9 00 	sts	0x00A9, r24
				}

				Pipe_ClearOUT();
			}

			if ((ReturnStatus = USB_Host_WaitForIOS(USB_HOST_WAITFOR_OutReady)) != HOST_SENDCONTROL_Successful)
    1ba8:	80 91 aa 00 	lds	r24, 0x00AA
    1bac:	8f 7c       	andi	r24, 0xCF	; 207

			/** Freezes the selected pipe, preventing it from communicating with an attached device. */
			static inline void Pipe_Freeze(void) ATTR_ALWAYS_INLINE;
			static inline void Pipe_Freeze(void)
			{
				UPCONX |= (1 << PFREEZE);
    1bae:	80 61       	ori	r24, 0x10	; 16
    1bb0:	80 93 aa 00 	sts	0x00AA, r24
    1bb4:	80 91 a9 00 	lds	r24, 0x00A9
			 *  \param[in] Token  New pipe token to set the selected pipe to, as a \c PIPE_TOKEN_* mask.
			 */
			static inline void Pipe_SetPipeToken(const uint8_t Token) ATTR_ALWAYS_INLINE;
			static inline void Pipe_SetPipeToken(const uint8_t Token)
			{
				UPCFG0X = ((UPCFG0X & ~(0x03 << PTOKEN0)) | Token);
    1bb8:	8f 7b       	andi	r24, 0xBF	; 191
    1bba:	80 93 a9 00 	sts	0x00A9, r24
    1bbe:	81 e0       	ldi	r24, 0x01	; 1
    1bc0:	fd de       	rcall	.-518    	; 0x19bc <USB_Host_WaitForIOS>
    1bc2:	81 11       	cpse	r24, r1

			/** Unfreezes the selected pipe, allowing it to communicate with an attached device. */
			static inline void Pipe_Unfreeze(void) ATTR_ALWAYS_INLINE;
			static inline void Pipe_Unfreeze(void)
			{
				UPCONX &= ~(1 << PFREEZE);
    1bc4:	06 c0       	rjmp	.+12     	; 0x1bd2 <USB_Host_SendControlRequest+0x1c8>
    1bc6:	80 91 a6 00 	lds	r24, 0x00A6
    1bca:	8e 77       	andi	r24, 0x7E	; 126
    1bcc:	80 93 a6 00 	sts	0x00A6, r24
		}

		Pipe_SetPipeToken(PIPE_TOKEN_IN);
		Pipe_Unfreeze();

		if ((ReturnStatus = USB_Host_WaitForIOS(USB_HOST_WAITFOR_InReceived)) != HOST_SENDCONTROL_Successful)
    1bd0:	80 e0       	ldi	r24, 0x00	; 0
    1bd2:	90 91 a9 00 	lds	r25, 0x00A9
    1bd6:	90 64       	ori	r25, 0x40	; 64
			 *  \ingroup Group_PipePacketManagement_AVR8
			 */
			static inline void Pipe_ClearIN(void) ATTR_ALWAYS_INLINE;
			static inline void Pipe_ClearIN(void)
			{
				UPINTX &= ~((1 << RXINI) | (1 << FIFOCON));
    1bd8:	90 93 a9 00 	sts	0x00A9, r25
    1bdc:	f1 10       	cpse	r15, r1
    1bde:	05 c0       	rjmp	.+10     	; 0x1bea <USB_Host_SendControlRequest+0x1e0>
    1be0:	90 91 9e 00 	lds	r25, 0x009E

			/** Freezes the selected pipe, preventing it from communicating with an attached device. */
			static inline void Pipe_Freeze(void) ATTR_ALWAYS_INLINE;
			static inline void Pipe_Freeze(void)
			{
				UPCONX |= (1 << PFREEZE);
    1be4:	9e 7f       	andi	r25, 0xFE	; 254
    1be6:	90 93 9e 00 	sts	0x009E, r25
    1bea:	91 e0       	ldi	r25, 0x01	; 1
    1bec:	90 93 a8 00 	sts	0x00A8, r25
	bool BusSuspended    = USB_Host_IsBusSuspended();
	uint8_t ReturnStatus = USB_Host_SendControlRequest_PRV(BufferPtr);

	Pipe_Freeze();

	if (BusSuspended)
    1bf0:	10 92 a8 00 	sts	0x00A8, r1
			 *             some events (such as device disconnections) will not fire until the bus is resumed.
			 */
			static inline void USB_Host_SuspendBus(void) ATTR_ALWAYS_INLINE;
			static inline void USB_Host_SuspendBus(void)
			{
				UHCON &= ~(1 << SOFEN);
    1bf4:	df 91       	pop	r29
    1bf6:	cf 91       	pop	r28
    1bf8:	1f 91       	pop	r17
    1bfa:	0f 91       	pop	r16
			 *  \param[in] Address  Address of the pipe to reset.
			 */
			static inline void Pipe_ResetPipe(const uint8_t Address) ATTR_ALWAYS_INLINE;
			static inline void Pipe_ResetPipe(const uint8_t Address)
			{
				UPRST = (1 << (Address & PIPE_PIPENUM_MASK));
    1bfc:	ff 90       	pop	r15
    1bfe:	08 95       	ret

00001c00 <USB_Host_SetDeviceConfiguration>:
    1c00:	cf 93       	push	r28
				UPRST = 0;
    1c02:	c8 2f       	mov	r28, r24
    1c04:	10 92 f2 04 	sts	0x04F2, r1
	  USB_Host_SuspendBus();

	Pipe_ResetPipe(PIPE_CONTROLPIPE);

	return ReturnStatus;
}
    1c08:	89 e0       	ldi	r24, 0x09	; 9
    1c0a:	80 93 f3 04 	sts	0x04F3, r24
    1c0e:	2c 2f       	mov	r18, r28
    1c10:	30 e0       	ldi	r19, 0x00	; 0

uint8_t USB_Host_SetDeviceConfiguration(const uint8_t ConfigNumber)
{
	uint8_t ErrorCode;

	USB_ControlRequest = (USB_Request_Header_t)
    1c12:	30 93 f5 04 	sts	0x04F5, r19
    1c16:	20 93 f4 04 	sts	0x04F4, r18
    1c1a:	10 92 f7 04 	sts	0x04F7, r1
    1c1e:	10 92 f6 04 	sts	0x04F6, r1
    1c22:	10 92 f9 04 	sts	0x04F9, r1
    1c26:	10 92 f8 04 	sts	0x04F8, r1
			 *  \param[in] Address  Address of the pipe to select.
			 */
			static inline void Pipe_SelectPipe(const uint8_t Address) ATTR_ALWAYS_INLINE;
			static inline void Pipe_SelectPipe(const uint8_t Address)
			{
				UPNUM = (Address & PIPE_PIPENUM_MASK);
    1c2a:	10 92 a7 00 	sts	0x00A7, r1
			.wLength       = 0,
		};

	Pipe_SelectPipe(PIPE_CONTROLPIPE);

	if ((ErrorCode = USB_Host_SendControlRequest(NULL)) == HOST_SENDCONTROL_Successful)
    1c2e:	80 e0       	ldi	r24, 0x00	; 0
    1c30:	90 e0       	ldi	r25, 0x00	; 0
    1c32:	eb de       	rcall	.-554    	; 0x1a0a <USB_Host_SendControlRequest>
    1c34:	81 11       	cpse	r24, r1
    1c36:	09 c0       	rjmp	.+18     	; 0x1c4a <USB_Host_SetDeviceConfiguration+0x4a>
    1c38:	c0 93 f0 04 	sts	0x04F0, r28
	{
		USB_Host_ConfigurationNumber = ConfigNumber;
    1c3c:	cc 23       	and	r28, r28
		USB_HostState                = (ConfigNumber) ? HOST_STATE_Configured : HOST_STATE_Addressed;
    1c3e:	11 f0       	breq	.+4      	; 0x1c44 <USB_Host_SetDeviceConfiguration+0x44>
    1c40:	9b e0       	ldi	r25, 0x0B	; 11
    1c42:	01 c0       	rjmp	.+2      	; 0x1c46 <USB_Host_SetDeviceConfiguration+0x46>
    1c44:	9a e0       	ldi	r25, 0x0A	; 10
    1c46:	90 93 fa 04 	sts	0x04FA, r25
    1c4a:	cf 91       	pop	r28
	}

	return ErrorCode;
}
    1c4c:	08 95       	ret

00001c4e <USB_USBTask>:
#if defined(USB_CAN_BE_DEVICE) && !defined(DEVICE_STATE_AS_GPIOR)
volatile uint8_t     USB_DeviceState;
#endif

void USB_USBTask(void)
{
    1c4e:	cf 93       	push	r28
			 *  \return Index of the currently selected pipe.
			 */
			static inline uint8_t Pipe_GetCurrentPipe(void) ATTR_WARN_UNUSED_RESULT ATTR_ALWAYS_INLINE;
			static inline uint8_t Pipe_GetCurrentPipe(void)
			{
				return ((UPNUM & PIPE_PIPENUM_MASK) | Pipe_GetPipeDirection());
    1c50:	c0 91 a7 00 	lds	r28, 0x00A7
    1c54:	cf 70       	andi	r28, 0x0F	; 15
			 *  \return The currently selected pipe's direction, as a \c PIPE_DIR_* mask.
			 */
			static inline uint8_t Pipe_GetPipeDirection(void) ATTR_WARN_UNUSED_RESULT ATTR_ALWAYS_INLINE;
			static inline uint8_t Pipe_GetPipeDirection(void)
			{
				return (UPCFG0X & (1 << EPDIR)) ? PIPE_DIR_IN : PIPE_DIR_OUT;
    1c56:	80 91 aa 00 	lds	r24, 0x00AA
			 *  \param[in] Address  Address of the pipe to select.
			 */
			static inline void Pipe_SelectPipe(const uint8_t Address) ATTR_ALWAYS_INLINE;
			static inline void Pipe_SelectPipe(const uint8_t Address)
			{
				UPNUM = (Address & PIPE_PIPENUM_MASK);
    1c5a:	10 92 a7 00 	sts	0x00A7, r1
{
	uint8_t PrevPipe = Pipe_GetCurrentPipe();

	Pipe_SelectPipe(PIPE_CONTROLPIPE);

	USB_Host_ProcessNextHostState();
    1c5e:	cf da       	rcall	.-2658   	; 0x11fe <USB_Host_ProcessNextHostState>
    1c60:	c0 93 a7 00 	sts	0x00A7, r28
    1c64:	cf 91       	pop	r28
	#elif defined(USB_CAN_BE_HOST)
		USB_HostTask();
	#elif defined(USB_CAN_BE_DEVICE)
		USB_DeviceTask();
	#endif
}
    1c66:	08 95       	ret

00001c68 <Serial_putchar>:
			 *  \return Boolean \c true if a character can be queued for transmission immediately, \c false otherwise.
			 */
			static inline bool Serial_IsSendReady(void) ATTR_WARN_UNUSED_RESULT ATTR_ALWAYS_INLINE;
			static inline bool Serial_IsSendReady(void)
			{
				return ((UCSR1A & (1 << UDRE1)) ? true : false);
    1c68:	90 91 c8 00 	lds	r25, 0x00C8
			 *  \param[in] DataByte  Byte to transmit through the USART.
			 */
			static inline void Serial_SendByte(const char DataByte) ATTR_ALWAYS_INLINE;
			static inline void Serial_SendByte(const char DataByte)
			{
				while (!(Serial_IsSendReady()));
    1c6c:	95 ff       	sbrs	r25, 5
    1c6e:	fc cf       	rjmp	.-8      	; 0x1c68 <Serial_putchar>
				UDR1 = DataByte;
    1c70:	80 93 ce 00 	sts	0x00CE, r24
{
	(void)Stream;

	Serial_SendByte(DataByte);
	return 0;
}
    1c74:	80 e0       	ldi	r24, 0x00	; 0
    1c76:	90 e0       	ldi	r25, 0x00	; 0
    1c78:	08 95       	ret

00001c7a <Serial_getchar>:
			 *  \return Boolean \c true if a character has been received, \c false otherwise.
			 */
			static inline bool Serial_IsCharReceived(void) ATTR_WARN_UNUSED_RESULT ATTR_ALWAYS_INLINE;
			static inline bool Serial_IsCharReceived(void)
			{
				return ((UCSR1A & (1 << RXC1)) ? true : false);
    1c7a:	80 91 c8 00 	lds	r24, 0x00C8

int Serial_getchar(FILE *Stream)
{
	(void)Stream;

	if (!(Serial_IsCharReceived()))
    1c7e:	87 ff       	sbrs	r24, 7
    1c80:	08 c0       	rjmp	.+16     	; 0x1c92 <Serial_getchar+0x18>
    1c82:	80 91 c8 00 	lds	r24, 0x00C8
			 *  \return Next byte received from the USART, or a negative value if no byte has been received.
			 */
			static inline int16_t Serial_ReceiveByte(void) ATTR_ALWAYS_INLINE;
			static inline int16_t Serial_ReceiveByte(void)
			{
				if (!(Serial_IsCharReceived()))
    1c86:	87 ff       	sbrs	r24, 7
    1c88:	07 c0       	rjmp	.+14     	; 0x1c98 <Serial_getchar+0x1e>
				  return -1;

				return UDR1;
    1c8a:	80 91 ce 00 	lds	r24, 0x00CE
    1c8e:	90 e0       	ldi	r25, 0x00	; 0
    1c90:	08 95       	ret
	  return _FDEV_EOF;
    1c92:	8e ef       	ldi	r24, 0xFE	; 254
    1c94:	9f ef       	ldi	r25, 0xFF	; 255
    1c96:	08 95       	ret
			 */
			static inline int16_t Serial_ReceiveByte(void) ATTR_ALWAYS_INLINE;
			static inline int16_t Serial_ReceiveByte(void)
			{
				if (!(Serial_IsCharReceived()))
				  return -1;
    1c98:	8f ef       	ldi	r24, 0xFF	; 255
    1c9a:	9f ef       	ldi	r25, 0xFF	; 255

	return Serial_ReceiveByte();
}
    1c9c:	08 95       	ret

00001c9e <Serial_CreateStream>:
	while (Length--)
	  Serial_SendByte(*((uint8_t*)Buffer++));
}

void Serial_CreateStream(FILE* Stream)
{
    1c9e:	fc 01       	movw	r30, r24
	if (!(Stream))
    1ca0:	00 97       	sbiw	r24, 0x00	; 0
    1ca2:	59 f4       	brne	.+22     	; 0x1cba <Serial_CreateStream+0x1c>
	{
		Stream = &USARTSerialStream;
		stdin  = Stream;
    1ca4:	8b ef       	ldi	r24, 0xFB	; 251
    1ca6:	94 e0       	ldi	r25, 0x04	; 4
    1ca8:	90 93 0a 05 	sts	0x050A, r25
    1cac:	80 93 09 05 	sts	0x0509, r24
		stdout = Stream;
    1cb0:	90 93 0c 05 	sts	0x050C, r25
    1cb4:	80 93 0b 05 	sts	0x050B, r24

void Serial_CreateStream(FILE* Stream)
{
	if (!(Stream))
	{
		Stream = &USARTSerialStream;
    1cb8:	fc 01       	movw	r30, r24
		stdin  = Stream;
		stdout = Stream;
	}

	*Stream = (FILE)FDEV_SETUP_STREAM(Serial_putchar, Serial_getchar, _FDEV_SETUP_RW);
    1cba:	8e e0       	ldi	r24, 0x0E	; 14
    1cbc:	df 01       	movw	r26, r30
    1cbe:	1d 92       	st	X+, r1
    1cc0:	8a 95       	dec	r24
    1cc2:	e9 f7       	brne	.-6      	; 0x1cbe <Serial_CreateStream+0x20>
    1cc4:	83 e0       	ldi	r24, 0x03	; 3
    1cc6:	83 83       	std	Z+3, r24	; 0x03
    1cc8:	84 e3       	ldi	r24, 0x34	; 52
    1cca:	9e e0       	ldi	r25, 0x0E	; 14
    1ccc:	91 87       	std	Z+9, r25	; 0x09
    1cce:	80 87       	std	Z+8, r24	; 0x08
    1cd0:	8d e3       	ldi	r24, 0x3D	; 61
    1cd2:	9e e0       	ldi	r25, 0x0E	; 14
    1cd4:	93 87       	std	Z+11, r25	; 0x0b
    1cd6:	82 87       	std	Z+10, r24	; 0x0a
    1cd8:	08 95       	ret

00001cda <printf_P>:
    1cda:	0f 93       	push	r16
    1cdc:	1f 93       	push	r17
    1cde:	cf 93       	push	r28
    1ce0:	df 93       	push	r29
    1ce2:	cd b7       	in	r28, 0x3d	; 61
    1ce4:	de b7       	in	r29, 0x3e	; 62
    1ce6:	fe 01       	movw	r30, r28
    1ce8:	37 96       	adiw	r30, 0x07	; 7
    1cea:	61 91       	ld	r22, Z+
    1cec:	71 91       	ld	r23, Z+
    1cee:	0b e0       	ldi	r16, 0x0B	; 11
    1cf0:	15 e0       	ldi	r17, 0x05	; 5
    1cf2:	d8 01       	movw	r26, r16
    1cf4:	8d 91       	ld	r24, X+
    1cf6:	9c 91       	ld	r25, X
    1cf8:	dc 01       	movw	r26, r24
    1cfa:	13 96       	adiw	r26, 0x03	; 3
    1cfc:	2c 91       	ld	r18, X
    1cfe:	13 97       	sbiw	r26, 0x03	; 3
    1d00:	28 60       	ori	r18, 0x08	; 8
    1d02:	13 96       	adiw	r26, 0x03	; 3
    1d04:	2c 93       	st	X, r18
    1d06:	af 01       	movw	r20, r30
    1d08:	3a d0       	rcall	.+116    	; 0x1d7e <vfprintf>
    1d0a:	d8 01       	movw	r26, r16
    1d0c:	ed 91       	ld	r30, X+
    1d0e:	fc 91       	ld	r31, X
    1d10:	23 81       	ldd	r18, Z+3	; 0x03
    1d12:	27 7f       	andi	r18, 0xF7	; 247
    1d14:	23 83       	std	Z+3, r18	; 0x03
    1d16:	df 91       	pop	r29
    1d18:	cf 91       	pop	r28
    1d1a:	1f 91       	pop	r17
    1d1c:	0f 91       	pop	r16
    1d1e:	08 95       	ret

00001d20 <puts_P>:
    1d20:	0f 93       	push	r16
    1d22:	1f 93       	push	r17
    1d24:	cf 93       	push	r28
    1d26:	df 93       	push	r29
    1d28:	ec 01       	movw	r28, r24
    1d2a:	e0 91 0b 05 	lds	r30, 0x050B
    1d2e:	f0 91 0c 05 	lds	r31, 0x050C
    1d32:	83 81       	ldd	r24, Z+3	; 0x03
    1d34:	81 ff       	sbrs	r24, 1
    1d36:	1c c0       	rjmp	.+56     	; 0x1d70 <puts_P+0x50>
    1d38:	00 e0       	ldi	r16, 0x00	; 0
    1d3a:	10 e0       	ldi	r17, 0x00	; 0
    1d3c:	fe 01       	movw	r30, r28
    1d3e:	84 91       	lpm	r24, Z
    1d40:	60 91 0b 05 	lds	r22, 0x050B
    1d44:	70 91 0c 05 	lds	r23, 0x050C
    1d48:	db 01       	movw	r26, r22
    1d4a:	18 96       	adiw	r26, 0x08	; 8
    1d4c:	ed 91       	ld	r30, X+
    1d4e:	fc 91       	ld	r31, X
    1d50:	19 97       	sbiw	r26, 0x09	; 9
    1d52:	88 23       	and	r24, r24
    1d54:	39 f0       	breq	.+14     	; 0x1d64 <puts_P+0x44>
    1d56:	09 95       	icall
    1d58:	89 2b       	or	r24, r25
    1d5a:	11 f0       	breq	.+4      	; 0x1d60 <puts_P+0x40>
    1d5c:	0f ef       	ldi	r16, 0xFF	; 255
    1d5e:	1f ef       	ldi	r17, 0xFF	; 255
    1d60:	21 96       	adiw	r28, 0x01	; 1
    1d62:	ec cf       	rjmp	.-40     	; 0x1d3c <puts_P+0x1c>
    1d64:	8a e0       	ldi	r24, 0x0A	; 10
    1d66:	09 95       	icall
    1d68:	89 2b       	or	r24, r25
    1d6a:	11 f4       	brne	.+4      	; 0x1d70 <puts_P+0x50>
    1d6c:	c8 01       	movw	r24, r16
    1d6e:	02 c0       	rjmp	.+4      	; 0x1d74 <puts_P+0x54>
    1d70:	8f ef       	ldi	r24, 0xFF	; 255
    1d72:	9f ef       	ldi	r25, 0xFF	; 255
    1d74:	df 91       	pop	r29
    1d76:	cf 91       	pop	r28
    1d78:	1f 91       	pop	r17
    1d7a:	0f 91       	pop	r16
    1d7c:	08 95       	ret

00001d7e <vfprintf>:
    1d7e:	2f 92       	push	r2
    1d80:	3f 92       	push	r3
    1d82:	4f 92       	push	r4
    1d84:	5f 92       	push	r5
    1d86:	6f 92       	push	r6
    1d88:	7f 92       	push	r7
    1d8a:	8f 92       	push	r8
    1d8c:	9f 92       	push	r9
    1d8e:	af 92       	push	r10
    1d90:	bf 92       	push	r11
    1d92:	cf 92       	push	r12
    1d94:	df 92       	push	r13
    1d96:	ef 92       	push	r14
    1d98:	ff 92       	push	r15
    1d9a:	0f 93       	push	r16
    1d9c:	1f 93       	push	r17
    1d9e:	cf 93       	push	r28
    1da0:	df 93       	push	r29
    1da2:	cd b7       	in	r28, 0x3d	; 61
    1da4:	de b7       	in	r29, 0x3e	; 62
    1da6:	2c 97       	sbiw	r28, 0x0c	; 12
    1da8:	0f b6       	in	r0, 0x3f	; 63
    1daa:	f8 94       	cli
    1dac:	de bf       	out	0x3e, r29	; 62
    1dae:	0f be       	out	0x3f, r0	; 63
    1db0:	cd bf       	out	0x3d, r28	; 61
    1db2:	7c 01       	movw	r14, r24
    1db4:	6b 01       	movw	r12, r22
    1db6:	8a 01       	movw	r16, r20
    1db8:	fc 01       	movw	r30, r24
    1dba:	17 82       	std	Z+7, r1	; 0x07
    1dbc:	16 82       	std	Z+6, r1	; 0x06
    1dbe:	83 81       	ldd	r24, Z+3	; 0x03
    1dc0:	81 ff       	sbrs	r24, 1
    1dc2:	b0 c1       	rjmp	.+864    	; 0x2124 <__stack+0x25>
    1dc4:	ce 01       	movw	r24, r28
    1dc6:	01 96       	adiw	r24, 0x01	; 1
    1dc8:	4c 01       	movw	r8, r24
    1dca:	f7 01       	movw	r30, r14
    1dcc:	93 81       	ldd	r25, Z+3	; 0x03
    1dce:	f6 01       	movw	r30, r12
    1dd0:	93 fd       	sbrc	r25, 3
    1dd2:	85 91       	lpm	r24, Z+
    1dd4:	93 ff       	sbrs	r25, 3
    1dd6:	81 91       	ld	r24, Z+
    1dd8:	6f 01       	movw	r12, r30
    1dda:	88 23       	and	r24, r24
    1ddc:	09 f4       	brne	.+2      	; 0x1de0 <vfprintf+0x62>
    1dde:	9e c1       	rjmp	.+828    	; 0x211c <__stack+0x1d>
    1de0:	85 32       	cpi	r24, 0x25	; 37
    1de2:	39 f4       	brne	.+14     	; 0x1df2 <vfprintf+0x74>
    1de4:	93 fd       	sbrc	r25, 3
    1de6:	85 91       	lpm	r24, Z+
    1de8:	93 ff       	sbrs	r25, 3
    1dea:	81 91       	ld	r24, Z+
    1dec:	6f 01       	movw	r12, r30
    1dee:	85 32       	cpi	r24, 0x25	; 37
    1df0:	21 f4       	brne	.+8      	; 0x1dfa <vfprintf+0x7c>
    1df2:	b7 01       	movw	r22, r14
    1df4:	90 e0       	ldi	r25, 0x00	; 0
    1df6:	c7 d1       	rcall	.+910    	; 0x2186 <fputc>
    1df8:	e8 cf       	rjmp	.-48     	; 0x1dca <vfprintf+0x4c>
    1dfa:	51 2c       	mov	r5, r1
    1dfc:	31 2c       	mov	r3, r1
    1dfe:	20 e0       	ldi	r18, 0x00	; 0
    1e00:	20 32       	cpi	r18, 0x20	; 32
    1e02:	a0 f4       	brcc	.+40     	; 0x1e2c <vfprintf+0xae>
    1e04:	8b 32       	cpi	r24, 0x2B	; 43
    1e06:	69 f0       	breq	.+26     	; 0x1e22 <vfprintf+0xa4>
    1e08:	30 f4       	brcc	.+12     	; 0x1e16 <vfprintf+0x98>
    1e0a:	80 32       	cpi	r24, 0x20	; 32
    1e0c:	59 f0       	breq	.+22     	; 0x1e24 <vfprintf+0xa6>
    1e0e:	83 32       	cpi	r24, 0x23	; 35
    1e10:	69 f4       	brne	.+26     	; 0x1e2c <vfprintf+0xae>
    1e12:	20 61       	ori	r18, 0x10	; 16
    1e14:	2c c0       	rjmp	.+88     	; 0x1e6e <vfprintf+0xf0>
    1e16:	8d 32       	cpi	r24, 0x2D	; 45
    1e18:	39 f0       	breq	.+14     	; 0x1e28 <vfprintf+0xaa>
    1e1a:	80 33       	cpi	r24, 0x30	; 48
    1e1c:	39 f4       	brne	.+14     	; 0x1e2c <vfprintf+0xae>
    1e1e:	21 60       	ori	r18, 0x01	; 1
    1e20:	26 c0       	rjmp	.+76     	; 0x1e6e <vfprintf+0xf0>
    1e22:	22 60       	ori	r18, 0x02	; 2
    1e24:	24 60       	ori	r18, 0x04	; 4
    1e26:	23 c0       	rjmp	.+70     	; 0x1e6e <vfprintf+0xf0>
    1e28:	28 60       	ori	r18, 0x08	; 8
    1e2a:	21 c0       	rjmp	.+66     	; 0x1e6e <vfprintf+0xf0>
    1e2c:	27 fd       	sbrc	r18, 7
    1e2e:	27 c0       	rjmp	.+78     	; 0x1e7e <vfprintf+0x100>
    1e30:	30 ed       	ldi	r19, 0xD0	; 208
    1e32:	38 0f       	add	r19, r24
    1e34:	3a 30       	cpi	r19, 0x0A	; 10
    1e36:	78 f4       	brcc	.+30     	; 0x1e56 <vfprintf+0xd8>
    1e38:	26 ff       	sbrs	r18, 6
    1e3a:	06 c0       	rjmp	.+12     	; 0x1e48 <vfprintf+0xca>
    1e3c:	fa e0       	ldi	r31, 0x0A	; 10
    1e3e:	5f 9e       	mul	r5, r31
    1e40:	30 0d       	add	r19, r0
    1e42:	11 24       	eor	r1, r1
    1e44:	53 2e       	mov	r5, r19
    1e46:	13 c0       	rjmp	.+38     	; 0x1e6e <vfprintf+0xf0>
    1e48:	8a e0       	ldi	r24, 0x0A	; 10
    1e4a:	38 9e       	mul	r3, r24
    1e4c:	30 0d       	add	r19, r0
    1e4e:	11 24       	eor	r1, r1
    1e50:	33 2e       	mov	r3, r19
    1e52:	20 62       	ori	r18, 0x20	; 32
    1e54:	0c c0       	rjmp	.+24     	; 0x1e6e <vfprintf+0xf0>
    1e56:	8e 32       	cpi	r24, 0x2E	; 46
    1e58:	21 f4       	brne	.+8      	; 0x1e62 <vfprintf+0xe4>
    1e5a:	26 fd       	sbrc	r18, 6
    1e5c:	5f c1       	rjmp	.+702    	; 0x211c <__stack+0x1d>
    1e5e:	20 64       	ori	r18, 0x40	; 64
    1e60:	06 c0       	rjmp	.+12     	; 0x1e6e <vfprintf+0xf0>
    1e62:	8c 36       	cpi	r24, 0x6C	; 108
    1e64:	11 f4       	brne	.+4      	; 0x1e6a <vfprintf+0xec>
    1e66:	20 68       	ori	r18, 0x80	; 128
    1e68:	02 c0       	rjmp	.+4      	; 0x1e6e <vfprintf+0xf0>
    1e6a:	88 36       	cpi	r24, 0x68	; 104
    1e6c:	41 f4       	brne	.+16     	; 0x1e7e <vfprintf+0x100>
    1e6e:	f6 01       	movw	r30, r12
    1e70:	93 fd       	sbrc	r25, 3
    1e72:	85 91       	lpm	r24, Z+
    1e74:	93 ff       	sbrs	r25, 3
    1e76:	81 91       	ld	r24, Z+
    1e78:	6f 01       	movw	r12, r30
    1e7a:	81 11       	cpse	r24, r1
    1e7c:	c1 cf       	rjmp	.-126    	; 0x1e00 <vfprintf+0x82>
    1e7e:	98 2f       	mov	r25, r24
    1e80:	9f 7d       	andi	r25, 0xDF	; 223
    1e82:	95 54       	subi	r25, 0x45	; 69
    1e84:	93 30       	cpi	r25, 0x03	; 3
    1e86:	28 f4       	brcc	.+10     	; 0x1e92 <vfprintf+0x114>
    1e88:	0c 5f       	subi	r16, 0xFC	; 252
    1e8a:	1f 4f       	sbci	r17, 0xFF	; 255
    1e8c:	ff e3       	ldi	r31, 0x3F	; 63
    1e8e:	f9 83       	std	Y+1, r31	; 0x01
    1e90:	0d c0       	rjmp	.+26     	; 0x1eac <vfprintf+0x12e>
    1e92:	83 36       	cpi	r24, 0x63	; 99
    1e94:	31 f0       	breq	.+12     	; 0x1ea2 <vfprintf+0x124>
    1e96:	83 37       	cpi	r24, 0x73	; 115
    1e98:	71 f0       	breq	.+28     	; 0x1eb6 <vfprintf+0x138>
    1e9a:	83 35       	cpi	r24, 0x53	; 83
    1e9c:	09 f0       	breq	.+2      	; 0x1ea0 <vfprintf+0x122>
    1e9e:	57 c0       	rjmp	.+174    	; 0x1f4e <vfprintf+0x1d0>
    1ea0:	21 c0       	rjmp	.+66     	; 0x1ee4 <vfprintf+0x166>
    1ea2:	f8 01       	movw	r30, r16
    1ea4:	80 81       	ld	r24, Z
    1ea6:	89 83       	std	Y+1, r24	; 0x01
    1ea8:	0e 5f       	subi	r16, 0xFE	; 254
    1eaa:	1f 4f       	sbci	r17, 0xFF	; 255
    1eac:	44 24       	eor	r4, r4
    1eae:	43 94       	inc	r4
    1eb0:	51 2c       	mov	r5, r1
    1eb2:	54 01       	movw	r10, r8
    1eb4:	14 c0       	rjmp	.+40     	; 0x1ede <vfprintf+0x160>
    1eb6:	38 01       	movw	r6, r16
    1eb8:	f2 e0       	ldi	r31, 0x02	; 2
    1eba:	6f 0e       	add	r6, r31
    1ebc:	71 1c       	adc	r7, r1
    1ebe:	f8 01       	movw	r30, r16
    1ec0:	a0 80       	ld	r10, Z
    1ec2:	b1 80       	ldd	r11, Z+1	; 0x01
    1ec4:	26 ff       	sbrs	r18, 6
    1ec6:	03 c0       	rjmp	.+6      	; 0x1ece <vfprintf+0x150>
    1ec8:	65 2d       	mov	r22, r5
    1eca:	70 e0       	ldi	r23, 0x00	; 0
    1ecc:	02 c0       	rjmp	.+4      	; 0x1ed2 <vfprintf+0x154>
    1ece:	6f ef       	ldi	r22, 0xFF	; 255
    1ed0:	7f ef       	ldi	r23, 0xFF	; 255
    1ed2:	c5 01       	movw	r24, r10
    1ed4:	2c 87       	std	Y+12, r18	; 0x0c
    1ed6:	4c d1       	rcall	.+664    	; 0x2170 <strnlen>
    1ed8:	2c 01       	movw	r4, r24
    1eda:	83 01       	movw	r16, r6
    1edc:	2c 85       	ldd	r18, Y+12	; 0x0c
    1ede:	2f 77       	andi	r18, 0x7F	; 127
    1ee0:	22 2e       	mov	r2, r18
    1ee2:	16 c0       	rjmp	.+44     	; 0x1f10 <vfprintf+0x192>
    1ee4:	38 01       	movw	r6, r16
    1ee6:	f2 e0       	ldi	r31, 0x02	; 2
    1ee8:	6f 0e       	add	r6, r31
    1eea:	71 1c       	adc	r7, r1
    1eec:	f8 01       	movw	r30, r16
    1eee:	a0 80       	ld	r10, Z
    1ef0:	b1 80       	ldd	r11, Z+1	; 0x01
    1ef2:	26 ff       	sbrs	r18, 6
    1ef4:	03 c0       	rjmp	.+6      	; 0x1efc <vfprintf+0x17e>
    1ef6:	65 2d       	mov	r22, r5
    1ef8:	70 e0       	ldi	r23, 0x00	; 0
    1efa:	02 c0       	rjmp	.+4      	; 0x1f00 <vfprintf+0x182>
    1efc:	6f ef       	ldi	r22, 0xFF	; 255
    1efe:	7f ef       	ldi	r23, 0xFF	; 255
    1f00:	c5 01       	movw	r24, r10
    1f02:	2c 87       	std	Y+12, r18	; 0x0c
    1f04:	2a d1       	rcall	.+596    	; 0x215a <strnlen_P>
    1f06:	2c 01       	movw	r4, r24
    1f08:	2c 85       	ldd	r18, Y+12	; 0x0c
    1f0a:	20 68       	ori	r18, 0x80	; 128
    1f0c:	22 2e       	mov	r2, r18
    1f0e:	83 01       	movw	r16, r6
    1f10:	23 fc       	sbrc	r2, 3
    1f12:	19 c0       	rjmp	.+50     	; 0x1f46 <vfprintf+0x1c8>
    1f14:	83 2d       	mov	r24, r3
    1f16:	90 e0       	ldi	r25, 0x00	; 0
    1f18:	48 16       	cp	r4, r24
    1f1a:	59 06       	cpc	r5, r25
    1f1c:	a0 f4       	brcc	.+40     	; 0x1f46 <vfprintf+0x1c8>
    1f1e:	b7 01       	movw	r22, r14
    1f20:	80 e2       	ldi	r24, 0x20	; 32
    1f22:	90 e0       	ldi	r25, 0x00	; 0
    1f24:	30 d1       	rcall	.+608    	; 0x2186 <fputc>
    1f26:	3a 94       	dec	r3
    1f28:	f5 cf       	rjmp	.-22     	; 0x1f14 <vfprintf+0x196>
    1f2a:	f5 01       	movw	r30, r10
    1f2c:	27 fc       	sbrc	r2, 7
    1f2e:	85 91       	lpm	r24, Z+
    1f30:	27 fe       	sbrs	r2, 7
    1f32:	81 91       	ld	r24, Z+
    1f34:	5f 01       	movw	r10, r30
    1f36:	b7 01       	movw	r22, r14
    1f38:	90 e0       	ldi	r25, 0x00	; 0
    1f3a:	25 d1       	rcall	.+586    	; 0x2186 <fputc>
    1f3c:	31 10       	cpse	r3, r1
    1f3e:	3a 94       	dec	r3
    1f40:	f1 e0       	ldi	r31, 0x01	; 1
    1f42:	4f 1a       	sub	r4, r31
    1f44:	51 08       	sbc	r5, r1
    1f46:	41 14       	cp	r4, r1
    1f48:	51 04       	cpc	r5, r1
    1f4a:	79 f7       	brne	.-34     	; 0x1f2a <vfprintf+0x1ac>
    1f4c:	de c0       	rjmp	.+444    	; 0x210a <__stack+0xb>
    1f4e:	84 36       	cpi	r24, 0x64	; 100
    1f50:	11 f0       	breq	.+4      	; 0x1f56 <vfprintf+0x1d8>
    1f52:	89 36       	cpi	r24, 0x69	; 105
    1f54:	31 f5       	brne	.+76     	; 0x1fa2 <vfprintf+0x224>
    1f56:	f8 01       	movw	r30, r16
    1f58:	27 ff       	sbrs	r18, 7
    1f5a:	07 c0       	rjmp	.+14     	; 0x1f6a <vfprintf+0x1ec>
    1f5c:	60 81       	ld	r22, Z
    1f5e:	71 81       	ldd	r23, Z+1	; 0x01
    1f60:	82 81       	ldd	r24, Z+2	; 0x02
    1f62:	93 81       	ldd	r25, Z+3	; 0x03
    1f64:	0c 5f       	subi	r16, 0xFC	; 252
    1f66:	1f 4f       	sbci	r17, 0xFF	; 255
    1f68:	08 c0       	rjmp	.+16     	; 0x1f7a <vfprintf+0x1fc>
    1f6a:	60 81       	ld	r22, Z
    1f6c:	71 81       	ldd	r23, Z+1	; 0x01
    1f6e:	88 27       	eor	r24, r24
    1f70:	77 fd       	sbrc	r23, 7
    1f72:	80 95       	com	r24
    1f74:	98 2f       	mov	r25, r24
    1f76:	0e 5f       	subi	r16, 0xFE	; 254
    1f78:	1f 4f       	sbci	r17, 0xFF	; 255
    1f7a:	2f 76       	andi	r18, 0x6F	; 111
    1f7c:	b2 2e       	mov	r11, r18
    1f7e:	97 ff       	sbrs	r25, 7
    1f80:	09 c0       	rjmp	.+18     	; 0x1f94 <vfprintf+0x216>
    1f82:	90 95       	com	r25
    1f84:	80 95       	com	r24
    1f86:	70 95       	com	r23
    1f88:	61 95       	neg	r22
    1f8a:	7f 4f       	sbci	r23, 0xFF	; 255
    1f8c:	8f 4f       	sbci	r24, 0xFF	; 255
    1f8e:	9f 4f       	sbci	r25, 0xFF	; 255
    1f90:	20 68       	ori	r18, 0x80	; 128
    1f92:	b2 2e       	mov	r11, r18
    1f94:	2a e0       	ldi	r18, 0x0A	; 10
    1f96:	30 e0       	ldi	r19, 0x00	; 0
    1f98:	a4 01       	movw	r20, r8
    1f9a:	27 d1       	rcall	.+590    	; 0x21ea <__ultoa_invert>
    1f9c:	a8 2e       	mov	r10, r24
    1f9e:	a8 18       	sub	r10, r8
    1fa0:	43 c0       	rjmp	.+134    	; 0x2028 <vfprintf+0x2aa>
    1fa2:	85 37       	cpi	r24, 0x75	; 117
    1fa4:	29 f4       	brne	.+10     	; 0x1fb0 <vfprintf+0x232>
    1fa6:	2f 7e       	andi	r18, 0xEF	; 239
    1fa8:	b2 2e       	mov	r11, r18
    1faa:	2a e0       	ldi	r18, 0x0A	; 10
    1fac:	30 e0       	ldi	r19, 0x00	; 0
    1fae:	25 c0       	rjmp	.+74     	; 0x1ffa <vfprintf+0x27c>
    1fb0:	f2 2f       	mov	r31, r18
    1fb2:	f9 7f       	andi	r31, 0xF9	; 249
    1fb4:	bf 2e       	mov	r11, r31
    1fb6:	8f 36       	cpi	r24, 0x6F	; 111
    1fb8:	c1 f0       	breq	.+48     	; 0x1fea <vfprintf+0x26c>
    1fba:	18 f4       	brcc	.+6      	; 0x1fc2 <vfprintf+0x244>
    1fbc:	88 35       	cpi	r24, 0x58	; 88
    1fbe:	79 f0       	breq	.+30     	; 0x1fde <vfprintf+0x260>
    1fc0:	ad c0       	rjmp	.+346    	; 0x211c <__stack+0x1d>
    1fc2:	80 37       	cpi	r24, 0x70	; 112
    1fc4:	19 f0       	breq	.+6      	; 0x1fcc <vfprintf+0x24e>
    1fc6:	88 37       	cpi	r24, 0x78	; 120
    1fc8:	21 f0       	breq	.+8      	; 0x1fd2 <vfprintf+0x254>
    1fca:	a8 c0       	rjmp	.+336    	; 0x211c <__stack+0x1d>
    1fcc:	2f 2f       	mov	r18, r31
    1fce:	20 61       	ori	r18, 0x10	; 16
    1fd0:	b2 2e       	mov	r11, r18
    1fd2:	b4 fe       	sbrs	r11, 4
    1fd4:	0d c0       	rjmp	.+26     	; 0x1ff0 <vfprintf+0x272>
    1fd6:	8b 2d       	mov	r24, r11
    1fd8:	84 60       	ori	r24, 0x04	; 4
    1fda:	b8 2e       	mov	r11, r24
    1fdc:	09 c0       	rjmp	.+18     	; 0x1ff0 <vfprintf+0x272>
    1fde:	24 ff       	sbrs	r18, 4
    1fe0:	0a c0       	rjmp	.+20     	; 0x1ff6 <vfprintf+0x278>
    1fe2:	9f 2f       	mov	r25, r31
    1fe4:	96 60       	ori	r25, 0x06	; 6
    1fe6:	b9 2e       	mov	r11, r25
    1fe8:	06 c0       	rjmp	.+12     	; 0x1ff6 <vfprintf+0x278>
    1fea:	28 e0       	ldi	r18, 0x08	; 8
    1fec:	30 e0       	ldi	r19, 0x00	; 0
    1fee:	05 c0       	rjmp	.+10     	; 0x1ffa <vfprintf+0x27c>
    1ff0:	20 e1       	ldi	r18, 0x10	; 16
    1ff2:	30 e0       	ldi	r19, 0x00	; 0
    1ff4:	02 c0       	rjmp	.+4      	; 0x1ffa <vfprintf+0x27c>
    1ff6:	20 e1       	ldi	r18, 0x10	; 16
    1ff8:	32 e0       	ldi	r19, 0x02	; 2
    1ffa:	f8 01       	movw	r30, r16
    1ffc:	b7 fe       	sbrs	r11, 7
    1ffe:	07 c0       	rjmp	.+14     	; 0x200e <vfprintf+0x290>
    2000:	60 81       	ld	r22, Z
    2002:	71 81       	ldd	r23, Z+1	; 0x01
    2004:	82 81       	ldd	r24, Z+2	; 0x02
    2006:	93 81       	ldd	r25, Z+3	; 0x03
    2008:	0c 5f       	subi	r16, 0xFC	; 252
    200a:	1f 4f       	sbci	r17, 0xFF	; 255
    200c:	06 c0       	rjmp	.+12     	; 0x201a <vfprintf+0x29c>
    200e:	60 81       	ld	r22, Z
    2010:	71 81       	ldd	r23, Z+1	; 0x01
    2012:	80 e0       	ldi	r24, 0x00	; 0
    2014:	90 e0       	ldi	r25, 0x00	; 0
    2016:	0e 5f       	subi	r16, 0xFE	; 254
    2018:	1f 4f       	sbci	r17, 0xFF	; 255
    201a:	a4 01       	movw	r20, r8
    201c:	e6 d0       	rcall	.+460    	; 0x21ea <__ultoa_invert>
    201e:	a8 2e       	mov	r10, r24
    2020:	a8 18       	sub	r10, r8
    2022:	fb 2d       	mov	r31, r11
    2024:	ff 77       	andi	r31, 0x7F	; 127
    2026:	bf 2e       	mov	r11, r31
    2028:	b6 fe       	sbrs	r11, 6
    202a:	0b c0       	rjmp	.+22     	; 0x2042 <vfprintf+0x2c4>
    202c:	2b 2d       	mov	r18, r11
    202e:	2e 7f       	andi	r18, 0xFE	; 254
    2030:	a5 14       	cp	r10, r5
    2032:	50 f4       	brcc	.+20     	; 0x2048 <vfprintf+0x2ca>
    2034:	b4 fe       	sbrs	r11, 4
    2036:	0a c0       	rjmp	.+20     	; 0x204c <vfprintf+0x2ce>
    2038:	b2 fc       	sbrc	r11, 2
    203a:	08 c0       	rjmp	.+16     	; 0x204c <vfprintf+0x2ce>
    203c:	2b 2d       	mov	r18, r11
    203e:	2e 7e       	andi	r18, 0xEE	; 238
    2040:	05 c0       	rjmp	.+10     	; 0x204c <vfprintf+0x2ce>
    2042:	7a 2c       	mov	r7, r10
    2044:	2b 2d       	mov	r18, r11
    2046:	03 c0       	rjmp	.+6      	; 0x204e <vfprintf+0x2d0>
    2048:	7a 2c       	mov	r7, r10
    204a:	01 c0       	rjmp	.+2      	; 0x204e <vfprintf+0x2d0>
    204c:	75 2c       	mov	r7, r5
    204e:	24 ff       	sbrs	r18, 4
    2050:	0d c0       	rjmp	.+26     	; 0x206c <vfprintf+0x2ee>
    2052:	fe 01       	movw	r30, r28
    2054:	ea 0d       	add	r30, r10
    2056:	f1 1d       	adc	r31, r1
    2058:	80 81       	ld	r24, Z
    205a:	80 33       	cpi	r24, 0x30	; 48
    205c:	11 f4       	brne	.+4      	; 0x2062 <vfprintf+0x2e4>
    205e:	29 7e       	andi	r18, 0xE9	; 233
    2060:	09 c0       	rjmp	.+18     	; 0x2074 <vfprintf+0x2f6>
    2062:	22 ff       	sbrs	r18, 2
    2064:	06 c0       	rjmp	.+12     	; 0x2072 <vfprintf+0x2f4>
    2066:	73 94       	inc	r7
    2068:	73 94       	inc	r7
    206a:	04 c0       	rjmp	.+8      	; 0x2074 <vfprintf+0x2f6>
    206c:	82 2f       	mov	r24, r18
    206e:	86 78       	andi	r24, 0x86	; 134
    2070:	09 f0       	breq	.+2      	; 0x2074 <vfprintf+0x2f6>
    2072:	73 94       	inc	r7
    2074:	23 fd       	sbrc	r18, 3
    2076:	12 c0       	rjmp	.+36     	; 0x209c <vfprintf+0x31e>
    2078:	20 ff       	sbrs	r18, 0
    207a:	06 c0       	rjmp	.+12     	; 0x2088 <vfprintf+0x30a>
    207c:	5a 2c       	mov	r5, r10
    207e:	73 14       	cp	r7, r3
    2080:	18 f4       	brcc	.+6      	; 0x2088 <vfprintf+0x30a>
    2082:	53 0c       	add	r5, r3
    2084:	57 18       	sub	r5, r7
    2086:	73 2c       	mov	r7, r3
    2088:	73 14       	cp	r7, r3
    208a:	60 f4       	brcc	.+24     	; 0x20a4 <vfprintf+0x326>
    208c:	b7 01       	movw	r22, r14
    208e:	80 e2       	ldi	r24, 0x20	; 32
    2090:	90 e0       	ldi	r25, 0x00	; 0
    2092:	2c 87       	std	Y+12, r18	; 0x0c
    2094:	78 d0       	rcall	.+240    	; 0x2186 <fputc>
    2096:	73 94       	inc	r7
    2098:	2c 85       	ldd	r18, Y+12	; 0x0c
    209a:	f6 cf       	rjmp	.-20     	; 0x2088 <vfprintf+0x30a>
    209c:	73 14       	cp	r7, r3
    209e:	10 f4       	brcc	.+4      	; 0x20a4 <vfprintf+0x326>
    20a0:	37 18       	sub	r3, r7
    20a2:	01 c0       	rjmp	.+2      	; 0x20a6 <vfprintf+0x328>
    20a4:	31 2c       	mov	r3, r1
    20a6:	24 ff       	sbrs	r18, 4
    20a8:	11 c0       	rjmp	.+34     	; 0x20cc <vfprintf+0x34e>
    20aa:	b7 01       	movw	r22, r14
    20ac:	80 e3       	ldi	r24, 0x30	; 48
    20ae:	90 e0       	ldi	r25, 0x00	; 0
    20b0:	2c 87       	std	Y+12, r18	; 0x0c
    20b2:	69 d0       	rcall	.+210    	; 0x2186 <fputc>
    20b4:	2c 85       	ldd	r18, Y+12	; 0x0c
    20b6:	22 ff       	sbrs	r18, 2
    20b8:	16 c0       	rjmp	.+44     	; 0x20e6 <vfprintf+0x368>
    20ba:	21 ff       	sbrs	r18, 1
    20bc:	03 c0       	rjmp	.+6      	; 0x20c4 <vfprintf+0x346>
    20be:	88 e5       	ldi	r24, 0x58	; 88
    20c0:	90 e0       	ldi	r25, 0x00	; 0
    20c2:	02 c0       	rjmp	.+4      	; 0x20c8 <vfprintf+0x34a>
    20c4:	88 e7       	ldi	r24, 0x78	; 120
    20c6:	90 e0       	ldi	r25, 0x00	; 0
    20c8:	b7 01       	movw	r22, r14
    20ca:	0c c0       	rjmp	.+24     	; 0x20e4 <vfprintf+0x366>
    20cc:	82 2f       	mov	r24, r18
    20ce:	86 78       	andi	r24, 0x86	; 134
    20d0:	51 f0       	breq	.+20     	; 0x20e6 <vfprintf+0x368>
    20d2:	21 fd       	sbrc	r18, 1
    20d4:	02 c0       	rjmp	.+4      	; 0x20da <vfprintf+0x35c>
    20d6:	80 e2       	ldi	r24, 0x20	; 32
    20d8:	01 c0       	rjmp	.+2      	; 0x20dc <vfprintf+0x35e>
    20da:	8b e2       	ldi	r24, 0x2B	; 43
    20dc:	27 fd       	sbrc	r18, 7
    20de:	8d e2       	ldi	r24, 0x2D	; 45
    20e0:	b7 01       	movw	r22, r14
    20e2:	90 e0       	ldi	r25, 0x00	; 0
    20e4:	50 d0       	rcall	.+160    	; 0x2186 <fputc>
    20e6:	a5 14       	cp	r10, r5
    20e8:	30 f4       	brcc	.+12     	; 0x20f6 <vfprintf+0x378>
    20ea:	b7 01       	movw	r22, r14
    20ec:	80 e3       	ldi	r24, 0x30	; 48
    20ee:	90 e0       	ldi	r25, 0x00	; 0
    20f0:	4a d0       	rcall	.+148    	; 0x2186 <fputc>
    20f2:	5a 94       	dec	r5
    20f4:	f8 cf       	rjmp	.-16     	; 0x20e6 <vfprintf+0x368>
    20f6:	aa 94       	dec	r10
    20f8:	f4 01       	movw	r30, r8
    20fa:	ea 0d       	add	r30, r10
    20fc:	f1 1d       	adc	r31, r1
    20fe:	80 81       	ld	r24, Z
    2100:	b7 01       	movw	r22, r14
    2102:	90 e0       	ldi	r25, 0x00	; 0
    2104:	40 d0       	rcall	.+128    	; 0x2186 <fputc>
    2106:	a1 10       	cpse	r10, r1
    2108:	f6 cf       	rjmp	.-20     	; 0x20f6 <vfprintf+0x378>
    210a:	33 20       	and	r3, r3
    210c:	09 f4       	brne	.+2      	; 0x2110 <__stack+0x11>
    210e:	5d ce       	rjmp	.-838    	; 0x1dca <vfprintf+0x4c>
    2110:	b7 01       	movw	r22, r14
    2112:	80 e2       	ldi	r24, 0x20	; 32
    2114:	90 e0       	ldi	r25, 0x00	; 0
    2116:	37 d0       	rcall	.+110    	; 0x2186 <fputc>
    2118:	3a 94       	dec	r3
    211a:	f7 cf       	rjmp	.-18     	; 0x210a <__stack+0xb>
    211c:	f7 01       	movw	r30, r14
    211e:	86 81       	ldd	r24, Z+6	; 0x06
    2120:	97 81       	ldd	r25, Z+7	; 0x07
    2122:	02 c0       	rjmp	.+4      	; 0x2128 <__stack+0x29>
    2124:	8f ef       	ldi	r24, 0xFF	; 255
    2126:	9f ef       	ldi	r25, 0xFF	; 255
    2128:	2c 96       	adiw	r28, 0x0c	; 12
    212a:	0f b6       	in	r0, 0x3f	; 63
    212c:	f8 94       	cli
    212e:	de bf       	out	0x3e, r29	; 62
    2130:	0f be       	out	0x3f, r0	; 63
    2132:	cd bf       	out	0x3d, r28	; 61
    2134:	df 91       	pop	r29
    2136:	cf 91       	pop	r28
    2138:	1f 91       	pop	r17
    213a:	0f 91       	pop	r16
    213c:	ff 90       	pop	r15
    213e:	ef 90       	pop	r14
    2140:	df 90       	pop	r13
    2142:	cf 90       	pop	r12
    2144:	bf 90       	pop	r11
    2146:	af 90       	pop	r10
    2148:	9f 90       	pop	r9
    214a:	8f 90       	pop	r8
    214c:	7f 90       	pop	r7
    214e:	6f 90       	pop	r6
    2150:	5f 90       	pop	r5
    2152:	4f 90       	pop	r4
    2154:	3f 90       	pop	r3
    2156:	2f 90       	pop	r2
    2158:	08 95       	ret

0000215a <strnlen_P>:
    215a:	fc 01       	movw	r30, r24
    215c:	05 90       	lpm	r0, Z+
    215e:	61 50       	subi	r22, 0x01	; 1
    2160:	70 40       	sbci	r23, 0x00	; 0
    2162:	01 10       	cpse	r0, r1
    2164:	d8 f7       	brcc	.-10     	; 0x215c <strnlen_P+0x2>
    2166:	80 95       	com	r24
    2168:	90 95       	com	r25
    216a:	8e 0f       	add	r24, r30
    216c:	9f 1f       	adc	r25, r31
    216e:	08 95       	ret

00002170 <strnlen>:
    2170:	fc 01       	movw	r30, r24
    2172:	61 50       	subi	r22, 0x01	; 1
    2174:	70 40       	sbci	r23, 0x00	; 0
    2176:	01 90       	ld	r0, Z+
    2178:	01 10       	cpse	r0, r1
    217a:	d8 f7       	brcc	.-10     	; 0x2172 <strnlen+0x2>
    217c:	80 95       	com	r24
    217e:	90 95       	com	r25
    2180:	8e 0f       	add	r24, r30
    2182:	9f 1f       	adc	r25, r31
    2184:	08 95       	ret

00002186 <fputc>:
    2186:	0f 93       	push	r16
    2188:	1f 93       	push	r17
    218a:	cf 93       	push	r28
    218c:	df 93       	push	r29
    218e:	18 2f       	mov	r17, r24
    2190:	09 2f       	mov	r16, r25
    2192:	eb 01       	movw	r28, r22
    2194:	8b 81       	ldd	r24, Y+3	; 0x03
    2196:	81 fd       	sbrc	r24, 1
    2198:	03 c0       	rjmp	.+6      	; 0x21a0 <fputc+0x1a>
    219a:	8f ef       	ldi	r24, 0xFF	; 255
    219c:	9f ef       	ldi	r25, 0xFF	; 255
    219e:	20 c0       	rjmp	.+64     	; 0x21e0 <fputc+0x5a>
    21a0:	82 ff       	sbrs	r24, 2
    21a2:	10 c0       	rjmp	.+32     	; 0x21c4 <fputc+0x3e>
    21a4:	4e 81       	ldd	r20, Y+6	; 0x06
    21a6:	5f 81       	ldd	r21, Y+7	; 0x07
    21a8:	2c 81       	ldd	r18, Y+4	; 0x04
    21aa:	3d 81       	ldd	r19, Y+5	; 0x05
    21ac:	42 17       	cp	r20, r18
    21ae:	53 07       	cpc	r21, r19
    21b0:	7c f4       	brge	.+30     	; 0x21d0 <fputc+0x4a>
    21b2:	e8 81       	ld	r30, Y
    21b4:	f9 81       	ldd	r31, Y+1	; 0x01
    21b6:	9f 01       	movw	r18, r30
    21b8:	2f 5f       	subi	r18, 0xFF	; 255
    21ba:	3f 4f       	sbci	r19, 0xFF	; 255
    21bc:	39 83       	std	Y+1, r19	; 0x01
    21be:	28 83       	st	Y, r18
    21c0:	10 83       	st	Z, r17
    21c2:	06 c0       	rjmp	.+12     	; 0x21d0 <fputc+0x4a>
    21c4:	e8 85       	ldd	r30, Y+8	; 0x08
    21c6:	f9 85       	ldd	r31, Y+9	; 0x09
    21c8:	81 2f       	mov	r24, r17
    21ca:	09 95       	icall
    21cc:	89 2b       	or	r24, r25
    21ce:	29 f7       	brne	.-54     	; 0x219a <fputc+0x14>
    21d0:	2e 81       	ldd	r18, Y+6	; 0x06
    21d2:	3f 81       	ldd	r19, Y+7	; 0x07
    21d4:	2f 5f       	subi	r18, 0xFF	; 255
    21d6:	3f 4f       	sbci	r19, 0xFF	; 255
    21d8:	3f 83       	std	Y+7, r19	; 0x07
    21da:	2e 83       	std	Y+6, r18	; 0x06
    21dc:	81 2f       	mov	r24, r17
    21de:	90 2f       	mov	r25, r16
    21e0:	df 91       	pop	r29
    21e2:	cf 91       	pop	r28
    21e4:	1f 91       	pop	r17
    21e6:	0f 91       	pop	r16
    21e8:	08 95       	ret

000021ea <__ultoa_invert>:
    21ea:	fa 01       	movw	r30, r20
    21ec:	aa 27       	eor	r26, r26
    21ee:	28 30       	cpi	r18, 0x08	; 8
    21f0:	51 f1       	breq	.+84     	; 0x2246 <__ultoa_invert+0x5c>
    21f2:	20 31       	cpi	r18, 0x10	; 16
    21f4:	81 f1       	breq	.+96     	; 0x2256 <__ultoa_invert+0x6c>
    21f6:	e8 94       	clt
    21f8:	6f 93       	push	r22
    21fa:	6e 7f       	andi	r22, 0xFE	; 254
    21fc:	6e 5f       	subi	r22, 0xFE	; 254
    21fe:	7f 4f       	sbci	r23, 0xFF	; 255
    2200:	8f 4f       	sbci	r24, 0xFF	; 255
    2202:	9f 4f       	sbci	r25, 0xFF	; 255
    2204:	af 4f       	sbci	r26, 0xFF	; 255
    2206:	b1 e0       	ldi	r27, 0x01	; 1
    2208:	3e d0       	rcall	.+124    	; 0x2286 <__ultoa_invert+0x9c>
    220a:	b4 e0       	ldi	r27, 0x04	; 4
    220c:	3c d0       	rcall	.+120    	; 0x2286 <__ultoa_invert+0x9c>
    220e:	67 0f       	add	r22, r23
    2210:	78 1f       	adc	r23, r24
    2212:	89 1f       	adc	r24, r25
    2214:	9a 1f       	adc	r25, r26
    2216:	a1 1d       	adc	r26, r1
    2218:	68 0f       	add	r22, r24
    221a:	79 1f       	adc	r23, r25
    221c:	8a 1f       	adc	r24, r26
    221e:	91 1d       	adc	r25, r1
    2220:	a1 1d       	adc	r26, r1
    2222:	6a 0f       	add	r22, r26
    2224:	71 1d       	adc	r23, r1
    2226:	81 1d       	adc	r24, r1
    2228:	91 1d       	adc	r25, r1
    222a:	a1 1d       	adc	r26, r1
    222c:	20 d0       	rcall	.+64     	; 0x226e <__ultoa_invert+0x84>
    222e:	09 f4       	brne	.+2      	; 0x2232 <__ultoa_invert+0x48>
    2230:	68 94       	set
    2232:	3f 91       	pop	r19
    2234:	2a e0       	ldi	r18, 0x0A	; 10
    2236:	26 9f       	mul	r18, r22
    2238:	11 24       	eor	r1, r1
    223a:	30 19       	sub	r19, r0
    223c:	30 5d       	subi	r19, 0xD0	; 208
    223e:	31 93       	st	Z+, r19
    2240:	de f6       	brtc	.-74     	; 0x21f8 <__ultoa_invert+0xe>
    2242:	cf 01       	movw	r24, r30
    2244:	08 95       	ret
    2246:	46 2f       	mov	r20, r22
    2248:	47 70       	andi	r20, 0x07	; 7
    224a:	40 5d       	subi	r20, 0xD0	; 208
    224c:	41 93       	st	Z+, r20
    224e:	b3 e0       	ldi	r27, 0x03	; 3
    2250:	0f d0       	rcall	.+30     	; 0x2270 <__ultoa_invert+0x86>
    2252:	c9 f7       	brne	.-14     	; 0x2246 <__ultoa_invert+0x5c>
    2254:	f6 cf       	rjmp	.-20     	; 0x2242 <__ultoa_invert+0x58>
    2256:	46 2f       	mov	r20, r22
    2258:	4f 70       	andi	r20, 0x0F	; 15
    225a:	40 5d       	subi	r20, 0xD0	; 208
    225c:	4a 33       	cpi	r20, 0x3A	; 58
    225e:	18 f0       	brcs	.+6      	; 0x2266 <__ultoa_invert+0x7c>
    2260:	49 5d       	subi	r20, 0xD9	; 217
    2262:	31 fd       	sbrc	r19, 1
    2264:	40 52       	subi	r20, 0x20	; 32
    2266:	41 93       	st	Z+, r20
    2268:	02 d0       	rcall	.+4      	; 0x226e <__ultoa_invert+0x84>
    226a:	a9 f7       	brne	.-22     	; 0x2256 <__ultoa_invert+0x6c>
    226c:	ea cf       	rjmp	.-44     	; 0x2242 <__ultoa_invert+0x58>
    226e:	b4 e0       	ldi	r27, 0x04	; 4
    2270:	a6 95       	lsr	r26
    2272:	97 95       	ror	r25
    2274:	87 95       	ror	r24
    2276:	77 95       	ror	r23
    2278:	67 95       	ror	r22
    227a:	ba 95       	dec	r27
    227c:	c9 f7       	brne	.-14     	; 0x2270 <__ultoa_invert+0x86>
    227e:	00 97       	sbiw	r24, 0x00	; 0
    2280:	61 05       	cpc	r22, r1
    2282:	71 05       	cpc	r23, r1
    2284:	08 95       	ret
    2286:	9b 01       	movw	r18, r22
    2288:	ac 01       	movw	r20, r24
    228a:	0a 2e       	mov	r0, r26
    228c:	06 94       	lsr	r0
    228e:	57 95       	ror	r21
    2290:	47 95       	ror	r20
    2292:	37 95       	ror	r19
    2294:	27 95       	ror	r18
    2296:	ba 95       	dec	r27
    2298:	c9 f7       	brne	.-14     	; 0x228c <__ultoa_invert+0xa2>
    229a:	62 0f       	add	r22, r18
    229c:	73 1f       	adc	r23, r19
    229e:	84 1f       	adc	r24, r20
    22a0:	95 1f       	adc	r25, r21
    22a2:	a0 1d       	adc	r26, r0
    22a4:	08 95       	ret

000022a6 <_exit>:
    22a6:	f8 94       	cli

000022a8 <__stop_program>:
    22a8:	ff cf       	rjmp	.-2      	; 0x22a8 <__stop_program>
